
Anemometer.elf:     file format elf32-littlearm

Sections:
Idx Name          Size      VMA       LMA       File off  Algn
  0 .isr_vector   0000010c  08000000  08000000  00010000  2**0
                  CONTENTS, ALLOC, LOAD, READONLY, DATA
  1 .text         000067ac  08000110  08000110  00010110  2**3
                  CONTENTS, ALLOC, LOAD, READONLY, CODE
  2 .rodata       00000444  080068c0  080068c0  000168c0  2**3
                  CONTENTS, ALLOC, LOAD, READONLY, DATA
  3 .ARM.extab    00000000  08006d04  08006d04  000201e0  2**0
                  CONTENTS
  4 .ARM          00000000  08006d04  08006d04  000201e0  2**0
                  CONTENTS
  5 .preinit_array 00000000  08006d04  08006d04  000201e0  2**0
                  CONTENTS, ALLOC, LOAD, DATA
  6 .init_array   00000004  08006d04  08006d04  00016d04  2**2
                  CONTENTS, ALLOC, LOAD, DATA
  7 .fini_array   00000004  08006d08  08006d08  00016d08  2**2
                  CONTENTS, ALLOC, LOAD, DATA
  8 .data         000001e0  20000000  08006d0c  00020000  2**2
                  CONTENTS, ALLOC, LOAD, DATA
  9 .bss          0000033c  200001e0  08006eec  000201e0  2**3
                  ALLOC
 10 ._user_heap_stack 00000604  2000051c  08006eec  0002051c  2**0
                  ALLOC
 11 .ARM.attributes 00000029  00000000  00000000  000201e0  2**0
                  CONTENTS, READONLY
 12 .comment      00000053  00000000  00000000  00020209  2**0
                  CONTENTS, READONLY
 13 .debug_frame  00001330  00000000  00000000  0002025c  2**2
                  CONTENTS, READONLY, DEBUGGING, OCTETS

Disassembly of section .text:

08000110 <__do_global_dtors_aux>:
 8000110:	b510      	push	{r4, lr}
 8000112:	4c05      	ldr	r4, [pc, #20]	; (8000128 <__do_global_dtors_aux+0x18>)
 8000114:	7823      	ldrb	r3, [r4, #0]
 8000116:	b933      	cbnz	r3, 8000126 <__do_global_dtors_aux+0x16>
 8000118:	4b04      	ldr	r3, [pc, #16]	; (800012c <__do_global_dtors_aux+0x1c>)
 800011a:	b113      	cbz	r3, 8000122 <__do_global_dtors_aux+0x12>
 800011c:	4804      	ldr	r0, [pc, #16]	; (8000130 <__do_global_dtors_aux+0x20>)
 800011e:	f3af 8000 	nop.w
 8000122:	2301      	movs	r3, #1
 8000124:	7023      	strb	r3, [r4, #0]
 8000126:	bd10      	pop	{r4, pc}
 8000128:	200001e0 	.word	0x200001e0
 800012c:	00000000 	.word	0x00000000
 8000130:	080068a4 	.word	0x080068a4

08000134 <frame_dummy>:
 8000134:	b508      	push	{r3, lr}
 8000136:	4b03      	ldr	r3, [pc, #12]	; (8000144 <frame_dummy+0x10>)
 8000138:	b11b      	cbz	r3, 8000142 <frame_dummy+0xe>
 800013a:	4903      	ldr	r1, [pc, #12]	; (8000148 <frame_dummy+0x14>)
 800013c:	4803      	ldr	r0, [pc, #12]	; (800014c <frame_dummy+0x18>)
 800013e:	f3af 8000 	nop.w
 8000142:	bd08      	pop	{r3, pc}
 8000144:	00000000 	.word	0x00000000
 8000148:	200001e4 	.word	0x200001e4
 800014c:	080068a4 	.word	0x080068a4

08000150 <strlen>:
 8000150:	4603      	mov	r3, r0
 8000152:	f813 2b01 	ldrb.w	r2, [r3], #1
 8000156:	2a00      	cmp	r2, #0
 8000158:	d1fb      	bne.n	8000152 <strlen+0x2>
 800015a:	1a18      	subs	r0, r3, r0
 800015c:	3801      	subs	r0, #1
 800015e:	4770      	bx	lr

08000160 <__aeabi_drsub>:
 8000160:	f081 4100 	eor.w	r1, r1, #2147483648	; 0x80000000
 8000164:	e002      	b.n	800016c <__adddf3>
 8000166:	bf00      	nop

08000168 <__aeabi_dsub>:
 8000168:	f083 4300 	eor.w	r3, r3, #2147483648	; 0x80000000

0800016c <__adddf3>:
 800016c:	b530      	push	{r4, r5, lr}
 800016e:	ea4f 0441 	mov.w	r4, r1, lsl #1
 8000172:	ea4f 0543 	mov.w	r5, r3, lsl #1
 8000176:	ea94 0f05 	teq	r4, r5
 800017a:	bf08      	it	eq
 800017c:	ea90 0f02 	teqeq	r0, r2
 8000180:	bf1f      	itttt	ne
 8000182:	ea54 0c00 	orrsne.w	ip, r4, r0
 8000186:	ea55 0c02 	orrsne.w	ip, r5, r2
 800018a:	ea7f 5c64 	mvnsne.w	ip, r4, asr #21
 800018e:	ea7f 5c65 	mvnsne.w	ip, r5, asr #21
 8000192:	f000 80e2 	beq.w	800035a <__adddf3+0x1ee>
 8000196:	ea4f 5454 	mov.w	r4, r4, lsr #21
 800019a:	ebd4 5555 	rsbs	r5, r4, r5, lsr #21
 800019e:	bfb8      	it	lt
 80001a0:	426d      	neglt	r5, r5
 80001a2:	dd0c      	ble.n	80001be <__adddf3+0x52>
 80001a4:	442c      	add	r4, r5
 80001a6:	ea80 0202 	eor.w	r2, r0, r2
 80001aa:	ea81 0303 	eor.w	r3, r1, r3
 80001ae:	ea82 0000 	eor.w	r0, r2, r0
 80001b2:	ea83 0101 	eor.w	r1, r3, r1
 80001b6:	ea80 0202 	eor.w	r2, r0, r2
 80001ba:	ea81 0303 	eor.w	r3, r1, r3
 80001be:	2d36      	cmp	r5, #54	; 0x36
 80001c0:	bf88      	it	hi
 80001c2:	bd30      	pophi	{r4, r5, pc}
 80001c4:	f011 4f00 	tst.w	r1, #2147483648	; 0x80000000
 80001c8:	ea4f 3101 	mov.w	r1, r1, lsl #12
 80001cc:	f44f 1c80 	mov.w	ip, #1048576	; 0x100000
 80001d0:	ea4c 3111 	orr.w	r1, ip, r1, lsr #12
 80001d4:	d002      	beq.n	80001dc <__adddf3+0x70>
 80001d6:	4240      	negs	r0, r0
 80001d8:	eb61 0141 	sbc.w	r1, r1, r1, lsl #1
 80001dc:	f013 4f00 	tst.w	r3, #2147483648	; 0x80000000
 80001e0:	ea4f 3303 	mov.w	r3, r3, lsl #12
 80001e4:	ea4c 3313 	orr.w	r3, ip, r3, lsr #12
 80001e8:	d002      	beq.n	80001f0 <__adddf3+0x84>
 80001ea:	4252      	negs	r2, r2
 80001ec:	eb63 0343 	sbc.w	r3, r3, r3, lsl #1
 80001f0:	ea94 0f05 	teq	r4, r5
 80001f4:	f000 80a7 	beq.w	8000346 <__adddf3+0x1da>
 80001f8:	f1a4 0401 	sub.w	r4, r4, #1
 80001fc:	f1d5 0e20 	rsbs	lr, r5, #32
 8000200:	db0d      	blt.n	800021e <__adddf3+0xb2>
 8000202:	fa02 fc0e 	lsl.w	ip, r2, lr
 8000206:	fa22 f205 	lsr.w	r2, r2, r5
 800020a:	1880      	adds	r0, r0, r2
 800020c:	f141 0100 	adc.w	r1, r1, #0
 8000210:	fa03 f20e 	lsl.w	r2, r3, lr
 8000214:	1880      	adds	r0, r0, r2
 8000216:	fa43 f305 	asr.w	r3, r3, r5
 800021a:	4159      	adcs	r1, r3
 800021c:	e00e      	b.n	800023c <__adddf3+0xd0>
 800021e:	f1a5 0520 	sub.w	r5, r5, #32
 8000222:	f10e 0e20 	add.w	lr, lr, #32
 8000226:	2a01      	cmp	r2, #1
 8000228:	fa03 fc0e 	lsl.w	ip, r3, lr
 800022c:	bf28      	it	cs
 800022e:	f04c 0c02 	orrcs.w	ip, ip, #2
 8000232:	fa43 f305 	asr.w	r3, r3, r5
 8000236:	18c0      	adds	r0, r0, r3
 8000238:	eb51 71e3 	adcs.w	r1, r1, r3, asr #31
 800023c:	f001 4500 	and.w	r5, r1, #2147483648	; 0x80000000
 8000240:	d507      	bpl.n	8000252 <__adddf3+0xe6>
 8000242:	f04f 0e00 	mov.w	lr, #0
 8000246:	f1dc 0c00 	rsbs	ip, ip, #0
 800024a:	eb7e 0000 	sbcs.w	r0, lr, r0
 800024e:	eb6e 0101 	sbc.w	r1, lr, r1
 8000252:	f5b1 1f80 	cmp.w	r1, #1048576	; 0x100000
 8000256:	d31b      	bcc.n	8000290 <__adddf3+0x124>
 8000258:	f5b1 1f00 	cmp.w	r1, #2097152	; 0x200000
 800025c:	d30c      	bcc.n	8000278 <__adddf3+0x10c>
 800025e:	0849      	lsrs	r1, r1, #1
 8000260:	ea5f 0030 	movs.w	r0, r0, rrx
 8000264:	ea4f 0c3c 	mov.w	ip, ip, rrx
 8000268:	f104 0401 	add.w	r4, r4, #1
 800026c:	ea4f 5244 	mov.w	r2, r4, lsl #21
 8000270:	f512 0f80 	cmn.w	r2, #4194304	; 0x400000
 8000274:	f080 809a 	bcs.w	80003ac <__adddf3+0x240>
 8000278:	f1bc 4f00 	cmp.w	ip, #2147483648	; 0x80000000
 800027c:	bf08      	it	eq
 800027e:	ea5f 0c50 	movseq.w	ip, r0, lsr #1
 8000282:	f150 0000 	adcs.w	r0, r0, #0
 8000286:	eb41 5104 	adc.w	r1, r1, r4, lsl #20
 800028a:	ea41 0105 	orr.w	r1, r1, r5
 800028e:	bd30      	pop	{r4, r5, pc}
 8000290:	ea5f 0c4c 	movs.w	ip, ip, lsl #1
 8000294:	4140      	adcs	r0, r0
 8000296:	eb41 0101 	adc.w	r1, r1, r1
 800029a:	3c01      	subs	r4, #1
 800029c:	bf28      	it	cs
 800029e:	f5b1 1f80 	cmpcs.w	r1, #1048576	; 0x100000
 80002a2:	d2e9      	bcs.n	8000278 <__adddf3+0x10c>
 80002a4:	f091 0f00 	teq	r1, #0
 80002a8:	bf04      	itt	eq
 80002aa:	4601      	moveq	r1, r0
 80002ac:	2000      	moveq	r0, #0
 80002ae:	fab1 f381 	clz	r3, r1
 80002b2:	bf08      	it	eq
 80002b4:	3320      	addeq	r3, #32
 80002b6:	f1a3 030b 	sub.w	r3, r3, #11
 80002ba:	f1b3 0220 	subs.w	r2, r3, #32
 80002be:	da0c      	bge.n	80002da <__adddf3+0x16e>
 80002c0:	320c      	adds	r2, #12
 80002c2:	dd08      	ble.n	80002d6 <__adddf3+0x16a>
 80002c4:	f102 0c14 	add.w	ip, r2, #20
 80002c8:	f1c2 020c 	rsb	r2, r2, #12
 80002cc:	fa01 f00c 	lsl.w	r0, r1, ip
 80002d0:	fa21 f102 	lsr.w	r1, r1, r2
 80002d4:	e00c      	b.n	80002f0 <__adddf3+0x184>
 80002d6:	f102 0214 	add.w	r2, r2, #20
 80002da:	bfd8      	it	le
 80002dc:	f1c2 0c20 	rsble	ip, r2, #32
 80002e0:	fa01 f102 	lsl.w	r1, r1, r2
 80002e4:	fa20 fc0c 	lsr.w	ip, r0, ip
 80002e8:	bfdc      	itt	le
 80002ea:	ea41 010c 	orrle.w	r1, r1, ip
 80002ee:	4090      	lslle	r0, r2
 80002f0:	1ae4      	subs	r4, r4, r3
 80002f2:	bfa2      	ittt	ge
 80002f4:	eb01 5104 	addge.w	r1, r1, r4, lsl #20
 80002f8:	4329      	orrge	r1, r5
 80002fa:	bd30      	popge	{r4, r5, pc}
 80002fc:	ea6f 0404 	mvn.w	r4, r4
 8000300:	3c1f      	subs	r4, #31
 8000302:	da1c      	bge.n	800033e <__adddf3+0x1d2>
 8000304:	340c      	adds	r4, #12
 8000306:	dc0e      	bgt.n	8000326 <__adddf3+0x1ba>
 8000308:	f104 0414 	add.w	r4, r4, #20
 800030c:	f1c4 0220 	rsb	r2, r4, #32
 8000310:	fa20 f004 	lsr.w	r0, r0, r4
 8000314:	fa01 f302 	lsl.w	r3, r1, r2
 8000318:	ea40 0003 	orr.w	r0, r0, r3
 800031c:	fa21 f304 	lsr.w	r3, r1, r4
 8000320:	ea45 0103 	orr.w	r1, r5, r3
 8000324:	bd30      	pop	{r4, r5, pc}
 8000326:	f1c4 040c 	rsb	r4, r4, #12
 800032a:	f1c4 0220 	rsb	r2, r4, #32
 800032e:	fa20 f002 	lsr.w	r0, r0, r2
 8000332:	fa01 f304 	lsl.w	r3, r1, r4
 8000336:	ea40 0003 	orr.w	r0, r0, r3
 800033a:	4629      	mov	r1, r5
 800033c:	bd30      	pop	{r4, r5, pc}
 800033e:	fa21 f004 	lsr.w	r0, r1, r4
 8000342:	4629      	mov	r1, r5
 8000344:	bd30      	pop	{r4, r5, pc}
 8000346:	f094 0f00 	teq	r4, #0
 800034a:	f483 1380 	eor.w	r3, r3, #1048576	; 0x100000
 800034e:	bf06      	itte	eq
 8000350:	f481 1180 	eoreq.w	r1, r1, #1048576	; 0x100000
 8000354:	3401      	addeq	r4, #1
 8000356:	3d01      	subne	r5, #1
 8000358:	e74e      	b.n	80001f8 <__adddf3+0x8c>
 800035a:	ea7f 5c64 	mvns.w	ip, r4, asr #21
 800035e:	bf18      	it	ne
 8000360:	ea7f 5c65 	mvnsne.w	ip, r5, asr #21
 8000364:	d029      	beq.n	80003ba <__adddf3+0x24e>
 8000366:	ea94 0f05 	teq	r4, r5
 800036a:	bf08      	it	eq
 800036c:	ea90 0f02 	teqeq	r0, r2
 8000370:	d005      	beq.n	800037e <__adddf3+0x212>
 8000372:	ea54 0c00 	orrs.w	ip, r4, r0
 8000376:	bf04      	itt	eq
 8000378:	4619      	moveq	r1, r3
 800037a:	4610      	moveq	r0, r2
 800037c:	bd30      	pop	{r4, r5, pc}
 800037e:	ea91 0f03 	teq	r1, r3
 8000382:	bf1e      	ittt	ne
 8000384:	2100      	movne	r1, #0
 8000386:	2000      	movne	r0, #0
 8000388:	bd30      	popne	{r4, r5, pc}
 800038a:	ea5f 5c54 	movs.w	ip, r4, lsr #21
 800038e:	d105      	bne.n	800039c <__adddf3+0x230>
 8000390:	0040      	lsls	r0, r0, #1
 8000392:	4149      	adcs	r1, r1
 8000394:	bf28      	it	cs
 8000396:	f041 4100 	orrcs.w	r1, r1, #2147483648	; 0x80000000
 800039a:	bd30      	pop	{r4, r5, pc}
 800039c:	f514 0480 	adds.w	r4, r4, #4194304	; 0x400000
 80003a0:	bf3c      	itt	cc
 80003a2:	f501 1180 	addcc.w	r1, r1, #1048576	; 0x100000
 80003a6:	bd30      	popcc	{r4, r5, pc}
 80003a8:	f001 4500 	and.w	r5, r1, #2147483648	; 0x80000000
 80003ac:	f045 41fe 	orr.w	r1, r5, #2130706432	; 0x7f000000
 80003b0:	f441 0170 	orr.w	r1, r1, #15728640	; 0xf00000
 80003b4:	f04f 0000 	mov.w	r0, #0
 80003b8:	bd30      	pop	{r4, r5, pc}
 80003ba:	ea7f 5c64 	mvns.w	ip, r4, asr #21
 80003be:	bf1a      	itte	ne
 80003c0:	4619      	movne	r1, r3
 80003c2:	4610      	movne	r0, r2
 80003c4:	ea7f 5c65 	mvnseq.w	ip, r5, asr #21
 80003c8:	bf1c      	itt	ne
 80003ca:	460b      	movne	r3, r1
 80003cc:	4602      	movne	r2, r0
 80003ce:	ea50 3401 	orrs.w	r4, r0, r1, lsl #12
 80003d2:	bf06      	itte	eq
 80003d4:	ea52 3503 	orrseq.w	r5, r2, r3, lsl #12
 80003d8:	ea91 0f03 	teqeq	r1, r3
 80003dc:	f441 2100 	orrne.w	r1, r1, #524288	; 0x80000
 80003e0:	bd30      	pop	{r4, r5, pc}
 80003e2:	bf00      	nop

080003e4 <__aeabi_ui2d>:
 80003e4:	f090 0f00 	teq	r0, #0
 80003e8:	bf04      	itt	eq
 80003ea:	2100      	moveq	r1, #0
 80003ec:	4770      	bxeq	lr
 80003ee:	b530      	push	{r4, r5, lr}
 80003f0:	f44f 6480 	mov.w	r4, #1024	; 0x400
 80003f4:	f104 0432 	add.w	r4, r4, #50	; 0x32
 80003f8:	f04f 0500 	mov.w	r5, #0
 80003fc:	f04f 0100 	mov.w	r1, #0
 8000400:	e750      	b.n	80002a4 <__adddf3+0x138>
 8000402:	bf00      	nop

08000404 <__aeabi_i2d>:
 8000404:	f090 0f00 	teq	r0, #0
 8000408:	bf04      	itt	eq
 800040a:	2100      	moveq	r1, #0
 800040c:	4770      	bxeq	lr
 800040e:	b530      	push	{r4, r5, lr}
 8000410:	f44f 6480 	mov.w	r4, #1024	; 0x400
 8000414:	f104 0432 	add.w	r4, r4, #50	; 0x32
 8000418:	f010 4500 	ands.w	r5, r0, #2147483648	; 0x80000000
 800041c:	bf48      	it	mi
 800041e:	4240      	negmi	r0, r0
 8000420:	f04f 0100 	mov.w	r1, #0
 8000424:	e73e      	b.n	80002a4 <__adddf3+0x138>
 8000426:	bf00      	nop

08000428 <__aeabi_f2d>:
 8000428:	0042      	lsls	r2, r0, #1
 800042a:	ea4f 01e2 	mov.w	r1, r2, asr #3
 800042e:	ea4f 0131 	mov.w	r1, r1, rrx
 8000432:	ea4f 7002 	mov.w	r0, r2, lsl #28
 8000436:	bf1f      	itttt	ne
 8000438:	f012 437f 	andsne.w	r3, r2, #4278190080	; 0xff000000
 800043c:	f093 4f7f 	teqne	r3, #4278190080	; 0xff000000
 8000440:	f081 5160 	eorne.w	r1, r1, #939524096	; 0x38000000
 8000444:	4770      	bxne	lr
 8000446:	f032 427f 	bics.w	r2, r2, #4278190080	; 0xff000000
 800044a:	bf08      	it	eq
 800044c:	4770      	bxeq	lr
 800044e:	f093 4f7f 	teq	r3, #4278190080	; 0xff000000
 8000452:	bf04      	itt	eq
 8000454:	f441 2100 	orreq.w	r1, r1, #524288	; 0x80000
 8000458:	4770      	bxeq	lr
 800045a:	b530      	push	{r4, r5, lr}
 800045c:	f44f 7460 	mov.w	r4, #896	; 0x380
 8000460:	f001 4500 	and.w	r5, r1, #2147483648	; 0x80000000
 8000464:	f021 4100 	bic.w	r1, r1, #2147483648	; 0x80000000
 8000468:	e71c      	b.n	80002a4 <__adddf3+0x138>
 800046a:	bf00      	nop

0800046c <__aeabi_ul2d>:
 800046c:	ea50 0201 	orrs.w	r2, r0, r1
 8000470:	bf08      	it	eq
 8000472:	4770      	bxeq	lr
 8000474:	b530      	push	{r4, r5, lr}
 8000476:	f04f 0500 	mov.w	r5, #0
 800047a:	e00a      	b.n	8000492 <__aeabi_l2d+0x16>

0800047c <__aeabi_l2d>:
 800047c:	ea50 0201 	orrs.w	r2, r0, r1
 8000480:	bf08      	it	eq
 8000482:	4770      	bxeq	lr
 8000484:	b530      	push	{r4, r5, lr}
 8000486:	f011 4500 	ands.w	r5, r1, #2147483648	; 0x80000000
 800048a:	d502      	bpl.n	8000492 <__aeabi_l2d+0x16>
 800048c:	4240      	negs	r0, r0
 800048e:	eb61 0141 	sbc.w	r1, r1, r1, lsl #1
 8000492:	f44f 6480 	mov.w	r4, #1024	; 0x400
 8000496:	f104 0432 	add.w	r4, r4, #50	; 0x32
 800049a:	ea5f 5c91 	movs.w	ip, r1, lsr #22
 800049e:	f43f aed8 	beq.w	8000252 <__adddf3+0xe6>
 80004a2:	f04f 0203 	mov.w	r2, #3
 80004a6:	ea5f 0cdc 	movs.w	ip, ip, lsr #3
 80004aa:	bf18      	it	ne
 80004ac:	3203      	addne	r2, #3
 80004ae:	ea5f 0cdc 	movs.w	ip, ip, lsr #3
 80004b2:	bf18      	it	ne
 80004b4:	3203      	addne	r2, #3
 80004b6:	eb02 02dc 	add.w	r2, r2, ip, lsr #3
 80004ba:	f1c2 0320 	rsb	r3, r2, #32
 80004be:	fa00 fc03 	lsl.w	ip, r0, r3
 80004c2:	fa20 f002 	lsr.w	r0, r0, r2
 80004c6:	fa01 fe03 	lsl.w	lr, r1, r3
 80004ca:	ea40 000e 	orr.w	r0, r0, lr
 80004ce:	fa21 f102 	lsr.w	r1, r1, r2
 80004d2:	4414      	add	r4, r2
 80004d4:	e6bd      	b.n	8000252 <__adddf3+0xe6>
 80004d6:	bf00      	nop

080004d8 <__aeabi_dmul>:
 80004d8:	b570      	push	{r4, r5, r6, lr}
 80004da:	f04f 0cff 	mov.w	ip, #255	; 0xff
 80004de:	f44c 6ce0 	orr.w	ip, ip, #1792	; 0x700
 80004e2:	ea1c 5411 	ands.w	r4, ip, r1, lsr #20
 80004e6:	bf1d      	ittte	ne
 80004e8:	ea1c 5513 	andsne.w	r5, ip, r3, lsr #20
 80004ec:	ea94 0f0c 	teqne	r4, ip
 80004f0:	ea95 0f0c 	teqne	r5, ip
 80004f4:	f000 f8de 	bleq	80006b4 <__aeabi_dmul+0x1dc>
 80004f8:	442c      	add	r4, r5
 80004fa:	ea81 0603 	eor.w	r6, r1, r3
 80004fe:	ea21 514c 	bic.w	r1, r1, ip, lsl #21
 8000502:	ea23 534c 	bic.w	r3, r3, ip, lsl #21
 8000506:	ea50 3501 	orrs.w	r5, r0, r1, lsl #12
 800050a:	bf18      	it	ne
 800050c:	ea52 3503 	orrsne.w	r5, r2, r3, lsl #12
 8000510:	f441 1180 	orr.w	r1, r1, #1048576	; 0x100000
 8000514:	f443 1380 	orr.w	r3, r3, #1048576	; 0x100000
 8000518:	d038      	beq.n	800058c <__aeabi_dmul+0xb4>
 800051a:	fba0 ce02 	umull	ip, lr, r0, r2
 800051e:	f04f 0500 	mov.w	r5, #0
 8000522:	fbe1 e502 	umlal	lr, r5, r1, r2
 8000526:	f006 4200 	and.w	r2, r6, #2147483648	; 0x80000000
 800052a:	fbe0 e503 	umlal	lr, r5, r0, r3
 800052e:	f04f 0600 	mov.w	r6, #0
 8000532:	fbe1 5603 	umlal	r5, r6, r1, r3
 8000536:	f09c 0f00 	teq	ip, #0
 800053a:	bf18      	it	ne
 800053c:	f04e 0e01 	orrne.w	lr, lr, #1
 8000540:	f1a4 04ff 	sub.w	r4, r4, #255	; 0xff
 8000544:	f5b6 7f00 	cmp.w	r6, #512	; 0x200
 8000548:	f564 7440 	sbc.w	r4, r4, #768	; 0x300
 800054c:	d204      	bcs.n	8000558 <__aeabi_dmul+0x80>
 800054e:	ea5f 0e4e 	movs.w	lr, lr, lsl #1
 8000552:	416d      	adcs	r5, r5
 8000554:	eb46 0606 	adc.w	r6, r6, r6
 8000558:	ea42 21c6 	orr.w	r1, r2, r6, lsl #11
 800055c:	ea41 5155 	orr.w	r1, r1, r5, lsr #21
 8000560:	ea4f 20c5 	mov.w	r0, r5, lsl #11
 8000564:	ea40 505e 	orr.w	r0, r0, lr, lsr #21
 8000568:	ea4f 2ece 	mov.w	lr, lr, lsl #11
 800056c:	f1b4 0cfd 	subs.w	ip, r4, #253	; 0xfd
 8000570:	bf88      	it	hi
 8000572:	f5bc 6fe0 	cmphi.w	ip, #1792	; 0x700
 8000576:	d81e      	bhi.n	80005b6 <__aeabi_dmul+0xde>
 8000578:	f1be 4f00 	cmp.w	lr, #2147483648	; 0x80000000
 800057c:	bf08      	it	eq
 800057e:	ea5f 0e50 	movseq.w	lr, r0, lsr #1
 8000582:	f150 0000 	adcs.w	r0, r0, #0
 8000586:	eb41 5104 	adc.w	r1, r1, r4, lsl #20
 800058a:	bd70      	pop	{r4, r5, r6, pc}
 800058c:	f006 4600 	and.w	r6, r6, #2147483648	; 0x80000000
 8000590:	ea46 0101 	orr.w	r1, r6, r1
 8000594:	ea40 0002 	orr.w	r0, r0, r2
 8000598:	ea81 0103 	eor.w	r1, r1, r3
 800059c:	ebb4 045c 	subs.w	r4, r4, ip, lsr #1
 80005a0:	bfc2      	ittt	gt
 80005a2:	ebd4 050c 	rsbsgt	r5, r4, ip
 80005a6:	ea41 5104 	orrgt.w	r1, r1, r4, lsl #20
 80005aa:	bd70      	popgt	{r4, r5, r6, pc}
 80005ac:	f441 1180 	orr.w	r1, r1, #1048576	; 0x100000
 80005b0:	f04f 0e00 	mov.w	lr, #0
 80005b4:	3c01      	subs	r4, #1
 80005b6:	f300 80ab 	bgt.w	8000710 <__aeabi_dmul+0x238>
 80005ba:	f114 0f36 	cmn.w	r4, #54	; 0x36
 80005be:	bfde      	ittt	le
 80005c0:	2000      	movle	r0, #0
 80005c2:	f001 4100 	andle.w	r1, r1, #2147483648	; 0x80000000
 80005c6:	bd70      	pople	{r4, r5, r6, pc}
 80005c8:	f1c4 0400 	rsb	r4, r4, #0
 80005cc:	3c20      	subs	r4, #32
 80005ce:	da35      	bge.n	800063c <__aeabi_dmul+0x164>
 80005d0:	340c      	adds	r4, #12
 80005d2:	dc1b      	bgt.n	800060c <__aeabi_dmul+0x134>
 80005d4:	f104 0414 	add.w	r4, r4, #20
 80005d8:	f1c4 0520 	rsb	r5, r4, #32
 80005dc:	fa00 f305 	lsl.w	r3, r0, r5
 80005e0:	fa20 f004 	lsr.w	r0, r0, r4
 80005e4:	fa01 f205 	lsl.w	r2, r1, r5
 80005e8:	ea40 0002 	orr.w	r0, r0, r2
 80005ec:	f001 4200 	and.w	r2, r1, #2147483648	; 0x80000000
 80005f0:	f021 4100 	bic.w	r1, r1, #2147483648	; 0x80000000
 80005f4:	eb10 70d3 	adds.w	r0, r0, r3, lsr #31
 80005f8:	fa21 f604 	lsr.w	r6, r1, r4
 80005fc:	eb42 0106 	adc.w	r1, r2, r6
 8000600:	ea5e 0e43 	orrs.w	lr, lr, r3, lsl #1
 8000604:	bf08      	it	eq
 8000606:	ea20 70d3 	biceq.w	r0, r0, r3, lsr #31
 800060a:	bd70      	pop	{r4, r5, r6, pc}
 800060c:	f1c4 040c 	rsb	r4, r4, #12
 8000610:	f1c4 0520 	rsb	r5, r4, #32
 8000614:	fa00 f304 	lsl.w	r3, r0, r4
 8000618:	fa20 f005 	lsr.w	r0, r0, r5
 800061c:	fa01 f204 	lsl.w	r2, r1, r4
 8000620:	ea40 0002 	orr.w	r0, r0, r2
 8000624:	f001 4100 	and.w	r1, r1, #2147483648	; 0x80000000
 8000628:	eb10 70d3 	adds.w	r0, r0, r3, lsr #31
 800062c:	f141 0100 	adc.w	r1, r1, #0
 8000630:	ea5e 0e43 	orrs.w	lr, lr, r3, lsl #1
 8000634:	bf08      	it	eq
 8000636:	ea20 70d3 	biceq.w	r0, r0, r3, lsr #31
 800063a:	bd70      	pop	{r4, r5, r6, pc}
 800063c:	f1c4 0520 	rsb	r5, r4, #32
 8000640:	fa00 f205 	lsl.w	r2, r0, r5
 8000644:	ea4e 0e02 	orr.w	lr, lr, r2
 8000648:	fa20 f304 	lsr.w	r3, r0, r4
 800064c:	fa01 f205 	lsl.w	r2, r1, r5
 8000650:	ea43 0302 	orr.w	r3, r3, r2
 8000654:	fa21 f004 	lsr.w	r0, r1, r4
 8000658:	f001 4100 	and.w	r1, r1, #2147483648	; 0x80000000
 800065c:	fa21 f204 	lsr.w	r2, r1, r4
 8000660:	ea20 0002 	bic.w	r0, r0, r2
 8000664:	eb00 70d3 	add.w	r0, r0, r3, lsr #31
 8000668:	ea5e 0e43 	orrs.w	lr, lr, r3, lsl #1
 800066c:	bf08      	it	eq
 800066e:	ea20 70d3 	biceq.w	r0, r0, r3, lsr #31
 8000672:	bd70      	pop	{r4, r5, r6, pc}
 8000674:	f094 0f00 	teq	r4, #0
 8000678:	d10f      	bne.n	800069a <__aeabi_dmul+0x1c2>
 800067a:	f001 4600 	and.w	r6, r1, #2147483648	; 0x80000000
 800067e:	0040      	lsls	r0, r0, #1
 8000680:	eb41 0101 	adc.w	r1, r1, r1
 8000684:	f411 1f80 	tst.w	r1, #1048576	; 0x100000
 8000688:	bf08      	it	eq
 800068a:	3c01      	subeq	r4, #1
 800068c:	d0f7      	beq.n	800067e <__aeabi_dmul+0x1a6>
 800068e:	ea41 0106 	orr.w	r1, r1, r6
 8000692:	f095 0f00 	teq	r5, #0
 8000696:	bf18      	it	ne
 8000698:	4770      	bxne	lr
 800069a:	f003 4600 	and.w	r6, r3, #2147483648	; 0x80000000
 800069e:	0052      	lsls	r2, r2, #1
 80006a0:	eb43 0303 	adc.w	r3, r3, r3
 80006a4:	f413 1f80 	tst.w	r3, #1048576	; 0x100000
 80006a8:	bf08      	it	eq
 80006aa:	3d01      	subeq	r5, #1
 80006ac:	d0f7      	beq.n	800069e <__aeabi_dmul+0x1c6>
 80006ae:	ea43 0306 	orr.w	r3, r3, r6
 80006b2:	4770      	bx	lr
 80006b4:	ea94 0f0c 	teq	r4, ip
 80006b8:	ea0c 5513 	and.w	r5, ip, r3, lsr #20
 80006bc:	bf18      	it	ne
 80006be:	ea95 0f0c 	teqne	r5, ip
 80006c2:	d00c      	beq.n	80006de <__aeabi_dmul+0x206>
 80006c4:	ea50 0641 	orrs.w	r6, r0, r1, lsl #1
 80006c8:	bf18      	it	ne
 80006ca:	ea52 0643 	orrsne.w	r6, r2, r3, lsl #1
 80006ce:	d1d1      	bne.n	8000674 <__aeabi_dmul+0x19c>
 80006d0:	ea81 0103 	eor.w	r1, r1, r3
 80006d4:	f001 4100 	and.w	r1, r1, #2147483648	; 0x80000000
 80006d8:	f04f 0000 	mov.w	r0, #0
 80006dc:	bd70      	pop	{r4, r5, r6, pc}
 80006de:	ea50 0641 	orrs.w	r6, r0, r1, lsl #1
 80006e2:	bf06      	itte	eq
 80006e4:	4610      	moveq	r0, r2
 80006e6:	4619      	moveq	r1, r3
 80006e8:	ea52 0643 	orrsne.w	r6, r2, r3, lsl #1
 80006ec:	d019      	beq.n	8000722 <__aeabi_dmul+0x24a>
 80006ee:	ea94 0f0c 	teq	r4, ip
 80006f2:	d102      	bne.n	80006fa <__aeabi_dmul+0x222>
 80006f4:	ea50 3601 	orrs.w	r6, r0, r1, lsl #12
 80006f8:	d113      	bne.n	8000722 <__aeabi_dmul+0x24a>
 80006fa:	ea95 0f0c 	teq	r5, ip
 80006fe:	d105      	bne.n	800070c <__aeabi_dmul+0x234>
 8000700:	ea52 3603 	orrs.w	r6, r2, r3, lsl #12
 8000704:	bf1c      	itt	ne
 8000706:	4610      	movne	r0, r2
 8000708:	4619      	movne	r1, r3
 800070a:	d10a      	bne.n	8000722 <__aeabi_dmul+0x24a>
 800070c:	ea81 0103 	eor.w	r1, r1, r3
 8000710:	f001 4100 	and.w	r1, r1, #2147483648	; 0x80000000
 8000714:	f041 41fe 	orr.w	r1, r1, #2130706432	; 0x7f000000
 8000718:	f441 0170 	orr.w	r1, r1, #15728640	; 0xf00000
 800071c:	f04f 0000 	mov.w	r0, #0
 8000720:	bd70      	pop	{r4, r5, r6, pc}
 8000722:	f041 41fe 	orr.w	r1, r1, #2130706432	; 0x7f000000
 8000726:	f441 0178 	orr.w	r1, r1, #16252928	; 0xf80000
 800072a:	bd70      	pop	{r4, r5, r6, pc}

0800072c <__aeabi_ddiv>:
 800072c:	b570      	push	{r4, r5, r6, lr}
 800072e:	f04f 0cff 	mov.w	ip, #255	; 0xff
 8000732:	f44c 6ce0 	orr.w	ip, ip, #1792	; 0x700
 8000736:	ea1c 5411 	ands.w	r4, ip, r1, lsr #20
 800073a:	bf1d      	ittte	ne
 800073c:	ea1c 5513 	andsne.w	r5, ip, r3, lsr #20
 8000740:	ea94 0f0c 	teqne	r4, ip
 8000744:	ea95 0f0c 	teqne	r5, ip
 8000748:	f000 f8a7 	bleq	800089a <__aeabi_ddiv+0x16e>
 800074c:	eba4 0405 	sub.w	r4, r4, r5
 8000750:	ea81 0e03 	eor.w	lr, r1, r3
 8000754:	ea52 3503 	orrs.w	r5, r2, r3, lsl #12
 8000758:	ea4f 3101 	mov.w	r1, r1, lsl #12
 800075c:	f000 8088 	beq.w	8000870 <__aeabi_ddiv+0x144>
 8000760:	ea4f 3303 	mov.w	r3, r3, lsl #12
 8000764:	f04f 5580 	mov.w	r5, #268435456	; 0x10000000
 8000768:	ea45 1313 	orr.w	r3, r5, r3, lsr #4
 800076c:	ea43 6312 	orr.w	r3, r3, r2, lsr #24
 8000770:	ea4f 2202 	mov.w	r2, r2, lsl #8
 8000774:	ea45 1511 	orr.w	r5, r5, r1, lsr #4
 8000778:	ea45 6510 	orr.w	r5, r5, r0, lsr #24
 800077c:	ea4f 2600 	mov.w	r6, r0, lsl #8
 8000780:	f00e 4100 	and.w	r1, lr, #2147483648	; 0x80000000
 8000784:	429d      	cmp	r5, r3
 8000786:	bf08      	it	eq
 8000788:	4296      	cmpeq	r6, r2
 800078a:	f144 04fd 	adc.w	r4, r4, #253	; 0xfd
 800078e:	f504 7440 	add.w	r4, r4, #768	; 0x300
 8000792:	d202      	bcs.n	800079a <__aeabi_ddiv+0x6e>
 8000794:	085b      	lsrs	r3, r3, #1
 8000796:	ea4f 0232 	mov.w	r2, r2, rrx
 800079a:	1ab6      	subs	r6, r6, r2
 800079c:	eb65 0503 	sbc.w	r5, r5, r3
 80007a0:	085b      	lsrs	r3, r3, #1
 80007a2:	ea4f 0232 	mov.w	r2, r2, rrx
 80007a6:	f44f 1080 	mov.w	r0, #1048576	; 0x100000
 80007aa:	f44f 2c00 	mov.w	ip, #524288	; 0x80000
 80007ae:	ebb6 0e02 	subs.w	lr, r6, r2
 80007b2:	eb75 0e03 	sbcs.w	lr, r5, r3
 80007b6:	bf22      	ittt	cs
 80007b8:	1ab6      	subcs	r6, r6, r2
 80007ba:	4675      	movcs	r5, lr
 80007bc:	ea40 000c 	orrcs.w	r0, r0, ip
 80007c0:	085b      	lsrs	r3, r3, #1
 80007c2:	ea4f 0232 	mov.w	r2, r2, rrx
 80007c6:	ebb6 0e02 	subs.w	lr, r6, r2
 80007ca:	eb75 0e03 	sbcs.w	lr, r5, r3
 80007ce:	bf22      	ittt	cs
 80007d0:	1ab6      	subcs	r6, r6, r2
 80007d2:	4675      	movcs	r5, lr
 80007d4:	ea40 005c 	orrcs.w	r0, r0, ip, lsr #1
 80007d8:	085b      	lsrs	r3, r3, #1
 80007da:	ea4f 0232 	mov.w	r2, r2, rrx
 80007de:	ebb6 0e02 	subs.w	lr, r6, r2
 80007e2:	eb75 0e03 	sbcs.w	lr, r5, r3
 80007e6:	bf22      	ittt	cs
 80007e8:	1ab6      	subcs	r6, r6, r2
 80007ea:	4675      	movcs	r5, lr
 80007ec:	ea40 009c 	orrcs.w	r0, r0, ip, lsr #2
 80007f0:	085b      	lsrs	r3, r3, #1
 80007f2:	ea4f 0232 	mov.w	r2, r2, rrx
 80007f6:	ebb6 0e02 	subs.w	lr, r6, r2
 80007fa:	eb75 0e03 	sbcs.w	lr, r5, r3
 80007fe:	bf22      	ittt	cs
 8000800:	1ab6      	subcs	r6, r6, r2
 8000802:	4675      	movcs	r5, lr
 8000804:	ea40 00dc 	orrcs.w	r0, r0, ip, lsr #3
 8000808:	ea55 0e06 	orrs.w	lr, r5, r6
 800080c:	d018      	beq.n	8000840 <__aeabi_ddiv+0x114>
 800080e:	ea4f 1505 	mov.w	r5, r5, lsl #4
 8000812:	ea45 7516 	orr.w	r5, r5, r6, lsr #28
 8000816:	ea4f 1606 	mov.w	r6, r6, lsl #4
 800081a:	ea4f 03c3 	mov.w	r3, r3, lsl #3
 800081e:	ea43 7352 	orr.w	r3, r3, r2, lsr #29
 8000822:	ea4f 02c2 	mov.w	r2, r2, lsl #3
 8000826:	ea5f 1c1c 	movs.w	ip, ip, lsr #4
 800082a:	d1c0      	bne.n	80007ae <__aeabi_ddiv+0x82>
 800082c:	f411 1f80 	tst.w	r1, #1048576	; 0x100000
 8000830:	d10b      	bne.n	800084a <__aeabi_ddiv+0x11e>
 8000832:	ea41 0100 	orr.w	r1, r1, r0
 8000836:	f04f 0000 	mov.w	r0, #0
 800083a:	f04f 4c00 	mov.w	ip, #2147483648	; 0x80000000
 800083e:	e7b6      	b.n	80007ae <__aeabi_ddiv+0x82>
 8000840:	f411 1f80 	tst.w	r1, #1048576	; 0x100000
 8000844:	bf04      	itt	eq
 8000846:	4301      	orreq	r1, r0
 8000848:	2000      	moveq	r0, #0
 800084a:	f1b4 0cfd 	subs.w	ip, r4, #253	; 0xfd
 800084e:	bf88      	it	hi
 8000850:	f5bc 6fe0 	cmphi.w	ip, #1792	; 0x700
 8000854:	f63f aeaf 	bhi.w	80005b6 <__aeabi_dmul+0xde>
 8000858:	ebb5 0c03 	subs.w	ip, r5, r3
 800085c:	bf04      	itt	eq
 800085e:	ebb6 0c02 	subseq.w	ip, r6, r2
 8000862:	ea5f 0c50 	movseq.w	ip, r0, lsr #1
 8000866:	f150 0000 	adcs.w	r0, r0, #0
 800086a:	eb41 5104 	adc.w	r1, r1, r4, lsl #20
 800086e:	bd70      	pop	{r4, r5, r6, pc}
 8000870:	f00e 4e00 	and.w	lr, lr, #2147483648	; 0x80000000
 8000874:	ea4e 3111 	orr.w	r1, lr, r1, lsr #12
 8000878:	eb14 045c 	adds.w	r4, r4, ip, lsr #1
 800087c:	bfc2      	ittt	gt
 800087e:	ebd4 050c 	rsbsgt	r5, r4, ip
 8000882:	ea41 5104 	orrgt.w	r1, r1, r4, lsl #20
 8000886:	bd70      	popgt	{r4, r5, r6, pc}
 8000888:	f441 1180 	orr.w	r1, r1, #1048576	; 0x100000
 800088c:	f04f 0e00 	mov.w	lr, #0
 8000890:	3c01      	subs	r4, #1
 8000892:	e690      	b.n	80005b6 <__aeabi_dmul+0xde>
 8000894:	ea45 0e06 	orr.w	lr, r5, r6
 8000898:	e68d      	b.n	80005b6 <__aeabi_dmul+0xde>
 800089a:	ea0c 5513 	and.w	r5, ip, r3, lsr #20
 800089e:	ea94 0f0c 	teq	r4, ip
 80008a2:	bf08      	it	eq
 80008a4:	ea95 0f0c 	teqeq	r5, ip
 80008a8:	f43f af3b 	beq.w	8000722 <__aeabi_dmul+0x24a>
 80008ac:	ea94 0f0c 	teq	r4, ip
 80008b0:	d10a      	bne.n	80008c8 <__aeabi_ddiv+0x19c>
 80008b2:	ea50 3401 	orrs.w	r4, r0, r1, lsl #12
 80008b6:	f47f af34 	bne.w	8000722 <__aeabi_dmul+0x24a>
 80008ba:	ea95 0f0c 	teq	r5, ip
 80008be:	f47f af25 	bne.w	800070c <__aeabi_dmul+0x234>
 80008c2:	4610      	mov	r0, r2
 80008c4:	4619      	mov	r1, r3
 80008c6:	e72c      	b.n	8000722 <__aeabi_dmul+0x24a>
 80008c8:	ea95 0f0c 	teq	r5, ip
 80008cc:	d106      	bne.n	80008dc <__aeabi_ddiv+0x1b0>
 80008ce:	ea52 3503 	orrs.w	r5, r2, r3, lsl #12
 80008d2:	f43f aefd 	beq.w	80006d0 <__aeabi_dmul+0x1f8>
 80008d6:	4610      	mov	r0, r2
 80008d8:	4619      	mov	r1, r3
 80008da:	e722      	b.n	8000722 <__aeabi_dmul+0x24a>
 80008dc:	ea50 0641 	orrs.w	r6, r0, r1, lsl #1
 80008e0:	bf18      	it	ne
 80008e2:	ea52 0643 	orrsne.w	r6, r2, r3, lsl #1
 80008e6:	f47f aec5 	bne.w	8000674 <__aeabi_dmul+0x19c>
 80008ea:	ea50 0441 	orrs.w	r4, r0, r1, lsl #1
 80008ee:	f47f af0d 	bne.w	800070c <__aeabi_dmul+0x234>
 80008f2:	ea52 0543 	orrs.w	r5, r2, r3, lsl #1
 80008f6:	f47f aeeb 	bne.w	80006d0 <__aeabi_dmul+0x1f8>
 80008fa:	e712      	b.n	8000722 <__aeabi_dmul+0x24a>

080008fc <__gedf2>:
 80008fc:	f04f 3cff 	mov.w	ip, #4294967295	; 0xffffffff
 8000900:	e006      	b.n	8000910 <__cmpdf2+0x4>
 8000902:	bf00      	nop

08000904 <__ledf2>:
 8000904:	f04f 0c01 	mov.w	ip, #1
 8000908:	e002      	b.n	8000910 <__cmpdf2+0x4>
 800090a:	bf00      	nop

0800090c <__cmpdf2>:
 800090c:	f04f 0c01 	mov.w	ip, #1
 8000910:	f84d cd04 	str.w	ip, [sp, #-4]!
 8000914:	ea4f 0c41 	mov.w	ip, r1, lsl #1
 8000918:	ea7f 5c6c 	mvns.w	ip, ip, asr #21
 800091c:	ea4f 0c43 	mov.w	ip, r3, lsl #1
 8000920:	bf18      	it	ne
 8000922:	ea7f 5c6c 	mvnsne.w	ip, ip, asr #21
 8000926:	d01b      	beq.n	8000960 <__cmpdf2+0x54>
 8000928:	b001      	add	sp, #4
 800092a:	ea50 0c41 	orrs.w	ip, r0, r1, lsl #1
 800092e:	bf0c      	ite	eq
 8000930:	ea52 0c43 	orrseq.w	ip, r2, r3, lsl #1
 8000934:	ea91 0f03 	teqne	r1, r3
 8000938:	bf02      	ittt	eq
 800093a:	ea90 0f02 	teqeq	r0, r2
 800093e:	2000      	moveq	r0, #0
 8000940:	4770      	bxeq	lr
 8000942:	f110 0f00 	cmn.w	r0, #0
 8000946:	ea91 0f03 	teq	r1, r3
 800094a:	bf58      	it	pl
 800094c:	4299      	cmppl	r1, r3
 800094e:	bf08      	it	eq
 8000950:	4290      	cmpeq	r0, r2
 8000952:	bf2c      	ite	cs
 8000954:	17d8      	asrcs	r0, r3, #31
 8000956:	ea6f 70e3 	mvncc.w	r0, r3, asr #31
 800095a:	f040 0001 	orr.w	r0, r0, #1
 800095e:	4770      	bx	lr
 8000960:	ea4f 0c41 	mov.w	ip, r1, lsl #1
 8000964:	ea7f 5c6c 	mvns.w	ip, ip, asr #21
 8000968:	d102      	bne.n	8000970 <__cmpdf2+0x64>
 800096a:	ea50 3c01 	orrs.w	ip, r0, r1, lsl #12
 800096e:	d107      	bne.n	8000980 <__cmpdf2+0x74>
 8000970:	ea4f 0c43 	mov.w	ip, r3, lsl #1
 8000974:	ea7f 5c6c 	mvns.w	ip, ip, asr #21
 8000978:	d1d6      	bne.n	8000928 <__cmpdf2+0x1c>
 800097a:	ea52 3c03 	orrs.w	ip, r2, r3, lsl #12
 800097e:	d0d3      	beq.n	8000928 <__cmpdf2+0x1c>
 8000980:	f85d 0b04 	ldr.w	r0, [sp], #4
 8000984:	4770      	bx	lr
 8000986:	bf00      	nop

08000988 <__aeabi_cdrcmple>:
 8000988:	4684      	mov	ip, r0
 800098a:	4610      	mov	r0, r2
 800098c:	4662      	mov	r2, ip
 800098e:	468c      	mov	ip, r1
 8000990:	4619      	mov	r1, r3
 8000992:	4663      	mov	r3, ip
 8000994:	e000      	b.n	8000998 <__aeabi_cdcmpeq>
 8000996:	bf00      	nop

08000998 <__aeabi_cdcmpeq>:
 8000998:	b501      	push	{r0, lr}
 800099a:	f7ff ffb7 	bl	800090c <__cmpdf2>
 800099e:	2800      	cmp	r0, #0
 80009a0:	bf48      	it	mi
 80009a2:	f110 0f00 	cmnmi.w	r0, #0
 80009a6:	bd01      	pop	{r0, pc}

080009a8 <__aeabi_dcmpeq>:
 80009a8:	f84d ed08 	str.w	lr, [sp, #-8]!
 80009ac:	f7ff fff4 	bl	8000998 <__aeabi_cdcmpeq>
 80009b0:	bf0c      	ite	eq
 80009b2:	2001      	moveq	r0, #1
 80009b4:	2000      	movne	r0, #0
 80009b6:	f85d fb08 	ldr.w	pc, [sp], #8
 80009ba:	bf00      	nop

080009bc <__aeabi_dcmplt>:
 80009bc:	f84d ed08 	str.w	lr, [sp, #-8]!
 80009c0:	f7ff ffea 	bl	8000998 <__aeabi_cdcmpeq>
 80009c4:	bf34      	ite	cc
 80009c6:	2001      	movcc	r0, #1
 80009c8:	2000      	movcs	r0, #0
 80009ca:	f85d fb08 	ldr.w	pc, [sp], #8
 80009ce:	bf00      	nop

080009d0 <__aeabi_dcmple>:
 80009d0:	f84d ed08 	str.w	lr, [sp, #-8]!
 80009d4:	f7ff ffe0 	bl	8000998 <__aeabi_cdcmpeq>
 80009d8:	bf94      	ite	ls
 80009da:	2001      	movls	r0, #1
 80009dc:	2000      	movhi	r0, #0
 80009de:	f85d fb08 	ldr.w	pc, [sp], #8
 80009e2:	bf00      	nop

080009e4 <__aeabi_dcmpge>:
 80009e4:	f84d ed08 	str.w	lr, [sp, #-8]!
 80009e8:	f7ff ffce 	bl	8000988 <__aeabi_cdrcmple>
 80009ec:	bf94      	ite	ls
 80009ee:	2001      	movls	r0, #1
 80009f0:	2000      	movhi	r0, #0
 80009f2:	f85d fb08 	ldr.w	pc, [sp], #8
 80009f6:	bf00      	nop

080009f8 <__aeabi_dcmpgt>:
 80009f8:	f84d ed08 	str.w	lr, [sp, #-8]!
 80009fc:	f7ff ffc4 	bl	8000988 <__aeabi_cdrcmple>
 8000a00:	bf34      	ite	cc
 8000a02:	2001      	movcc	r0, #1
 8000a04:	2000      	movcs	r0, #0
 8000a06:	f85d fb08 	ldr.w	pc, [sp], #8
 8000a0a:	bf00      	nop

08000a0c <__aeabi_dcmpun>:
 8000a0c:	ea4f 0c41 	mov.w	ip, r1, lsl #1
 8000a10:	ea7f 5c6c 	mvns.w	ip, ip, asr #21
 8000a14:	d102      	bne.n	8000a1c <__aeabi_dcmpun+0x10>
 8000a16:	ea50 3c01 	orrs.w	ip, r0, r1, lsl #12
 8000a1a:	d10a      	bne.n	8000a32 <__aeabi_dcmpun+0x26>
 8000a1c:	ea4f 0c43 	mov.w	ip, r3, lsl #1
 8000a20:	ea7f 5c6c 	mvns.w	ip, ip, asr #21
 8000a24:	d102      	bne.n	8000a2c <__aeabi_dcmpun+0x20>
 8000a26:	ea52 3c03 	orrs.w	ip, r2, r3, lsl #12
 8000a2a:	d102      	bne.n	8000a32 <__aeabi_dcmpun+0x26>
 8000a2c:	f04f 0000 	mov.w	r0, #0
 8000a30:	4770      	bx	lr
 8000a32:	f04f 0001 	mov.w	r0, #1
 8000a36:	4770      	bx	lr

08000a38 <__aeabi_d2iz>:
 8000a38:	ea4f 0241 	mov.w	r2, r1, lsl #1
 8000a3c:	f512 1200 	adds.w	r2, r2, #2097152	; 0x200000
 8000a40:	d215      	bcs.n	8000a6e <__aeabi_d2iz+0x36>
 8000a42:	d511      	bpl.n	8000a68 <__aeabi_d2iz+0x30>
 8000a44:	f46f 7378 	mvn.w	r3, #992	; 0x3e0
 8000a48:	ebb3 5262 	subs.w	r2, r3, r2, asr #21
 8000a4c:	d912      	bls.n	8000a74 <__aeabi_d2iz+0x3c>
 8000a4e:	ea4f 23c1 	mov.w	r3, r1, lsl #11
 8000a52:	f043 4300 	orr.w	r3, r3, #2147483648	; 0x80000000
 8000a56:	ea43 5350 	orr.w	r3, r3, r0, lsr #21
 8000a5a:	f011 4f00 	tst.w	r1, #2147483648	; 0x80000000
 8000a5e:	fa23 f002 	lsr.w	r0, r3, r2
 8000a62:	bf18      	it	ne
 8000a64:	4240      	negne	r0, r0
 8000a66:	4770      	bx	lr
 8000a68:	f04f 0000 	mov.w	r0, #0
 8000a6c:	4770      	bx	lr
 8000a6e:	ea50 3001 	orrs.w	r0, r0, r1, lsl #12
 8000a72:	d105      	bne.n	8000a80 <__aeabi_d2iz+0x48>
 8000a74:	f011 4000 	ands.w	r0, r1, #2147483648	; 0x80000000
 8000a78:	bf08      	it	eq
 8000a7a:	f06f 4000 	mvneq.w	r0, #2147483648	; 0x80000000
 8000a7e:	4770      	bx	lr
 8000a80:	f04f 0000 	mov.w	r0, #0
 8000a84:	4770      	bx	lr
 8000a86:	bf00      	nop

08000a88 <SystemClock_Config>:
 8000a88:	b510      	push	{r4, lr}
 8000a8a:	b090      	sub	sp, #64	; 0x40
 8000a8c:	2210      	movs	r2, #16
 8000a8e:	2100      	movs	r1, #0
 8000a90:	a809      	add	r0, sp, #36	; 0x24
 8000a92:	f003 f85d 	bl	8003b50 <memset>
 8000a96:	2214      	movs	r2, #20
 8000a98:	2100      	movs	r1, #0
 8000a9a:	a801      	add	r0, sp, #4
 8000a9c:	f003 f858 	bl	8003b50 <memset>
 8000aa0:	2402      	movs	r4, #2
 8000aa2:	f44f 3380 	mov.w	r3, #65536	; 0x10000
 8000aa6:	2201      	movs	r2, #1
 8000aa8:	2100      	movs	r1, #0
 8000aaa:	e9cd 2306 	strd	r2, r3, [sp, #24]
 8000aae:	e9cd 430d 	strd	r4, r3, [sp, #52]	; 0x34
 8000ab2:	f44f 13c0 	mov.w	r3, #1572864	; 0x180000
 8000ab6:	a806      	add	r0, sp, #24
 8000ab8:	9108      	str	r1, [sp, #32]
 8000aba:	920a      	str	r2, [sp, #40]	; 0x28
 8000abc:	930f      	str	r3, [sp, #60]	; 0x3c
 8000abe:	f001 fa07 	bl	8001ed0 <HAL_RCC_OscConfig>
 8000ac2:	b108      	cbz	r0, 8000ac8 <SystemClock_Config+0x40>
 8000ac4:	b672      	cpsid	i
 8000ac6:	e7fe      	b.n	8000ac6 <SystemClock_Config+0x3e>
 8000ac8:	230f      	movs	r3, #15
 8000aca:	e9cd 3401 	strd	r3, r4, [sp, #4]
 8000ace:	f44f 6380 	mov.w	r3, #1024	; 0x400
 8000ad2:	9003      	str	r0, [sp, #12]
 8000ad4:	e9cd 3004 	strd	r3, r0, [sp, #16]
 8000ad8:	4621      	mov	r1, r4
 8000ada:	a801      	add	r0, sp, #4
 8000adc:	f001 fbce 	bl	800227c <HAL_RCC_ClockConfig>
 8000ae0:	b108      	cbz	r0, 8000ae6 <SystemClock_Config+0x5e>
 8000ae2:	b672      	cpsid	i
 8000ae4:	e7fe      	b.n	8000ae4 <SystemClock_Config+0x5c>
 8000ae6:	b010      	add	sp, #64	; 0x40
 8000ae8:	bd10      	pop	{r4, pc}
 8000aea:	0000      	movs	r0, r0
 8000aec:	0000      	movs	r0, r0
	...

08000af0 <main>:
 8000af0:	b580      	push	{r7, lr}
 8000af2:	4ca3      	ldr	r4, [pc, #652]	; (8000d80 <main+0x290>)
 8000af4:	b09e      	sub	sp, #120	; 0x78
 8000af6:	f000 fe81 	bl	80017fc <HAL_Init>
 8000afa:	f7ff ffc5 	bl	8000a88 <SystemClock_Config>
 8000afe:	2210      	movs	r2, #16
 8000b00:	2100      	movs	r1, #0
 8000b02:	a816      	add	r0, sp, #88	; 0x58
 8000b04:	f003 f824 	bl	8003b50 <memset>
 8000b08:	69a3      	ldr	r3, [r4, #24]
 8000b0a:	2200      	movs	r2, #0
 8000b0c:	f043 0320 	orr.w	r3, r3, #32
 8000b10:	61a3      	str	r3, [r4, #24]
 8000b12:	69a3      	ldr	r3, [r4, #24]
 8000b14:	f640 4106 	movw	r1, #3078	; 0xc06
 8000b18:	f003 0320 	and.w	r3, r3, #32
 8000b1c:	9306      	str	r3, [sp, #24]
 8000b1e:	9b06      	ldr	r3, [sp, #24]
 8000b20:	69a3      	ldr	r3, [r4, #24]
 8000b22:	4898      	ldr	r0, [pc, #608]	; (8000d84 <main+0x294>)
 8000b24:	f043 0304 	orr.w	r3, r3, #4
 8000b28:	61a3      	str	r3, [r4, #24]
 8000b2a:	69a3      	ldr	r3, [r4, #24]
 8000b2c:	2601      	movs	r6, #1
 8000b2e:	f003 0304 	and.w	r3, r3, #4
 8000b32:	9307      	str	r3, [sp, #28]
 8000b34:	9b07      	ldr	r3, [sp, #28]
 8000b36:	69a3      	ldr	r3, [r4, #24]
 8000b38:	2500      	movs	r5, #0
 8000b3a:	f043 0308 	orr.w	r3, r3, #8
 8000b3e:	61a3      	str	r3, [r4, #24]
 8000b40:	69a3      	ldr	r3, [r4, #24]
 8000b42:	f44f 5780 	mov.w	r7, #4096	; 0x1000
 8000b46:	f003 0308 	and.w	r3, r3, #8
 8000b4a:	9308      	str	r3, [sp, #32]
 8000b4c:	9b08      	ldr	r3, [sp, #32]
 8000b4e:	f001 f911 	bl	8001d74 <HAL_GPIO_WritePin>
 8000b52:	2200      	movs	r2, #0
 8000b54:	f44f 5180 	mov.w	r1, #4096	; 0x1000
 8000b58:	488b      	ldr	r0, [pc, #556]	; (8000d88 <main+0x298>)
 8000b5a:	f001 f90b 	bl	8001d74 <HAL_GPIO_WritePin>
 8000b5e:	f640 4306 	movw	r3, #3078	; 0xc06
 8000b62:	e9cd 3616 	strd	r3, r6, [sp, #88]	; 0x58
 8000b66:	2303      	movs	r3, #3
 8000b68:	4886      	ldr	r0, [pc, #536]	; (8000d84 <main+0x294>)
 8000b6a:	a916      	add	r1, sp, #88	; 0x58
 8000b6c:	e9cd 5318 	strd	r5, r3, [sp, #96]	; 0x60
 8000b70:	f001 f824 	bl	8001bbc <HAL_GPIO_Init>
 8000b74:	2302      	movs	r3, #2
 8000b76:	4884      	ldr	r0, [pc, #528]	; (8000d88 <main+0x298>)
 8000b78:	a916      	add	r1, sp, #88	; 0x58
 8000b7a:	e9cd 7616 	strd	r7, r6, [sp, #88]	; 0x58
 8000b7e:	9319      	str	r3, [sp, #100]	; 0x64
 8000b80:	9518      	str	r5, [sp, #96]	; 0x60
 8000b82:	f001 f81b 	bl	8001bbc <HAL_GPIO_Init>
 8000b86:	6963      	ldr	r3, [r4, #20]
 8000b88:	462a      	mov	r2, r5
 8000b8a:	4333      	orrs	r3, r6
 8000b8c:	6163      	str	r3, [r4, #20]
 8000b8e:	6963      	ldr	r3, [r4, #20]
 8000b90:	4629      	mov	r1, r5
 8000b92:	4033      	ands	r3, r6
 8000b94:	200f      	movs	r0, #15
 8000b96:	9305      	str	r3, [sp, #20]
 8000b98:	9b05      	ldr	r3, [sp, #20]
 8000b9a:	f000 fe77 	bl	800188c <HAL_NVIC_SetPriority>
 8000b9e:	200f      	movs	r0, #15
 8000ba0:	f000 fea6 	bl	80018f0 <HAL_NVIC_EnableIRQ>
 8000ba4:	2210      	movs	r2, #16
 8000ba6:	4629      	mov	r1, r5
 8000ba8:	a80b      	add	r0, sp, #44	; 0x2c
 8000baa:	f002 ffd1 	bl	8003b50 <memset>
 8000bae:	221c      	movs	r2, #28
 8000bb0:	4629      	mov	r1, r5
 8000bb2:	a80f      	add	r0, sp, #60	; 0x3c
 8000bb4:	e9cd 5509 	strd	r5, r5, [sp, #36]	; 0x24
 8000bb8:	f002 ffca 	bl	8003b50 <memset>
 8000bbc:	2220      	movs	r2, #32
 8000bbe:	4629      	mov	r1, r5
 8000bc0:	a816      	add	r0, sp, #88	; 0x58
 8000bc2:	f002 ffc5 	bl	8003b50 <memset>
 8000bc6:	4c71      	ldr	r4, [pc, #452]	; (8000d8c <main+0x29c>)
 8000bc8:	4b71      	ldr	r3, [pc, #452]	; (8000d90 <main+0x2a0>)
 8000bca:	2680      	movs	r6, #128	; 0x80
 8000bcc:	e9c4 3500 	strd	r3, r5, [r4]
 8000bd0:	f240 331f 	movw	r3, #799	; 0x31f
 8000bd4:	e9c4 3503 	strd	r3, r5, [r4, #12]
 8000bd8:	2307      	movs	r3, #7
 8000bda:	4620      	mov	r0, r4
 8000bdc:	e9c4 3605 	strd	r3, r6, [r4, #20]
 8000be0:	60a5      	str	r5, [r4, #8]
 8000be2:	f001 fe67 	bl	80028b4 <HAL_TIM_Base_Init>
 8000be6:	b108      	cbz	r0, 8000bec <main+0xfc>
 8000be8:	b672      	cpsid	i
 8000bea:	e7fe      	b.n	8000bea <main+0xfa>
 8000bec:	4620      	mov	r0, r4
 8000bee:	a90b      	add	r1, sp, #44	; 0x2c
 8000bf0:	970b      	str	r7, [sp, #44]	; 0x2c
 8000bf2:	f002 f81d 	bl	8002c30 <HAL_TIM_ConfigClockSource>
 8000bf6:	b108      	cbz	r0, 8000bfc <main+0x10c>
 8000bf8:	b672      	cpsid	i
 8000bfa:	e7fe      	b.n	8000bfa <main+0x10a>
 8000bfc:	4620      	mov	r0, r4
 8000bfe:	f001 fe85 	bl	800290c <HAL_TIM_OC_Init>
 8000c02:	b108      	cbz	r0, 8000c08 <main+0x118>
 8000c04:	b672      	cpsid	i
 8000c06:	e7fe      	b.n	8000c06 <main+0x116>
 8000c08:	2108      	movs	r1, #8
 8000c0a:	4620      	mov	r0, r4
 8000c0c:	f001 fed6 	bl	80029bc <HAL_TIM_OnePulse_Init>
 8000c10:	b108      	cbz	r0, 8000c16 <main+0x126>
 8000c12:	b672      	cpsid	i
 8000c14:	e7fe      	b.n	8000c14 <main+0x124>
 8000c16:	2530      	movs	r5, #48	; 0x30
 8000c18:	4620      	mov	r0, r4
 8000c1a:	a909      	add	r1, sp, #36	; 0x24
 8000c1c:	e9cd 5609 	strd	r5, r6, [sp, #36]	; 0x24
 8000c20:	f002 fad4 	bl	80031cc <HAL_TIMEx_MasterConfigSynchronization>
 8000c24:	4602      	mov	r2, r0
 8000c26:	b108      	cbz	r0, 8000c2c <main+0x13c>
 8000c28:	b672      	cpsid	i
 8000c2a:	e7fe      	b.n	8000c2a <main+0x13a>
 8000c2c:	e9cd 500f 	strd	r5, r0, [sp, #60]	; 0x3c
 8000c30:	e9cd 0011 	strd	r0, r0, [sp, #68]	; 0x44
 8000c34:	e9cd 0013 	strd	r0, r0, [sp, #76]	; 0x4c
 8000c38:	9015      	str	r0, [sp, #84]	; 0x54
 8000c3a:	a90f      	add	r1, sp, #60	; 0x3c
 8000c3c:	4620      	mov	r0, r4
 8000c3e:	f001 ff17 	bl	8002a70 <HAL_TIM_OC_ConfigChannel>
 8000c42:	b108      	cbz	r0, 8000c48 <main+0x158>
 8000c44:	b672      	cpsid	i
 8000c46:	e7fe      	b.n	8000c46 <main+0x156>
 8000c48:	6822      	ldr	r2, [r4, #0]
 8000c4a:	4620      	mov	r0, r4
 8000c4c:	6993      	ldr	r3, [r2, #24]
 8000c4e:	a90f      	add	r1, sp, #60	; 0x3c
 8000c50:	f043 0308 	orr.w	r3, r3, #8
 8000c54:	6193      	str	r3, [r2, #24]
 8000c56:	2204      	movs	r2, #4
 8000c58:	f001 ff0a 	bl	8002a70 <HAL_TIM_OC_ConfigChannel>
 8000c5c:	b108      	cbz	r0, 8000c62 <main+0x172>
 8000c5e:	b672      	cpsid	i
 8000c60:	e7fe      	b.n	8000c60 <main+0x170>
 8000c62:	2208      	movs	r2, #8
 8000c64:	4620      	mov	r0, r4
 8000c66:	a90f      	add	r1, sp, #60	; 0x3c
 8000c68:	f001 ff02 	bl	8002a70 <HAL_TIM_OC_ConfigChannel>
 8000c6c:	b108      	cbz	r0, 8000c72 <main+0x182>
 8000c6e:	b672      	cpsid	i
 8000c70:	e7fe      	b.n	8000c70 <main+0x180>
 8000c72:	220c      	movs	r2, #12
 8000c74:	4620      	mov	r0, r4
 8000c76:	a90f      	add	r1, sp, #60	; 0x3c
 8000c78:	f001 fefa 	bl	8002a70 <HAL_TIM_OC_ConfigChannel>
 8000c7c:	b108      	cbz	r0, 8000c82 <main+0x192>
 8000c7e:	b672      	cpsid	i
 8000c80:	e7fe      	b.n	8000c80 <main+0x190>
 8000c82:	f44f 5300 	mov.w	r3, #8192	; 0x2000
 8000c86:	e9cd 0016 	strd	r0, r0, [sp, #88]	; 0x58
 8000c8a:	e9cd 0018 	strd	r0, r0, [sp, #96]	; 0x60
 8000c8e:	901a      	str	r0, [sp, #104]	; 0x68
 8000c90:	901d      	str	r0, [sp, #116]	; 0x74
 8000c92:	a916      	add	r1, sp, #88	; 0x58
 8000c94:	4620      	mov	r0, r4
 8000c96:	931b      	str	r3, [sp, #108]	; 0x6c
 8000c98:	f002 fac6 	bl	8003228 <HAL_TIMEx_ConfigBreakDeadTime>
 8000c9c:	b108      	cbz	r0, 8000ca2 <main+0x1b2>
 8000c9e:	b672      	cpsid	i
 8000ca0:	e7fe      	b.n	8000ca0 <main+0x1b0>
 8000ca2:	483a      	ldr	r0, [pc, #232]	; (8000d8c <main+0x29c>)
 8000ca4:	f000 fb28 	bl	80012f8 <HAL_TIM_MspPostInit>
 8000ca8:	f44f 33e1 	mov.w	r3, #115200	; 0x1c200
 8000cac:	4839      	ldr	r0, [pc, #228]	; (8000d94 <main+0x2a4>)
 8000cae:	f8df e0ec 	ldr.w	lr, [pc, #236]	; 8000d9c <main+0x2ac>
 8000cb2:	220c      	movs	r2, #12
 8000cb4:	e9c0 e300 	strd	lr, r3, [r0]
 8000cb8:	2300      	movs	r3, #0
 8000cba:	e9c0 3302 	strd	r3, r3, [r0, #8]
 8000cbe:	e9c0 2305 	strd	r2, r3, [r0, #20]
 8000cc2:	6103      	str	r3, [r0, #16]
 8000cc4:	61c3      	str	r3, [r0, #28]
 8000cc6:	f002 fb39 	bl	800333c <HAL_UART_Init>
 8000cca:	4605      	mov	r5, r0
 8000ccc:	b108      	cbz	r0, 8000cd2 <main+0x1e2>
 8000cce:	b672      	cpsid	i
 8000cd0:	e7fe      	b.n	8000cd0 <main+0x1e0>
 8000cd2:	4601      	mov	r1, r0
 8000cd4:	2210      	movs	r2, #16
 8000cd6:	a80b      	add	r0, sp, #44	; 0x2c
 8000cd8:	f002 ff3a 	bl	8003b50 <memset>
 8000cdc:	2214      	movs	r2, #20
 8000cde:	4629      	mov	r1, r5
 8000ce0:	a816      	add	r0, sp, #88	; 0x58
 8000ce2:	f002 ff35 	bl	8003b50 <memset>
 8000ce6:	2210      	movs	r2, #16
 8000ce8:	4629      	mov	r1, r5
 8000cea:	a80f      	add	r0, sp, #60	; 0x3c
 8000cec:	f64f 78ff 	movw	r8, #65535	; 0xffff
 8000cf0:	f04f 0980 	mov.w	r9, #128	; 0x80
 8000cf4:	e9cd 5509 	strd	r5, r5, [sp, #36]	; 0x24
 8000cf8:	f002 ff2a 	bl	8003b50 <memset>
 8000cfc:	f04f 4380 	mov.w	r3, #1073741824	; 0x40000000
 8000d00:	4c25      	ldr	r4, [pc, #148]	; (8000d98 <main+0x2a8>)
 8000d02:	4620      	mov	r0, r4
 8000d04:	e9c4 3500 	strd	r3, r5, [r4]
 8000d08:	e9c4 8503 	strd	r8, r5, [r4, #12]
 8000d0c:	60a5      	str	r5, [r4, #8]
 8000d0e:	f8c4 9018 	str.w	r9, [r4, #24]
 8000d12:	f001 fdcf 	bl	80028b4 <HAL_TIM_Base_Init>
 8000d16:	b108      	cbz	r0, 8000d1c <main+0x22c>
 8000d18:	b672      	cpsid	i
 8000d1a:	e7fe      	b.n	8000d1a <main+0x22a>
 8000d1c:	f44f 5780 	mov.w	r7, #4096	; 0x1000
 8000d20:	4620      	mov	r0, r4
 8000d22:	a90b      	add	r1, sp, #44	; 0x2c
 8000d24:	970b      	str	r7, [sp, #44]	; 0x2c
 8000d26:	f001 ff83 	bl	8002c30 <HAL_TIM_ConfigClockSource>
 8000d2a:	b108      	cbz	r0, 8000d30 <main+0x240>
 8000d2c:	b672      	cpsid	i
 8000d2e:	e7fe      	b.n	8000d2e <main+0x23e>
 8000d30:	4620      	mov	r0, r4
 8000d32:	f001 fe17 	bl	8002964 <HAL_TIM_IC_Init>
 8000d36:	b108      	cbz	r0, 8000d3c <main+0x24c>
 8000d38:	b672      	cpsid	i
 8000d3a:	e7fe      	b.n	8000d3a <main+0x24a>
 8000d3c:	2304      	movs	r3, #4
 8000d3e:	2620      	movs	r6, #32
 8000d40:	4620      	mov	r0, r4
 8000d42:	a916      	add	r1, sp, #88	; 0x58
 8000d44:	e9cd 3616 	strd	r3, r6, [sp, #88]	; 0x58
 8000d48:	f002 f858 	bl	8002dfc <HAL_TIM_SlaveConfigSynchro>
 8000d4c:	b108      	cbz	r0, 8000d52 <main+0x262>
 8000d4e:	b672      	cpsid	i
 8000d50:	e7fe      	b.n	8000d50 <main+0x260>
 8000d52:	e9cd 0009 	strd	r0, r0, [sp, #36]	; 0x24
 8000d56:	a909      	add	r1, sp, #36	; 0x24
 8000d58:	4620      	mov	r0, r4
 8000d5a:	f002 fa37 	bl	80031cc <HAL_TIMEx_MasterConfigSynchronization>
 8000d5e:	4602      	mov	r2, r0
 8000d60:	b108      	cbz	r0, 8000d66 <main+0x276>
 8000d62:	b672      	cpsid	i
 8000d64:	e7fe      	b.n	8000d64 <main+0x274>
 8000d66:	2301      	movs	r3, #1
 8000d68:	900f      	str	r0, [sp, #60]	; 0x3c
 8000d6a:	e9cd 3010 	strd	r3, r0, [sp, #64]	; 0x40
 8000d6e:	9012      	str	r0, [sp, #72]	; 0x48
 8000d70:	a90f      	add	r1, sp, #60	; 0x3c
 8000d72:	4620      	mov	r0, r4
 8000d74:	f001 fece 	bl	8002b14 <HAL_TIM_IC_ConfigChannel>
 8000d78:	4605      	mov	r5, r0
 8000d7a:	b188      	cbz	r0, 8000da0 <main+0x2b0>
 8000d7c:	b672      	cpsid	i
 8000d7e:	e7fe      	b.n	8000d7e <main+0x28e>
 8000d80:	40021000 	.word	0x40021000
 8000d84:	40010c00 	.word	0x40010c00
 8000d88:	40010800 	.word	0x40010800
 8000d8c:	2000046c 	.word	0x2000046c
 8000d90:	40012c00 	.word	0x40012c00
 8000d94:	20000420 	.word	0x20000420
 8000d98:	200004bc 	.word	0x200004bc
 8000d9c:	40013800 	.word	0x40013800
 8000da0:	4601      	mov	r1, r0
 8000da2:	2210      	movs	r2, #16
 8000da4:	a816      	add	r0, sp, #88	; 0x58
 8000da6:	f002 fed3 	bl	8003b50 <memset>
 8000daa:	2302      	movs	r3, #2
 8000dac:	4ca6      	ldr	r4, [pc, #664]	; (8001048 <main+0x558>)
 8000dae:	f8df c2f0 	ldr.w	ip, [pc, #752]	; 80010a0 <main+0x5b0>
 8000db2:	4620      	mov	r0, r4
 8000db4:	e9cd 550f 	strd	r5, r5, [sp, #60]	; 0x3c
 8000db8:	e9c4 c300 	strd	ip, r3, [r4]
 8000dbc:	e9c4 5802 	strd	r5, r8, [r4, #8]
 8000dc0:	6125      	str	r5, [r4, #16]
 8000dc2:	f8c4 9018 	str.w	r9, [r4, #24]
 8000dc6:	f001 fd75 	bl	80028b4 <HAL_TIM_Base_Init>
 8000dca:	b108      	cbz	r0, 8000dd0 <main+0x2e0>
 8000dcc:	b672      	cpsid	i
 8000dce:	e7fe      	b.n	8000dce <main+0x2de>
 8000dd0:	4620      	mov	r0, r4
 8000dd2:	a916      	add	r1, sp, #88	; 0x58
 8000dd4:	9716      	str	r7, [sp, #88]	; 0x58
 8000dd6:	f001 ff2b 	bl	8002c30 <HAL_TIM_ConfigClockSource>
 8000dda:	b108      	cbz	r0, 8000de0 <main+0x2f0>
 8000ddc:	b672      	cpsid	i
 8000dde:	e7fe      	b.n	8000dde <main+0x2ee>
 8000de0:	e9cd 600f 	strd	r6, r0, [sp, #60]	; 0x3c
 8000de4:	a90f      	add	r1, sp, #60	; 0x3c
 8000de6:	4620      	mov	r0, r4
 8000de8:	f002 f9f0 	bl	80031cc <HAL_TIMEx_MasterConfigSynchronization>
 8000dec:	b108      	cbz	r0, 8000df2 <main+0x302>
 8000dee:	b672      	cpsid	i
 8000df0:	e7fe      	b.n	8000df0 <main+0x300>
 8000df2:	f44f 7382 	mov.w	r3, #260	; 0x104
 8000df6:	4895      	ldr	r0, [pc, #596]	; (800104c <main+0x55c>)
 8000df8:	4c95      	ldr	r4, [pc, #596]	; (8001050 <main+0x560>)
 8000dfa:	f44f 2280 	mov.w	r2, #262144	; 0x40000
 8000dfe:	e9c0 4300 	strd	r4, r3, [r0]
 8000e02:	2300      	movs	r3, #0
 8000e04:	e9c0 3302 	strd	r3, r3, [r0, #8]
 8000e08:	e9c0 3304 	strd	r3, r3, [r0, #16]
 8000e0c:	e9c0 2306 	strd	r2, r3, [r0, #24]
 8000e10:	e9c0 3308 	strd	r3, r3, [r0, #32]
 8000e14:	6283      	str	r3, [r0, #40]	; 0x28
 8000e16:	230a      	movs	r3, #10
 8000e18:	62c3      	str	r3, [r0, #44]	; 0x2c
 8000e1a:	f001 faeb 	bl	80023f4 <HAL_SPI_Init>
 8000e1e:	4605      	mov	r5, r0
 8000e20:	b108      	cbz	r0, 8000e26 <main+0x336>
 8000e22:	b672      	cpsid	i
 8000e24:	e7fe      	b.n	8000e24 <main+0x334>
 8000e26:	2610      	movs	r6, #16
 8000e28:	4601      	mov	r1, r0
 8000e2a:	4632      	mov	r2, r6
 8000e2c:	a80b      	add	r0, sp, #44	; 0x2c
 8000e2e:	f002 fe8f 	bl	8003b50 <memset>
 8000e32:	4629      	mov	r1, r5
 8000e34:	2214      	movs	r2, #20
 8000e36:	a80f      	add	r0, sp, #60	; 0x3c
 8000e38:	f002 fe8a 	bl	8003b50 <memset>
 8000e3c:	4629      	mov	r1, r5
 8000e3e:	221c      	movs	r2, #28
 8000e40:	a816      	add	r0, sp, #88	; 0x58
 8000e42:	4c84      	ldr	r4, [pc, #528]	; (8001054 <main+0x564>)
 8000e44:	e9cd 5509 	strd	r5, r5, [sp, #36]	; 0x24
 8000e48:	f002 fe82 	bl	8003b50 <memset>
 8000e4c:	4b82      	ldr	r3, [pc, #520]	; (8001058 <main+0x568>)
 8000e4e:	60a5      	str	r5, [r4, #8]
 8000e50:	e9c4 3500 	strd	r3, r5, [r4]
 8000e54:	f247 7324 	movw	r3, #30500	; 0x7724
 8000e58:	e9c4 3503 	strd	r3, r5, [r4, #12]
 8000e5c:	2580      	movs	r5, #128	; 0x80
 8000e5e:	4620      	mov	r0, r4
 8000e60:	61a5      	str	r5, [r4, #24]
 8000e62:	f001 fd27 	bl	80028b4 <HAL_TIM_Base_Init>
 8000e66:	b108      	cbz	r0, 8000e6c <main+0x37c>
 8000e68:	b672      	cpsid	i
 8000e6a:	e7fe      	b.n	8000e6a <main+0x37a>
 8000e6c:	f44f 5380 	mov.w	r3, #4096	; 0x1000
 8000e70:	4620      	mov	r0, r4
 8000e72:	a90b      	add	r1, sp, #44	; 0x2c
 8000e74:	930b      	str	r3, [sp, #44]	; 0x2c
 8000e76:	f001 fedb 	bl	8002c30 <HAL_TIM_ConfigClockSource>
 8000e7a:	b108      	cbz	r0, 8000e80 <main+0x390>
 8000e7c:	b672      	cpsid	i
 8000e7e:	e7fe      	b.n	8000e7e <main+0x38e>
 8000e80:	4620      	mov	r0, r4
 8000e82:	f001 fd43 	bl	800290c <HAL_TIM_OC_Init>
 8000e86:	b108      	cbz	r0, 8000e8c <main+0x39c>
 8000e88:	b672      	cpsid	i
 8000e8a:	e7fe      	b.n	8000e8a <main+0x39a>
 8000e8c:	2108      	movs	r1, #8
 8000e8e:	4620      	mov	r0, r4
 8000e90:	f001 fd94 	bl	80029bc <HAL_TIM_OnePulse_Init>
 8000e94:	b108      	cbz	r0, 8000e9a <main+0x3aa>
 8000e96:	b672      	cpsid	i
 8000e98:	e7fe      	b.n	8000e98 <main+0x3a8>
 8000e9a:	2306      	movs	r3, #6
 8000e9c:	a90f      	add	r1, sp, #60	; 0x3c
 8000e9e:	e9cd 300f 	strd	r3, r0, [sp, #60]	; 0x3c
 8000ea2:	4620      	mov	r0, r4
 8000ea4:	f001 ffaa 	bl	8002dfc <HAL_TIM_SlaveConfigSynchro>
 8000ea8:	b108      	cbz	r0, 8000eae <main+0x3be>
 8000eaa:	b672      	cpsid	i
 8000eac:	e7fe      	b.n	8000eac <main+0x3bc>
 8000eae:	2330      	movs	r3, #48	; 0x30
 8000eb0:	4620      	mov	r0, r4
 8000eb2:	a909      	add	r1, sp, #36	; 0x24
 8000eb4:	e9cd 3509 	strd	r3, r5, [sp, #36]	; 0x24
 8000eb8:	f002 f988 	bl	80031cc <HAL_TIMEx_MasterConfigSynchronization>
 8000ebc:	4602      	mov	r2, r0
 8000ebe:	b108      	cbz	r0, 8000ec4 <main+0x3d4>
 8000ec0:	b672      	cpsid	i
 8000ec2:	e7fe      	b.n	8000ec2 <main+0x3d2>
 8000ec4:	e9cd 6016 	strd	r6, r0, [sp, #88]	; 0x58
 8000ec8:	9018      	str	r0, [sp, #96]	; 0x60
 8000eca:	901a      	str	r0, [sp, #104]	; 0x68
 8000ecc:	a916      	add	r1, sp, #88	; 0x58
 8000ece:	4620      	mov	r0, r4
 8000ed0:	f001 fdce 	bl	8002a70 <HAL_TIM_OC_ConfigChannel>
 8000ed4:	4603      	mov	r3, r0
 8000ed6:	b108      	cbz	r0, 8000edc <main+0x3ec>
 8000ed8:	b672      	cpsid	i
 8000eda:	e7fe      	b.n	8000eda <main+0x3ea>
 8000edc:	485f      	ldr	r0, [pc, #380]	; (800105c <main+0x56c>)
 8000ede:	4960      	ldr	r1, [pc, #384]	; (8001060 <main+0x570>)
 8000ee0:	4a60      	ldr	r2, [pc, #384]	; (8001064 <main+0x574>)
 8000ee2:	e9c0 3302 	strd	r3, r3, [r0, #8]
 8000ee6:	e9c0 1200 	strd	r1, r2, [r0]
 8000eea:	f44f 4280 	mov.w	r2, #16384	; 0x4000
 8000eee:	e9c0 3306 	strd	r3, r3, [r0, #24]
 8000ef2:	e9c0 2304 	strd	r2, r3, [r0, #16]
 8000ef6:	6203      	str	r3, [r0, #32]
 8000ef8:	f000 ff42 	bl	8001d80 <HAL_I2C_Init>
 8000efc:	4605      	mov	r5, r0
 8000efe:	b108      	cbz	r0, 8000f04 <main+0x414>
 8000f00:	b672      	cpsid	i
 8000f02:	e7fe      	b.n	8000f02 <main+0x412>
 8000f04:	4b58      	ldr	r3, [pc, #352]	; (8001068 <main+0x578>)
 8000f06:	4a59      	ldr	r2, [pc, #356]	; (800106c <main+0x57c>)
 8000f08:	6018      	str	r0, [r3, #0]
 8000f0a:	68d3      	ldr	r3, [r2, #12]
 8000f0c:	4958      	ldr	r1, [pc, #352]	; (8001070 <main+0x580>)
 8000f0e:	f423 6340 	bic.w	r3, r3, #3072	; 0xc00
 8000f12:	f023 0306 	bic.w	r3, r3, #6
 8000f16:	60d3      	str	r3, [r2, #12]
 8000f18:	4856      	ldr	r0, [pc, #344]	; (8001074 <main+0x584>)
 8000f1a:	f003 faa1 	bl	8004460 <strcpy>
 8000f1e:	4955      	ldr	r1, [pc, #340]	; (8001074 <main+0x584>)
 8000f20:	2264      	movs	r2, #100	; 0x64
 8000f22:	f44f 737a 	mov.w	r3, #1000	; 0x3e8
 8000f26:	4854      	ldr	r0, [pc, #336]	; (8001078 <main+0x588>)
 8000f28:	f002 fa36 	bl	8003398 <HAL_UART_Transmit>
 8000f2c:	4b53      	ldr	r3, [pc, #332]	; (800107c <main+0x58c>)
 8000f2e:	4846      	ldr	r0, [pc, #280]	; (8001048 <main+0x558>)
 8000f30:	801d      	strh	r5, [r3, #0]
 8000f32:	f001 fb2b 	bl	800258c <HAL_TIM_Base_Start_IT>
 8000f36:	4620      	mov	r0, r4
 8000f38:	f001 fb28 	bl	800258c <HAL_TIM_Base_Start_IT>
 8000f3c:	4629      	mov	r1, r5
 8000f3e:	4850      	ldr	r0, [pc, #320]	; (8001080 <main+0x590>)
 8000f40:	f002 f8f0 	bl	8003124 <HAL_TIM_IC_Stop_DMA>
 8000f44:	f8df a15c 	ldr.w	sl, [pc, #348]	; 80010a4 <main+0x5b4>
 8000f48:	2001      	movs	r0, #1
 8000f4a:	f000 fc7b 	bl	8001844 <HAL_Delay>
 8000f4e:	f89a 3000 	ldrb.w	r3, [sl]
 8000f52:	2b00      	cmp	r3, #0
 8000f54:	d0f6      	beq.n	8000f44 <main+0x454>
 8000f56:	4b4b      	ldr	r3, [pc, #300]	; (8001084 <main+0x594>)
 8000f58:	881b      	ldrh	r3, [r3, #0]
 8000f5a:	2b00      	cmp	r3, #0
 8000f5c:	d0f2      	beq.n	8000f44 <main+0x454>
 8000f5e:	4b4a      	ldr	r3, [pc, #296]	; (8001088 <main+0x598>)
 8000f60:	881b      	ldrh	r3, [r3, #0]
 8000f62:	2b00      	cmp	r3, #0
 8000f64:	d0ee      	beq.n	8000f44 <main+0x454>
 8000f66:	4c49      	ldr	r4, [pc, #292]	; (800108c <main+0x59c>)
 8000f68:	4d49      	ldr	r5, [pc, #292]	; (8001090 <main+0x5a0>)
 8000f6a:	6820      	ldr	r0, [r4, #0]
 8000f6c:	f7ff fa4a 	bl	8000404 <__aeabi_i2d>
 8000f70:	4606      	mov	r6, r0
 8000f72:	6828      	ldr	r0, [r5, #0]
 8000f74:	460f      	mov	r7, r1
 8000f76:	f7ff fa45 	bl	8000404 <__aeabi_i2d>
 8000f7a:	4632      	mov	r2, r6
 8000f7c:	4680      	mov	r8, r0
 8000f7e:	4689      	mov	r9, r1
 8000f80:	463b      	mov	r3, r7
 8000f82:	4630      	mov	r0, r6
 8000f84:	4639      	mov	r1, r7
 8000f86:	f7ff faa7 	bl	80004d8 <__aeabi_dmul>
 8000f8a:	4642      	mov	r2, r8
 8000f8c:	4606      	mov	r6, r0
 8000f8e:	460f      	mov	r7, r1
 8000f90:	464b      	mov	r3, r9
 8000f92:	4640      	mov	r0, r8
 8000f94:	4649      	mov	r1, r9
 8000f96:	f7ff fa9f 	bl	80004d8 <__aeabi_dmul>
 8000f9a:	4602      	mov	r2, r0
 8000f9c:	460b      	mov	r3, r1
 8000f9e:	4630      	mov	r0, r6
 8000fa0:	4639      	mov	r1, r7
 8000fa2:	f7ff f8e3 	bl	800016c <__adddf3>
 8000fa6:	f002 fa7b 	bl	80034a0 <sqrt>
 8000faa:	4606      	mov	r6, r0
 8000fac:	460f      	mov	r7, r1
 8000fae:	f8df 90f8 	ldr.w	r9, [pc, #248]	; 80010a8 <main+0x5b8>
 8000fb2:	2200      	movs	r2, #0
 8000fb4:	2300      	movs	r3, #0
 8000fb6:	e9c9 6700 	strd	r6, r7, [r9]
 8000fba:	f7ff fcf5 	bl	80009a8 <__aeabi_dcmpeq>
 8000fbe:	f8df 80ec 	ldr.w	r8, [pc, #236]	; 80010ac <main+0x5bc>
 8000fc2:	2800      	cmp	r0, #0
 8000fc4:	d137      	bne.n	8001036 <main+0x546>
 8000fc6:	6820      	ldr	r0, [r4, #0]
 8000fc8:	f7ff fa1c 	bl	8000404 <__aeabi_i2d>
 8000fcc:	4632      	mov	r2, r6
 8000fce:	463b      	mov	r3, r7
 8000fd0:	f7ff fbac 	bl	800072c <__aeabi_ddiv>
 8000fd4:	f002 fa36 	bl	8003444 <acos>
 8000fd8:	2200      	movs	r2, #0
 8000fda:	4b2e      	ldr	r3, [pc, #184]	; (8001094 <main+0x5a4>)
 8000fdc:	f7ff fa7c 	bl	80004d8 <__aeabi_dmul>
 8000fe0:	a317      	add	r3, pc, #92	; (adr r3, 8001040 <main+0x550>)
 8000fe2:	e9d3 2300 	ldrd	r2, r3, [r3]
 8000fe6:	f7ff fba1 	bl	800072c <__aeabi_ddiv>
 8000fea:	460b      	mov	r3, r1
 8000fec:	4602      	mov	r2, r0
 8000fee:	6829      	ldr	r1, [r5, #0]
 8000ff0:	e9c8 2300 	strd	r2, r3, [r8]
 8000ff4:	2900      	cmp	r1, #0
 8000ff6:	da05      	bge.n	8001004 <main+0x514>
 8000ff8:	2000      	movs	r0, #0
 8000ffa:	4927      	ldr	r1, [pc, #156]	; (8001098 <main+0x5a8>)
 8000ffc:	f7ff f8b4 	bl	8000168 <__aeabi_dsub>
 8001000:	e9c8 0100 	strd	r0, r1, [r8]
 8001004:	e9d8 2300 	ldrd	r2, r3, [r8]
 8001008:	e9cd 2302 	strd	r2, r3, [sp, #8]
 800100c:	e9d9 2300 	ldrd	r2, r3, [r9]
 8001010:	e9cd 2300 	strd	r2, r3, [sp]
 8001014:	4921      	ldr	r1, [pc, #132]	; (800109c <main+0x5ac>)
 8001016:	682b      	ldr	r3, [r5, #0]
 8001018:	6822      	ldr	r2, [r4, #0]
 800101a:	4816      	ldr	r0, [pc, #88]	; (8001074 <main+0x584>)
 800101c:	f003 fa00 	bl	8004420 <siprintf>
 8001020:	f44f 737a 	mov.w	r3, #1000	; 0x3e8
 8001024:	2264      	movs	r2, #100	; 0x64
 8001026:	4913      	ldr	r1, [pc, #76]	; (8001074 <main+0x584>)
 8001028:	4813      	ldr	r0, [pc, #76]	; (8001078 <main+0x588>)
 800102a:	f002 f9b5 	bl	8003398 <HAL_UART_Transmit>
 800102e:	2300      	movs	r3, #0
 8001030:	f88a 3000 	strb.w	r3, [sl]
 8001034:	e786      	b.n	8000f44 <main+0x454>
 8001036:	2200      	movs	r2, #0
 8001038:	2300      	movs	r3, #0
 800103a:	e9c8 2300 	strd	r2, r3, [r8]
 800103e:	e7e1      	b.n	8001004 <main+0x514>
 8001040:	4d12d84a 	.word	0x4d12d84a
 8001044:	400921fb 	.word	0x400921fb
 8001048:	20000310 	.word	0x20000310
 800104c:	200002b8 	.word	0x200002b8
 8001050:	40003800 	.word	0x40003800
 8001054:	200003c8 	.word	0x200003c8
 8001058:	40000400 	.word	0x40000400
 800105c:	2000035c 	.word	0x2000035c
 8001060:	40005400 	.word	0x40005400
 8001064:	000186a0 	.word	0x000186a0
 8001068:	200003c4 	.word	0x200003c4
 800106c:	40010c00 	.word	0x40010c00
 8001070:	080068c0 	.word	0x080068c0
 8001074:	200001fc 	.word	0x200001fc
 8001078:	20000420 	.word	0x20000420
 800107c:	200004b6 	.word	0x200004b6
 8001080:	200004bc 	.word	0x200004bc
 8001084:	20000466 	.word	0x20000466
 8001088:	200003b8 	.word	0x200003b8
 800108c:	20000504 	.word	0x20000504
 8001090:	200003bc 	.word	0x200003bc
 8001094:	40668000 	.word	0x40668000
 8001098:	40768000 	.word	0x40768000
 800109c:	080068d5 	.word	0x080068d5
 80010a0:	40000800 	.word	0x40000800
 80010a4:	20000270 	.word	0x20000270
 80010a8:	20000418 	.word	0x20000418
 80010ac:	200003b0 	.word	0x200003b0

080010b0 <Error_Handler>:
 80010b0:	b672      	cpsid	i
 80010b2:	e7fe      	b.n	80010b2 <Error_Handler+0x2>

080010b4 <HAL_MspInit>:
 80010b4:	4b0e      	ldr	r3, [pc, #56]	; (80010f0 <HAL_MspInit+0x3c>)
 80010b6:	b082      	sub	sp, #8
 80010b8:	699a      	ldr	r2, [r3, #24]
 80010ba:	f042 0201 	orr.w	r2, r2, #1
 80010be:	619a      	str	r2, [r3, #24]
 80010c0:	699a      	ldr	r2, [r3, #24]
 80010c2:	f002 0201 	and.w	r2, r2, #1
 80010c6:	9200      	str	r2, [sp, #0]
 80010c8:	9a00      	ldr	r2, [sp, #0]
 80010ca:	69da      	ldr	r2, [r3, #28]
 80010cc:	f042 5280 	orr.w	r2, r2, #268435456	; 0x10000000
 80010d0:	61da      	str	r2, [r3, #28]
 80010d2:	69db      	ldr	r3, [r3, #28]
 80010d4:	4a07      	ldr	r2, [pc, #28]	; (80010f4 <HAL_MspInit+0x40>)
 80010d6:	f003 5380 	and.w	r3, r3, #268435456	; 0x10000000
 80010da:	9301      	str	r3, [sp, #4]
 80010dc:	9b01      	ldr	r3, [sp, #4]
 80010de:	6853      	ldr	r3, [r2, #4]
 80010e0:	f023 63e0 	bic.w	r3, r3, #117440512	; 0x7000000
 80010e4:	f043 6380 	orr.w	r3, r3, #67108864	; 0x4000000
 80010e8:	6053      	str	r3, [r2, #4]
 80010ea:	b002      	add	sp, #8
 80010ec:	4770      	bx	lr
 80010ee:	bf00      	nop
 80010f0:	40021000 	.word	0x40021000
 80010f4:	40010000 	.word	0x40010000

080010f8 <HAL_I2C_MspInit>:
 80010f8:	b510      	push	{r4, lr}
 80010fa:	4604      	mov	r4, r0
 80010fc:	b086      	sub	sp, #24
 80010fe:	2210      	movs	r2, #16
 8001100:	2100      	movs	r1, #0
 8001102:	a802      	add	r0, sp, #8
 8001104:	f002 fd24 	bl	8003b50 <memset>
 8001108:	6822      	ldr	r2, [r4, #0]
 800110a:	4b15      	ldr	r3, [pc, #84]	; (8001160 <HAL_I2C_MspInit+0x68>)
 800110c:	429a      	cmp	r2, r3
 800110e:	d124      	bne.n	800115a <HAL_I2C_MspInit+0x62>
 8001110:	4c14      	ldr	r4, [pc, #80]	; (8001164 <HAL_I2C_MspInit+0x6c>)
 8001112:	f44f 7240 	mov.w	r2, #768	; 0x300
 8001116:	69a3      	ldr	r3, [r4, #24]
 8001118:	4813      	ldr	r0, [pc, #76]	; (8001168 <HAL_I2C_MspInit+0x70>)
 800111a:	f043 0308 	orr.w	r3, r3, #8
 800111e:	61a3      	str	r3, [r4, #24]
 8001120:	69a3      	ldr	r3, [r4, #24]
 8001122:	a902      	add	r1, sp, #8
 8001124:	f003 0308 	and.w	r3, r3, #8
 8001128:	9300      	str	r3, [sp, #0]
 800112a:	9b00      	ldr	r3, [sp, #0]
 800112c:	2312      	movs	r3, #18
 800112e:	e9cd 2302 	strd	r2, r3, [sp, #8]
 8001132:	2303      	movs	r3, #3
 8001134:	9305      	str	r3, [sp, #20]
 8001136:	f000 fd41 	bl	8001bbc <HAL_GPIO_Init>
 800113a:	4a0c      	ldr	r2, [pc, #48]	; (800116c <HAL_I2C_MspInit+0x74>)
 800113c:	6853      	ldr	r3, [r2, #4]
 800113e:	f043 63e0 	orr.w	r3, r3, #117440512	; 0x7000000
 8001142:	f043 0302 	orr.w	r3, r3, #2
 8001146:	6053      	str	r3, [r2, #4]
 8001148:	69e3      	ldr	r3, [r4, #28]
 800114a:	f443 1300 	orr.w	r3, r3, #2097152	; 0x200000
 800114e:	61e3      	str	r3, [r4, #28]
 8001150:	69e3      	ldr	r3, [r4, #28]
 8001152:	f403 1300 	and.w	r3, r3, #2097152	; 0x200000
 8001156:	9301      	str	r3, [sp, #4]
 8001158:	9b01      	ldr	r3, [sp, #4]
 800115a:	b006      	add	sp, #24
 800115c:	bd10      	pop	{r4, pc}
 800115e:	bf00      	nop
 8001160:	40005400 	.word	0x40005400
 8001164:	40021000 	.word	0x40021000
 8001168:	40010c00 	.word	0x40010c00
 800116c:	40010000 	.word	0x40010000

08001170 <HAL_SPI_MspInit>:
 8001170:	b510      	push	{r4, lr}
 8001172:	4604      	mov	r4, r0
 8001174:	b086      	sub	sp, #24
 8001176:	2210      	movs	r2, #16
 8001178:	2100      	movs	r1, #0
 800117a:	a802      	add	r0, sp, #8
 800117c:	f002 fce8 	bl	8003b50 <memset>
 8001180:	6822      	ldr	r2, [r4, #0]
 8001182:	4b17      	ldr	r3, [pc, #92]	; (80011e0 <HAL_SPI_MspInit+0x70>)
 8001184:	429a      	cmp	r2, r3
 8001186:	d128      	bne.n	80011da <HAL_SPI_MspInit+0x6a>
 8001188:	f503 33ec 	add.w	r3, r3, #120832	; 0x1d800
 800118c:	69da      	ldr	r2, [r3, #28]
 800118e:	4815      	ldr	r0, [pc, #84]	; (80011e4 <HAL_SPI_MspInit+0x74>)
 8001190:	f442 4280 	orr.w	r2, r2, #16384	; 0x4000
 8001194:	61da      	str	r2, [r3, #28]
 8001196:	69da      	ldr	r2, [r3, #28]
 8001198:	a902      	add	r1, sp, #8
 800119a:	f402 4280 	and.w	r2, r2, #16384	; 0x4000
 800119e:	9200      	str	r2, [sp, #0]
 80011a0:	9a00      	ldr	r2, [sp, #0]
 80011a2:	699a      	ldr	r2, [r3, #24]
 80011a4:	f042 0208 	orr.w	r2, r2, #8
 80011a8:	619a      	str	r2, [r3, #24]
 80011aa:	699b      	ldr	r3, [r3, #24]
 80011ac:	f44f 4230 	mov.w	r2, #45056	; 0xb000
 80011b0:	f003 0308 	and.w	r3, r3, #8
 80011b4:	9301      	str	r3, [sp, #4]
 80011b6:	9b01      	ldr	r3, [sp, #4]
 80011b8:	2302      	movs	r3, #2
 80011ba:	e9cd 2302 	strd	r2, r3, [sp, #8]
 80011be:	2303      	movs	r3, #3
 80011c0:	9305      	str	r3, [sp, #20]
 80011c2:	f000 fcfb 	bl	8001bbc <HAL_GPIO_Init>
 80011c6:	f44f 4180 	mov.w	r1, #16384	; 0x4000
 80011ca:	2300      	movs	r3, #0
 80011cc:	4805      	ldr	r0, [pc, #20]	; (80011e4 <HAL_SPI_MspInit+0x74>)
 80011ce:	e9cd 1302 	strd	r1, r3, [sp, #8]
 80011d2:	a902      	add	r1, sp, #8
 80011d4:	9304      	str	r3, [sp, #16]
 80011d6:	f000 fcf1 	bl	8001bbc <HAL_GPIO_Init>
 80011da:	b006      	add	sp, #24
 80011dc:	bd10      	pop	{r4, pc}
 80011de:	bf00      	nop
 80011e0:	40003800 	.word	0x40003800
 80011e4:	40010c00 	.word	0x40010c00

080011e8 <HAL_TIM_Base_MspInit>:
 80011e8:	b570      	push	{r4, r5, r6, lr}
 80011ea:	4606      	mov	r6, r0
 80011ec:	b08a      	sub	sp, #40	; 0x28
 80011ee:	2210      	movs	r2, #16
 80011f0:	2100      	movs	r1, #0
 80011f2:	a806      	add	r0, sp, #24
 80011f4:	f002 fcac 	bl	8003b50 <memset>
 80011f8:	6833      	ldr	r3, [r6, #0]
 80011fa:	4a38      	ldr	r2, [pc, #224]	; (80012dc <HAL_TIM_Base_MspInit+0xf4>)
 80011fc:	4293      	cmp	r3, r2
 80011fe:	d10b      	bne.n	8001218 <HAL_TIM_Base_MspInit+0x30>
 8001200:	4b37      	ldr	r3, [pc, #220]	; (80012e0 <HAL_TIM_Base_MspInit+0xf8>)
 8001202:	699a      	ldr	r2, [r3, #24]
 8001204:	f442 6200 	orr.w	r2, r2, #2048	; 0x800
 8001208:	619a      	str	r2, [r3, #24]
 800120a:	699b      	ldr	r3, [r3, #24]
 800120c:	f403 6300 	and.w	r3, r3, #2048	; 0x800
 8001210:	9301      	str	r3, [sp, #4]
 8001212:	9b01      	ldr	r3, [sp, #4]
 8001214:	b00a      	add	sp, #40	; 0x28
 8001216:	bd70      	pop	{r4, r5, r6, pc}
 8001218:	f1b3 4f80 	cmp.w	r3, #1073741824	; 0x40000000
 800121c:	d134      	bne.n	8001288 <HAL_TIM_Base_MspInit+0xa0>
 800121e:	f503 3304 	add.w	r3, r3, #135168	; 0x21000
 8001222:	69da      	ldr	r2, [r3, #28]
 8001224:	2500      	movs	r5, #0
 8001226:	f042 0201 	orr.w	r2, r2, #1
 800122a:	61da      	str	r2, [r3, #28]
 800122c:	69da      	ldr	r2, [r3, #28]
 800122e:	482d      	ldr	r0, [pc, #180]	; (80012e4 <HAL_TIM_Base_MspInit+0xfc>)
 8001230:	f002 0201 	and.w	r2, r2, #1
 8001234:	9202      	str	r2, [sp, #8]
 8001236:	9a02      	ldr	r2, [sp, #8]
 8001238:	699a      	ldr	r2, [r3, #24]
 800123a:	a906      	add	r1, sp, #24
 800123c:	f042 0204 	orr.w	r2, r2, #4
 8001240:	619a      	str	r2, [r3, #24]
 8001242:	699b      	ldr	r3, [r3, #24]
 8001244:	4c28      	ldr	r4, [pc, #160]	; (80012e8 <HAL_TIM_Base_MspInit+0x100>)
 8001246:	f003 0304 	and.w	r3, r3, #4
 800124a:	9303      	str	r3, [sp, #12]
 800124c:	9b03      	ldr	r3, [sp, #12]
 800124e:	2301      	movs	r3, #1
 8001250:	9508      	str	r5, [sp, #32]
 8001252:	e9cd 3506 	strd	r3, r5, [sp, #24]
 8001256:	f000 fcb1 	bl	8001bbc <HAL_GPIO_Init>
 800125a:	4b24      	ldr	r3, [pc, #144]	; (80012ec <HAL_TIM_Base_MspInit+0x104>)
 800125c:	f44f 7280 	mov.w	r2, #256	; 0x100
 8001260:	e9c4 3500 	strd	r3, r5, [r4]
 8001264:	f44f 6380 	mov.w	r3, #1024	; 0x400
 8001268:	e9c4 2304 	strd	r2, r3, [r4, #16]
 800126c:	2320      	movs	r3, #32
 800126e:	4620      	mov	r0, r4
 8001270:	e9c4 5502 	strd	r5, r5, [r4, #8]
 8001274:	e9c4 3506 	strd	r3, r5, [r4, #24]
 8001278:	f000 fb5e 	bl	8001938 <HAL_DMA_Init>
 800127c:	b108      	cbz	r0, 8001282 <HAL_TIM_Base_MspInit+0x9a>
 800127e:	f7ff ff17 	bl	80010b0 <Error_Handler>
 8001282:	6274      	str	r4, [r6, #36]	; 0x24
 8001284:	6266      	str	r6, [r4, #36]	; 0x24
 8001286:	e7c5      	b.n	8001214 <HAL_TIM_Base_MspInit+0x2c>
 8001288:	4a19      	ldr	r2, [pc, #100]	; (80012f0 <HAL_TIM_Base_MspInit+0x108>)
 800128a:	4293      	cmp	r3, r2
 800128c:	d112      	bne.n	80012b4 <HAL_TIM_Base_MspInit+0xcc>
 800128e:	4b14      	ldr	r3, [pc, #80]	; (80012e0 <HAL_TIM_Base_MspInit+0xf8>)
 8001290:	201d      	movs	r0, #29
 8001292:	69da      	ldr	r2, [r3, #28]
 8001294:	f042 0202 	orr.w	r2, r2, #2
 8001298:	61da      	str	r2, [r3, #28]
 800129a:	2200      	movs	r2, #0
 800129c:	69db      	ldr	r3, [r3, #28]
 800129e:	4611      	mov	r1, r2
 80012a0:	f003 0302 	and.w	r3, r3, #2
 80012a4:	9304      	str	r3, [sp, #16]
 80012a6:	9b04      	ldr	r3, [sp, #16]
 80012a8:	f000 faf0 	bl	800188c <HAL_NVIC_SetPriority>
 80012ac:	201d      	movs	r0, #29
 80012ae:	f000 fb1f 	bl	80018f0 <HAL_NVIC_EnableIRQ>
 80012b2:	e7af      	b.n	8001214 <HAL_TIM_Base_MspInit+0x2c>
 80012b4:	4a0f      	ldr	r2, [pc, #60]	; (80012f4 <HAL_TIM_Base_MspInit+0x10c>)
 80012b6:	4293      	cmp	r3, r2
 80012b8:	d1ac      	bne.n	8001214 <HAL_TIM_Base_MspInit+0x2c>
 80012ba:	4b09      	ldr	r3, [pc, #36]	; (80012e0 <HAL_TIM_Base_MspInit+0xf8>)
 80012bc:	201e      	movs	r0, #30
 80012be:	69da      	ldr	r2, [r3, #28]
 80012c0:	f042 0204 	orr.w	r2, r2, #4
 80012c4:	61da      	str	r2, [r3, #28]
 80012c6:	2200      	movs	r2, #0
 80012c8:	69db      	ldr	r3, [r3, #28]
 80012ca:	4611      	mov	r1, r2
 80012cc:	f003 0304 	and.w	r3, r3, #4
 80012d0:	9305      	str	r3, [sp, #20]
 80012d2:	9b05      	ldr	r3, [sp, #20]
 80012d4:	f000 fada 	bl	800188c <HAL_NVIC_SetPriority>
 80012d8:	201e      	movs	r0, #30
 80012da:	e7e8      	b.n	80012ae <HAL_TIM_Base_MspInit+0xc6>
 80012dc:	40012c00 	.word	0x40012c00
 80012e0:	40021000 	.word	0x40021000
 80012e4:	40010800 	.word	0x40010800
 80012e8:	20000274 	.word	0x20000274
 80012ec:	40020058 	.word	0x40020058
 80012f0:	40000400 	.word	0x40000400
 80012f4:	40000800 	.word	0x40000800

080012f8 <HAL_TIM_MspPostInit>:
 80012f8:	b510      	push	{r4, lr}
 80012fa:	4604      	mov	r4, r0
 80012fc:	b086      	sub	sp, #24
 80012fe:	2210      	movs	r2, #16
 8001300:	2100      	movs	r1, #0
 8001302:	a802      	add	r0, sp, #8
 8001304:	f002 fc24 	bl	8003b50 <memset>
 8001308:	6822      	ldr	r2, [r4, #0]
 800130a:	4b0d      	ldr	r3, [pc, #52]	; (8001340 <HAL_TIM_MspPostInit+0x48>)
 800130c:	429a      	cmp	r2, r3
 800130e:	d115      	bne.n	800133c <HAL_TIM_MspPostInit+0x44>
 8001310:	f503 4364 	add.w	r3, r3, #58368	; 0xe400
 8001314:	699a      	ldr	r2, [r3, #24]
 8001316:	480b      	ldr	r0, [pc, #44]	; (8001344 <HAL_TIM_MspPostInit+0x4c>)
 8001318:	f042 0204 	orr.w	r2, r2, #4
 800131c:	619a      	str	r2, [r3, #24]
 800131e:	699b      	ldr	r3, [r3, #24]
 8001320:	f44f 6270 	mov.w	r2, #3840	; 0xf00
 8001324:	f003 0304 	and.w	r3, r3, #4
 8001328:	9301      	str	r3, [sp, #4]
 800132a:	9b01      	ldr	r3, [sp, #4]
 800132c:	2302      	movs	r3, #2
 800132e:	e9cd 2302 	strd	r2, r3, [sp, #8]
 8001332:	2303      	movs	r3, #3
 8001334:	a902      	add	r1, sp, #8
 8001336:	9305      	str	r3, [sp, #20]
 8001338:	f000 fc40 	bl	8001bbc <HAL_GPIO_Init>
 800133c:	b006      	add	sp, #24
 800133e:	bd10      	pop	{r4, pc}
 8001340:	40012c00 	.word	0x40012c00
 8001344:	40010800 	.word	0x40010800

08001348 <HAL_UART_MspInit>:
 8001348:	b510      	push	{r4, lr}
 800134a:	4604      	mov	r4, r0
 800134c:	b086      	sub	sp, #24
 800134e:	2210      	movs	r2, #16
 8001350:	2100      	movs	r1, #0
 8001352:	a802      	add	r0, sp, #8
 8001354:	f002 fbfc 	bl	8003b50 <memset>
 8001358:	6822      	ldr	r2, [r4, #0]
 800135a:	4b19      	ldr	r3, [pc, #100]	; (80013c0 <HAL_UART_MspInit+0x78>)
 800135c:	429a      	cmp	r2, r3
 800135e:	d12d      	bne.n	80013bc <HAL_UART_MspInit+0x74>
 8001360:	f503 4358 	add.w	r3, r3, #55296	; 0xd800
 8001364:	699a      	ldr	r2, [r3, #24]
 8001366:	4817      	ldr	r0, [pc, #92]	; (80013c4 <HAL_UART_MspInit+0x7c>)
 8001368:	f442 4280 	orr.w	r2, r2, #16384	; 0x4000
 800136c:	619a      	str	r2, [r3, #24]
 800136e:	699a      	ldr	r2, [r3, #24]
 8001370:	a902      	add	r1, sp, #8
 8001372:	f402 4280 	and.w	r2, r2, #16384	; 0x4000
 8001376:	9200      	str	r2, [sp, #0]
 8001378:	9a00      	ldr	r2, [sp, #0]
 800137a:	699a      	ldr	r2, [r3, #24]
 800137c:	f042 0208 	orr.w	r2, r2, #8
 8001380:	619a      	str	r2, [r3, #24]
 8001382:	699b      	ldr	r3, [r3, #24]
 8001384:	2240      	movs	r2, #64	; 0x40
 8001386:	f003 0308 	and.w	r3, r3, #8
 800138a:	9301      	str	r3, [sp, #4]
 800138c:	9b01      	ldr	r3, [sp, #4]
 800138e:	2302      	movs	r3, #2
 8001390:	e9cd 2302 	strd	r2, r3, [sp, #8]
 8001394:	2303      	movs	r3, #3
 8001396:	9305      	str	r3, [sp, #20]
 8001398:	f000 fc10 	bl	8001bbc <HAL_GPIO_Init>
 800139c:	2300      	movs	r3, #0
 800139e:	2180      	movs	r1, #128	; 0x80
 80013a0:	4808      	ldr	r0, [pc, #32]	; (80013c4 <HAL_UART_MspInit+0x7c>)
 80013a2:	e9cd 1302 	strd	r1, r3, [sp, #8]
 80013a6:	a902      	add	r1, sp, #8
 80013a8:	9304      	str	r3, [sp, #16]
 80013aa:	f000 fc07 	bl	8001bbc <HAL_GPIO_Init>
 80013ae:	4a06      	ldr	r2, [pc, #24]	; (80013c8 <HAL_UART_MspInit+0x80>)
 80013b0:	6853      	ldr	r3, [r2, #4]
 80013b2:	f043 63e0 	orr.w	r3, r3, #117440512	; 0x7000000
 80013b6:	f043 0304 	orr.w	r3, r3, #4
 80013ba:	6053      	str	r3, [r2, #4]
 80013bc:	b006      	add	sp, #24
 80013be:	bd10      	pop	{r4, pc}
 80013c0:	40013800 	.word	0x40013800
 80013c4:	40010c00 	.word	0x40010c00
 80013c8:	40010000 	.word	0x40010000

080013cc <NMI_Handler>:
 80013cc:	e7fe      	b.n	80013cc <NMI_Handler>

080013ce <HardFault_Handler>:
 80013ce:	e7fe      	b.n	80013ce <HardFault_Handler>

080013d0 <MemManage_Handler>:
 80013d0:	e7fe      	b.n	80013d0 <MemManage_Handler>

080013d2 <BusFault_Handler>:
 80013d2:	e7fe      	b.n	80013d2 <BusFault_Handler>

080013d4 <UsageFault_Handler>:
 80013d4:	e7fe      	b.n	80013d4 <UsageFault_Handler>

080013d6 <SVC_Handler>:
 80013d6:	4770      	bx	lr

080013d8 <DebugMon_Handler>:
 80013d8:	4770      	bx	lr

080013da <PendSV_Handler>:
 80013da:	4770      	bx	lr

080013dc <SysTick_Handler>:
 80013dc:	f000 ba20 	b.w	8001820 <HAL_IncTick>

080013e0 <DMA1_Channel5_IRQHandler>:
 80013e0:	b508      	push	{r3, lr}
 80013e2:	4b25      	ldr	r3, [pc, #148]	; (8001478 <DMA1_Channel5_IRQHandler+0x98>)
 80013e4:	781b      	ldrb	r3, [r3, #0]
 80013e6:	b32b      	cbz	r3, 8001434 <DMA1_Channel5_IRQHandler+0x54>
 80013e8:	2100      	movs	r1, #0
 80013ea:	4824      	ldr	r0, [pc, #144]	; (800147c <DMA1_Channel5_IRQHandler+0x9c>)
 80013ec:	f001 fe9a 	bl	8003124 <HAL_TIM_IC_Stop_DMA>
 80013f0:	4a23      	ldr	r2, [pc, #140]	; (8001480 <DMA1_Channel5_IRQHandler+0xa0>)
 80013f2:	68d3      	ldr	r3, [r2, #12]
 80013f4:	f423 6340 	bic.w	r3, r3, #3072	; 0xc00
 80013f8:	f023 0306 	bic.w	r3, r3, #6
 80013fc:	60d3      	str	r3, [r2, #12]
 80013fe:	4b21      	ldr	r3, [pc, #132]	; (8001484 <DMA1_Channel5_IRQHandler+0xa4>)
 8001400:	881b      	ldrh	r3, [r3, #0]
 8001402:	3b01      	subs	r3, #1
 8001404:	2b07      	cmp	r3, #7
 8001406:	d809      	bhi.n	800141c <DMA1_Channel5_IRQHandler+0x3c>
 8001408:	e8df f003 	tbb	[pc, r3]
 800140c:	211d1904 	.word	0x211d1904
 8001410:	312d2925 	.word	0x312d2925
 8001414:	4b1c      	ldr	r3, [pc, #112]	; (8001488 <DMA1_Channel5_IRQHandler+0xa8>)
 8001416:	681a      	ldr	r2, [r3, #0]
 8001418:	4b1c      	ldr	r3, [pc, #112]	; (800148c <DMA1_Channel5_IRQHandler+0xac>)
 800141a:	801a      	strh	r2, [r3, #0]
 800141c:	2201      	movs	r2, #1
 800141e:	f44f 5180 	mov.w	r1, #4096	; 0x1000
 8001422:	481b      	ldr	r0, [pc, #108]	; (8001490 <DMA1_Channel5_IRQHandler+0xb0>)
 8001424:	f000 fca6 	bl	8001d74 <HAL_GPIO_WritePin>
 8001428:	2200      	movs	r2, #0
 800142a:	f44f 5180 	mov.w	r1, #4096	; 0x1000
 800142e:	4818      	ldr	r0, [pc, #96]	; (8001490 <DMA1_Channel5_IRQHandler+0xb0>)
 8001430:	f000 fca0 	bl	8001d74 <HAL_GPIO_WritePin>
 8001434:	e8bd 4008 	ldmia.w	sp!, {r3, lr}
 8001438:	4816      	ldr	r0, [pc, #88]	; (8001494 <DMA1_Channel5_IRQHandler+0xb4>)
 800143a:	f000 bb2d 	b.w	8001a98 <HAL_DMA_IRQHandler>
 800143e:	4b12      	ldr	r3, [pc, #72]	; (8001488 <DMA1_Channel5_IRQHandler+0xa8>)
 8001440:	681a      	ldr	r2, [r3, #0]
 8001442:	4b15      	ldr	r3, [pc, #84]	; (8001498 <DMA1_Channel5_IRQHandler+0xb8>)
 8001444:	e7e9      	b.n	800141a <DMA1_Channel5_IRQHandler+0x3a>
 8001446:	4b10      	ldr	r3, [pc, #64]	; (8001488 <DMA1_Channel5_IRQHandler+0xa8>)
 8001448:	681a      	ldr	r2, [r3, #0]
 800144a:	4b14      	ldr	r3, [pc, #80]	; (800149c <DMA1_Channel5_IRQHandler+0xbc>)
 800144c:	e7e5      	b.n	800141a <DMA1_Channel5_IRQHandler+0x3a>
 800144e:	4b0e      	ldr	r3, [pc, #56]	; (8001488 <DMA1_Channel5_IRQHandler+0xa8>)
 8001450:	681a      	ldr	r2, [r3, #0]
 8001452:	4b13      	ldr	r3, [pc, #76]	; (80014a0 <DMA1_Channel5_IRQHandler+0xc0>)
 8001454:	e7e1      	b.n	800141a <DMA1_Channel5_IRQHandler+0x3a>
 8001456:	4b0c      	ldr	r3, [pc, #48]	; (8001488 <DMA1_Channel5_IRQHandler+0xa8>)
 8001458:	681a      	ldr	r2, [r3, #0]
 800145a:	4b12      	ldr	r3, [pc, #72]	; (80014a4 <DMA1_Channel5_IRQHandler+0xc4>)
 800145c:	e7dd      	b.n	800141a <DMA1_Channel5_IRQHandler+0x3a>
 800145e:	4b0a      	ldr	r3, [pc, #40]	; (8001488 <DMA1_Channel5_IRQHandler+0xa8>)
 8001460:	681a      	ldr	r2, [r3, #0]
 8001462:	4b11      	ldr	r3, [pc, #68]	; (80014a8 <DMA1_Channel5_IRQHandler+0xc8>)
 8001464:	e7d9      	b.n	800141a <DMA1_Channel5_IRQHandler+0x3a>
 8001466:	4b08      	ldr	r3, [pc, #32]	; (8001488 <DMA1_Channel5_IRQHandler+0xa8>)
 8001468:	681a      	ldr	r2, [r3, #0]
 800146a:	4b10      	ldr	r3, [pc, #64]	; (80014ac <DMA1_Channel5_IRQHandler+0xcc>)
 800146c:	e7d5      	b.n	800141a <DMA1_Channel5_IRQHandler+0x3a>
 800146e:	4b06      	ldr	r3, [pc, #24]	; (8001488 <DMA1_Channel5_IRQHandler+0xa8>)
 8001470:	681a      	ldr	r2, [r3, #0]
 8001472:	4b0f      	ldr	r3, [pc, #60]	; (80014b0 <DMA1_Channel5_IRQHandler+0xd0>)
 8001474:	e7d1      	b.n	800141a <DMA1_Channel5_IRQHandler+0x3a>
 8001476:	bf00      	nop
 8001478:	20000464 	.word	0x20000464
 800147c:	200004bc 	.word	0x200004bc
 8001480:	40010c00 	.word	0x40010c00
 8001484:	200004b6 	.word	0x200004b6
 8001488:	20000410 	.word	0x20000410
 800148c:	20000466 	.word	0x20000466
 8001490:	40010800 	.word	0x40010800
 8001494:	20000274 	.word	0x20000274
 8001498:	200003b8 	.word	0x200003b8
 800149c:	200004b8 	.word	0x200004b8
 80014a0:	200004b4 	.word	0x200004b4
 80014a4:	200003c0 	.word	0x200003c0
 80014a8:	20000468 	.word	0x20000468
 80014ac:	200003ba 	.word	0x200003ba
 80014b0:	20000358 	.word	0x20000358

080014b4 <TIM3_IRQHandler>:
 80014b4:	2201      	movs	r2, #1
 80014b6:	b510      	push	{r4, lr}
 80014b8:	4c09      	ldr	r4, [pc, #36]	; (80014e0 <TIM3_IRQHandler+0x2c>)
 80014ba:	4b0a      	ldr	r3, [pc, #40]	; (80014e4 <TIM3_IRQHandler+0x30>)
 80014bc:	4620      	mov	r0, r4
 80014be:	f44f 5180 	mov.w	r1, #4096	; 0x1000
 80014c2:	701a      	strb	r2, [r3, #0]
 80014c4:	f000 fc56 	bl	8001d74 <HAL_GPIO_WritePin>
 80014c8:	4620      	mov	r0, r4
 80014ca:	2200      	movs	r2, #0
 80014cc:	f44f 5180 	mov.w	r1, #4096	; 0x1000
 80014d0:	f000 fc50 	bl	8001d74 <HAL_GPIO_WritePin>
 80014d4:	e8bd 4010 	ldmia.w	sp!, {r4, lr}
 80014d8:	4803      	ldr	r0, [pc, #12]	; (80014e8 <TIM3_IRQHandler+0x34>)
 80014da:	f001 b8e3 	b.w	80026a4 <HAL_TIM_IRQHandler>
 80014de:	bf00      	nop
 80014e0:	40010800 	.word	0x40010800
 80014e4:	20000464 	.word	0x20000464
 80014e8:	200003c8 	.word	0x200003c8

080014ec <TIM4_IRQHandler>:
 80014ec:	b510      	push	{r4, lr}
 80014ee:	4c5f      	ldr	r4, [pc, #380]	; (800166c <TIM4_IRQHandler+0x180>)
 80014f0:	2100      	movs	r1, #0
 80014f2:	68e2      	ldr	r2, [r4, #12]
 80014f4:	485e      	ldr	r0, [pc, #376]	; (8001670 <TIM4_IRQHandler+0x184>)
 80014f6:	f422 6240 	bic.w	r2, r2, #3072	; 0xc00
 80014fa:	f022 0206 	bic.w	r2, r2, #6
 80014fe:	60e2      	str	r2, [r4, #12]
 8001500:	f001 fe10 	bl	8003124 <HAL_TIM_IC_Stop_DMA>
 8001504:	2100      	movs	r1, #0
 8001506:	485b      	ldr	r0, [pc, #364]	; (8001674 <TIM4_IRQHandler+0x188>)
 8001508:	f001 fcfc 	bl	8002f04 <HAL_TIM_OC_Stop>
 800150c:	2104      	movs	r1, #4
 800150e:	4859      	ldr	r0, [pc, #356]	; (8001674 <TIM4_IRQHandler+0x188>)
 8001510:	f001 fcf8 	bl	8002f04 <HAL_TIM_OC_Stop>
 8001514:	2108      	movs	r1, #8
 8001516:	4857      	ldr	r0, [pc, #348]	; (8001674 <TIM4_IRQHandler+0x188>)
 8001518:	f001 fcf4 	bl	8002f04 <HAL_TIM_OC_Stop>
 800151c:	210c      	movs	r1, #12
 800151e:	4855      	ldr	r0, [pc, #340]	; (8001674 <TIM4_IRQHandler+0x188>)
 8001520:	f001 fcf0 	bl	8002f04 <HAL_TIM_OC_Stop>
 8001524:	4a54      	ldr	r2, [pc, #336]	; (8001678 <TIM4_IRQHandler+0x18c>)
 8001526:	6851      	ldr	r1, [r2, #4]
 8001528:	0c09      	lsrs	r1, r1, #16
 800152a:	0409      	lsls	r1, r1, #16
 800152c:	f441 4188 	orr.w	r1, r1, #17408	; 0x4400
 8001530:	f041 0144 	orr.w	r1, r1, #68	; 0x44
 8001534:	6051      	str	r1, [r2, #4]
 8001536:	4951      	ldr	r1, [pc, #324]	; (800167c <TIM4_IRQHandler+0x190>)
 8001538:	8808      	ldrh	r0, [r1, #0]
 800153a:	1c43      	adds	r3, r0, #1
 800153c:	800b      	strh	r3, [r1, #0]
 800153e:	4623      	mov	r3, r4
 8001540:	2808      	cmp	r0, #8
 8001542:	d820      	bhi.n	8001586 <TIM4_IRQHandler+0x9a>
 8001544:	e8df f000 	tbb	[pc, r0]
 8001548:	362c1105 	.word	0x362c1105
 800154c:	62584c42 	.word	0x62584c42
 8001550:	6c          	.byte	0x6c
 8001551:	00          	.byte	0x00
 8001552:	6851      	ldr	r1, [r2, #4]
 8001554:	f021 010e 	bic.w	r1, r1, #14
 8001558:	f041 010a 	orr.w	r1, r1, #10
 800155c:	6051      	str	r1, [r2, #4]
 800155e:	68da      	ldr	r2, [r3, #12]
 8001560:	f042 0204 	orr.w	r2, r2, #4
 8001564:	2100      	movs	r1, #0
 8001566:	60da      	str	r2, [r3, #12]
 8001568:	e00a      	b.n	8001580 <TIM4_IRQHandler+0x94>
 800156a:	6851      	ldr	r1, [r2, #4]
 800156c:	f021 01e0 	bic.w	r1, r1, #224	; 0xe0
 8001570:	f041 01a0 	orr.w	r1, r1, #160	; 0xa0
 8001574:	6051      	str	r1, [r2, #4]
 8001576:	68da      	ldr	r2, [r3, #12]
 8001578:	f042 0202 	orr.w	r2, r2, #2
 800157c:	2104      	movs	r1, #4
 800157e:	60da      	str	r2, [r3, #12]
 8001580:	483c      	ldr	r0, [pc, #240]	; (8001674 <TIM4_IRQHandler+0x188>)
 8001582:	f001 fc71 	bl	8002e68 <HAL_TIM_OC_Start>
 8001586:	2100      	movs	r1, #0
 8001588:	4b3d      	ldr	r3, [pc, #244]	; (8001680 <TIM4_IRQHandler+0x194>)
 800158a:	4a3e      	ldr	r2, [pc, #248]	; (8001684 <TIM4_IRQHandler+0x198>)
 800158c:	7019      	strb	r1, [r3, #0]
 800158e:	4838      	ldr	r0, [pc, #224]	; (8001670 <TIM4_IRQHandler+0x184>)
 8001590:	2301      	movs	r3, #1
 8001592:	f001 fcf3 	bl	8002f7c <HAL_TIM_IC_Start_DMA>
 8001596:	e8bd 4010 	ldmia.w	sp!, {r4, lr}
 800159a:	483b      	ldr	r0, [pc, #236]	; (8001688 <TIM4_IRQHandler+0x19c>)
 800159c:	f001 b882 	b.w	80026a4 <HAL_TIM_IRQHandler>
 80015a0:	6851      	ldr	r1, [r2, #4]
 80015a2:	f021 01e0 	bic.w	r1, r1, #224	; 0xe0
 80015a6:	f041 01a0 	orr.w	r1, r1, #160	; 0xa0
 80015aa:	6051      	str	r1, [r2, #4]
 80015ac:	68da      	ldr	r2, [r3, #12]
 80015ae:	f442 6280 	orr.w	r2, r2, #1024	; 0x400
 80015b2:	e7e3      	b.n	800157c <TIM4_IRQHandler+0x90>
 80015b4:	6851      	ldr	r1, [r2, #4]
 80015b6:	f421 6160 	bic.w	r1, r1, #3584	; 0xe00
 80015ba:	f441 6120 	orr.w	r1, r1, #2560	; 0xa00
 80015be:	6051      	str	r1, [r2, #4]
 80015c0:	68da      	ldr	r2, [r3, #12]
 80015c2:	f042 0204 	orr.w	r2, r2, #4
 80015c6:	2108      	movs	r1, #8
 80015c8:	60da      	str	r2, [r3, #12]
 80015ca:	e7d9      	b.n	8001580 <TIM4_IRQHandler+0x94>
 80015cc:	6851      	ldr	r1, [r2, #4]
 80015ce:	f421 6160 	bic.w	r1, r1, #3584	; 0xe00
 80015d2:	f441 6120 	orr.w	r1, r1, #2560	; 0xa00
 80015d6:	6051      	str	r1, [r2, #4]
 80015d8:	68da      	ldr	r2, [r3, #12]
 80015da:	f442 6200 	orr.w	r2, r2, #2048	; 0x800
 80015de:	e7f2      	b.n	80015c6 <TIM4_IRQHandler+0xda>
 80015e0:	6851      	ldr	r1, [r2, #4]
 80015e2:	f421 4160 	bic.w	r1, r1, #57344	; 0xe000
 80015e6:	f441 4120 	orr.w	r1, r1, #40960	; 0xa000
 80015ea:	6051      	str	r1, [r2, #4]
 80015ec:	68da      	ldr	r2, [r3, #12]
 80015ee:	f442 6280 	orr.w	r2, r2, #1024	; 0x400
 80015f2:	210c      	movs	r1, #12
 80015f4:	60da      	str	r2, [r3, #12]
 80015f6:	e7c3      	b.n	8001580 <TIM4_IRQHandler+0x94>
 80015f8:	6851      	ldr	r1, [r2, #4]
 80015fa:	f421 4160 	bic.w	r1, r1, #57344	; 0xe000
 80015fe:	f441 4120 	orr.w	r1, r1, #40960	; 0xa000
 8001602:	6051      	str	r1, [r2, #4]
 8001604:	68da      	ldr	r2, [r3, #12]
 8001606:	f042 0202 	orr.w	r2, r2, #2
 800160a:	e7f2      	b.n	80015f2 <TIM4_IRQHandler+0x106>
 800160c:	6851      	ldr	r1, [r2, #4]
 800160e:	f021 010e 	bic.w	r1, r1, #14
 8001612:	f041 010a 	orr.w	r1, r1, #10
 8001616:	6051      	str	r1, [r2, #4]
 8001618:	68da      	ldr	r2, [r3, #12]
 800161a:	f442 6200 	orr.w	r2, r2, #2048	; 0x800
 800161e:	e7a1      	b.n	8001564 <TIM4_IRQHandler+0x78>
 8001620:	2201      	movs	r2, #1
 8001622:	4b1a      	ldr	r3, [pc, #104]	; (800168c <TIM4_IRQHandler+0x1a0>)
 8001624:	701a      	strb	r2, [r3, #0]
 8001626:	4b1a      	ldr	r3, [pc, #104]	; (8001690 <TIM4_IRQHandler+0x1a4>)
 8001628:	4a1a      	ldr	r2, [pc, #104]	; (8001694 <TIM4_IRQHandler+0x1a8>)
 800162a:	881b      	ldrh	r3, [r3, #0]
 800162c:	8812      	ldrh	r2, [r2, #0]
 800162e:	1a9b      	subs	r3, r3, r2
 8001630:	4a19      	ldr	r2, [pc, #100]	; (8001698 <TIM4_IRQHandler+0x1ac>)
 8001632:	8812      	ldrh	r2, [r2, #0]
 8001634:	4413      	add	r3, r2
 8001636:	4a19      	ldr	r2, [pc, #100]	; (800169c <TIM4_IRQHandler+0x1b0>)
 8001638:	8812      	ldrh	r2, [r2, #0]
 800163a:	1a9b      	subs	r3, r3, r2
 800163c:	eb03 73d3 	add.w	r3, r3, r3, lsr #31
 8001640:	4a17      	ldr	r2, [pc, #92]	; (80016a0 <TIM4_IRQHandler+0x1b4>)
 8001642:	105b      	asrs	r3, r3, #1
 8001644:	6013      	str	r3, [r2, #0]
 8001646:	4b17      	ldr	r3, [pc, #92]	; (80016a4 <TIM4_IRQHandler+0x1b8>)
 8001648:	4a17      	ldr	r2, [pc, #92]	; (80016a8 <TIM4_IRQHandler+0x1bc>)
 800164a:	881b      	ldrh	r3, [r3, #0]
 800164c:	8812      	ldrh	r2, [r2, #0]
 800164e:	1a9b      	subs	r3, r3, r2
 8001650:	4a16      	ldr	r2, [pc, #88]	; (80016ac <TIM4_IRQHandler+0x1c0>)
 8001652:	8812      	ldrh	r2, [r2, #0]
 8001654:	4413      	add	r3, r2
 8001656:	4a16      	ldr	r2, [pc, #88]	; (80016b0 <TIM4_IRQHandler+0x1c4>)
 8001658:	8812      	ldrh	r2, [r2, #0]
 800165a:	1a9b      	subs	r3, r3, r2
 800165c:	eb03 73d3 	add.w	r3, r3, r3, lsr #31
 8001660:	4a14      	ldr	r2, [pc, #80]	; (80016b4 <TIM4_IRQHandler+0x1c8>)
 8001662:	105b      	asrs	r3, r3, #1
 8001664:	6013      	str	r3, [r2, #0]
 8001666:	2300      	movs	r3, #0
 8001668:	800b      	strh	r3, [r1, #0]
 800166a:	e78c      	b.n	8001586 <TIM4_IRQHandler+0x9a>
 800166c:	40010c00 	.word	0x40010c00
 8001670:	200004bc 	.word	0x200004bc
 8001674:	2000046c 	.word	0x2000046c
 8001678:	40010800 	.word	0x40010800
 800167c:	200004b6 	.word	0x200004b6
 8001680:	20000464 	.word	0x20000464
 8001684:	20000410 	.word	0x20000410
 8001688:	20000310 	.word	0x20000310
 800168c:	20000270 	.word	0x20000270
 8001690:	20000466 	.word	0x20000466
 8001694:	200003b8 	.word	0x200003b8
 8001698:	20000468 	.word	0x20000468
 800169c:	200003c0 	.word	0x200003c0
 80016a0:	20000504 	.word	0x20000504
 80016a4:	200004b8 	.word	0x200004b8
 80016a8:	200004b4 	.word	0x200004b4
 80016ac:	20000358 	.word	0x20000358
 80016b0:	200003ba 	.word	0x200003ba
 80016b4:	200003bc 	.word	0x200003bc

080016b8 <_getpid>:
 80016b8:	2001      	movs	r0, #1
 80016ba:	4770      	bx	lr

080016bc <_kill>:
 80016bc:	b508      	push	{r3, lr}
 80016be:	f002 fa1d 	bl	8003afc <__errno>
 80016c2:	2316      	movs	r3, #22
 80016c4:	6003      	str	r3, [r0, #0]
 80016c6:	f04f 30ff 	mov.w	r0, #4294967295	; 0xffffffff
 80016ca:	bd08      	pop	{r3, pc}

080016cc <_exit>:
 80016cc:	b508      	push	{r3, lr}
 80016ce:	f002 fa15 	bl	8003afc <__errno>
 80016d2:	2316      	movs	r3, #22
 80016d4:	6003      	str	r3, [r0, #0]
 80016d6:	e7fe      	b.n	80016d6 <_exit+0xa>

080016d8 <_read>:
 80016d8:	b570      	push	{r4, r5, r6, lr}
 80016da:	460e      	mov	r6, r1
 80016dc:	4614      	mov	r4, r2
 80016de:	2500      	movs	r5, #0
 80016e0:	42a5      	cmp	r5, r4
 80016e2:	db01      	blt.n	80016e8 <_read+0x10>
 80016e4:	4620      	mov	r0, r4
 80016e6:	bd70      	pop	{r4, r5, r6, pc}
 80016e8:	f3af 8000 	nop.w
 80016ec:	5570      	strb	r0, [r6, r5]
 80016ee:	3501      	adds	r5, #1
 80016f0:	e7f6      	b.n	80016e0 <_read+0x8>

080016f2 <_write>:
 80016f2:	b570      	push	{r4, r5, r6, lr}
 80016f4:	460e      	mov	r6, r1
 80016f6:	4614      	mov	r4, r2
 80016f8:	2500      	movs	r5, #0
 80016fa:	42a5      	cmp	r5, r4
 80016fc:	db01      	blt.n	8001702 <_write+0x10>
 80016fe:	4620      	mov	r0, r4
 8001700:	bd70      	pop	{r4, r5, r6, pc}
 8001702:	5d70      	ldrb	r0, [r6, r5]
 8001704:	f3af 8000 	nop.w
 8001708:	3501      	adds	r5, #1
 800170a:	e7f6      	b.n	80016fa <_write+0x8>

0800170c <_close>:
 800170c:	f04f 30ff 	mov.w	r0, #4294967295	; 0xffffffff
 8001710:	4770      	bx	lr

08001712 <_fstat>:
 8001712:	f44f 5300 	mov.w	r3, #8192	; 0x2000
 8001716:	2000      	movs	r0, #0
 8001718:	604b      	str	r3, [r1, #4]
 800171a:	4770      	bx	lr

0800171c <_isatty>:
 800171c:	2001      	movs	r0, #1
 800171e:	4770      	bx	lr

08001720 <_lseek>:
 8001720:	2000      	movs	r0, #0
 8001722:	4770      	bx	lr

08001724 <_sbrk>:
 8001724:	4b0b      	ldr	r3, [pc, #44]	; (8001754 <_sbrk+0x30>)
 8001726:	4602      	mov	r2, r0
 8001728:	6819      	ldr	r1, [r3, #0]
 800172a:	b510      	push	{r4, lr}
 800172c:	b909      	cbnz	r1, 8001732 <_sbrk+0xe>
 800172e:	490a      	ldr	r1, [pc, #40]	; (8001758 <_sbrk+0x34>)
 8001730:	6019      	str	r1, [r3, #0]
 8001732:	6818      	ldr	r0, [r3, #0]
 8001734:	4909      	ldr	r1, [pc, #36]	; (800175c <_sbrk+0x38>)
 8001736:	4c0a      	ldr	r4, [pc, #40]	; (8001760 <_sbrk+0x3c>)
 8001738:	4402      	add	r2, r0
 800173a:	1b09      	subs	r1, r1, r4
 800173c:	428a      	cmp	r2, r1
 800173e:	d906      	bls.n	800174e <_sbrk+0x2a>
 8001740:	f002 f9dc 	bl	8003afc <__errno>
 8001744:	230c      	movs	r3, #12
 8001746:	6003      	str	r3, [r0, #0]
 8001748:	f04f 30ff 	mov.w	r0, #4294967295	; 0xffffffff
 800174c:	bd10      	pop	{r4, pc}
 800174e:	601a      	str	r2, [r3, #0]
 8001750:	e7fc      	b.n	800174c <_sbrk+0x28>
 8001752:	bf00      	nop
 8001754:	20000260 	.word	0x20000260
 8001758:	20000520 	.word	0x20000520
 800175c:	20005000 	.word	0x20005000
 8001760:	00000400 	.word	0x00000400

08001764 <SystemInit>:
 8001764:	4770      	bx	lr
	...

08001768 <Reset_Handler>:
 8001768:	480c      	ldr	r0, [pc, #48]	; (800179c <LoopFillZerobss+0x12>)
 800176a:	490d      	ldr	r1, [pc, #52]	; (80017a0 <LoopFillZerobss+0x16>)
 800176c:	4a0d      	ldr	r2, [pc, #52]	; (80017a4 <LoopFillZerobss+0x1a>)
 800176e:	2300      	movs	r3, #0
 8001770:	e002      	b.n	8001778 <LoopCopyDataInit>

08001772 <CopyDataInit>:
 8001772:	58d4      	ldr	r4, [r2, r3]
 8001774:	50c4      	str	r4, [r0, r3]
 8001776:	3304      	adds	r3, #4

08001778 <LoopCopyDataInit>:
 8001778:	18c4      	adds	r4, r0, r3
 800177a:	428c      	cmp	r4, r1
 800177c:	d3f9      	bcc.n	8001772 <CopyDataInit>
 800177e:	4a0a      	ldr	r2, [pc, #40]	; (80017a8 <LoopFillZerobss+0x1e>)
 8001780:	4c0a      	ldr	r4, [pc, #40]	; (80017ac <LoopFillZerobss+0x22>)
 8001782:	2300      	movs	r3, #0
 8001784:	e001      	b.n	800178a <LoopFillZerobss>

08001786 <FillZerobss>:
 8001786:	6013      	str	r3, [r2, #0]
 8001788:	3204      	adds	r2, #4

0800178a <LoopFillZerobss>:
 800178a:	42a2      	cmp	r2, r4
 800178c:	d3fb      	bcc.n	8001786 <FillZerobss>
 800178e:	f7ff ffe9 	bl	8001764 <SystemInit>
 8001792:	f002 f9b9 	bl	8003b08 <__libc_init_array>
 8001796:	f7ff f9ab 	bl	8000af0 <main>
 800179a:	4770      	bx	lr
 800179c:	20000000 	.word	0x20000000
 80017a0:	200001e0 	.word	0x200001e0
 80017a4:	08006d0c 	.word	0x08006d0c
 80017a8:	200001e0 	.word	0x200001e0
 80017ac:	2000051c 	.word	0x2000051c

080017b0 <ADC1_2_IRQHandler>:
 80017b0:	e7fe      	b.n	80017b0 <ADC1_2_IRQHandler>
	...

080017b4 <HAL_InitTick>:
 80017b4:	b538      	push	{r3, r4, r5, lr}
 80017b6:	4b0e      	ldr	r3, [pc, #56]	; (80017f0 <HAL_InitTick+0x3c>)
 80017b8:	4605      	mov	r5, r0
 80017ba:	7818      	ldrb	r0, [r3, #0]
 80017bc:	f44f 737a 	mov.w	r3, #1000	; 0x3e8
 80017c0:	fbb3 f3f0 	udiv	r3, r3, r0
 80017c4:	4a0b      	ldr	r2, [pc, #44]	; (80017f4 <HAL_InitTick+0x40>)
 80017c6:	6810      	ldr	r0, [r2, #0]
 80017c8:	fbb0 f0f3 	udiv	r0, r0, r3
 80017cc:	f000 f89e 	bl	800190c <HAL_SYSTICK_Config>
 80017d0:	4604      	mov	r4, r0
 80017d2:	b958      	cbnz	r0, 80017ec <HAL_InitTick+0x38>
 80017d4:	2d0f      	cmp	r5, #15
 80017d6:	d809      	bhi.n	80017ec <HAL_InitTick+0x38>
 80017d8:	4602      	mov	r2, r0
 80017da:	4629      	mov	r1, r5
 80017dc:	f04f 30ff 	mov.w	r0, #4294967295	; 0xffffffff
 80017e0:	f000 f854 	bl	800188c <HAL_NVIC_SetPriority>
 80017e4:	4620      	mov	r0, r4
 80017e6:	4b04      	ldr	r3, [pc, #16]	; (80017f8 <HAL_InitTick+0x44>)
 80017e8:	601d      	str	r5, [r3, #0]
 80017ea:	bd38      	pop	{r3, r4, r5, pc}
 80017ec:	2001      	movs	r0, #1
 80017ee:	e7fc      	b.n	80017ea <HAL_InitTick+0x36>
 80017f0:	20000004 	.word	0x20000004
 80017f4:	20000000 	.word	0x20000000
 80017f8:	20000008 	.word	0x20000008

080017fc <HAL_Init>:
 80017fc:	4a07      	ldr	r2, [pc, #28]	; (800181c <HAL_Init+0x20>)
 80017fe:	b508      	push	{r3, lr}
 8001800:	6813      	ldr	r3, [r2, #0]
 8001802:	2003      	movs	r0, #3
 8001804:	f043 0310 	orr.w	r3, r3, #16
 8001808:	6013      	str	r3, [r2, #0]
 800180a:	f000 f82d 	bl	8001868 <HAL_NVIC_SetPriorityGrouping>
 800180e:	2000      	movs	r0, #0
 8001810:	f7ff ffd0 	bl	80017b4 <HAL_InitTick>
 8001814:	f7ff fc4e 	bl	80010b4 <HAL_MspInit>
 8001818:	2000      	movs	r0, #0
 800181a:	bd08      	pop	{r3, pc}
 800181c:	40022000 	.word	0x40022000

08001820 <HAL_IncTick>:
 8001820:	4a03      	ldr	r2, [pc, #12]	; (8001830 <HAL_IncTick+0x10>)
 8001822:	4b04      	ldr	r3, [pc, #16]	; (8001834 <HAL_IncTick+0x14>)
 8001824:	6811      	ldr	r1, [r2, #0]
 8001826:	781b      	ldrb	r3, [r3, #0]
 8001828:	440b      	add	r3, r1
 800182a:	6013      	str	r3, [r2, #0]
 800182c:	4770      	bx	lr
 800182e:	bf00      	nop
 8001830:	20000508 	.word	0x20000508
 8001834:	20000004 	.word	0x20000004

08001838 <HAL_GetTick>:
 8001838:	4b01      	ldr	r3, [pc, #4]	; (8001840 <HAL_GetTick+0x8>)
 800183a:	6818      	ldr	r0, [r3, #0]
 800183c:	4770      	bx	lr
 800183e:	bf00      	nop
 8001840:	20000508 	.word	0x20000508

08001844 <HAL_Delay>:
 8001844:	b538      	push	{r3, r4, r5, lr}
 8001846:	4604      	mov	r4, r0
 8001848:	f7ff fff6 	bl	8001838 <HAL_GetTick>
 800184c:	4605      	mov	r5, r0
 800184e:	1c63      	adds	r3, r4, #1
 8001850:	bf1e      	ittt	ne
 8001852:	4b04      	ldrne	r3, [pc, #16]	; (8001864 <HAL_Delay+0x20>)
 8001854:	781b      	ldrbne	r3, [r3, #0]
 8001856:	18e4      	addne	r4, r4, r3
 8001858:	f7ff ffee 	bl	8001838 <HAL_GetTick>
 800185c:	1b43      	subs	r3, r0, r5
 800185e:	42a3      	cmp	r3, r4
 8001860:	d3fa      	bcc.n	8001858 <HAL_Delay+0x14>
 8001862:	bd38      	pop	{r3, r4, r5, pc}
 8001864:	20000004 	.word	0x20000004

08001868 <HAL_NVIC_SetPriorityGrouping>:
 8001868:	4907      	ldr	r1, [pc, #28]	; (8001888 <HAL_NVIC_SetPriorityGrouping+0x20>)
 800186a:	0203      	lsls	r3, r0, #8
 800186c:	68ca      	ldr	r2, [r1, #12]
 800186e:	f403 63e0 	and.w	r3, r3, #1792	; 0x700
 8001872:	f422 62e0 	bic.w	r2, r2, #1792	; 0x700
 8001876:	0412      	lsls	r2, r2, #16
 8001878:	0c12      	lsrs	r2, r2, #16
 800187a:	4313      	orrs	r3, r2
 800187c:	f043 63bf 	orr.w	r3, r3, #100139008	; 0x5f80000
 8001880:	f443 3300 	orr.w	r3, r3, #131072	; 0x20000
 8001884:	60cb      	str	r3, [r1, #12]
 8001886:	4770      	bx	lr
 8001888:	e000ed00 	.word	0xe000ed00

0800188c <HAL_NVIC_SetPriority>:
 800188c:	4b16      	ldr	r3, [pc, #88]	; (80018e8 <HAL_NVIC_SetPriority+0x5c>)
 800188e:	b530      	push	{r4, r5, lr}
 8001890:	68dc      	ldr	r4, [r3, #12]
 8001892:	f3c4 2402 	ubfx	r4, r4, #8, #3
 8001896:	f1c4 0307 	rsb	r3, r4, #7
 800189a:	1d25      	adds	r5, r4, #4
 800189c:	2b04      	cmp	r3, #4
 800189e:	bf28      	it	cs
 80018a0:	2304      	movcs	r3, #4
 80018a2:	2d06      	cmp	r5, #6
 80018a4:	f04f 35ff 	mov.w	r5, #4294967295	; 0xffffffff
 80018a8:	bf98      	it	ls
 80018aa:	2400      	movls	r4, #0
 80018ac:	fa05 f303 	lsl.w	r3, r5, r3
 80018b0:	bf88      	it	hi
 80018b2:	3c03      	subhi	r4, #3
 80018b4:	ea21 0303 	bic.w	r3, r1, r3
 80018b8:	40a3      	lsls	r3, r4
 80018ba:	fa05 f404 	lsl.w	r4, r5, r4
 80018be:	ea22 0204 	bic.w	r2, r2, r4
 80018c2:	2800      	cmp	r0, #0
 80018c4:	ea43 0302 	orr.w	r3, r3, r2
 80018c8:	bfac      	ite	ge
 80018ca:	f100 4060 	addge.w	r0, r0, #3758096384	; 0xe0000000
 80018ce:	4a07      	ldrlt	r2, [pc, #28]	; (80018ec <HAL_NVIC_SetPriority+0x60>)
 80018d0:	ea4f 1303 	mov.w	r3, r3, lsl #4
 80018d4:	b2db      	uxtb	r3, r3
 80018d6:	bfab      	itete	ge
 80018d8:	f500 4061 	addge.w	r0, r0, #57600	; 0xe100
 80018dc:	f000 000f 	andlt.w	r0, r0, #15
 80018e0:	f880 3300 	strbge.w	r3, [r0, #768]	; 0x300
 80018e4:	5413      	strblt	r3, [r2, r0]
 80018e6:	bd30      	pop	{r4, r5, pc}
 80018e8:	e000ed00 	.word	0xe000ed00
 80018ec:	e000ed14 	.word	0xe000ed14

080018f0 <HAL_NVIC_EnableIRQ>:
 80018f0:	2800      	cmp	r0, #0
 80018f2:	db08      	blt.n	8001906 <HAL_NVIC_EnableIRQ+0x16>
 80018f4:	2301      	movs	r3, #1
 80018f6:	0942      	lsrs	r2, r0, #5
 80018f8:	f000 001f 	and.w	r0, r0, #31
 80018fc:	fa03 f000 	lsl.w	r0, r3, r0
 8001900:	4b01      	ldr	r3, [pc, #4]	; (8001908 <HAL_NVIC_EnableIRQ+0x18>)
 8001902:	f843 0022 	str.w	r0, [r3, r2, lsl #2]
 8001906:	4770      	bx	lr
 8001908:	e000e100 	.word	0xe000e100

0800190c <HAL_SYSTICK_Config>:
 800190c:	3801      	subs	r0, #1
 800190e:	f1b0 7f80 	cmp.w	r0, #16777216	; 0x1000000
 8001912:	d20a      	bcs.n	800192a <HAL_SYSTICK_Config+0x1e>
 8001914:	21f0      	movs	r1, #240	; 0xf0
 8001916:	4b06      	ldr	r3, [pc, #24]	; (8001930 <HAL_SYSTICK_Config+0x24>)
 8001918:	4a06      	ldr	r2, [pc, #24]	; (8001934 <HAL_SYSTICK_Config+0x28>)
 800191a:	6058      	str	r0, [r3, #4]
 800191c:	f882 1023 	strb.w	r1, [r2, #35]	; 0x23
 8001920:	2000      	movs	r0, #0
 8001922:	2207      	movs	r2, #7
 8001924:	6098      	str	r0, [r3, #8]
 8001926:	601a      	str	r2, [r3, #0]
 8001928:	4770      	bx	lr
 800192a:	2001      	movs	r0, #1
 800192c:	4770      	bx	lr
 800192e:	bf00      	nop
 8001930:	e000e010 	.word	0xe000e010
 8001934:	e000ed00 	.word	0xe000ed00

08001938 <HAL_DMA_Init>:
 8001938:	b510      	push	{r4, lr}
 800193a:	b320      	cbz	r0, 8001986 <HAL_DMA_Init+0x4e>
 800193c:	2214      	movs	r2, #20
 800193e:	6801      	ldr	r1, [r0, #0]
 8001940:	4b12      	ldr	r3, [pc, #72]	; (800198c <HAL_DMA_Init+0x54>)
 8001942:	440b      	add	r3, r1
 8001944:	fbb3 f3f2 	udiv	r3, r3, r2
 8001948:	009b      	lsls	r3, r3, #2
 800194a:	6403      	str	r3, [r0, #64]	; 0x40
 800194c:	4b10      	ldr	r3, [pc, #64]	; (8001990 <HAL_DMA_Init+0x58>)
 800194e:	680a      	ldr	r2, [r1, #0]
 8001950:	63c3      	str	r3, [r0, #60]	; 0x3c
 8001952:	e9d0 3401 	ldrd	r3, r4, [r0, #4]
 8001956:	4323      	orrs	r3, r4
 8001958:	68c4      	ldr	r4, [r0, #12]
 800195a:	f422 527f 	bic.w	r2, r2, #16320	; 0x3fc0
 800195e:	4323      	orrs	r3, r4
 8001960:	6904      	ldr	r4, [r0, #16]
 8001962:	f022 0230 	bic.w	r2, r2, #48	; 0x30
 8001966:	4323      	orrs	r3, r4
 8001968:	6944      	ldr	r4, [r0, #20]
 800196a:	4323      	orrs	r3, r4
 800196c:	6984      	ldr	r4, [r0, #24]
 800196e:	4323      	orrs	r3, r4
 8001970:	69c4      	ldr	r4, [r0, #28]
 8001972:	4323      	orrs	r3, r4
 8001974:	4313      	orrs	r3, r2
 8001976:	600b      	str	r3, [r1, #0]
 8001978:	f44f 7280 	mov.w	r2, #256	; 0x100
 800197c:	2300      	movs	r3, #0
 800197e:	8402      	strh	r2, [r0, #32]
 8001980:	6383      	str	r3, [r0, #56]	; 0x38
 8001982:	4618      	mov	r0, r3
 8001984:	bd10      	pop	{r4, pc}
 8001986:	2001      	movs	r0, #1
 8001988:	e7fc      	b.n	8001984 <HAL_DMA_Init+0x4c>
 800198a:	bf00      	nop
 800198c:	bffdfff8 	.word	0xbffdfff8
 8001990:	40020000 	.word	0x40020000

08001994 <HAL_DMA_Start_IT>:
 8001994:	b5f0      	push	{r4, r5, r6, r7, lr}
 8001996:	f890 4020 	ldrb.w	r4, [r0, #32]
 800199a:	2c01      	cmp	r4, #1
 800199c:	d034      	beq.n	8001a08 <HAL_DMA_Start_IT+0x74>
 800199e:	2401      	movs	r4, #1
 80019a0:	f890 5021 	ldrb.w	r5, [r0, #33]	; 0x21
 80019a4:	f880 4020 	strb.w	r4, [r0, #32]
 80019a8:	42a5      	cmp	r5, r4
 80019aa:	f04f 0600 	mov.w	r6, #0
 80019ae:	f04f 0402 	mov.w	r4, #2
 80019b2:	d127      	bne.n	8001a04 <HAL_DMA_Start_IT+0x70>
 80019b4:	f880 4021 	strb.w	r4, [r0, #33]	; 0x21
 80019b8:	6804      	ldr	r4, [r0, #0]
 80019ba:	6386      	str	r6, [r0, #56]	; 0x38
 80019bc:	6826      	ldr	r6, [r4, #0]
 80019be:	f026 0601 	bic.w	r6, r6, #1
 80019c2:	6026      	str	r6, [r4, #0]
 80019c4:	e9d0 670f 	ldrd	r6, r7, [r0, #60]	; 0x3c
 80019c8:	40bd      	lsls	r5, r7
 80019ca:	6075      	str	r5, [r6, #4]
 80019cc:	6063      	str	r3, [r4, #4]
 80019ce:	6843      	ldr	r3, [r0, #4]
 80019d0:	2b10      	cmp	r3, #16
 80019d2:	6ac3      	ldr	r3, [r0, #44]	; 0x2c
 80019d4:	bf0b      	itete	eq
 80019d6:	60a2      	streq	r2, [r4, #8]
 80019d8:	60a1      	strne	r1, [r4, #8]
 80019da:	60e1      	streq	r1, [r4, #12]
 80019dc:	60e2      	strne	r2, [r4, #12]
 80019de:	b14b      	cbz	r3, 80019f4 <HAL_DMA_Start_IT+0x60>
 80019e0:	6823      	ldr	r3, [r4, #0]
 80019e2:	f043 030e 	orr.w	r3, r3, #14
 80019e6:	2000      	movs	r0, #0
 80019e8:	6023      	str	r3, [r4, #0]
 80019ea:	6823      	ldr	r3, [r4, #0]
 80019ec:	f043 0301 	orr.w	r3, r3, #1
 80019f0:	6023      	str	r3, [r4, #0]
 80019f2:	bdf0      	pop	{r4, r5, r6, r7, pc}
 80019f4:	6823      	ldr	r3, [r4, #0]
 80019f6:	f023 0304 	bic.w	r3, r3, #4
 80019fa:	6023      	str	r3, [r4, #0]
 80019fc:	6823      	ldr	r3, [r4, #0]
 80019fe:	f043 030a 	orr.w	r3, r3, #10
 8001a02:	e7f0      	b.n	80019e6 <HAL_DMA_Start_IT+0x52>
 8001a04:	f880 6020 	strb.w	r6, [r0, #32]
 8001a08:	2002      	movs	r0, #2
 8001a0a:	e7f2      	b.n	80019f2 <HAL_DMA_Start_IT+0x5e>

08001a0c <HAL_DMA_Abort_IT>:
 8001a0c:	b508      	push	{r3, lr}
 8001a0e:	f890 3021 	ldrb.w	r3, [r0, #33]	; 0x21
 8001a12:	2b02      	cmp	r3, #2
 8001a14:	d003      	beq.n	8001a1e <HAL_DMA_Abort_IT+0x12>
 8001a16:	2304      	movs	r3, #4
 8001a18:	6383      	str	r3, [r0, #56]	; 0x38
 8001a1a:	2001      	movs	r0, #1
 8001a1c:	bd08      	pop	{r3, pc}
 8001a1e:	6803      	ldr	r3, [r0, #0]
 8001a20:	681a      	ldr	r2, [r3, #0]
 8001a22:	f022 020e 	bic.w	r2, r2, #14
 8001a26:	601a      	str	r2, [r3, #0]
 8001a28:	681a      	ldr	r2, [r3, #0]
 8001a2a:	f022 0201 	bic.w	r2, r2, #1
 8001a2e:	601a      	str	r2, [r3, #0]
 8001a30:	4a17      	ldr	r2, [pc, #92]	; (8001a90 <HAL_DMA_Abort_IT+0x84>)
 8001a32:	4293      	cmp	r3, r2
 8001a34:	d01c      	beq.n	8001a70 <HAL_DMA_Abort_IT+0x64>
 8001a36:	3214      	adds	r2, #20
 8001a38:	4293      	cmp	r3, r2
 8001a3a:	d01b      	beq.n	8001a74 <HAL_DMA_Abort_IT+0x68>
 8001a3c:	3214      	adds	r2, #20
 8001a3e:	4293      	cmp	r3, r2
 8001a40:	d01a      	beq.n	8001a78 <HAL_DMA_Abort_IT+0x6c>
 8001a42:	3214      	adds	r2, #20
 8001a44:	4293      	cmp	r3, r2
 8001a46:	d01a      	beq.n	8001a7e <HAL_DMA_Abort_IT+0x72>
 8001a48:	3214      	adds	r2, #20
 8001a4a:	4293      	cmp	r3, r2
 8001a4c:	d01a      	beq.n	8001a84 <HAL_DMA_Abort_IT+0x78>
 8001a4e:	3214      	adds	r2, #20
 8001a50:	4293      	cmp	r3, r2
 8001a52:	bf0c      	ite	eq
 8001a54:	f44f 1380 	moveq.w	r3, #1048576	; 0x100000
 8001a58:	f04f 7380 	movne.w	r3, #16777216	; 0x1000000
 8001a5c:	4a0d      	ldr	r2, [pc, #52]	; (8001a94 <HAL_DMA_Abort_IT+0x88>)
 8001a5e:	6053      	str	r3, [r2, #4]
 8001a60:	f44f 7380 	mov.w	r3, #256	; 0x100
 8001a64:	8403      	strh	r3, [r0, #32]
 8001a66:	6b43      	ldr	r3, [r0, #52]	; 0x34
 8001a68:	b17b      	cbz	r3, 8001a8a <HAL_DMA_Abort_IT+0x7e>
 8001a6a:	4798      	blx	r3
 8001a6c:	2000      	movs	r0, #0
 8001a6e:	e7d5      	b.n	8001a1c <HAL_DMA_Abort_IT+0x10>
 8001a70:	2301      	movs	r3, #1
 8001a72:	e7f3      	b.n	8001a5c <HAL_DMA_Abort_IT+0x50>
 8001a74:	2310      	movs	r3, #16
 8001a76:	e7f1      	b.n	8001a5c <HAL_DMA_Abort_IT+0x50>
 8001a78:	f44f 7380 	mov.w	r3, #256	; 0x100
 8001a7c:	e7ee      	b.n	8001a5c <HAL_DMA_Abort_IT+0x50>
 8001a7e:	f44f 5380 	mov.w	r3, #4096	; 0x1000
 8001a82:	e7eb      	b.n	8001a5c <HAL_DMA_Abort_IT+0x50>
 8001a84:	f44f 3380 	mov.w	r3, #65536	; 0x10000
 8001a88:	e7e8      	b.n	8001a5c <HAL_DMA_Abort_IT+0x50>
 8001a8a:	4618      	mov	r0, r3
 8001a8c:	e7c6      	b.n	8001a1c <HAL_DMA_Abort_IT+0x10>
 8001a8e:	bf00      	nop
 8001a90:	40020008 	.word	0x40020008
 8001a94:	40020000 	.word	0x40020000

08001a98 <HAL_DMA_IRQHandler>:
 8001a98:	b470      	push	{r4, r5, r6}
 8001a9a:	2504      	movs	r5, #4
 8001a9c:	6bc6      	ldr	r6, [r0, #60]	; 0x3c
 8001a9e:	6c02      	ldr	r2, [r0, #64]	; 0x40
 8001aa0:	6834      	ldr	r4, [r6, #0]
 8001aa2:	6803      	ldr	r3, [r0, #0]
 8001aa4:	4095      	lsls	r5, r2
 8001aa6:	4225      	tst	r5, r4
 8001aa8:	6819      	ldr	r1, [r3, #0]
 8001aaa:	d032      	beq.n	8001b12 <HAL_DMA_IRQHandler+0x7a>
 8001aac:	074d      	lsls	r5, r1, #29
 8001aae:	d530      	bpl.n	8001b12 <HAL_DMA_IRQHandler+0x7a>
 8001ab0:	681a      	ldr	r2, [r3, #0]
 8001ab2:	0696      	lsls	r6, r2, #26
 8001ab4:	bf5e      	ittt	pl
 8001ab6:	681a      	ldrpl	r2, [r3, #0]
 8001ab8:	f022 0204 	bicpl.w	r2, r2, #4
 8001abc:	601a      	strpl	r2, [r3, #0]
 8001abe:	4a3d      	ldr	r2, [pc, #244]	; (8001bb4 <HAL_DMA_IRQHandler+0x11c>)
 8001ac0:	4293      	cmp	r3, r2
 8001ac2:	d019      	beq.n	8001af8 <HAL_DMA_IRQHandler+0x60>
 8001ac4:	3214      	adds	r2, #20
 8001ac6:	4293      	cmp	r3, r2
 8001ac8:	d018      	beq.n	8001afc <HAL_DMA_IRQHandler+0x64>
 8001aca:	3214      	adds	r2, #20
 8001acc:	4293      	cmp	r3, r2
 8001ace:	d017      	beq.n	8001b00 <HAL_DMA_IRQHandler+0x68>
 8001ad0:	3214      	adds	r2, #20
 8001ad2:	4293      	cmp	r3, r2
 8001ad4:	d017      	beq.n	8001b06 <HAL_DMA_IRQHandler+0x6e>
 8001ad6:	3214      	adds	r2, #20
 8001ad8:	4293      	cmp	r3, r2
 8001ada:	d017      	beq.n	8001b0c <HAL_DMA_IRQHandler+0x74>
 8001adc:	3214      	adds	r2, #20
 8001ade:	4293      	cmp	r3, r2
 8001ae0:	bf0c      	ite	eq
 8001ae2:	f44f 0380 	moveq.w	r3, #4194304	; 0x400000
 8001ae6:	f04f 6380 	movne.w	r3, #67108864	; 0x4000000
 8001aea:	4a33      	ldr	r2, [pc, #204]	; (8001bb8 <HAL_DMA_IRQHandler+0x120>)
 8001aec:	6053      	str	r3, [r2, #4]
 8001aee:	6ac3      	ldr	r3, [r0, #44]	; 0x2c
 8001af0:	2b00      	cmp	r3, #0
 8001af2:	d05c      	beq.n	8001bae <HAL_DMA_IRQHandler+0x116>
 8001af4:	bc70      	pop	{r4, r5, r6}
 8001af6:	4718      	bx	r3
 8001af8:	2304      	movs	r3, #4
 8001afa:	e7f6      	b.n	8001aea <HAL_DMA_IRQHandler+0x52>
 8001afc:	2340      	movs	r3, #64	; 0x40
 8001afe:	e7f4      	b.n	8001aea <HAL_DMA_IRQHandler+0x52>
 8001b00:	f44f 6380 	mov.w	r3, #1024	; 0x400
 8001b04:	e7f1      	b.n	8001aea <HAL_DMA_IRQHandler+0x52>
 8001b06:	f44f 4380 	mov.w	r3, #16384	; 0x4000
 8001b0a:	e7ee      	b.n	8001aea <HAL_DMA_IRQHandler+0x52>
 8001b0c:	f44f 2380 	mov.w	r3, #262144	; 0x40000
 8001b10:	e7eb      	b.n	8001aea <HAL_DMA_IRQHandler+0x52>
 8001b12:	2502      	movs	r5, #2
 8001b14:	4095      	lsls	r5, r2
 8001b16:	4225      	tst	r5, r4
 8001b18:	d035      	beq.n	8001b86 <HAL_DMA_IRQHandler+0xee>
 8001b1a:	078d      	lsls	r5, r1, #30
 8001b1c:	d533      	bpl.n	8001b86 <HAL_DMA_IRQHandler+0xee>
 8001b1e:	681a      	ldr	r2, [r3, #0]
 8001b20:	0694      	lsls	r4, r2, #26
 8001b22:	d406      	bmi.n	8001b32 <HAL_DMA_IRQHandler+0x9a>
 8001b24:	681a      	ldr	r2, [r3, #0]
 8001b26:	f022 020a 	bic.w	r2, r2, #10
 8001b2a:	601a      	str	r2, [r3, #0]
 8001b2c:	2201      	movs	r2, #1
 8001b2e:	f880 2021 	strb.w	r2, [r0, #33]	; 0x21
 8001b32:	4a20      	ldr	r2, [pc, #128]	; (8001bb4 <HAL_DMA_IRQHandler+0x11c>)
 8001b34:	4293      	cmp	r3, r2
 8001b36:	d019      	beq.n	8001b6c <HAL_DMA_IRQHandler+0xd4>
 8001b38:	3214      	adds	r2, #20
 8001b3a:	4293      	cmp	r3, r2
 8001b3c:	d018      	beq.n	8001b70 <HAL_DMA_IRQHandler+0xd8>
 8001b3e:	3214      	adds	r2, #20
 8001b40:	4293      	cmp	r3, r2
 8001b42:	d017      	beq.n	8001b74 <HAL_DMA_IRQHandler+0xdc>
 8001b44:	3214      	adds	r2, #20
 8001b46:	4293      	cmp	r3, r2
 8001b48:	d017      	beq.n	8001b7a <HAL_DMA_IRQHandler+0xe2>
 8001b4a:	3214      	adds	r2, #20
 8001b4c:	4293      	cmp	r3, r2
 8001b4e:	d017      	beq.n	8001b80 <HAL_DMA_IRQHandler+0xe8>
 8001b50:	3214      	adds	r2, #20
 8001b52:	4293      	cmp	r3, r2
 8001b54:	bf0c      	ite	eq
 8001b56:	f44f 1300 	moveq.w	r3, #2097152	; 0x200000
 8001b5a:	f04f 7300 	movne.w	r3, #33554432	; 0x2000000
 8001b5e:	4a16      	ldr	r2, [pc, #88]	; (8001bb8 <HAL_DMA_IRQHandler+0x120>)
 8001b60:	6053      	str	r3, [r2, #4]
 8001b62:	2300      	movs	r3, #0
 8001b64:	f880 3020 	strb.w	r3, [r0, #32]
 8001b68:	6a83      	ldr	r3, [r0, #40]	; 0x28
 8001b6a:	e7c1      	b.n	8001af0 <HAL_DMA_IRQHandler+0x58>
 8001b6c:	2302      	movs	r3, #2
 8001b6e:	e7f6      	b.n	8001b5e <HAL_DMA_IRQHandler+0xc6>
 8001b70:	2320      	movs	r3, #32
 8001b72:	e7f4      	b.n	8001b5e <HAL_DMA_IRQHandler+0xc6>
 8001b74:	f44f 7300 	mov.w	r3, #512	; 0x200
 8001b78:	e7f1      	b.n	8001b5e <HAL_DMA_IRQHandler+0xc6>
 8001b7a:	f44f 5300 	mov.w	r3, #8192	; 0x2000
 8001b7e:	e7ee      	b.n	8001b5e <HAL_DMA_IRQHandler+0xc6>
 8001b80:	f44f 3300 	mov.w	r3, #131072	; 0x20000
 8001b84:	e7eb      	b.n	8001b5e <HAL_DMA_IRQHandler+0xc6>
 8001b86:	2508      	movs	r5, #8
 8001b88:	4095      	lsls	r5, r2
 8001b8a:	4225      	tst	r5, r4
 8001b8c:	d00f      	beq.n	8001bae <HAL_DMA_IRQHandler+0x116>
 8001b8e:	0709      	lsls	r1, r1, #28
 8001b90:	d50d      	bpl.n	8001bae <HAL_DMA_IRQHandler+0x116>
 8001b92:	6819      	ldr	r1, [r3, #0]
 8001b94:	f021 010e 	bic.w	r1, r1, #14
 8001b98:	6019      	str	r1, [r3, #0]
 8001b9a:	2301      	movs	r3, #1
 8001b9c:	fa03 f202 	lsl.w	r2, r3, r2
 8001ba0:	6072      	str	r2, [r6, #4]
 8001ba2:	6383      	str	r3, [r0, #56]	; 0x38
 8001ba4:	f44f 7380 	mov.w	r3, #256	; 0x100
 8001ba8:	8403      	strh	r3, [r0, #32]
 8001baa:	6b03      	ldr	r3, [r0, #48]	; 0x30
 8001bac:	e7a0      	b.n	8001af0 <HAL_DMA_IRQHandler+0x58>
 8001bae:	bc70      	pop	{r4, r5, r6}
 8001bb0:	4770      	bx	lr
 8001bb2:	bf00      	nop
 8001bb4:	40020008 	.word	0x40020008
 8001bb8:	40020000 	.word	0x40020000

08001bbc <HAL_GPIO_Init>:
 8001bbc:	e92d 4ff7 	stmdb	sp!, {r0, r1, r2, r4, r5, r6, r7, r8, r9, sl, fp, lr}
 8001bc0:	2200      	movs	r2, #0
 8001bc2:	4616      	mov	r6, r2
 8001bc4:	4b64      	ldr	r3, [pc, #400]	; (8001d58 <HAL_GPIO_Init+0x19c>)
 8001bc6:	f8df c1a0 	ldr.w	ip, [pc, #416]	; 8001d68 <HAL_GPIO_Init+0x1ac>
 8001bca:	f8df e1a0 	ldr.w	lr, [pc, #416]	; 8001d6c <HAL_GPIO_Init+0x1b0>
 8001bce:	680d      	ldr	r5, [r1, #0]
 8001bd0:	fa35 f406 	lsrs.w	r4, r5, r6
 8001bd4:	d102      	bne.n	8001bdc <HAL_GPIO_Init+0x20>
 8001bd6:	b003      	add	sp, #12
 8001bd8:	e8bd 8ff0 	ldmia.w	sp!, {r4, r5, r6, r7, r8, r9, sl, fp, pc}
 8001bdc:	f04f 0801 	mov.w	r8, #1
 8001be0:	fa08 f806 	lsl.w	r8, r8, r6
 8001be4:	ea05 0408 	and.w	r4, r5, r8
 8001be8:	ea38 0505 	bics.w	r5, r8, r5
 8001bec:	d17c      	bne.n	8001ce8 <HAL_GPIO_Init+0x12c>
 8001bee:	684d      	ldr	r5, [r1, #4]
 8001bf0:	2d03      	cmp	r5, #3
 8001bf2:	d807      	bhi.n	8001c04 <HAL_GPIO_Init+0x48>
 8001bf4:	3d01      	subs	r5, #1
 8001bf6:	2d02      	cmp	r5, #2
 8001bf8:	f200 8088 	bhi.w	8001d0c <HAL_GPIO_Init+0x150>
 8001bfc:	e8df f005 	tbb	[pc, r5]
 8001c00:	9b96      	.short	0x9b96
 8001c02:	a1          	.byte	0xa1
 8001c03:	00          	.byte	0x00
 8001c04:	2d12      	cmp	r5, #18
 8001c06:	f000 8099 	beq.w	8001d3c <HAL_GPIO_Init+0x180>
 8001c0a:	d86f      	bhi.n	8001cec <HAL_GPIO_Init+0x130>
 8001c0c:	2d11      	cmp	r5, #17
 8001c0e:	f000 808f 	beq.w	8001d30 <HAL_GPIO_Init+0x174>
 8001c12:	2cff      	cmp	r4, #255	; 0xff
 8001c14:	bf98      	it	ls
 8001c16:	4682      	movls	sl, r0
 8001c18:	f04f 090f 	mov.w	r9, #15
 8001c1c:	bf88      	it	hi
 8001c1e:	f100 0a04 	addhi.w	sl, r0, #4
 8001c22:	ea4f 0586 	mov.w	r5, r6, lsl #2
 8001c26:	f8da 8000 	ldr.w	r8, [sl]
 8001c2a:	bf88      	it	hi
 8001c2c:	3d20      	subhi	r5, #32
 8001c2e:	fa09 fb05 	lsl.w	fp, r9, r5
 8001c32:	ea28 080b 	bic.w	r8, r8, fp
 8001c36:	fa02 f505 	lsl.w	r5, r2, r5
 8001c3a:	ea48 0505 	orr.w	r5, r8, r5
 8001c3e:	f8ca 5000 	str.w	r5, [sl]
 8001c42:	f8d1 a004 	ldr.w	sl, [r1, #4]
 8001c46:	f01a 5f80 	tst.w	sl, #268435456	; 0x10000000
 8001c4a:	d04d      	beq.n	8001ce8 <HAL_GPIO_Init+0x12c>
 8001c4c:	4f43      	ldr	r7, [pc, #268]	; (8001d5c <HAL_GPIO_Init+0x1a0>)
 8001c4e:	f026 0803 	bic.w	r8, r6, #3
 8001c52:	69bd      	ldr	r5, [r7, #24]
 8001c54:	f108 4880 	add.w	r8, r8, #1073741824	; 0x40000000
 8001c58:	f045 0501 	orr.w	r5, r5, #1
 8001c5c:	61bd      	str	r5, [r7, #24]
 8001c5e:	69bd      	ldr	r5, [r7, #24]
 8001c60:	f508 3880 	add.w	r8, r8, #65536	; 0x10000
 8001c64:	f005 0501 	and.w	r5, r5, #1
 8001c68:	9501      	str	r5, [sp, #4]
 8001c6a:	f006 0b03 	and.w	fp, r6, #3
 8001c6e:	9d01      	ldr	r5, [sp, #4]
 8001c70:	ea4f 0b8b 	mov.w	fp, fp, lsl #2
 8001c74:	f8d8 5008 	ldr.w	r5, [r8, #8]
 8001c78:	fa09 f90b 	lsl.w	r9, r9, fp
 8001c7c:	ea25 0909 	bic.w	r9, r5, r9
 8001c80:	4d37      	ldr	r5, [pc, #220]	; (8001d60 <HAL_GPIO_Init+0x1a4>)
 8001c82:	42a8      	cmp	r0, r5
 8001c84:	d061      	beq.n	8001d4a <HAL_GPIO_Init+0x18e>
 8001c86:	f505 6580 	add.w	r5, r5, #1024	; 0x400
 8001c8a:	42a8      	cmp	r0, r5
 8001c8c:	d05f      	beq.n	8001d4e <HAL_GPIO_Init+0x192>
 8001c8e:	f505 6580 	add.w	r5, r5, #1024	; 0x400
 8001c92:	42a8      	cmp	r0, r5
 8001c94:	d05d      	beq.n	8001d52 <HAL_GPIO_Init+0x196>
 8001c96:	f505 6580 	add.w	r5, r5, #1024	; 0x400
 8001c9a:	42a8      	cmp	r0, r5
 8001c9c:	bf0c      	ite	eq
 8001c9e:	2503      	moveq	r5, #3
 8001ca0:	2504      	movne	r5, #4
 8001ca2:	fa05 f50b 	lsl.w	r5, r5, fp
 8001ca6:	ea45 0509 	orr.w	r5, r5, r9
 8001caa:	f8c8 5008 	str.w	r5, [r8, #8]
 8001cae:	681d      	ldr	r5, [r3, #0]
 8001cb0:	f41a 3f80 	tst.w	sl, #65536	; 0x10000
 8001cb4:	bf14      	ite	ne
 8001cb6:	4325      	orrne	r5, r4
 8001cb8:	43a5      	biceq	r5, r4
 8001cba:	601d      	str	r5, [r3, #0]
 8001cbc:	685d      	ldr	r5, [r3, #4]
 8001cbe:	f41a 3f00 	tst.w	sl, #131072	; 0x20000
 8001cc2:	bf14      	ite	ne
 8001cc4:	4325      	orrne	r5, r4
 8001cc6:	43a5      	biceq	r5, r4
 8001cc8:	605d      	str	r5, [r3, #4]
 8001cca:	689d      	ldr	r5, [r3, #8]
 8001ccc:	f41a 1f80 	tst.w	sl, #1048576	; 0x100000
 8001cd0:	bf14      	ite	ne
 8001cd2:	4325      	orrne	r5, r4
 8001cd4:	43a5      	biceq	r5, r4
 8001cd6:	609d      	str	r5, [r3, #8]
 8001cd8:	68dd      	ldr	r5, [r3, #12]
 8001cda:	f41a 1f00 	tst.w	sl, #2097152	; 0x200000
 8001cde:	bf14      	ite	ne
 8001ce0:	432c      	orrne	r4, r5
 8001ce2:	ea25 0404 	biceq.w	r4, r5, r4
 8001ce6:	60dc      	str	r4, [r3, #12]
 8001ce8:	3601      	adds	r6, #1
 8001cea:	e770      	b.n	8001bce <HAL_GPIO_Init+0x12>
 8001cec:	4f1d      	ldr	r7, [pc, #116]	; (8001d64 <HAL_GPIO_Init+0x1a8>)
 8001cee:	42bd      	cmp	r5, r7
 8001cf0:	d00c      	beq.n	8001d0c <HAL_GPIO_Init+0x150>
 8001cf2:	d817      	bhi.n	8001d24 <HAL_GPIO_Init+0x168>
 8001cf4:	f8df 9078 	ldr.w	r9, [pc, #120]	; 8001d70 <HAL_GPIO_Init+0x1b4>
 8001cf8:	454d      	cmp	r5, r9
 8001cfa:	d007      	beq.n	8001d0c <HAL_GPIO_Init+0x150>
 8001cfc:	f509 2970 	add.w	r9, r9, #983040	; 0xf0000
 8001d00:	454d      	cmp	r5, r9
 8001d02:	d003      	beq.n	8001d0c <HAL_GPIO_Init+0x150>
 8001d04:	f5a9 1980 	sub.w	r9, r9, #1048576	; 0x100000
 8001d08:	454d      	cmp	r5, r9
 8001d0a:	d182      	bne.n	8001c12 <HAL_GPIO_Init+0x56>
 8001d0c:	688a      	ldr	r2, [r1, #8]
 8001d0e:	b1d2      	cbz	r2, 8001d46 <HAL_GPIO_Init+0x18a>
 8001d10:	2a01      	cmp	r2, #1
 8001d12:	bf08      	it	eq
 8001d14:	f8c0 8010 	streq.w	r8, [r0, #16]
 8001d18:	f04f 0208 	mov.w	r2, #8
 8001d1c:	bf18      	it	ne
 8001d1e:	f8c0 8014 	strne.w	r8, [r0, #20]
 8001d22:	e776      	b.n	8001c12 <HAL_GPIO_Init+0x56>
 8001d24:	4565      	cmp	r5, ip
 8001d26:	d0f1      	beq.n	8001d0c <HAL_GPIO_Init+0x150>
 8001d28:	4575      	cmp	r5, lr
 8001d2a:	e7ee      	b.n	8001d0a <HAL_GPIO_Init+0x14e>
 8001d2c:	68ca      	ldr	r2, [r1, #12]
 8001d2e:	e770      	b.n	8001c12 <HAL_GPIO_Init+0x56>
 8001d30:	68ca      	ldr	r2, [r1, #12]
 8001d32:	3204      	adds	r2, #4
 8001d34:	e76d      	b.n	8001c12 <HAL_GPIO_Init+0x56>
 8001d36:	68ca      	ldr	r2, [r1, #12]
 8001d38:	3208      	adds	r2, #8
 8001d3a:	e76a      	b.n	8001c12 <HAL_GPIO_Init+0x56>
 8001d3c:	68ca      	ldr	r2, [r1, #12]
 8001d3e:	320c      	adds	r2, #12
 8001d40:	e767      	b.n	8001c12 <HAL_GPIO_Init+0x56>
 8001d42:	2200      	movs	r2, #0
 8001d44:	e765      	b.n	8001c12 <HAL_GPIO_Init+0x56>
 8001d46:	2204      	movs	r2, #4
 8001d48:	e763      	b.n	8001c12 <HAL_GPIO_Init+0x56>
 8001d4a:	2500      	movs	r5, #0
 8001d4c:	e7a9      	b.n	8001ca2 <HAL_GPIO_Init+0xe6>
 8001d4e:	2501      	movs	r5, #1
 8001d50:	e7a7      	b.n	8001ca2 <HAL_GPIO_Init+0xe6>
 8001d52:	2502      	movs	r5, #2
 8001d54:	e7a5      	b.n	8001ca2 <HAL_GPIO_Init+0xe6>
 8001d56:	bf00      	nop
 8001d58:	40010400 	.word	0x40010400
 8001d5c:	40021000 	.word	0x40021000
 8001d60:	40010800 	.word	0x40010800
 8001d64:	10220000 	.word	0x10220000
 8001d68:	10310000 	.word	0x10310000
 8001d6c:	10320000 	.word	0x10320000
 8001d70:	10120000 	.word	0x10120000

08001d74 <HAL_GPIO_WritePin>:
 8001d74:	b10a      	cbz	r2, 8001d7a <HAL_GPIO_WritePin+0x6>
 8001d76:	6101      	str	r1, [r0, #16]
 8001d78:	4770      	bx	lr
 8001d7a:	0409      	lsls	r1, r1, #16
 8001d7c:	e7fb      	b.n	8001d76 <HAL_GPIO_WritePin+0x2>
	...

08001d80 <HAL_I2C_Init>:
 8001d80:	b570      	push	{r4, r5, r6, lr}
 8001d82:	4604      	mov	r4, r0
 8001d84:	b908      	cbnz	r0, 8001d8a <HAL_I2C_Init+0xa>
 8001d86:	2001      	movs	r0, #1
 8001d88:	bd70      	pop	{r4, r5, r6, pc}
 8001d8a:	f890 303d 	ldrb.w	r3, [r0, #61]	; 0x3d
 8001d8e:	f003 02ff 	and.w	r2, r3, #255	; 0xff
 8001d92:	b91b      	cbnz	r3, 8001d9c <HAL_I2C_Init+0x1c>
 8001d94:	f880 203c 	strb.w	r2, [r0, #60]	; 0x3c
 8001d98:	f7ff f9ae 	bl	80010f8 <HAL_I2C_MspInit>
 8001d9c:	2324      	movs	r3, #36	; 0x24
 8001d9e:	f884 303d 	strb.w	r3, [r4, #61]	; 0x3d
 8001da2:	6823      	ldr	r3, [r4, #0]
 8001da4:	681a      	ldr	r2, [r3, #0]
 8001da6:	f022 0201 	bic.w	r2, r2, #1
 8001daa:	601a      	str	r2, [r3, #0]
 8001dac:	681a      	ldr	r2, [r3, #0]
 8001dae:	f442 4200 	orr.w	r2, r2, #32768	; 0x8000
 8001db2:	601a      	str	r2, [r3, #0]
 8001db4:	681a      	ldr	r2, [r3, #0]
 8001db6:	f422 4200 	bic.w	r2, r2, #32768	; 0x8000
 8001dba:	601a      	str	r2, [r3, #0]
 8001dbc:	f000 fafa 	bl	80023b4 <HAL_RCC_GetPCLK1Freq>
 8001dc0:	4a3f      	ldr	r2, [pc, #252]	; (8001ec0 <HAL_I2C_Init+0x140>)
 8001dc2:	6863      	ldr	r3, [r4, #4]
 8001dc4:	4293      	cmp	r3, r2
 8001dc6:	bf94      	ite	ls
 8001dc8:	4a3e      	ldrls	r2, [pc, #248]	; (8001ec4 <HAL_I2C_Init+0x144>)
 8001dca:	4a3f      	ldrhi	r2, [pc, #252]	; (8001ec8 <HAL_I2C_Init+0x148>)
 8001dcc:	4290      	cmp	r0, r2
 8001dce:	bf8c      	ite	hi
 8001dd0:	2200      	movhi	r2, #0
 8001dd2:	2201      	movls	r2, #1
 8001dd4:	2a00      	cmp	r2, #0
 8001dd6:	d1d6      	bne.n	8001d86 <HAL_I2C_Init+0x6>
 8001dd8:	4e3c      	ldr	r6, [pc, #240]	; (8001ecc <HAL_I2C_Init+0x14c>)
 8001dda:	6822      	ldr	r2, [r4, #0]
 8001ddc:	fbb0 f6f6 	udiv	r6, r0, r6
 8001de0:	6851      	ldr	r1, [r2, #4]
 8001de2:	3801      	subs	r0, #1
 8001de4:	f021 013f 	bic.w	r1, r1, #63	; 0x3f
 8001de8:	4331      	orrs	r1, r6
 8001dea:	6051      	str	r1, [r2, #4]
 8001dec:	4934      	ldr	r1, [pc, #208]	; (8001ec0 <HAL_I2C_Init+0x140>)
 8001dee:	6a15      	ldr	r5, [r2, #32]
 8001df0:	428b      	cmp	r3, r1
 8001df2:	bf81      	itttt	hi
 8001df4:	f44f 7196 	movhi.w	r1, #300	; 0x12c
 8001df8:	4371      	mulhi	r1, r6
 8001dfa:	f44f 767a 	movhi.w	r6, #1000	; 0x3e8
 8001dfe:	fbb1 f1f6 	udivhi	r1, r1, r6
 8001e02:	f025 053f 	bic.w	r5, r5, #63	; 0x3f
 8001e06:	bf94      	ite	ls
 8001e08:	1c71      	addls	r1, r6, #1
 8001e0a:	3101      	addhi	r1, #1
 8001e0c:	4329      	orrs	r1, r5
 8001e0e:	6211      	str	r1, [r2, #32]
 8001e10:	69d1      	ldr	r1, [r2, #28]
 8001e12:	4d2b      	ldr	r5, [pc, #172]	; (8001ec0 <HAL_I2C_Init+0x140>)
 8001e14:	f421 414f 	bic.w	r1, r1, #52992	; 0xcf00
 8001e18:	42ab      	cmp	r3, r5
 8001e1a:	f021 01ff 	bic.w	r1, r1, #255	; 0xff
 8001e1e:	d832      	bhi.n	8001e86 <HAL_I2C_Init+0x106>
 8001e20:	005b      	lsls	r3, r3, #1
 8001e22:	fbb0 f0f3 	udiv	r0, r0, r3
 8001e26:	1c43      	adds	r3, r0, #1
 8001e28:	f640 70fc 	movw	r0, #4092	; 0xffc
 8001e2c:	4203      	tst	r3, r0
 8001e2e:	d042      	beq.n	8001eb6 <HAL_I2C_Init+0x136>
 8001e30:	f3c3 030b 	ubfx	r3, r3, #0, #12
 8001e34:	430b      	orrs	r3, r1
 8001e36:	61d3      	str	r3, [r2, #28]
 8001e38:	6811      	ldr	r1, [r2, #0]
 8001e3a:	e9d4 3007 	ldrd	r3, r0, [r4, #28]
 8001e3e:	f021 01c0 	bic.w	r1, r1, #192	; 0xc0
 8001e42:	4303      	orrs	r3, r0
 8001e44:	430b      	orrs	r3, r1
 8001e46:	6013      	str	r3, [r2, #0]
 8001e48:	6891      	ldr	r1, [r2, #8]
 8001e4a:	e9d4 0303 	ldrd	r0, r3, [r4, #12]
 8001e4e:	f421 4103 	bic.w	r1, r1, #33536	; 0x8300
 8001e52:	4303      	orrs	r3, r0
 8001e54:	f021 01ff 	bic.w	r1, r1, #255	; 0xff
 8001e58:	430b      	orrs	r3, r1
 8001e5a:	6093      	str	r3, [r2, #8]
 8001e5c:	68d1      	ldr	r1, [r2, #12]
 8001e5e:	e9d4 3005 	ldrd	r3, r0, [r4, #20]
 8001e62:	f021 01ff 	bic.w	r1, r1, #255	; 0xff
 8001e66:	4303      	orrs	r3, r0
 8001e68:	430b      	orrs	r3, r1
 8001e6a:	60d3      	str	r3, [r2, #12]
 8001e6c:	6813      	ldr	r3, [r2, #0]
 8001e6e:	2000      	movs	r0, #0
 8001e70:	f043 0301 	orr.w	r3, r3, #1
 8001e74:	6013      	str	r3, [r2, #0]
 8001e76:	2320      	movs	r3, #32
 8001e78:	6420      	str	r0, [r4, #64]	; 0x40
 8001e7a:	f884 303d 	strb.w	r3, [r4, #61]	; 0x3d
 8001e7e:	6320      	str	r0, [r4, #48]	; 0x30
 8001e80:	f884 003e 	strb.w	r0, [r4, #62]	; 0x3e
 8001e84:	e780      	b.n	8001d88 <HAL_I2C_Init+0x8>
 8001e86:	68a5      	ldr	r5, [r4, #8]
 8001e88:	b955      	cbnz	r5, 8001ea0 <HAL_I2C_Init+0x120>
 8001e8a:	eb03 0343 	add.w	r3, r3, r3, lsl #1
 8001e8e:	fbb0 f3f3 	udiv	r3, r0, r3
 8001e92:	3301      	adds	r3, #1
 8001e94:	f3c3 030b 	ubfx	r3, r3, #0, #12
 8001e98:	b17b      	cbz	r3, 8001eba <HAL_I2C_Init+0x13a>
 8001e9a:	f443 4300 	orr.w	r3, r3, #32768	; 0x8000
 8001e9e:	e7c9      	b.n	8001e34 <HAL_I2C_Init+0xb4>
 8001ea0:	2519      	movs	r5, #25
 8001ea2:	436b      	muls	r3, r5
 8001ea4:	fbb0 f3f3 	udiv	r3, r0, r3
 8001ea8:	3301      	adds	r3, #1
 8001eaa:	f3c3 030b 	ubfx	r3, r3, #0, #12
 8001eae:	b123      	cbz	r3, 8001eba <HAL_I2C_Init+0x13a>
 8001eb0:	f443 4340 	orr.w	r3, r3, #49152	; 0xc000
 8001eb4:	e7be      	b.n	8001e34 <HAL_I2C_Init+0xb4>
 8001eb6:	2304      	movs	r3, #4
 8001eb8:	e7bc      	b.n	8001e34 <HAL_I2C_Init+0xb4>
 8001eba:	2301      	movs	r3, #1
 8001ebc:	e7ba      	b.n	8001e34 <HAL_I2C_Init+0xb4>
 8001ebe:	bf00      	nop
 8001ec0:	000186a0 	.word	0x000186a0
 8001ec4:	001e847f 	.word	0x001e847f
 8001ec8:	003d08ff 	.word	0x003d08ff
 8001ecc:	000f4240 	.word	0x000f4240

08001ed0 <HAL_RCC_OscConfig>:
 8001ed0:	e92d 41f3 	stmdb	sp!, {r0, r1, r4, r5, r6, r7, r8, lr}
 8001ed4:	4605      	mov	r5, r0
 8001ed6:	b338      	cbz	r0, 8001f28 <HAL_RCC_OscConfig+0x58>
 8001ed8:	6803      	ldr	r3, [r0, #0]
 8001eda:	07db      	lsls	r3, r3, #31
 8001edc:	d410      	bmi.n	8001f00 <HAL_RCC_OscConfig+0x30>
 8001ede:	682b      	ldr	r3, [r5, #0]
 8001ee0:	079f      	lsls	r7, r3, #30
 8001ee2:	d45e      	bmi.n	8001fa2 <HAL_RCC_OscConfig+0xd2>
 8001ee4:	682b      	ldr	r3, [r5, #0]
 8001ee6:	0719      	lsls	r1, r3, #28
 8001ee8:	f100 8095 	bmi.w	8002016 <HAL_RCC_OscConfig+0x146>
 8001eec:	682b      	ldr	r3, [r5, #0]
 8001eee:	075a      	lsls	r2, r3, #29
 8001ef0:	f100 80bf 	bmi.w	8002072 <HAL_RCC_OscConfig+0x1a2>
 8001ef4:	69e8      	ldr	r0, [r5, #28]
 8001ef6:	2800      	cmp	r0, #0
 8001ef8:	f040 812c 	bne.w	8002154 <HAL_RCC_OscConfig+0x284>
 8001efc:	2000      	movs	r0, #0
 8001efe:	e029      	b.n	8001f54 <HAL_RCC_OscConfig+0x84>
 8001f00:	4c8f      	ldr	r4, [pc, #572]	; (8002140 <HAL_RCC_OscConfig+0x270>)
 8001f02:	6863      	ldr	r3, [r4, #4]
 8001f04:	f003 030c 	and.w	r3, r3, #12
 8001f08:	2b04      	cmp	r3, #4
 8001f0a:	d007      	beq.n	8001f1c <HAL_RCC_OscConfig+0x4c>
 8001f0c:	6863      	ldr	r3, [r4, #4]
 8001f0e:	f003 030c 	and.w	r3, r3, #12
 8001f12:	2b08      	cmp	r3, #8
 8001f14:	d10a      	bne.n	8001f2c <HAL_RCC_OscConfig+0x5c>
 8001f16:	6863      	ldr	r3, [r4, #4]
 8001f18:	03de      	lsls	r6, r3, #15
 8001f1a:	d507      	bpl.n	8001f2c <HAL_RCC_OscConfig+0x5c>
 8001f1c:	6823      	ldr	r3, [r4, #0]
 8001f1e:	039c      	lsls	r4, r3, #14
 8001f20:	d5dd      	bpl.n	8001ede <HAL_RCC_OscConfig+0xe>
 8001f22:	686b      	ldr	r3, [r5, #4]
 8001f24:	2b00      	cmp	r3, #0
 8001f26:	d1da      	bne.n	8001ede <HAL_RCC_OscConfig+0xe>
 8001f28:	2001      	movs	r0, #1
 8001f2a:	e013      	b.n	8001f54 <HAL_RCC_OscConfig+0x84>
 8001f2c:	686b      	ldr	r3, [r5, #4]
 8001f2e:	f5b3 3f80 	cmp.w	r3, #65536	; 0x10000
 8001f32:	d112      	bne.n	8001f5a <HAL_RCC_OscConfig+0x8a>
 8001f34:	6823      	ldr	r3, [r4, #0]
 8001f36:	f443 3380 	orr.w	r3, r3, #65536	; 0x10000
 8001f3a:	6023      	str	r3, [r4, #0]
 8001f3c:	f7ff fc7c 	bl	8001838 <HAL_GetTick>
 8001f40:	4606      	mov	r6, r0
 8001f42:	6823      	ldr	r3, [r4, #0]
 8001f44:	0398      	lsls	r0, r3, #14
 8001f46:	d4ca      	bmi.n	8001ede <HAL_RCC_OscConfig+0xe>
 8001f48:	f7ff fc76 	bl	8001838 <HAL_GetTick>
 8001f4c:	1b80      	subs	r0, r0, r6
 8001f4e:	2864      	cmp	r0, #100	; 0x64
 8001f50:	d9f7      	bls.n	8001f42 <HAL_RCC_OscConfig+0x72>
 8001f52:	2003      	movs	r0, #3
 8001f54:	b002      	add	sp, #8
 8001f56:	e8bd 81f0 	ldmia.w	sp!, {r4, r5, r6, r7, r8, pc}
 8001f5a:	b99b      	cbnz	r3, 8001f84 <HAL_RCC_OscConfig+0xb4>
 8001f5c:	6823      	ldr	r3, [r4, #0]
 8001f5e:	f423 3380 	bic.w	r3, r3, #65536	; 0x10000
 8001f62:	6023      	str	r3, [r4, #0]
 8001f64:	6823      	ldr	r3, [r4, #0]
 8001f66:	f423 2380 	bic.w	r3, r3, #262144	; 0x40000
 8001f6a:	6023      	str	r3, [r4, #0]
 8001f6c:	f7ff fc64 	bl	8001838 <HAL_GetTick>
 8001f70:	4606      	mov	r6, r0
 8001f72:	6823      	ldr	r3, [r4, #0]
 8001f74:	0399      	lsls	r1, r3, #14
 8001f76:	d5b2      	bpl.n	8001ede <HAL_RCC_OscConfig+0xe>
 8001f78:	f7ff fc5e 	bl	8001838 <HAL_GetTick>
 8001f7c:	1b80      	subs	r0, r0, r6
 8001f7e:	2864      	cmp	r0, #100	; 0x64
 8001f80:	d9f7      	bls.n	8001f72 <HAL_RCC_OscConfig+0xa2>
 8001f82:	e7e6      	b.n	8001f52 <HAL_RCC_OscConfig+0x82>
 8001f84:	f5b3 2fa0 	cmp.w	r3, #327680	; 0x50000
 8001f88:	6823      	ldr	r3, [r4, #0]
 8001f8a:	d103      	bne.n	8001f94 <HAL_RCC_OscConfig+0xc4>
 8001f8c:	f443 2380 	orr.w	r3, r3, #262144	; 0x40000
 8001f90:	6023      	str	r3, [r4, #0]
 8001f92:	e7cf      	b.n	8001f34 <HAL_RCC_OscConfig+0x64>
 8001f94:	f423 3380 	bic.w	r3, r3, #65536	; 0x10000
 8001f98:	6023      	str	r3, [r4, #0]
 8001f9a:	6823      	ldr	r3, [r4, #0]
 8001f9c:	f423 2380 	bic.w	r3, r3, #262144	; 0x40000
 8001fa0:	e7cb      	b.n	8001f3a <HAL_RCC_OscConfig+0x6a>
 8001fa2:	4c67      	ldr	r4, [pc, #412]	; (8002140 <HAL_RCC_OscConfig+0x270>)
 8001fa4:	6863      	ldr	r3, [r4, #4]
 8001fa6:	f013 0f0c 	tst.w	r3, #12
 8001faa:	d007      	beq.n	8001fbc <HAL_RCC_OscConfig+0xec>
 8001fac:	6863      	ldr	r3, [r4, #4]
 8001fae:	f003 030c 	and.w	r3, r3, #12
 8001fb2:	2b08      	cmp	r3, #8
 8001fb4:	d110      	bne.n	8001fd8 <HAL_RCC_OscConfig+0x108>
 8001fb6:	6863      	ldr	r3, [r4, #4]
 8001fb8:	03da      	lsls	r2, r3, #15
 8001fba:	d40d      	bmi.n	8001fd8 <HAL_RCC_OscConfig+0x108>
 8001fbc:	6823      	ldr	r3, [r4, #0]
 8001fbe:	079b      	lsls	r3, r3, #30
 8001fc0:	d502      	bpl.n	8001fc8 <HAL_RCC_OscConfig+0xf8>
 8001fc2:	692b      	ldr	r3, [r5, #16]
 8001fc4:	2b01      	cmp	r3, #1
 8001fc6:	d1af      	bne.n	8001f28 <HAL_RCC_OscConfig+0x58>
 8001fc8:	6823      	ldr	r3, [r4, #0]
 8001fca:	696a      	ldr	r2, [r5, #20]
 8001fcc:	f023 03f8 	bic.w	r3, r3, #248	; 0xf8
 8001fd0:	ea43 03c2 	orr.w	r3, r3, r2, lsl #3
 8001fd4:	6023      	str	r3, [r4, #0]
 8001fd6:	e785      	b.n	8001ee4 <HAL_RCC_OscConfig+0x14>
 8001fd8:	692a      	ldr	r2, [r5, #16]
 8001fda:	4b5a      	ldr	r3, [pc, #360]	; (8002144 <HAL_RCC_OscConfig+0x274>)
 8001fdc:	b16a      	cbz	r2, 8001ffa <HAL_RCC_OscConfig+0x12a>
 8001fde:	2201      	movs	r2, #1
 8001fe0:	601a      	str	r2, [r3, #0]
 8001fe2:	f7ff fc29 	bl	8001838 <HAL_GetTick>
 8001fe6:	4606      	mov	r6, r0
 8001fe8:	6823      	ldr	r3, [r4, #0]
 8001fea:	079f      	lsls	r7, r3, #30
 8001fec:	d4ec      	bmi.n	8001fc8 <HAL_RCC_OscConfig+0xf8>
 8001fee:	f7ff fc23 	bl	8001838 <HAL_GetTick>
 8001ff2:	1b80      	subs	r0, r0, r6
 8001ff4:	2802      	cmp	r0, #2
 8001ff6:	d9f7      	bls.n	8001fe8 <HAL_RCC_OscConfig+0x118>
 8001ff8:	e7ab      	b.n	8001f52 <HAL_RCC_OscConfig+0x82>
 8001ffa:	601a      	str	r2, [r3, #0]
 8001ffc:	f7ff fc1c 	bl	8001838 <HAL_GetTick>
 8002000:	4606      	mov	r6, r0
 8002002:	6823      	ldr	r3, [r4, #0]
 8002004:	0798      	lsls	r0, r3, #30
 8002006:	f57f af6d 	bpl.w	8001ee4 <HAL_RCC_OscConfig+0x14>
 800200a:	f7ff fc15 	bl	8001838 <HAL_GetTick>
 800200e:	1b80      	subs	r0, r0, r6
 8002010:	2802      	cmp	r0, #2
 8002012:	d9f6      	bls.n	8002002 <HAL_RCC_OscConfig+0x132>
 8002014:	e79d      	b.n	8001f52 <HAL_RCC_OscConfig+0x82>
 8002016:	69aa      	ldr	r2, [r5, #24]
 8002018:	4e49      	ldr	r6, [pc, #292]	; (8002140 <HAL_RCC_OscConfig+0x270>)
 800201a:	4b4b      	ldr	r3, [pc, #300]	; (8002148 <HAL_RCC_OscConfig+0x278>)
 800201c:	b1da      	cbz	r2, 8002056 <HAL_RCC_OscConfig+0x186>
 800201e:	2201      	movs	r2, #1
 8002020:	601a      	str	r2, [r3, #0]
 8002022:	f7ff fc09 	bl	8001838 <HAL_GetTick>
 8002026:	4604      	mov	r4, r0
 8002028:	6a73      	ldr	r3, [r6, #36]	; 0x24
 800202a:	079b      	lsls	r3, r3, #30
 800202c:	d50d      	bpl.n	800204a <HAL_RCC_OscConfig+0x17a>
 800202e:	f44f 52fa 	mov.w	r2, #8000	; 0x1f40
 8002032:	4b46      	ldr	r3, [pc, #280]	; (800214c <HAL_RCC_OscConfig+0x27c>)
 8002034:	681b      	ldr	r3, [r3, #0]
 8002036:	fbb3 f3f2 	udiv	r3, r3, r2
 800203a:	9301      	str	r3, [sp, #4]
 800203c:	bf00      	nop
 800203e:	9b01      	ldr	r3, [sp, #4]
 8002040:	1e5a      	subs	r2, r3, #1
 8002042:	9201      	str	r2, [sp, #4]
 8002044:	2b00      	cmp	r3, #0
 8002046:	d1f9      	bne.n	800203c <HAL_RCC_OscConfig+0x16c>
 8002048:	e750      	b.n	8001eec <HAL_RCC_OscConfig+0x1c>
 800204a:	f7ff fbf5 	bl	8001838 <HAL_GetTick>
 800204e:	1b00      	subs	r0, r0, r4
 8002050:	2802      	cmp	r0, #2
 8002052:	d9e9      	bls.n	8002028 <HAL_RCC_OscConfig+0x158>
 8002054:	e77d      	b.n	8001f52 <HAL_RCC_OscConfig+0x82>
 8002056:	601a      	str	r2, [r3, #0]
 8002058:	f7ff fbee 	bl	8001838 <HAL_GetTick>
 800205c:	4604      	mov	r4, r0
 800205e:	6a73      	ldr	r3, [r6, #36]	; 0x24
 8002060:	079f      	lsls	r7, r3, #30
 8002062:	f57f af43 	bpl.w	8001eec <HAL_RCC_OscConfig+0x1c>
 8002066:	f7ff fbe7 	bl	8001838 <HAL_GetTick>
 800206a:	1b00      	subs	r0, r0, r4
 800206c:	2802      	cmp	r0, #2
 800206e:	d9f6      	bls.n	800205e <HAL_RCC_OscConfig+0x18e>
 8002070:	e76f      	b.n	8001f52 <HAL_RCC_OscConfig+0x82>
 8002072:	4c33      	ldr	r4, [pc, #204]	; (8002140 <HAL_RCC_OscConfig+0x270>)
 8002074:	69e3      	ldr	r3, [r4, #28]
 8002076:	00d8      	lsls	r0, r3, #3
 8002078:	d424      	bmi.n	80020c4 <HAL_RCC_OscConfig+0x1f4>
 800207a:	2701      	movs	r7, #1
 800207c:	69e3      	ldr	r3, [r4, #28]
 800207e:	f043 5380 	orr.w	r3, r3, #268435456	; 0x10000000
 8002082:	61e3      	str	r3, [r4, #28]
 8002084:	69e3      	ldr	r3, [r4, #28]
 8002086:	f003 5380 	and.w	r3, r3, #268435456	; 0x10000000
 800208a:	9300      	str	r3, [sp, #0]
 800208c:	9b00      	ldr	r3, [sp, #0]
 800208e:	4e30      	ldr	r6, [pc, #192]	; (8002150 <HAL_RCC_OscConfig+0x280>)
 8002090:	6833      	ldr	r3, [r6, #0]
 8002092:	05d9      	lsls	r1, r3, #23
 8002094:	d518      	bpl.n	80020c8 <HAL_RCC_OscConfig+0x1f8>
 8002096:	68eb      	ldr	r3, [r5, #12]
 8002098:	2b01      	cmp	r3, #1
 800209a:	d126      	bne.n	80020ea <HAL_RCC_OscConfig+0x21a>
 800209c:	6a23      	ldr	r3, [r4, #32]
 800209e:	f043 0301 	orr.w	r3, r3, #1
 80020a2:	6223      	str	r3, [r4, #32]
 80020a4:	f7ff fbc8 	bl	8001838 <HAL_GetTick>
 80020a8:	f241 3888 	movw	r8, #5000	; 0x1388
 80020ac:	4606      	mov	r6, r0
 80020ae:	6a23      	ldr	r3, [r4, #32]
 80020b0:	079b      	lsls	r3, r3, #30
 80020b2:	d53f      	bpl.n	8002134 <HAL_RCC_OscConfig+0x264>
 80020b4:	2f00      	cmp	r7, #0
 80020b6:	f43f af1d 	beq.w	8001ef4 <HAL_RCC_OscConfig+0x24>
 80020ba:	69e3      	ldr	r3, [r4, #28]
 80020bc:	f023 5380 	bic.w	r3, r3, #268435456	; 0x10000000
 80020c0:	61e3      	str	r3, [r4, #28]
 80020c2:	e717      	b.n	8001ef4 <HAL_RCC_OscConfig+0x24>
 80020c4:	2700      	movs	r7, #0
 80020c6:	e7e2      	b.n	800208e <HAL_RCC_OscConfig+0x1be>
 80020c8:	6833      	ldr	r3, [r6, #0]
 80020ca:	f443 7380 	orr.w	r3, r3, #256	; 0x100
 80020ce:	6033      	str	r3, [r6, #0]
 80020d0:	f7ff fbb2 	bl	8001838 <HAL_GetTick>
 80020d4:	4680      	mov	r8, r0
 80020d6:	6833      	ldr	r3, [r6, #0]
 80020d8:	05da      	lsls	r2, r3, #23
 80020da:	d4dc      	bmi.n	8002096 <HAL_RCC_OscConfig+0x1c6>
 80020dc:	f7ff fbac 	bl	8001838 <HAL_GetTick>
 80020e0:	eba0 0008 	sub.w	r0, r0, r8
 80020e4:	2864      	cmp	r0, #100	; 0x64
 80020e6:	d9f6      	bls.n	80020d6 <HAL_RCC_OscConfig+0x206>
 80020e8:	e733      	b.n	8001f52 <HAL_RCC_OscConfig+0x82>
 80020ea:	b9ab      	cbnz	r3, 8002118 <HAL_RCC_OscConfig+0x248>
 80020ec:	6a23      	ldr	r3, [r4, #32]
 80020ee:	f241 3888 	movw	r8, #5000	; 0x1388
 80020f2:	f023 0301 	bic.w	r3, r3, #1
 80020f6:	6223      	str	r3, [r4, #32]
 80020f8:	6a23      	ldr	r3, [r4, #32]
 80020fa:	f023 0304 	bic.w	r3, r3, #4
 80020fe:	6223      	str	r3, [r4, #32]
 8002100:	f7ff fb9a 	bl	8001838 <HAL_GetTick>
 8002104:	4606      	mov	r6, r0
 8002106:	6a23      	ldr	r3, [r4, #32]
 8002108:	0798      	lsls	r0, r3, #30
 800210a:	d5d3      	bpl.n	80020b4 <HAL_RCC_OscConfig+0x1e4>
 800210c:	f7ff fb94 	bl	8001838 <HAL_GetTick>
 8002110:	1b80      	subs	r0, r0, r6
 8002112:	4540      	cmp	r0, r8
 8002114:	d9f7      	bls.n	8002106 <HAL_RCC_OscConfig+0x236>
 8002116:	e71c      	b.n	8001f52 <HAL_RCC_OscConfig+0x82>
 8002118:	2b05      	cmp	r3, #5
 800211a:	6a23      	ldr	r3, [r4, #32]
 800211c:	d103      	bne.n	8002126 <HAL_RCC_OscConfig+0x256>
 800211e:	f043 0304 	orr.w	r3, r3, #4
 8002122:	6223      	str	r3, [r4, #32]
 8002124:	e7ba      	b.n	800209c <HAL_RCC_OscConfig+0x1cc>
 8002126:	f023 0301 	bic.w	r3, r3, #1
 800212a:	6223      	str	r3, [r4, #32]
 800212c:	6a23      	ldr	r3, [r4, #32]
 800212e:	f023 0304 	bic.w	r3, r3, #4
 8002132:	e7b6      	b.n	80020a2 <HAL_RCC_OscConfig+0x1d2>
 8002134:	f7ff fb80 	bl	8001838 <HAL_GetTick>
 8002138:	1b80      	subs	r0, r0, r6
 800213a:	4540      	cmp	r0, r8
 800213c:	d9b7      	bls.n	80020ae <HAL_RCC_OscConfig+0x1de>
 800213e:	e708      	b.n	8001f52 <HAL_RCC_OscConfig+0x82>
 8002140:	40021000 	.word	0x40021000
 8002144:	42420000 	.word	0x42420000
 8002148:	42420480 	.word	0x42420480
 800214c:	20000000 	.word	0x20000000
 8002150:	40007000 	.word	0x40007000
 8002154:	4b2a      	ldr	r3, [pc, #168]	; (8002200 <HAL_RCC_OscConfig+0x330>)
 8002156:	685a      	ldr	r2, [r3, #4]
 8002158:	461c      	mov	r4, r3
 800215a:	f002 020c 	and.w	r2, r2, #12
 800215e:	2a08      	cmp	r2, #8
 8002160:	d03d      	beq.n	80021de <HAL_RCC_OscConfig+0x30e>
 8002162:	2300      	movs	r3, #0
 8002164:	4e27      	ldr	r6, [pc, #156]	; (8002204 <HAL_RCC_OscConfig+0x334>)
 8002166:	2802      	cmp	r0, #2
 8002168:	6033      	str	r3, [r6, #0]
 800216a:	d12b      	bne.n	80021c4 <HAL_RCC_OscConfig+0x2f4>
 800216c:	f7ff fb64 	bl	8001838 <HAL_GetTick>
 8002170:	4607      	mov	r7, r0
 8002172:	6823      	ldr	r3, [r4, #0]
 8002174:	0199      	lsls	r1, r3, #6
 8002176:	d41f      	bmi.n	80021b8 <HAL_RCC_OscConfig+0x2e8>
 8002178:	6a2b      	ldr	r3, [r5, #32]
 800217a:	f5b3 3f80 	cmp.w	r3, #65536	; 0x10000
 800217e:	d105      	bne.n	800218c <HAL_RCC_OscConfig+0x2bc>
 8002180:	6862      	ldr	r2, [r4, #4]
 8002182:	68a9      	ldr	r1, [r5, #8]
 8002184:	f422 3200 	bic.w	r2, r2, #131072	; 0x20000
 8002188:	430a      	orrs	r2, r1
 800218a:	6062      	str	r2, [r4, #4]
 800218c:	6a69      	ldr	r1, [r5, #36]	; 0x24
 800218e:	6862      	ldr	r2, [r4, #4]
 8002190:	430b      	orrs	r3, r1
 8002192:	f422 1274 	bic.w	r2, r2, #3997696	; 0x3d0000
 8002196:	4313      	orrs	r3, r2
 8002198:	6063      	str	r3, [r4, #4]
 800219a:	2301      	movs	r3, #1
 800219c:	6033      	str	r3, [r6, #0]
 800219e:	f7ff fb4b 	bl	8001838 <HAL_GetTick>
 80021a2:	4605      	mov	r5, r0
 80021a4:	6823      	ldr	r3, [r4, #0]
 80021a6:	019a      	lsls	r2, r3, #6
 80021a8:	f53f aea8 	bmi.w	8001efc <HAL_RCC_OscConfig+0x2c>
 80021ac:	f7ff fb44 	bl	8001838 <HAL_GetTick>
 80021b0:	1b40      	subs	r0, r0, r5
 80021b2:	2802      	cmp	r0, #2
 80021b4:	d9f6      	bls.n	80021a4 <HAL_RCC_OscConfig+0x2d4>
 80021b6:	e6cc      	b.n	8001f52 <HAL_RCC_OscConfig+0x82>
 80021b8:	f7ff fb3e 	bl	8001838 <HAL_GetTick>
 80021bc:	1bc0      	subs	r0, r0, r7
 80021be:	2802      	cmp	r0, #2
 80021c0:	d9d7      	bls.n	8002172 <HAL_RCC_OscConfig+0x2a2>
 80021c2:	e6c6      	b.n	8001f52 <HAL_RCC_OscConfig+0x82>
 80021c4:	f7ff fb38 	bl	8001838 <HAL_GetTick>
 80021c8:	4605      	mov	r5, r0
 80021ca:	6823      	ldr	r3, [r4, #0]
 80021cc:	019b      	lsls	r3, r3, #6
 80021ce:	f57f ae95 	bpl.w	8001efc <HAL_RCC_OscConfig+0x2c>
 80021d2:	f7ff fb31 	bl	8001838 <HAL_GetTick>
 80021d6:	1b40      	subs	r0, r0, r5
 80021d8:	2802      	cmp	r0, #2
 80021da:	d9f6      	bls.n	80021ca <HAL_RCC_OscConfig+0x2fa>
 80021dc:	e6b9      	b.n	8001f52 <HAL_RCC_OscConfig+0x82>
 80021de:	2801      	cmp	r0, #1
 80021e0:	f43f aeb8 	beq.w	8001f54 <HAL_RCC_OscConfig+0x84>
 80021e4:	685b      	ldr	r3, [r3, #4]
 80021e6:	6a2a      	ldr	r2, [r5, #32]
 80021e8:	f403 3180 	and.w	r1, r3, #65536	; 0x10000
 80021ec:	4291      	cmp	r1, r2
 80021ee:	f47f ae9b 	bne.w	8001f28 <HAL_RCC_OscConfig+0x58>
 80021f2:	6a6a      	ldr	r2, [r5, #36]	; 0x24
 80021f4:	f403 1370 	and.w	r3, r3, #3932160	; 0x3c0000
 80021f8:	4293      	cmp	r3, r2
 80021fa:	f43f ae7f 	beq.w	8001efc <HAL_RCC_OscConfig+0x2c>
 80021fe:	e693      	b.n	8001f28 <HAL_RCC_OscConfig+0x58>
 8002200:	40021000 	.word	0x40021000
 8002204:	42420060 	.word	0x42420060

08002208 <HAL_RCC_GetSysClockFreq>:
 8002208:	b530      	push	{r4, r5, lr}
 800220a:	4b18      	ldr	r3, [pc, #96]	; (800226c <HAL_RCC_GetSysClockFreq+0x64>)
 800220c:	b087      	sub	sp, #28
 800220e:	ac02      	add	r4, sp, #8
 8002210:	f103 0510 	add.w	r5, r3, #16
 8002214:	4622      	mov	r2, r4
 8002216:	6818      	ldr	r0, [r3, #0]
 8002218:	6859      	ldr	r1, [r3, #4]
 800221a:	3308      	adds	r3, #8
 800221c:	c203      	stmia	r2!, {r0, r1}
 800221e:	42ab      	cmp	r3, r5
 8002220:	4614      	mov	r4, r2
 8002222:	d1f7      	bne.n	8002214 <HAL_RCC_GetSysClockFreq+0xc>
 8002224:	f240 2301 	movw	r3, #513	; 0x201
 8002228:	4911      	ldr	r1, [pc, #68]	; (8002270 <HAL_RCC_GetSysClockFreq+0x68>)
 800222a:	f8ad 3004 	strh.w	r3, [sp, #4]
 800222e:	684b      	ldr	r3, [r1, #4]
 8002230:	f003 020c 	and.w	r2, r3, #12
 8002234:	2a08      	cmp	r2, #8
 8002236:	d117      	bne.n	8002268 <HAL_RCC_GetSysClockFreq+0x60>
 8002238:	f3c3 4283 	ubfx	r2, r3, #18, #4
 800223c:	a806      	add	r0, sp, #24
 800223e:	4402      	add	r2, r0
 8002240:	03db      	lsls	r3, r3, #15
 8002242:	f812 2c10 	ldrb.w	r2, [r2, #-16]
 8002246:	d50c      	bpl.n	8002262 <HAL_RCC_GetSysClockFreq+0x5a>
 8002248:	684b      	ldr	r3, [r1, #4]
 800224a:	480a      	ldr	r0, [pc, #40]	; (8002274 <HAL_RCC_GetSysClockFreq+0x6c>)
 800224c:	f3c3 4340 	ubfx	r3, r3, #17, #1
 8002250:	4350      	muls	r0, r2
 8002252:	aa06      	add	r2, sp, #24
 8002254:	4413      	add	r3, r2
 8002256:	f813 3c14 	ldrb.w	r3, [r3, #-20]
 800225a:	fbb0 f0f3 	udiv	r0, r0, r3
 800225e:	b007      	add	sp, #28
 8002260:	bd30      	pop	{r4, r5, pc}
 8002262:	4805      	ldr	r0, [pc, #20]	; (8002278 <HAL_RCC_GetSysClockFreq+0x70>)
 8002264:	4350      	muls	r0, r2
 8002266:	e7fa      	b.n	800225e <HAL_RCC_GetSysClockFreq+0x56>
 8002268:	4802      	ldr	r0, [pc, #8]	; (8002274 <HAL_RCC_GetSysClockFreq+0x6c>)
 800226a:	e7f8      	b.n	800225e <HAL_RCC_GetSysClockFreq+0x56>
 800226c:	08006910 	.word	0x08006910
 8002270:	40021000 	.word	0x40021000
 8002274:	007a1200 	.word	0x007a1200
 8002278:	003d0900 	.word	0x003d0900

0800227c <HAL_RCC_ClockConfig>:
 800227c:	e92d 41f0 	stmdb	sp!, {r4, r5, r6, r7, r8, lr}
 8002280:	460d      	mov	r5, r1
 8002282:	4604      	mov	r4, r0
 8002284:	b910      	cbnz	r0, 800228c <HAL_RCC_ClockConfig+0x10>
 8002286:	2001      	movs	r0, #1
 8002288:	e8bd 81f0 	ldmia.w	sp!, {r4, r5, r6, r7, r8, pc}
 800228c:	4a44      	ldr	r2, [pc, #272]	; (80023a0 <HAL_RCC_ClockConfig+0x124>)
 800228e:	6813      	ldr	r3, [r2, #0]
 8002290:	f003 0307 	and.w	r3, r3, #7
 8002294:	428b      	cmp	r3, r1
 8002296:	d328      	bcc.n	80022ea <HAL_RCC_ClockConfig+0x6e>
 8002298:	6821      	ldr	r1, [r4, #0]
 800229a:	078e      	lsls	r6, r1, #30
 800229c:	d430      	bmi.n	8002300 <HAL_RCC_ClockConfig+0x84>
 800229e:	07ca      	lsls	r2, r1, #31
 80022a0:	d443      	bmi.n	800232a <HAL_RCC_ClockConfig+0xae>
 80022a2:	4a3f      	ldr	r2, [pc, #252]	; (80023a0 <HAL_RCC_ClockConfig+0x124>)
 80022a4:	6813      	ldr	r3, [r2, #0]
 80022a6:	f003 0307 	and.w	r3, r3, #7
 80022aa:	42ab      	cmp	r3, r5
 80022ac:	d865      	bhi.n	800237a <HAL_RCC_ClockConfig+0xfe>
 80022ae:	6822      	ldr	r2, [r4, #0]
 80022b0:	4d3c      	ldr	r5, [pc, #240]	; (80023a4 <HAL_RCC_ClockConfig+0x128>)
 80022b2:	f012 0f04 	tst.w	r2, #4
 80022b6:	d16c      	bne.n	8002392 <HAL_RCC_ClockConfig+0x116>
 80022b8:	0713      	lsls	r3, r2, #28
 80022ba:	d506      	bpl.n	80022ca <HAL_RCC_ClockConfig+0x4e>
 80022bc:	686b      	ldr	r3, [r5, #4]
 80022be:	6922      	ldr	r2, [r4, #16]
 80022c0:	f423 5360 	bic.w	r3, r3, #14336	; 0x3800
 80022c4:	ea43 03c2 	orr.w	r3, r3, r2, lsl #3
 80022c8:	606b      	str	r3, [r5, #4]
 80022ca:	f7ff ff9d 	bl	8002208 <HAL_RCC_GetSysClockFreq>
 80022ce:	686b      	ldr	r3, [r5, #4]
 80022d0:	4a35      	ldr	r2, [pc, #212]	; (80023a8 <HAL_RCC_ClockConfig+0x12c>)
 80022d2:	f3c3 1303 	ubfx	r3, r3, #4, #4
 80022d6:	5cd3      	ldrb	r3, [r2, r3]
 80022d8:	40d8      	lsrs	r0, r3
 80022da:	4b34      	ldr	r3, [pc, #208]	; (80023ac <HAL_RCC_ClockConfig+0x130>)
 80022dc:	6018      	str	r0, [r3, #0]
 80022de:	4b34      	ldr	r3, [pc, #208]	; (80023b0 <HAL_RCC_ClockConfig+0x134>)
 80022e0:	6818      	ldr	r0, [r3, #0]
 80022e2:	f7ff fa67 	bl	80017b4 <HAL_InitTick>
 80022e6:	2000      	movs	r0, #0
 80022e8:	e7ce      	b.n	8002288 <HAL_RCC_ClockConfig+0xc>
 80022ea:	6813      	ldr	r3, [r2, #0]
 80022ec:	f023 0307 	bic.w	r3, r3, #7
 80022f0:	430b      	orrs	r3, r1
 80022f2:	6013      	str	r3, [r2, #0]
 80022f4:	6813      	ldr	r3, [r2, #0]
 80022f6:	f003 0307 	and.w	r3, r3, #7
 80022fa:	428b      	cmp	r3, r1
 80022fc:	d1c3      	bne.n	8002286 <HAL_RCC_ClockConfig+0xa>
 80022fe:	e7cb      	b.n	8002298 <HAL_RCC_ClockConfig+0x1c>
 8002300:	4b28      	ldr	r3, [pc, #160]	; (80023a4 <HAL_RCC_ClockConfig+0x128>)
 8002302:	f011 0f04 	tst.w	r1, #4
 8002306:	bf1e      	ittt	ne
 8002308:	685a      	ldrne	r2, [r3, #4]
 800230a:	f442 62e0 	orrne.w	r2, r2, #1792	; 0x700
 800230e:	605a      	strne	r2, [r3, #4]
 8002310:	0708      	lsls	r0, r1, #28
 8002312:	bf42      	ittt	mi
 8002314:	685a      	ldrmi	r2, [r3, #4]
 8002316:	f442 5260 	orrmi.w	r2, r2, #14336	; 0x3800
 800231a:	605a      	strmi	r2, [r3, #4]
 800231c:	685a      	ldr	r2, [r3, #4]
 800231e:	68a0      	ldr	r0, [r4, #8]
 8002320:	f022 02f0 	bic.w	r2, r2, #240	; 0xf0
 8002324:	4302      	orrs	r2, r0
 8002326:	605a      	str	r2, [r3, #4]
 8002328:	e7b9      	b.n	800229e <HAL_RCC_ClockConfig+0x22>
 800232a:	6862      	ldr	r2, [r4, #4]
 800232c:	4e1d      	ldr	r6, [pc, #116]	; (80023a4 <HAL_RCC_ClockConfig+0x128>)
 800232e:	2a01      	cmp	r2, #1
 8002330:	6833      	ldr	r3, [r6, #0]
 8002332:	d11a      	bne.n	800236a <HAL_RCC_ClockConfig+0xee>
 8002334:	f413 3f00 	tst.w	r3, #131072	; 0x20000
 8002338:	d0a5      	beq.n	8002286 <HAL_RCC_ClockConfig+0xa>
 800233a:	6873      	ldr	r3, [r6, #4]
 800233c:	f241 3888 	movw	r8, #5000	; 0x1388
 8002340:	f023 0303 	bic.w	r3, r3, #3
 8002344:	4313      	orrs	r3, r2
 8002346:	6073      	str	r3, [r6, #4]
 8002348:	f7ff fa76 	bl	8001838 <HAL_GetTick>
 800234c:	4607      	mov	r7, r0
 800234e:	6873      	ldr	r3, [r6, #4]
 8002350:	6862      	ldr	r2, [r4, #4]
 8002352:	f003 030c 	and.w	r3, r3, #12
 8002356:	ebb3 0f82 	cmp.w	r3, r2, lsl #2
 800235a:	d0a2      	beq.n	80022a2 <HAL_RCC_ClockConfig+0x26>
 800235c:	f7ff fa6c 	bl	8001838 <HAL_GetTick>
 8002360:	1bc0      	subs	r0, r0, r7
 8002362:	4540      	cmp	r0, r8
 8002364:	d9f3      	bls.n	800234e <HAL_RCC_ClockConfig+0xd2>
 8002366:	2003      	movs	r0, #3
 8002368:	e78e      	b.n	8002288 <HAL_RCC_ClockConfig+0xc>
 800236a:	2a02      	cmp	r2, #2
 800236c:	d102      	bne.n	8002374 <HAL_RCC_ClockConfig+0xf8>
 800236e:	f013 7f00 	tst.w	r3, #33554432	; 0x2000000
 8002372:	e7e1      	b.n	8002338 <HAL_RCC_ClockConfig+0xbc>
 8002374:	f013 0f02 	tst.w	r3, #2
 8002378:	e7de      	b.n	8002338 <HAL_RCC_ClockConfig+0xbc>
 800237a:	6813      	ldr	r3, [r2, #0]
 800237c:	f023 0307 	bic.w	r3, r3, #7
 8002380:	432b      	orrs	r3, r5
 8002382:	6013      	str	r3, [r2, #0]
 8002384:	6813      	ldr	r3, [r2, #0]
 8002386:	f003 0307 	and.w	r3, r3, #7
 800238a:	42ab      	cmp	r3, r5
 800238c:	f47f af7b 	bne.w	8002286 <HAL_RCC_ClockConfig+0xa>
 8002390:	e78d      	b.n	80022ae <HAL_RCC_ClockConfig+0x32>
 8002392:	686b      	ldr	r3, [r5, #4]
 8002394:	68e1      	ldr	r1, [r4, #12]
 8002396:	f423 63e0 	bic.w	r3, r3, #1792	; 0x700
 800239a:	430b      	orrs	r3, r1
 800239c:	606b      	str	r3, [r5, #4]
 800239e:	e78b      	b.n	80022b8 <HAL_RCC_ClockConfig+0x3c>
 80023a0:	40022000 	.word	0x40022000
 80023a4:	40021000 	.word	0x40021000
 80023a8:	080068f8 	.word	0x080068f8
 80023ac:	20000000 	.word	0x20000000
 80023b0:	20000008 	.word	0x20000008

080023b4 <HAL_RCC_GetPCLK1Freq>:
 80023b4:	4b04      	ldr	r3, [pc, #16]	; (80023c8 <HAL_RCC_GetPCLK1Freq+0x14>)
 80023b6:	4a05      	ldr	r2, [pc, #20]	; (80023cc <HAL_RCC_GetPCLK1Freq+0x18>)
 80023b8:	685b      	ldr	r3, [r3, #4]
 80023ba:	f3c3 2302 	ubfx	r3, r3, #8, #3
 80023be:	5cd3      	ldrb	r3, [r2, r3]
 80023c0:	4a03      	ldr	r2, [pc, #12]	; (80023d0 <HAL_RCC_GetPCLK1Freq+0x1c>)
 80023c2:	6810      	ldr	r0, [r2, #0]
 80023c4:	40d8      	lsrs	r0, r3
 80023c6:	4770      	bx	lr
 80023c8:	40021000 	.word	0x40021000
 80023cc:	08006908 	.word	0x08006908
 80023d0:	20000000 	.word	0x20000000

080023d4 <HAL_RCC_GetPCLK2Freq>:
 80023d4:	4b04      	ldr	r3, [pc, #16]	; (80023e8 <HAL_RCC_GetPCLK2Freq+0x14>)
 80023d6:	4a05      	ldr	r2, [pc, #20]	; (80023ec <HAL_RCC_GetPCLK2Freq+0x18>)
 80023d8:	685b      	ldr	r3, [r3, #4]
 80023da:	f3c3 23c2 	ubfx	r3, r3, #11, #3
 80023de:	5cd3      	ldrb	r3, [r2, r3]
 80023e0:	4a03      	ldr	r2, [pc, #12]	; (80023f0 <HAL_RCC_GetPCLK2Freq+0x1c>)
 80023e2:	6810      	ldr	r0, [r2, #0]
 80023e4:	40d8      	lsrs	r0, r3
 80023e6:	4770      	bx	lr
 80023e8:	40021000 	.word	0x40021000
 80023ec:	08006908 	.word	0x08006908
 80023f0:	20000000 	.word	0x20000000

080023f4 <HAL_SPI_Init>:
 80023f4:	b510      	push	{r4, lr}
 80023f6:	4604      	mov	r4, r0
 80023f8:	2800      	cmp	r0, #0
 80023fa:	d051      	beq.n	80024a0 <HAL_SPI_Init+0xac>
 80023fc:	6a43      	ldr	r3, [r0, #36]	; 0x24
 80023fe:	2b00      	cmp	r3, #0
 8002400:	d14a      	bne.n	8002498 <HAL_SPI_Init+0xa4>
 8002402:	6842      	ldr	r2, [r0, #4]
 8002404:	f5b2 7f82 	cmp.w	r2, #260	; 0x104
 8002408:	d000      	beq.n	800240c <HAL_SPI_Init+0x18>
 800240a:	61c3      	str	r3, [r0, #28]
 800240c:	2300      	movs	r3, #0
 800240e:	62a3      	str	r3, [r4, #40]	; 0x28
 8002410:	f894 3051 	ldrb.w	r3, [r4, #81]	; 0x51
 8002414:	f003 02ff 	and.w	r2, r3, #255	; 0xff
 8002418:	b923      	cbnz	r3, 8002424 <HAL_SPI_Init+0x30>
 800241a:	4620      	mov	r0, r4
 800241c:	f884 2050 	strb.w	r2, [r4, #80]	; 0x50
 8002420:	f7fe fea6 	bl	8001170 <HAL_SPI_MspInit>
 8002424:	2302      	movs	r3, #2
 8002426:	6822      	ldr	r2, [r4, #0]
 8002428:	f884 3051 	strb.w	r3, [r4, #81]	; 0x51
 800242c:	6813      	ldr	r3, [r2, #0]
 800242e:	68a0      	ldr	r0, [r4, #8]
 8002430:	f023 0340 	bic.w	r3, r3, #64	; 0x40
 8002434:	6013      	str	r3, [r2, #0]
 8002436:	6863      	ldr	r3, [r4, #4]
 8002438:	f400 4004 	and.w	r0, r0, #33792	; 0x8400
 800243c:	f403 7382 	and.w	r3, r3, #260	; 0x104
 8002440:	4303      	orrs	r3, r0
 8002442:	68e0      	ldr	r0, [r4, #12]
 8002444:	69a1      	ldr	r1, [r4, #24]
 8002446:	f400 6000 	and.w	r0, r0, #2048	; 0x800
 800244a:	4303      	orrs	r3, r0
 800244c:	6920      	ldr	r0, [r4, #16]
 800244e:	f000 0002 	and.w	r0, r0, #2
 8002452:	4303      	orrs	r3, r0
 8002454:	6960      	ldr	r0, [r4, #20]
 8002456:	f000 0001 	and.w	r0, r0, #1
 800245a:	4303      	orrs	r3, r0
 800245c:	f401 7000 	and.w	r0, r1, #512	; 0x200
 8002460:	4303      	orrs	r3, r0
 8002462:	69e0      	ldr	r0, [r4, #28]
 8002464:	0c09      	lsrs	r1, r1, #16
 8002466:	f000 0038 	and.w	r0, r0, #56	; 0x38
 800246a:	4303      	orrs	r3, r0
 800246c:	6a20      	ldr	r0, [r4, #32]
 800246e:	f001 0104 	and.w	r1, r1, #4
 8002472:	f000 0080 	and.w	r0, r0, #128	; 0x80
 8002476:	4303      	orrs	r3, r0
 8002478:	6aa0      	ldr	r0, [r4, #40]	; 0x28
 800247a:	f400 5000 	and.w	r0, r0, #8192	; 0x2000
 800247e:	4303      	orrs	r3, r0
 8002480:	6013      	str	r3, [r2, #0]
 8002482:	6051      	str	r1, [r2, #4]
 8002484:	69d3      	ldr	r3, [r2, #28]
 8002486:	2000      	movs	r0, #0
 8002488:	f423 6300 	bic.w	r3, r3, #2048	; 0x800
 800248c:	61d3      	str	r3, [r2, #28]
 800248e:	2301      	movs	r3, #1
 8002490:	6560      	str	r0, [r4, #84]	; 0x54
 8002492:	f884 3051 	strb.w	r3, [r4, #81]	; 0x51
 8002496:	bd10      	pop	{r4, pc}
 8002498:	2300      	movs	r3, #0
 800249a:	e9c0 3304 	strd	r3, r3, [r0, #16]
 800249e:	e7b5      	b.n	800240c <HAL_SPI_Init+0x18>
 80024a0:	2001      	movs	r0, #1
 80024a2:	e7f8      	b.n	8002496 <HAL_SPI_Init+0xa2>

080024a4 <TIM_OC1_SetConfig>:
 80024a4:	6a03      	ldr	r3, [r0, #32]
 80024a6:	b570      	push	{r4, r5, r6, lr}
 80024a8:	f023 0301 	bic.w	r3, r3, #1
 80024ac:	6203      	str	r3, [r0, #32]
 80024ae:	6a03      	ldr	r3, [r0, #32]
 80024b0:	6844      	ldr	r4, [r0, #4]
 80024b2:	6982      	ldr	r2, [r0, #24]
 80024b4:	680d      	ldr	r5, [r1, #0]
 80024b6:	f022 0273 	bic.w	r2, r2, #115	; 0x73
 80024ba:	432a      	orrs	r2, r5
 80024bc:	688d      	ldr	r5, [r1, #8]
 80024be:	f023 0302 	bic.w	r3, r3, #2
 80024c2:	432b      	orrs	r3, r5
 80024c4:	4d0a      	ldr	r5, [pc, #40]	; (80024f0 <TIM_OC1_SetConfig+0x4c>)
 80024c6:	42a8      	cmp	r0, r5
 80024c8:	d10b      	bne.n	80024e2 <TIM_OC1_SetConfig+0x3e>
 80024ca:	68cd      	ldr	r5, [r1, #12]
 80024cc:	f023 0308 	bic.w	r3, r3, #8
 80024d0:	432b      	orrs	r3, r5
 80024d2:	f424 7440 	bic.w	r4, r4, #768	; 0x300
 80024d6:	e9d1 5605 	ldrd	r5, r6, [r1, #20]
 80024da:	4335      	orrs	r5, r6
 80024dc:	f023 0304 	bic.w	r3, r3, #4
 80024e0:	432c      	orrs	r4, r5
 80024e2:	6044      	str	r4, [r0, #4]
 80024e4:	6182      	str	r2, [r0, #24]
 80024e6:	684a      	ldr	r2, [r1, #4]
 80024e8:	6342      	str	r2, [r0, #52]	; 0x34
 80024ea:	6203      	str	r3, [r0, #32]
 80024ec:	bd70      	pop	{r4, r5, r6, pc}
 80024ee:	bf00      	nop
 80024f0:	40012c00 	.word	0x40012c00

080024f4 <TIM_OC3_SetConfig>:
 80024f4:	6a03      	ldr	r3, [r0, #32]
 80024f6:	b570      	push	{r4, r5, r6, lr}
 80024f8:	f423 7380 	bic.w	r3, r3, #256	; 0x100
 80024fc:	6203      	str	r3, [r0, #32]
 80024fe:	6a03      	ldr	r3, [r0, #32]
 8002500:	6844      	ldr	r4, [r0, #4]
 8002502:	69c2      	ldr	r2, [r0, #28]
 8002504:	680d      	ldr	r5, [r1, #0]
 8002506:	f022 0273 	bic.w	r2, r2, #115	; 0x73
 800250a:	432a      	orrs	r2, r5
 800250c:	688d      	ldr	r5, [r1, #8]
 800250e:	f423 7300 	bic.w	r3, r3, #512	; 0x200
 8002512:	ea43 2305 	orr.w	r3, r3, r5, lsl #8
 8002516:	4d0b      	ldr	r5, [pc, #44]	; (8002544 <TIM_OC3_SetConfig+0x50>)
 8002518:	42a8      	cmp	r0, r5
 800251a:	d10d      	bne.n	8002538 <TIM_OC3_SetConfig+0x44>
 800251c:	68cd      	ldr	r5, [r1, #12]
 800251e:	f423 6300 	bic.w	r3, r3, #2048	; 0x800
 8002522:	ea43 2305 	orr.w	r3, r3, r5, lsl #8
 8002526:	f424 5440 	bic.w	r4, r4, #12288	; 0x3000
 800252a:	e9d1 5605 	ldrd	r5, r6, [r1, #20]
 800252e:	4335      	orrs	r5, r6
 8002530:	f423 6380 	bic.w	r3, r3, #1024	; 0x400
 8002534:	ea44 1405 	orr.w	r4, r4, r5, lsl #4
 8002538:	6044      	str	r4, [r0, #4]
 800253a:	61c2      	str	r2, [r0, #28]
 800253c:	684a      	ldr	r2, [r1, #4]
 800253e:	63c2      	str	r2, [r0, #60]	; 0x3c
 8002540:	6203      	str	r3, [r0, #32]
 8002542:	bd70      	pop	{r4, r5, r6, pc}
 8002544:	40012c00 	.word	0x40012c00

08002548 <TIM_OC4_SetConfig>:
 8002548:	6a03      	ldr	r3, [r0, #32]
 800254a:	b530      	push	{r4, r5, lr}
 800254c:	f423 5380 	bic.w	r3, r3, #4096	; 0x1000
 8002550:	6203      	str	r3, [r0, #32]
 8002552:	6a03      	ldr	r3, [r0, #32]
 8002554:	6844      	ldr	r4, [r0, #4]
 8002556:	69c2      	ldr	r2, [r0, #28]
 8002558:	680d      	ldr	r5, [r1, #0]
 800255a:	f422 42e6 	bic.w	r2, r2, #29440	; 0x7300
 800255e:	ea42 2205 	orr.w	r2, r2, r5, lsl #8
 8002562:	688d      	ldr	r5, [r1, #8]
 8002564:	f423 5300 	bic.w	r3, r3, #8192	; 0x2000
 8002568:	ea43 3305 	orr.w	r3, r3, r5, lsl #12
 800256c:	4d06      	ldr	r5, [pc, #24]	; (8002588 <TIM_OC4_SetConfig+0x40>)
 800256e:	42a8      	cmp	r0, r5
 8002570:	bf02      	ittt	eq
 8002572:	694d      	ldreq	r5, [r1, #20]
 8002574:	f424 4480 	biceq.w	r4, r4, #16384	; 0x4000
 8002578:	ea44 1485 	orreq.w	r4, r4, r5, lsl #6
 800257c:	6044      	str	r4, [r0, #4]
 800257e:	61c2      	str	r2, [r0, #28]
 8002580:	684a      	ldr	r2, [r1, #4]
 8002582:	6402      	str	r2, [r0, #64]	; 0x40
 8002584:	6203      	str	r3, [r0, #32]
 8002586:	bd30      	pop	{r4, r5, pc}
 8002588:	40012c00 	.word	0x40012c00

0800258c <HAL_TIM_Base_Start_IT>:
 800258c:	f890 303d 	ldrb.w	r3, [r0, #61]	; 0x3d
 8002590:	2b01      	cmp	r3, #1
 8002592:	d120      	bne.n	80025d6 <HAL_TIM_Base_Start_IT+0x4a>
 8002594:	2302      	movs	r3, #2
 8002596:	f880 303d 	strb.w	r3, [r0, #61]	; 0x3d
 800259a:	6803      	ldr	r3, [r0, #0]
 800259c:	68da      	ldr	r2, [r3, #12]
 800259e:	f042 0201 	orr.w	r2, r2, #1
 80025a2:	60da      	str	r2, [r3, #12]
 80025a4:	4a0d      	ldr	r2, [pc, #52]	; (80025dc <HAL_TIM_Base_Start_IT+0x50>)
 80025a6:	4293      	cmp	r3, r2
 80025a8:	d00a      	beq.n	80025c0 <HAL_TIM_Base_Start_IT+0x34>
 80025aa:	f1b3 4f80 	cmp.w	r3, #1073741824	; 0x40000000
 80025ae:	d007      	beq.n	80025c0 <HAL_TIM_Base_Start_IT+0x34>
 80025b0:	f5a2 3294 	sub.w	r2, r2, #75776	; 0x12800
 80025b4:	4293      	cmp	r3, r2
 80025b6:	d003      	beq.n	80025c0 <HAL_TIM_Base_Start_IT+0x34>
 80025b8:	f502 6280 	add.w	r2, r2, #1024	; 0x400
 80025bc:	4293      	cmp	r3, r2
 80025be:	d104      	bne.n	80025ca <HAL_TIM_Base_Start_IT+0x3e>
 80025c0:	689a      	ldr	r2, [r3, #8]
 80025c2:	f002 0207 	and.w	r2, r2, #7
 80025c6:	2a06      	cmp	r2, #6
 80025c8:	d003      	beq.n	80025d2 <HAL_TIM_Base_Start_IT+0x46>
 80025ca:	681a      	ldr	r2, [r3, #0]
 80025cc:	f042 0201 	orr.w	r2, r2, #1
 80025d0:	601a      	str	r2, [r3, #0]
 80025d2:	2000      	movs	r0, #0
 80025d4:	4770      	bx	lr
 80025d6:	2001      	movs	r0, #1
 80025d8:	4770      	bx	lr
 80025da:	bf00      	nop
 80025dc:	40012c00 	.word	0x40012c00

080025e0 <HAL_TIM_OC_MspInit>:
 80025e0:	4770      	bx	lr

080025e2 <HAL_TIM_IC_MspInit>:
 80025e2:	4770      	bx	lr

080025e4 <HAL_TIM_OnePulse_MspInit>:
 80025e4:	4770      	bx	lr

080025e6 <HAL_TIM_PeriodElapsedCallback>:
 80025e6:	4770      	bx	lr

080025e8 <HAL_TIM_OC_DelayElapsedCallback>:
 80025e8:	4770      	bx	lr

080025ea <HAL_TIM_IC_CaptureCallback>:
 80025ea:	4770      	bx	lr

080025ec <TIM_DMACaptureCplt>:
 80025ec:	b510      	push	{r4, lr}
 80025ee:	6a44      	ldr	r4, [r0, #36]	; 0x24
 80025f0:	6a62      	ldr	r2, [r4, #36]	; 0x24
 80025f2:	4282      	cmp	r2, r0
 80025f4:	d10d      	bne.n	8002612 <TIM_DMACaptureCplt+0x26>
 80025f6:	2301      	movs	r3, #1
 80025f8:	7723      	strb	r3, [r4, #28]
 80025fa:	6992      	ldr	r2, [r2, #24]
 80025fc:	b91a      	cbnz	r2, 8002606 <TIM_DMACaptureCplt+0x1a>
 80025fe:	f884 303e 	strb.w	r3, [r4, #62]	; 0x3e
 8002602:	f884 3042 	strb.w	r3, [r4, #66]	; 0x42
 8002606:	4620      	mov	r0, r4
 8002608:	f7ff ffef 	bl	80025ea <HAL_TIM_IC_CaptureCallback>
 800260c:	2300      	movs	r3, #0
 800260e:	7723      	strb	r3, [r4, #28]
 8002610:	bd10      	pop	{r4, pc}
 8002612:	6aa3      	ldr	r3, [r4, #40]	; 0x28
 8002614:	4283      	cmp	r3, r0
 8002616:	d10a      	bne.n	800262e <TIM_DMACaptureCplt+0x42>
 8002618:	2202      	movs	r2, #2
 800261a:	7722      	strb	r2, [r4, #28]
 800261c:	699b      	ldr	r3, [r3, #24]
 800261e:	2b00      	cmp	r3, #0
 8002620:	d1f1      	bne.n	8002606 <TIM_DMACaptureCplt+0x1a>
 8002622:	2301      	movs	r3, #1
 8002624:	f884 303f 	strb.w	r3, [r4, #63]	; 0x3f
 8002628:	f884 3043 	strb.w	r3, [r4, #67]	; 0x43
 800262c:	e7eb      	b.n	8002606 <TIM_DMACaptureCplt+0x1a>
 800262e:	6ae3      	ldr	r3, [r4, #44]	; 0x2c
 8002630:	4283      	cmp	r3, r0
 8002632:	d10a      	bne.n	800264a <TIM_DMACaptureCplt+0x5e>
 8002634:	2204      	movs	r2, #4
 8002636:	7722      	strb	r2, [r4, #28]
 8002638:	699b      	ldr	r3, [r3, #24]
 800263a:	2b00      	cmp	r3, #0
 800263c:	d1e3      	bne.n	8002606 <TIM_DMACaptureCplt+0x1a>
 800263e:	2301      	movs	r3, #1
 8002640:	f884 3040 	strb.w	r3, [r4, #64]	; 0x40
 8002644:	f884 3044 	strb.w	r3, [r4, #68]	; 0x44
 8002648:	e7dd      	b.n	8002606 <TIM_DMACaptureCplt+0x1a>
 800264a:	6b23      	ldr	r3, [r4, #48]	; 0x30
 800264c:	4283      	cmp	r3, r0
 800264e:	d1da      	bne.n	8002606 <TIM_DMACaptureCplt+0x1a>
 8002650:	2208      	movs	r2, #8
 8002652:	7722      	strb	r2, [r4, #28]
 8002654:	699b      	ldr	r3, [r3, #24]
 8002656:	2b00      	cmp	r3, #0
 8002658:	d1d5      	bne.n	8002606 <TIM_DMACaptureCplt+0x1a>
 800265a:	2301      	movs	r3, #1
 800265c:	f884 3041 	strb.w	r3, [r4, #65]	; 0x41
 8002660:	f884 3045 	strb.w	r3, [r4, #69]	; 0x45
 8002664:	e7cf      	b.n	8002606 <TIM_DMACaptureCplt+0x1a>

08002666 <HAL_TIM_IC_CaptureHalfCpltCallback>:
 8002666:	4770      	bx	lr

08002668 <TIM_DMACaptureHalfCplt>:
 8002668:	b510      	push	{r4, lr}
 800266a:	6a44      	ldr	r4, [r0, #36]	; 0x24
 800266c:	6a63      	ldr	r3, [r4, #36]	; 0x24
 800266e:	4283      	cmp	r3, r0
 8002670:	d107      	bne.n	8002682 <TIM_DMACaptureHalfCplt+0x1a>
 8002672:	2301      	movs	r3, #1
 8002674:	7723      	strb	r3, [r4, #28]
 8002676:	4620      	mov	r0, r4
 8002678:	f7ff fff5 	bl	8002666 <HAL_TIM_IC_CaptureHalfCpltCallback>
 800267c:	2300      	movs	r3, #0
 800267e:	7723      	strb	r3, [r4, #28]
 8002680:	bd10      	pop	{r4, pc}
 8002682:	6aa3      	ldr	r3, [r4, #40]	; 0x28
 8002684:	4283      	cmp	r3, r0
 8002686:	d101      	bne.n	800268c <TIM_DMACaptureHalfCplt+0x24>
 8002688:	2302      	movs	r3, #2
 800268a:	e7f3      	b.n	8002674 <TIM_DMACaptureHalfCplt+0xc>
 800268c:	6ae3      	ldr	r3, [r4, #44]	; 0x2c
 800268e:	4283      	cmp	r3, r0
 8002690:	d101      	bne.n	8002696 <TIM_DMACaptureHalfCplt+0x2e>
 8002692:	2304      	movs	r3, #4
 8002694:	e7ee      	b.n	8002674 <TIM_DMACaptureHalfCplt+0xc>
 8002696:	6b23      	ldr	r3, [r4, #48]	; 0x30
 8002698:	4283      	cmp	r3, r0
 800269a:	d1ec      	bne.n	8002676 <TIM_DMACaptureHalfCplt+0xe>
 800269c:	2308      	movs	r3, #8
 800269e:	e7e9      	b.n	8002674 <TIM_DMACaptureHalfCplt+0xc>

080026a0 <HAL_TIM_PWM_PulseFinishedCallback>:
 80026a0:	4770      	bx	lr

080026a2 <HAL_TIM_TriggerCallback>:
 80026a2:	4770      	bx	lr

080026a4 <HAL_TIM_IRQHandler>:
 80026a4:	6803      	ldr	r3, [r0, #0]
 80026a6:	b510      	push	{r4, lr}
 80026a8:	691a      	ldr	r2, [r3, #16]
 80026aa:	4604      	mov	r4, r0
 80026ac:	0791      	lsls	r1, r2, #30
 80026ae:	d50e      	bpl.n	80026ce <HAL_TIM_IRQHandler+0x2a>
 80026b0:	68da      	ldr	r2, [r3, #12]
 80026b2:	0792      	lsls	r2, r2, #30
 80026b4:	d50b      	bpl.n	80026ce <HAL_TIM_IRQHandler+0x2a>
 80026b6:	f06f 0202 	mvn.w	r2, #2
 80026ba:	611a      	str	r2, [r3, #16]
 80026bc:	2201      	movs	r2, #1
 80026be:	7702      	strb	r2, [r0, #28]
 80026c0:	699b      	ldr	r3, [r3, #24]
 80026c2:	079b      	lsls	r3, r3, #30
 80026c4:	d077      	beq.n	80027b6 <HAL_TIM_IRQHandler+0x112>
 80026c6:	f7ff ff90 	bl	80025ea <HAL_TIM_IC_CaptureCallback>
 80026ca:	2300      	movs	r3, #0
 80026cc:	7723      	strb	r3, [r4, #28]
 80026ce:	6823      	ldr	r3, [r4, #0]
 80026d0:	691a      	ldr	r2, [r3, #16]
 80026d2:	0750      	lsls	r0, r2, #29
 80026d4:	d510      	bpl.n	80026f8 <HAL_TIM_IRQHandler+0x54>
 80026d6:	68da      	ldr	r2, [r3, #12]
 80026d8:	0751      	lsls	r1, r2, #29
 80026da:	d50d      	bpl.n	80026f8 <HAL_TIM_IRQHandler+0x54>
 80026dc:	f06f 0204 	mvn.w	r2, #4
 80026e0:	611a      	str	r2, [r3, #16]
 80026e2:	2202      	movs	r2, #2
 80026e4:	7722      	strb	r2, [r4, #28]
 80026e6:	699b      	ldr	r3, [r3, #24]
 80026e8:	4620      	mov	r0, r4
 80026ea:	f413 7f40 	tst.w	r3, #768	; 0x300
 80026ee:	d068      	beq.n	80027c2 <HAL_TIM_IRQHandler+0x11e>
 80026f0:	f7ff ff7b 	bl	80025ea <HAL_TIM_IC_CaptureCallback>
 80026f4:	2300      	movs	r3, #0
 80026f6:	7723      	strb	r3, [r4, #28]
 80026f8:	6823      	ldr	r3, [r4, #0]
 80026fa:	691a      	ldr	r2, [r3, #16]
 80026fc:	0712      	lsls	r2, r2, #28
 80026fe:	d50f      	bpl.n	8002720 <HAL_TIM_IRQHandler+0x7c>
 8002700:	68da      	ldr	r2, [r3, #12]
 8002702:	0710      	lsls	r0, r2, #28
 8002704:	d50c      	bpl.n	8002720 <HAL_TIM_IRQHandler+0x7c>
 8002706:	f06f 0208 	mvn.w	r2, #8
 800270a:	611a      	str	r2, [r3, #16]
 800270c:	2204      	movs	r2, #4
 800270e:	7722      	strb	r2, [r4, #28]
 8002710:	69db      	ldr	r3, [r3, #28]
 8002712:	4620      	mov	r0, r4
 8002714:	0799      	lsls	r1, r3, #30
 8002716:	d05a      	beq.n	80027ce <HAL_TIM_IRQHandler+0x12a>
 8002718:	f7ff ff67 	bl	80025ea <HAL_TIM_IC_CaptureCallback>
 800271c:	2300      	movs	r3, #0
 800271e:	7723      	strb	r3, [r4, #28]
 8002720:	6823      	ldr	r3, [r4, #0]
 8002722:	691a      	ldr	r2, [r3, #16]
 8002724:	06d2      	lsls	r2, r2, #27
 8002726:	d510      	bpl.n	800274a <HAL_TIM_IRQHandler+0xa6>
 8002728:	68da      	ldr	r2, [r3, #12]
 800272a:	06d0      	lsls	r0, r2, #27
 800272c:	d50d      	bpl.n	800274a <HAL_TIM_IRQHandler+0xa6>
 800272e:	f06f 0210 	mvn.w	r2, #16
 8002732:	611a      	str	r2, [r3, #16]
 8002734:	2208      	movs	r2, #8
 8002736:	7722      	strb	r2, [r4, #28]
 8002738:	69db      	ldr	r3, [r3, #28]
 800273a:	4620      	mov	r0, r4
 800273c:	f413 7f40 	tst.w	r3, #768	; 0x300
 8002740:	d04b      	beq.n	80027da <HAL_TIM_IRQHandler+0x136>
 8002742:	f7ff ff52 	bl	80025ea <HAL_TIM_IC_CaptureCallback>
 8002746:	2300      	movs	r3, #0
 8002748:	7723      	strb	r3, [r4, #28]
 800274a:	6823      	ldr	r3, [r4, #0]
 800274c:	691a      	ldr	r2, [r3, #16]
 800274e:	07d1      	lsls	r1, r2, #31
 8002750:	d508      	bpl.n	8002764 <HAL_TIM_IRQHandler+0xc0>
 8002752:	68da      	ldr	r2, [r3, #12]
 8002754:	07d2      	lsls	r2, r2, #31
 8002756:	d505      	bpl.n	8002764 <HAL_TIM_IRQHandler+0xc0>
 8002758:	f06f 0201 	mvn.w	r2, #1
 800275c:	4620      	mov	r0, r4
 800275e:	611a      	str	r2, [r3, #16]
 8002760:	f7ff ff41 	bl	80025e6 <HAL_TIM_PeriodElapsedCallback>
 8002764:	6823      	ldr	r3, [r4, #0]
 8002766:	691a      	ldr	r2, [r3, #16]
 8002768:	0610      	lsls	r0, r2, #24
 800276a:	d508      	bpl.n	800277e <HAL_TIM_IRQHandler+0xda>
 800276c:	68da      	ldr	r2, [r3, #12]
 800276e:	0611      	lsls	r1, r2, #24
 8002770:	d505      	bpl.n	800277e <HAL_TIM_IRQHandler+0xda>
 8002772:	f06f 0280 	mvn.w	r2, #128	; 0x80
 8002776:	4620      	mov	r0, r4
 8002778:	611a      	str	r2, [r3, #16]
 800277a:	f000 fd7c 	bl	8003276 <HAL_TIMEx_BreakCallback>
 800277e:	6823      	ldr	r3, [r4, #0]
 8002780:	691a      	ldr	r2, [r3, #16]
 8002782:	0652      	lsls	r2, r2, #25
 8002784:	d508      	bpl.n	8002798 <HAL_TIM_IRQHandler+0xf4>
 8002786:	68da      	ldr	r2, [r3, #12]
 8002788:	0650      	lsls	r0, r2, #25
 800278a:	d505      	bpl.n	8002798 <HAL_TIM_IRQHandler+0xf4>
 800278c:	f06f 0240 	mvn.w	r2, #64	; 0x40
 8002790:	4620      	mov	r0, r4
 8002792:	611a      	str	r2, [r3, #16]
 8002794:	f7ff ff85 	bl	80026a2 <HAL_TIM_TriggerCallback>
 8002798:	6823      	ldr	r3, [r4, #0]
 800279a:	691a      	ldr	r2, [r3, #16]
 800279c:	0691      	lsls	r1, r2, #26
 800279e:	d522      	bpl.n	80027e6 <HAL_TIM_IRQHandler+0x142>
 80027a0:	68da      	ldr	r2, [r3, #12]
 80027a2:	0692      	lsls	r2, r2, #26
 80027a4:	d51f      	bpl.n	80027e6 <HAL_TIM_IRQHandler+0x142>
 80027a6:	f06f 0220 	mvn.w	r2, #32
 80027aa:	4620      	mov	r0, r4
 80027ac:	e8bd 4010 	ldmia.w	sp!, {r4, lr}
 80027b0:	611a      	str	r2, [r3, #16]
 80027b2:	f000 bd5f 	b.w	8003274 <HAL_TIMEx_CommutCallback>
 80027b6:	f7ff ff17 	bl	80025e8 <HAL_TIM_OC_DelayElapsedCallback>
 80027ba:	4620      	mov	r0, r4
 80027bc:	f7ff ff70 	bl	80026a0 <HAL_TIM_PWM_PulseFinishedCallback>
 80027c0:	e783      	b.n	80026ca <HAL_TIM_IRQHandler+0x26>
 80027c2:	f7ff ff11 	bl	80025e8 <HAL_TIM_OC_DelayElapsedCallback>
 80027c6:	4620      	mov	r0, r4
 80027c8:	f7ff ff6a 	bl	80026a0 <HAL_TIM_PWM_PulseFinishedCallback>
 80027cc:	e792      	b.n	80026f4 <HAL_TIM_IRQHandler+0x50>
 80027ce:	f7ff ff0b 	bl	80025e8 <HAL_TIM_OC_DelayElapsedCallback>
 80027d2:	4620      	mov	r0, r4
 80027d4:	f7ff ff64 	bl	80026a0 <HAL_TIM_PWM_PulseFinishedCallback>
 80027d8:	e7a0      	b.n	800271c <HAL_TIM_IRQHandler+0x78>
 80027da:	f7ff ff05 	bl	80025e8 <HAL_TIM_OC_DelayElapsedCallback>
 80027de:	4620      	mov	r0, r4
 80027e0:	f7ff ff5e 	bl	80026a0 <HAL_TIM_PWM_PulseFinishedCallback>
 80027e4:	e7af      	b.n	8002746 <HAL_TIM_IRQHandler+0xa2>
 80027e6:	bd10      	pop	{r4, pc}

080027e8 <HAL_TIM_ErrorCallback>:
 80027e8:	4770      	bx	lr

080027ea <TIM_DMAError>:
 80027ea:	b510      	push	{r4, lr}
 80027ec:	6a44      	ldr	r4, [r0, #36]	; 0x24
 80027ee:	6a63      	ldr	r3, [r4, #36]	; 0x24
 80027f0:	4283      	cmp	r3, r0
 80027f2:	d109      	bne.n	8002808 <TIM_DMAError+0x1e>
 80027f4:	2301      	movs	r3, #1
 80027f6:	7723      	strb	r3, [r4, #28]
 80027f8:	f884 303e 	strb.w	r3, [r4, #62]	; 0x3e
 80027fc:	4620      	mov	r0, r4
 80027fe:	f7ff fff3 	bl	80027e8 <HAL_TIM_ErrorCallback>
 8002802:	2300      	movs	r3, #0
 8002804:	7723      	strb	r3, [r4, #28]
 8002806:	bd10      	pop	{r4, pc}
 8002808:	6aa3      	ldr	r3, [r4, #40]	; 0x28
 800280a:	4283      	cmp	r3, r0
 800280c:	d105      	bne.n	800281a <TIM_DMAError+0x30>
 800280e:	2302      	movs	r3, #2
 8002810:	7723      	strb	r3, [r4, #28]
 8002812:	2301      	movs	r3, #1
 8002814:	f884 303f 	strb.w	r3, [r4, #63]	; 0x3f
 8002818:	e7f0      	b.n	80027fc <TIM_DMAError+0x12>
 800281a:	6ae3      	ldr	r3, [r4, #44]	; 0x2c
 800281c:	4283      	cmp	r3, r0
 800281e:	f04f 0301 	mov.w	r3, #1
 8002822:	d104      	bne.n	800282e <TIM_DMAError+0x44>
 8002824:	2204      	movs	r2, #4
 8002826:	f884 3040 	strb.w	r3, [r4, #64]	; 0x40
 800282a:	7722      	strb	r2, [r4, #28]
 800282c:	e7e6      	b.n	80027fc <TIM_DMAError+0x12>
 800282e:	6b22      	ldr	r2, [r4, #48]	; 0x30
 8002830:	4282      	cmp	r2, r0
 8002832:	bf03      	ittte	eq
 8002834:	2208      	moveq	r2, #8
 8002836:	f884 3041 	strbeq.w	r3, [r4, #65]	; 0x41
 800283a:	7722      	strbeq	r2, [r4, #28]
 800283c:	f884 303d 	strbne.w	r3, [r4, #61]	; 0x3d
 8002840:	e7dc      	b.n	80027fc <TIM_DMAError+0x12>
	...

08002844 <TIM_Base_SetConfig>:
 8002844:	4a1a      	ldr	r2, [pc, #104]	; (80028b0 <TIM_Base_SetConfig+0x6c>)
 8002846:	6803      	ldr	r3, [r0, #0]
 8002848:	4290      	cmp	r0, r2
 800284a:	d00a      	beq.n	8002862 <TIM_Base_SetConfig+0x1e>
 800284c:	f1b0 4f80 	cmp.w	r0, #1073741824	; 0x40000000
 8002850:	d007      	beq.n	8002862 <TIM_Base_SetConfig+0x1e>
 8002852:	f5a2 3294 	sub.w	r2, r2, #75776	; 0x12800
 8002856:	4290      	cmp	r0, r2
 8002858:	d003      	beq.n	8002862 <TIM_Base_SetConfig+0x1e>
 800285a:	f502 6280 	add.w	r2, r2, #1024	; 0x400
 800285e:	4290      	cmp	r0, r2
 8002860:	d115      	bne.n	800288e <TIM_Base_SetConfig+0x4a>
 8002862:	684a      	ldr	r2, [r1, #4]
 8002864:	f023 0370 	bic.w	r3, r3, #112	; 0x70
 8002868:	4313      	orrs	r3, r2
 800286a:	4a11      	ldr	r2, [pc, #68]	; (80028b0 <TIM_Base_SetConfig+0x6c>)
 800286c:	4290      	cmp	r0, r2
 800286e:	d00a      	beq.n	8002886 <TIM_Base_SetConfig+0x42>
 8002870:	f1b0 4f80 	cmp.w	r0, #1073741824	; 0x40000000
 8002874:	d007      	beq.n	8002886 <TIM_Base_SetConfig+0x42>
 8002876:	f5a2 3294 	sub.w	r2, r2, #75776	; 0x12800
 800287a:	4290      	cmp	r0, r2
 800287c:	d003      	beq.n	8002886 <TIM_Base_SetConfig+0x42>
 800287e:	f502 6280 	add.w	r2, r2, #1024	; 0x400
 8002882:	4290      	cmp	r0, r2
 8002884:	d103      	bne.n	800288e <TIM_Base_SetConfig+0x4a>
 8002886:	68ca      	ldr	r2, [r1, #12]
 8002888:	f423 7340 	bic.w	r3, r3, #768	; 0x300
 800288c:	4313      	orrs	r3, r2
 800288e:	694a      	ldr	r2, [r1, #20]
 8002890:	f023 0380 	bic.w	r3, r3, #128	; 0x80
 8002894:	4313      	orrs	r3, r2
 8002896:	6003      	str	r3, [r0, #0]
 8002898:	688b      	ldr	r3, [r1, #8]
 800289a:	62c3      	str	r3, [r0, #44]	; 0x2c
 800289c:	680b      	ldr	r3, [r1, #0]
 800289e:	6283      	str	r3, [r0, #40]	; 0x28
 80028a0:	4b03      	ldr	r3, [pc, #12]	; (80028b0 <TIM_Base_SetConfig+0x6c>)
 80028a2:	4298      	cmp	r0, r3
 80028a4:	bf04      	itt	eq
 80028a6:	690b      	ldreq	r3, [r1, #16]
 80028a8:	6303      	streq	r3, [r0, #48]	; 0x30
 80028aa:	2301      	movs	r3, #1
 80028ac:	6143      	str	r3, [r0, #20]
 80028ae:	4770      	bx	lr
 80028b0:	40012c00 	.word	0x40012c00

080028b4 <HAL_TIM_Base_Init>:
 80028b4:	b510      	push	{r4, lr}
 80028b6:	4604      	mov	r4, r0
 80028b8:	b330      	cbz	r0, 8002908 <HAL_TIM_Base_Init+0x54>
 80028ba:	f890 303d 	ldrb.w	r3, [r0, #61]	; 0x3d
 80028be:	f003 02ff 	and.w	r2, r3, #255	; 0xff
 80028c2:	b91b      	cbnz	r3, 80028cc <HAL_TIM_Base_Init+0x18>
 80028c4:	f880 203c 	strb.w	r2, [r0, #60]	; 0x3c
 80028c8:	f7fe fc8e 	bl	80011e8 <HAL_TIM_Base_MspInit>
 80028cc:	2302      	movs	r3, #2
 80028ce:	6820      	ldr	r0, [r4, #0]
 80028d0:	f884 303d 	strb.w	r3, [r4, #61]	; 0x3d
 80028d4:	1d21      	adds	r1, r4, #4
 80028d6:	f7ff ffb5 	bl	8002844 <TIM_Base_SetConfig>
 80028da:	2301      	movs	r3, #1
 80028dc:	2000      	movs	r0, #0
 80028de:	f884 3046 	strb.w	r3, [r4, #70]	; 0x46
 80028e2:	f884 303e 	strb.w	r3, [r4, #62]	; 0x3e
 80028e6:	f884 303f 	strb.w	r3, [r4, #63]	; 0x3f
 80028ea:	f884 3040 	strb.w	r3, [r4, #64]	; 0x40
 80028ee:	f884 3041 	strb.w	r3, [r4, #65]	; 0x41
 80028f2:	f884 3042 	strb.w	r3, [r4, #66]	; 0x42
 80028f6:	f884 3043 	strb.w	r3, [r4, #67]	; 0x43
 80028fa:	f884 3044 	strb.w	r3, [r4, #68]	; 0x44
 80028fe:	f884 3045 	strb.w	r3, [r4, #69]	; 0x45
 8002902:	f884 303d 	strb.w	r3, [r4, #61]	; 0x3d
 8002906:	bd10      	pop	{r4, pc}
 8002908:	2001      	movs	r0, #1
 800290a:	e7fc      	b.n	8002906 <HAL_TIM_Base_Init+0x52>

0800290c <HAL_TIM_OC_Init>:
 800290c:	b510      	push	{r4, lr}
 800290e:	4604      	mov	r4, r0
 8002910:	b330      	cbz	r0, 8002960 <HAL_TIM_OC_Init+0x54>
 8002912:	f890 303d 	ldrb.w	r3, [r0, #61]	; 0x3d
 8002916:	f003 02ff 	and.w	r2, r3, #255	; 0xff
 800291a:	b91b      	cbnz	r3, 8002924 <HAL_TIM_OC_Init+0x18>
 800291c:	f880 203c 	strb.w	r2, [r0, #60]	; 0x3c
 8002920:	f7ff fe5e 	bl	80025e0 <HAL_TIM_OC_MspInit>
 8002924:	2302      	movs	r3, #2
 8002926:	6820      	ldr	r0, [r4, #0]
 8002928:	f884 303d 	strb.w	r3, [r4, #61]	; 0x3d
 800292c:	1d21      	adds	r1, r4, #4
 800292e:	f7ff ff89 	bl	8002844 <TIM_Base_SetConfig>
 8002932:	2301      	movs	r3, #1
 8002934:	2000      	movs	r0, #0
 8002936:	f884 3046 	strb.w	r3, [r4, #70]	; 0x46
 800293a:	f884 303e 	strb.w	r3, [r4, #62]	; 0x3e
 800293e:	f884 303f 	strb.w	r3, [r4, #63]	; 0x3f
 8002942:	f884 3040 	strb.w	r3, [r4, #64]	; 0x40
 8002946:	f884 3041 	strb.w	r3, [r4, #65]	; 0x41
 800294a:	f884 3042 	strb.w	r3, [r4, #66]	; 0x42
 800294e:	f884 3043 	strb.w	r3, [r4, #67]	; 0x43
 8002952:	f884 3044 	strb.w	r3, [r4, #68]	; 0x44
 8002956:	f884 3045 	strb.w	r3, [r4, #69]	; 0x45
 800295a:	f884 303d 	strb.w	r3, [r4, #61]	; 0x3d
 800295e:	bd10      	pop	{r4, pc}
 8002960:	2001      	movs	r0, #1
 8002962:	e7fc      	b.n	800295e <HAL_TIM_OC_Init+0x52>

08002964 <HAL_TIM_IC_Init>:
 8002964:	b510      	push	{r4, lr}
 8002966:	4604      	mov	r4, r0
 8002968:	b330      	cbz	r0, 80029b8 <HAL_TIM_IC_Init+0x54>
 800296a:	f890 303d 	ldrb.w	r3, [r0, #61]	; 0x3d
 800296e:	f003 02ff 	and.w	r2, r3, #255	; 0xff
 8002972:	b91b      	cbnz	r3, 800297c <HAL_TIM_IC_Init+0x18>
 8002974:	f880 203c 	strb.w	r2, [r0, #60]	; 0x3c
 8002978:	f7ff fe33 	bl	80025e2 <HAL_TIM_IC_MspInit>
 800297c:	2302      	movs	r3, #2
 800297e:	6820      	ldr	r0, [r4, #0]
 8002980:	f884 303d 	strb.w	r3, [r4, #61]	; 0x3d
 8002984:	1d21      	adds	r1, r4, #4
 8002986:	f7ff ff5d 	bl	8002844 <TIM_Base_SetConfig>
 800298a:	2301      	movs	r3, #1
 800298c:	2000      	movs	r0, #0
 800298e:	f884 3046 	strb.w	r3, [r4, #70]	; 0x46
 8002992:	f884 303e 	strb.w	r3, [r4, #62]	; 0x3e
 8002996:	f884 303f 	strb.w	r3, [r4, #63]	; 0x3f
 800299a:	f884 3040 	strb.w	r3, [r4, #64]	; 0x40
 800299e:	f884 3041 	strb.w	r3, [r4, #65]	; 0x41
 80029a2:	f884 3042 	strb.w	r3, [r4, #66]	; 0x42
 80029a6:	f884 3043 	strb.w	r3, [r4, #67]	; 0x43
 80029aa:	f884 3044 	strb.w	r3, [r4, #68]	; 0x44
 80029ae:	f884 3045 	strb.w	r3, [r4, #69]	; 0x45
 80029b2:	f884 303d 	strb.w	r3, [r4, #61]	; 0x3d
 80029b6:	bd10      	pop	{r4, pc}
 80029b8:	2001      	movs	r0, #1
 80029ba:	e7fc      	b.n	80029b6 <HAL_TIM_IC_Init+0x52>

080029bc <HAL_TIM_OnePulse_Init>:
 80029bc:	b538      	push	{r3, r4, r5, lr}
 80029be:	460d      	mov	r5, r1
 80029c0:	4604      	mov	r4, r0
 80029c2:	b330      	cbz	r0, 8002a12 <HAL_TIM_OnePulse_Init+0x56>
 80029c4:	f890 303d 	ldrb.w	r3, [r0, #61]	; 0x3d
 80029c8:	f003 02ff 	and.w	r2, r3, #255	; 0xff
 80029cc:	b91b      	cbnz	r3, 80029d6 <HAL_TIM_OnePulse_Init+0x1a>
 80029ce:	f880 203c 	strb.w	r2, [r0, #60]	; 0x3c
 80029d2:	f7ff fe07 	bl	80025e4 <HAL_TIM_OnePulse_MspInit>
 80029d6:	2302      	movs	r3, #2
 80029d8:	6820      	ldr	r0, [r4, #0]
 80029da:	f884 303d 	strb.w	r3, [r4, #61]	; 0x3d
 80029de:	1d21      	adds	r1, r4, #4
 80029e0:	f7ff ff30 	bl	8002844 <TIM_Base_SetConfig>
 80029e4:	6823      	ldr	r3, [r4, #0]
 80029e6:	2000      	movs	r0, #0
 80029e8:	681a      	ldr	r2, [r3, #0]
 80029ea:	f022 0208 	bic.w	r2, r2, #8
 80029ee:	601a      	str	r2, [r3, #0]
 80029f0:	681a      	ldr	r2, [r3, #0]
 80029f2:	432a      	orrs	r2, r5
 80029f4:	601a      	str	r2, [r3, #0]
 80029f6:	2301      	movs	r3, #1
 80029f8:	f884 3046 	strb.w	r3, [r4, #70]	; 0x46
 80029fc:	f884 303e 	strb.w	r3, [r4, #62]	; 0x3e
 8002a00:	f884 303f 	strb.w	r3, [r4, #63]	; 0x3f
 8002a04:	f884 3042 	strb.w	r3, [r4, #66]	; 0x42
 8002a08:	f884 3043 	strb.w	r3, [r4, #67]	; 0x43
 8002a0c:	f884 303d 	strb.w	r3, [r4, #61]	; 0x3d
 8002a10:	bd38      	pop	{r3, r4, r5, pc}
 8002a12:	2001      	movs	r0, #1
 8002a14:	e7fc      	b.n	8002a10 <HAL_TIM_OnePulse_Init+0x54>
	...

08002a18 <TIM_OC2_SetConfig>:
 8002a18:	6a03      	ldr	r3, [r0, #32]
 8002a1a:	b570      	push	{r4, r5, r6, lr}
 8002a1c:	f023 0310 	bic.w	r3, r3, #16
 8002a20:	6203      	str	r3, [r0, #32]
 8002a22:	6a03      	ldr	r3, [r0, #32]
 8002a24:	6844      	ldr	r4, [r0, #4]
 8002a26:	6982      	ldr	r2, [r0, #24]
 8002a28:	680d      	ldr	r5, [r1, #0]
 8002a2a:	f422 42e6 	bic.w	r2, r2, #29440	; 0x7300
 8002a2e:	ea42 2205 	orr.w	r2, r2, r5, lsl #8
 8002a32:	688d      	ldr	r5, [r1, #8]
 8002a34:	f023 0320 	bic.w	r3, r3, #32
 8002a38:	ea43 1305 	orr.w	r3, r3, r5, lsl #4
 8002a3c:	4d0b      	ldr	r5, [pc, #44]	; (8002a6c <TIM_OC2_SetConfig+0x54>)
 8002a3e:	42a8      	cmp	r0, r5
 8002a40:	d10d      	bne.n	8002a5e <TIM_OC2_SetConfig+0x46>
 8002a42:	68cd      	ldr	r5, [r1, #12]
 8002a44:	f023 0380 	bic.w	r3, r3, #128	; 0x80
 8002a48:	ea43 1305 	orr.w	r3, r3, r5, lsl #4
 8002a4c:	f424 6440 	bic.w	r4, r4, #3072	; 0xc00
 8002a50:	e9d1 5605 	ldrd	r5, r6, [r1, #20]
 8002a54:	4335      	orrs	r5, r6
 8002a56:	f023 0340 	bic.w	r3, r3, #64	; 0x40
 8002a5a:	ea44 0485 	orr.w	r4, r4, r5, lsl #2
 8002a5e:	6044      	str	r4, [r0, #4]
 8002a60:	6182      	str	r2, [r0, #24]
 8002a62:	684a      	ldr	r2, [r1, #4]
 8002a64:	6382      	str	r2, [r0, #56]	; 0x38
 8002a66:	6203      	str	r3, [r0, #32]
 8002a68:	bd70      	pop	{r4, r5, r6, pc}
 8002a6a:	bf00      	nop
 8002a6c:	40012c00 	.word	0x40012c00

08002a70 <HAL_TIM_OC_ConfigChannel>:
 8002a70:	b510      	push	{r4, lr}
 8002a72:	f890 303c 	ldrb.w	r3, [r0, #60]	; 0x3c
 8002a76:	4604      	mov	r4, r0
 8002a78:	2b01      	cmp	r3, #1
 8002a7a:	d01e      	beq.n	8002aba <HAL_TIM_OC_ConfigChannel+0x4a>
 8002a7c:	2301      	movs	r3, #1
 8002a7e:	2a08      	cmp	r2, #8
 8002a80:	f880 303c 	strb.w	r3, [r0, #60]	; 0x3c
 8002a84:	d015      	beq.n	8002ab2 <HAL_TIM_OC_ConfigChannel+0x42>
 8002a86:	d806      	bhi.n	8002a96 <HAL_TIM_OC_ConfigChannel+0x26>
 8002a88:	b15a      	cbz	r2, 8002aa2 <HAL_TIM_OC_ConfigChannel+0x32>
 8002a8a:	2a04      	cmp	r2, #4
 8002a8c:	d00d      	beq.n	8002aaa <HAL_TIM_OC_ConfigChannel+0x3a>
 8002a8e:	2000      	movs	r0, #0
 8002a90:	f884 003c 	strb.w	r0, [r4, #60]	; 0x3c
 8002a94:	bd10      	pop	{r4, pc}
 8002a96:	2a0c      	cmp	r2, #12
 8002a98:	d1f9      	bne.n	8002a8e <HAL_TIM_OC_ConfigChannel+0x1e>
 8002a9a:	6800      	ldr	r0, [r0, #0]
 8002a9c:	f7ff fd54 	bl	8002548 <TIM_OC4_SetConfig>
 8002aa0:	e7f5      	b.n	8002a8e <HAL_TIM_OC_ConfigChannel+0x1e>
 8002aa2:	6800      	ldr	r0, [r0, #0]
 8002aa4:	f7ff fcfe 	bl	80024a4 <TIM_OC1_SetConfig>
 8002aa8:	e7f1      	b.n	8002a8e <HAL_TIM_OC_ConfigChannel+0x1e>
 8002aaa:	6800      	ldr	r0, [r0, #0]
 8002aac:	f7ff ffb4 	bl	8002a18 <TIM_OC2_SetConfig>
 8002ab0:	e7ed      	b.n	8002a8e <HAL_TIM_OC_ConfigChannel+0x1e>
 8002ab2:	6800      	ldr	r0, [r0, #0]
 8002ab4:	f7ff fd1e 	bl	80024f4 <TIM_OC3_SetConfig>
 8002ab8:	e7e9      	b.n	8002a8e <HAL_TIM_OC_ConfigChannel+0x1e>
 8002aba:	2002      	movs	r0, #2
 8002abc:	e7ea      	b.n	8002a94 <HAL_TIM_OC_ConfigChannel+0x24>
	...

08002ac0 <TIM_TI1_SetConfig>:
 8002ac0:	b570      	push	{r4, r5, r6, lr}
 8002ac2:	6a04      	ldr	r4, [r0, #32]
 8002ac4:	4e12      	ldr	r6, [pc, #72]	; (8002b10 <TIM_TI1_SetConfig+0x50>)
 8002ac6:	f024 0401 	bic.w	r4, r4, #1
 8002aca:	6204      	str	r4, [r0, #32]
 8002acc:	42b0      	cmp	r0, r6
 8002ace:	6984      	ldr	r4, [r0, #24]
 8002ad0:	6a05      	ldr	r5, [r0, #32]
 8002ad2:	d019      	beq.n	8002b08 <TIM_TI1_SetConfig+0x48>
 8002ad4:	f1b0 4f80 	cmp.w	r0, #1073741824	; 0x40000000
 8002ad8:	d016      	beq.n	8002b08 <TIM_TI1_SetConfig+0x48>
 8002ada:	f5a6 3694 	sub.w	r6, r6, #75776	; 0x12800
 8002ade:	42b0      	cmp	r0, r6
 8002ae0:	d012      	beq.n	8002b08 <TIM_TI1_SetConfig+0x48>
 8002ae2:	f506 6680 	add.w	r6, r6, #1024	; 0x400
 8002ae6:	42b0      	cmp	r0, r6
 8002ae8:	d00e      	beq.n	8002b08 <TIM_TI1_SetConfig+0x48>
 8002aea:	f044 0201 	orr.w	r2, r4, #1
 8002aee:	011b      	lsls	r3, r3, #4
 8002af0:	f022 02f0 	bic.w	r2, r2, #240	; 0xf0
 8002af4:	b2db      	uxtb	r3, r3
 8002af6:	4313      	orrs	r3, r2
 8002af8:	f001 010a 	and.w	r1, r1, #10
 8002afc:	f025 020a 	bic.w	r2, r5, #10
 8002b00:	4311      	orrs	r1, r2
 8002b02:	6183      	str	r3, [r0, #24]
 8002b04:	6201      	str	r1, [r0, #32]
 8002b06:	bd70      	pop	{r4, r5, r6, pc}
 8002b08:	f024 0403 	bic.w	r4, r4, #3
 8002b0c:	4322      	orrs	r2, r4
 8002b0e:	e7ee      	b.n	8002aee <TIM_TI1_SetConfig+0x2e>
 8002b10:	40012c00 	.word	0x40012c00

08002b14 <HAL_TIM_IC_ConfigChannel>:
 8002b14:	b5f8      	push	{r3, r4, r5, r6, r7, lr}
 8002b16:	f890 303c 	ldrb.w	r3, [r0, #60]	; 0x3c
 8002b1a:	4604      	mov	r4, r0
 8002b1c:	2b01      	cmp	r3, #1
 8002b1e:	460e      	mov	r6, r1
 8002b20:	4615      	mov	r5, r2
 8002b22:	d079      	beq.n	8002c18 <HAL_TIM_IC_ConfigChannel+0x104>
 8002b24:	2301      	movs	r3, #1
 8002b26:	f880 303c 	strb.w	r3, [r0, #60]	; 0x3c
 8002b2a:	68f3      	ldr	r3, [r6, #12]
 8002b2c:	6800      	ldr	r0, [r0, #0]
 8002b2e:	c906      	ldmia	r1, {r1, r2}
 8002b30:	b975      	cbnz	r5, 8002b50 <HAL_TIM_IC_ConfigChannel+0x3c>
 8002b32:	f7ff ffc5 	bl	8002ac0 <TIM_TI1_SetConfig>
 8002b36:	6823      	ldr	r3, [r4, #0]
 8002b38:	68b1      	ldr	r1, [r6, #8]
 8002b3a:	699a      	ldr	r2, [r3, #24]
 8002b3c:	f022 020c 	bic.w	r2, r2, #12
 8002b40:	619a      	str	r2, [r3, #24]
 8002b42:	699a      	ldr	r2, [r3, #24]
 8002b44:	430a      	orrs	r2, r1
 8002b46:	619a      	str	r2, [r3, #24]
 8002b48:	2000      	movs	r0, #0
 8002b4a:	f884 003c 	strb.w	r0, [r4, #60]	; 0x3c
 8002b4e:	bdf8      	pop	{r3, r4, r5, r6, r7, pc}
 8002b50:	2d04      	cmp	r5, #4
 8002b52:	68b6      	ldr	r6, [r6, #8]
 8002b54:	d122      	bne.n	8002b9c <HAL_TIM_IC_ConfigChannel+0x88>
 8002b56:	6a05      	ldr	r5, [r0, #32]
 8002b58:	0109      	lsls	r1, r1, #4
 8002b5a:	f025 0510 	bic.w	r5, r5, #16
 8002b5e:	6205      	str	r5, [r0, #32]
 8002b60:	6987      	ldr	r7, [r0, #24]
 8002b62:	f8d0 e020 	ldr.w	lr, [r0, #32]
 8002b66:	f427 7c40 	bic.w	ip, r7, #768	; 0x300
 8002b6a:	031d      	lsls	r5, r3, #12
 8002b6c:	ea4c 2c02 	orr.w	ip, ip, r2, lsl #8
 8002b70:	f42c 4c70 	bic.w	ip, ip, #61440	; 0xf000
 8002b74:	b2ad      	uxth	r5, r5
 8002b76:	f02e 0ea0 	bic.w	lr, lr, #160	; 0xa0
 8002b7a:	f001 01a0 	and.w	r1, r1, #160	; 0xa0
 8002b7e:	ea45 050c 	orr.w	r5, r5, ip
 8002b82:	ea41 010e 	orr.w	r1, r1, lr
 8002b86:	6185      	str	r5, [r0, #24]
 8002b88:	6201      	str	r1, [r0, #32]
 8002b8a:	6983      	ldr	r3, [r0, #24]
 8002b8c:	f423 6340 	bic.w	r3, r3, #3072	; 0xc00
 8002b90:	6183      	str	r3, [r0, #24]
 8002b92:	6983      	ldr	r3, [r0, #24]
 8002b94:	ea43 2606 	orr.w	r6, r3, r6, lsl #8
 8002b98:	6186      	str	r6, [r0, #24]
 8002b9a:	e7d5      	b.n	8002b48 <HAL_TIM_IC_ConfigChannel+0x34>
 8002b9c:	2d08      	cmp	r5, #8
 8002b9e:	6a05      	ldr	r5, [r0, #32]
 8002ba0:	d11c      	bne.n	8002bdc <HAL_TIM_IC_ConfigChannel+0xc8>
 8002ba2:	f425 7580 	bic.w	r5, r5, #256	; 0x100
 8002ba6:	6205      	str	r5, [r0, #32]
 8002ba8:	69c7      	ldr	r7, [r0, #28]
 8002baa:	6a05      	ldr	r5, [r0, #32]
 8002bac:	f027 0703 	bic.w	r7, r7, #3
 8002bb0:	4317      	orrs	r7, r2
 8002bb2:	011b      	lsls	r3, r3, #4
 8002bb4:	0209      	lsls	r1, r1, #8
 8002bb6:	b2db      	uxtb	r3, r3
 8002bb8:	f027 07f0 	bic.w	r7, r7, #240	; 0xf0
 8002bbc:	f425 7500 	bic.w	r5, r5, #512	; 0x200
 8002bc0:	f401 7100 	and.w	r1, r1, #512	; 0x200
 8002bc4:	431f      	orrs	r7, r3
 8002bc6:	4329      	orrs	r1, r5
 8002bc8:	61c7      	str	r7, [r0, #28]
 8002bca:	6201      	str	r1, [r0, #32]
 8002bcc:	69c3      	ldr	r3, [r0, #28]
 8002bce:	f023 030c 	bic.w	r3, r3, #12
 8002bd2:	61c3      	str	r3, [r0, #28]
 8002bd4:	69c3      	ldr	r3, [r0, #28]
 8002bd6:	431e      	orrs	r6, r3
 8002bd8:	61c6      	str	r6, [r0, #28]
 8002bda:	e7b5      	b.n	8002b48 <HAL_TIM_IC_ConfigChannel+0x34>
 8002bdc:	f425 5580 	bic.w	r5, r5, #4096	; 0x1000
 8002be0:	6205      	str	r5, [r0, #32]
 8002be2:	69c5      	ldr	r5, [r0, #28]
 8002be4:	6a07      	ldr	r7, [r0, #32]
 8002be6:	f425 7540 	bic.w	r5, r5, #768	; 0x300
 8002bea:	ea45 2502 	orr.w	r5, r5, r2, lsl #8
 8002bee:	031b      	lsls	r3, r3, #12
 8002bf0:	0309      	lsls	r1, r1, #12
 8002bf2:	f425 4570 	bic.w	r5, r5, #61440	; 0xf000
 8002bf6:	b29b      	uxth	r3, r3
 8002bf8:	f427 5700 	bic.w	r7, r7, #8192	; 0x2000
 8002bfc:	f401 5100 	and.w	r1, r1, #8192	; 0x2000
 8002c00:	432b      	orrs	r3, r5
 8002c02:	4339      	orrs	r1, r7
 8002c04:	61c3      	str	r3, [r0, #28]
 8002c06:	6201      	str	r1, [r0, #32]
 8002c08:	69c3      	ldr	r3, [r0, #28]
 8002c0a:	f423 6340 	bic.w	r3, r3, #3072	; 0xc00
 8002c0e:	61c3      	str	r3, [r0, #28]
 8002c10:	69c3      	ldr	r3, [r0, #28]
 8002c12:	ea43 2606 	orr.w	r6, r3, r6, lsl #8
 8002c16:	e7df      	b.n	8002bd8 <HAL_TIM_IC_ConfigChannel+0xc4>
 8002c18:	2002      	movs	r0, #2
 8002c1a:	e798      	b.n	8002b4e <HAL_TIM_IC_ConfigChannel+0x3a>

08002c1c <TIM_ETR_SetConfig>:
 8002c1c:	b510      	push	{r4, lr}
 8002c1e:	6884      	ldr	r4, [r0, #8]
 8002c20:	430a      	orrs	r2, r1
 8002c22:	f424 447f 	bic.w	r4, r4, #65280	; 0xff00
 8002c26:	ea42 2203 	orr.w	r2, r2, r3, lsl #8
 8002c2a:	4322      	orrs	r2, r4
 8002c2c:	6082      	str	r2, [r0, #8]
 8002c2e:	bd10      	pop	{r4, pc}

08002c30 <HAL_TIM_ConfigClockSource>:
 8002c30:	b570      	push	{r4, r5, r6, lr}
 8002c32:	f890 303c 	ldrb.w	r3, [r0, #60]	; 0x3c
 8002c36:	4604      	mov	r4, r0
 8002c38:	2b01      	cmp	r3, #1
 8002c3a:	f04f 0002 	mov.w	r0, #2
 8002c3e:	d027      	beq.n	8002c90 <HAL_TIM_ConfigClockSource+0x60>
 8002c40:	2301      	movs	r3, #1
 8002c42:	f884 003d 	strb.w	r0, [r4, #61]	; 0x3d
 8002c46:	6820      	ldr	r0, [r4, #0]
 8002c48:	f884 303c 	strb.w	r3, [r4, #60]	; 0x3c
 8002c4c:	6883      	ldr	r3, [r0, #8]
 8002c4e:	f423 437f 	bic.w	r3, r3, #65280	; 0xff00
 8002c52:	f023 0377 	bic.w	r3, r3, #119	; 0x77
 8002c56:	6083      	str	r3, [r0, #8]
 8002c58:	680b      	ldr	r3, [r1, #0]
 8002c5a:	2b60      	cmp	r3, #96	; 0x60
 8002c5c:	d04d      	beq.n	8002cfa <HAL_TIM_ConfigClockSource+0xca>
 8002c5e:	d832      	bhi.n	8002cc6 <HAL_TIM_ConfigClockSource+0x96>
 8002c60:	2b40      	cmp	r3, #64	; 0x40
 8002c62:	d062      	beq.n	8002d2a <HAL_TIM_ConfigClockSource+0xfa>
 8002c64:	d815      	bhi.n	8002c92 <HAL_TIM_ConfigClockSource+0x62>
 8002c66:	2b20      	cmp	r3, #32
 8002c68:	d003      	beq.n	8002c72 <HAL_TIM_ConfigClockSource+0x42>
 8002c6a:	d809      	bhi.n	8002c80 <HAL_TIM_ConfigClockSource+0x50>
 8002c6c:	f033 0210 	bics.w	r2, r3, #16
 8002c70:	d108      	bne.n	8002c84 <HAL_TIM_ConfigClockSource+0x54>
 8002c72:	6882      	ldr	r2, [r0, #8]
 8002c74:	f022 0270 	bic.w	r2, r2, #112	; 0x70
 8002c78:	4313      	orrs	r3, r2
 8002c7a:	f043 0307 	orr.w	r3, r3, #7
 8002c7e:	e020      	b.n	8002cc2 <HAL_TIM_ConfigClockSource+0x92>
 8002c80:	2b30      	cmp	r3, #48	; 0x30
 8002c82:	d0f6      	beq.n	8002c72 <HAL_TIM_ConfigClockSource+0x42>
 8002c84:	2301      	movs	r3, #1
 8002c86:	2000      	movs	r0, #0
 8002c88:	f884 303d 	strb.w	r3, [r4, #61]	; 0x3d
 8002c8c:	f884 003c 	strb.w	r0, [r4, #60]	; 0x3c
 8002c90:	bd70      	pop	{r4, r5, r6, pc}
 8002c92:	2b50      	cmp	r3, #80	; 0x50
 8002c94:	d1f6      	bne.n	8002c84 <HAL_TIM_ConfigClockSource+0x54>
 8002c96:	684a      	ldr	r2, [r1, #4]
 8002c98:	68ce      	ldr	r6, [r1, #12]
 8002c9a:	6a01      	ldr	r1, [r0, #32]
 8002c9c:	6a05      	ldr	r5, [r0, #32]
 8002c9e:	f021 010a 	bic.w	r1, r1, #10
 8002ca2:	f025 0501 	bic.w	r5, r5, #1
 8002ca6:	6205      	str	r5, [r0, #32]
 8002ca8:	6983      	ldr	r3, [r0, #24]
 8002caa:	430a      	orrs	r2, r1
 8002cac:	f023 03f0 	bic.w	r3, r3, #240	; 0xf0
 8002cb0:	ea43 1306 	orr.w	r3, r3, r6, lsl #4
 8002cb4:	6183      	str	r3, [r0, #24]
 8002cb6:	6202      	str	r2, [r0, #32]
 8002cb8:	6883      	ldr	r3, [r0, #8]
 8002cba:	f023 0370 	bic.w	r3, r3, #112	; 0x70
 8002cbe:	f043 0357 	orr.w	r3, r3, #87	; 0x57
 8002cc2:	6083      	str	r3, [r0, #8]
 8002cc4:	e7de      	b.n	8002c84 <HAL_TIM_ConfigClockSource+0x54>
 8002cc6:	2b70      	cmp	r3, #112	; 0x70
 8002cc8:	d00c      	beq.n	8002ce4 <HAL_TIM_ConfigClockSource+0xb4>
 8002cca:	f5b3 5f00 	cmp.w	r3, #8192	; 0x2000
 8002cce:	d1d9      	bne.n	8002c84 <HAL_TIM_ConfigClockSource+0x54>
 8002cd0:	68cb      	ldr	r3, [r1, #12]
 8002cd2:	e9d1 2101 	ldrd	r2, r1, [r1, #4]
 8002cd6:	f7ff ffa1 	bl	8002c1c <TIM_ETR_SetConfig>
 8002cda:	6822      	ldr	r2, [r4, #0]
 8002cdc:	6893      	ldr	r3, [r2, #8]
 8002cde:	f443 4380 	orr.w	r3, r3, #16384	; 0x4000
 8002ce2:	e008      	b.n	8002cf6 <HAL_TIM_ConfigClockSource+0xc6>
 8002ce4:	68cb      	ldr	r3, [r1, #12]
 8002ce6:	e9d1 2101 	ldrd	r2, r1, [r1, #4]
 8002cea:	f7ff ff97 	bl	8002c1c <TIM_ETR_SetConfig>
 8002cee:	6822      	ldr	r2, [r4, #0]
 8002cf0:	6893      	ldr	r3, [r2, #8]
 8002cf2:	f043 0377 	orr.w	r3, r3, #119	; 0x77
 8002cf6:	6093      	str	r3, [r2, #8]
 8002cf8:	e7c4      	b.n	8002c84 <HAL_TIM_ConfigClockSource+0x54>
 8002cfa:	684d      	ldr	r5, [r1, #4]
 8002cfc:	68ce      	ldr	r6, [r1, #12]
 8002cfe:	6a01      	ldr	r1, [r0, #32]
 8002d00:	f021 0110 	bic.w	r1, r1, #16
 8002d04:	6201      	str	r1, [r0, #32]
 8002d06:	6982      	ldr	r2, [r0, #24]
 8002d08:	6a03      	ldr	r3, [r0, #32]
 8002d0a:	f422 4270 	bic.w	r2, r2, #61440	; 0xf000
 8002d0e:	f023 03a0 	bic.w	r3, r3, #160	; 0xa0
 8002d12:	ea43 1305 	orr.w	r3, r3, r5, lsl #4
 8002d16:	ea42 3206 	orr.w	r2, r2, r6, lsl #12
 8002d1a:	6182      	str	r2, [r0, #24]
 8002d1c:	6203      	str	r3, [r0, #32]
 8002d1e:	6883      	ldr	r3, [r0, #8]
 8002d20:	f023 0370 	bic.w	r3, r3, #112	; 0x70
 8002d24:	f043 0367 	orr.w	r3, r3, #103	; 0x67
 8002d28:	e7cb      	b.n	8002cc2 <HAL_TIM_ConfigClockSource+0x92>
 8002d2a:	684a      	ldr	r2, [r1, #4]
 8002d2c:	68ce      	ldr	r6, [r1, #12]
 8002d2e:	6a01      	ldr	r1, [r0, #32]
 8002d30:	6a05      	ldr	r5, [r0, #32]
 8002d32:	f021 010a 	bic.w	r1, r1, #10
 8002d36:	f025 0501 	bic.w	r5, r5, #1
 8002d3a:	6205      	str	r5, [r0, #32]
 8002d3c:	6983      	ldr	r3, [r0, #24]
 8002d3e:	430a      	orrs	r2, r1
 8002d40:	f023 03f0 	bic.w	r3, r3, #240	; 0xf0
 8002d44:	ea43 1306 	orr.w	r3, r3, r6, lsl #4
 8002d48:	6183      	str	r3, [r0, #24]
 8002d4a:	6202      	str	r2, [r0, #32]
 8002d4c:	6883      	ldr	r3, [r0, #8]
 8002d4e:	f023 0370 	bic.w	r3, r3, #112	; 0x70
 8002d52:	f043 0347 	orr.w	r3, r3, #71	; 0x47
 8002d56:	e7b4      	b.n	8002cc2 <HAL_TIM_ConfigClockSource+0x92>

08002d58 <TIM_SlaveTimer_SetConfig>:
 8002d58:	6800      	ldr	r0, [r0, #0]
 8002d5a:	b538      	push	{r3, r4, r5, lr}
 8002d5c:	6883      	ldr	r3, [r0, #8]
 8002d5e:	684a      	ldr	r2, [r1, #4]
 8002d60:	f023 0370 	bic.w	r3, r3, #112	; 0x70
 8002d64:	680c      	ldr	r4, [r1, #0]
 8002d66:	4313      	orrs	r3, r2
 8002d68:	f023 0307 	bic.w	r3, r3, #7
 8002d6c:	4323      	orrs	r3, r4
 8002d6e:	2a60      	cmp	r2, #96	; 0x60
 8002d70:	6083      	str	r3, [r0, #8]
 8002d72:	d02e      	beq.n	8002dd2 <TIM_SlaveTimer_SetConfig+0x7a>
 8002d74:	d805      	bhi.n	8002d82 <TIM_SlaveTimer_SetConfig+0x2a>
 8002d76:	2a40      	cmp	r2, #64	; 0x40
 8002d78:	d00b      	beq.n	8002d92 <TIM_SlaveTimer_SetConfig+0x3a>
 8002d7a:	2a50      	cmp	r2, #80	; 0x50
 8002d7c:	d019      	beq.n	8002db2 <TIM_SlaveTimer_SetConfig+0x5a>
 8002d7e:	2000      	movs	r0, #0
 8002d80:	bd38      	pop	{r3, r4, r5, pc}
 8002d82:	2a70      	cmp	r2, #112	; 0x70
 8002d84:	d1fb      	bne.n	8002d7e <TIM_SlaveTimer_SetConfig+0x26>
 8002d86:	690b      	ldr	r3, [r1, #16]
 8002d88:	e9d1 2102 	ldrd	r2, r1, [r1, #8]
 8002d8c:	f7ff ff46 	bl	8002c1c <TIM_ETR_SetConfig>
 8002d90:	e7f5      	b.n	8002d7e <TIM_SlaveTimer_SetConfig+0x26>
 8002d92:	2c05      	cmp	r4, #5
 8002d94:	d030      	beq.n	8002df8 <TIM_SlaveTimer_SetConfig+0xa0>
 8002d96:	6a02      	ldr	r2, [r0, #32]
 8002d98:	6a03      	ldr	r3, [r0, #32]
 8002d9a:	6909      	ldr	r1, [r1, #16]
 8002d9c:	f023 0301 	bic.w	r3, r3, #1
 8002da0:	6203      	str	r3, [r0, #32]
 8002da2:	6983      	ldr	r3, [r0, #24]
 8002da4:	f023 03f0 	bic.w	r3, r3, #240	; 0xf0
 8002da8:	ea43 1301 	orr.w	r3, r3, r1, lsl #4
 8002dac:	6183      	str	r3, [r0, #24]
 8002dae:	6202      	str	r2, [r0, #32]
 8002db0:	e7e5      	b.n	8002d7e <TIM_SlaveTimer_SetConfig+0x26>
 8002db2:	688a      	ldr	r2, [r1, #8]
 8002db4:	690d      	ldr	r5, [r1, #16]
 8002db6:	6a01      	ldr	r1, [r0, #32]
 8002db8:	6a04      	ldr	r4, [r0, #32]
 8002dba:	f021 010a 	bic.w	r1, r1, #10
 8002dbe:	f024 0401 	bic.w	r4, r4, #1
 8002dc2:	6204      	str	r4, [r0, #32]
 8002dc4:	6983      	ldr	r3, [r0, #24]
 8002dc6:	430a      	orrs	r2, r1
 8002dc8:	f023 03f0 	bic.w	r3, r3, #240	; 0xf0
 8002dcc:	ea43 1305 	orr.w	r3, r3, r5, lsl #4
 8002dd0:	e7ec      	b.n	8002dac <TIM_SlaveTimer_SetConfig+0x54>
 8002dd2:	688c      	ldr	r4, [r1, #8]
 8002dd4:	690d      	ldr	r5, [r1, #16]
 8002dd6:	6a01      	ldr	r1, [r0, #32]
 8002dd8:	f021 0110 	bic.w	r1, r1, #16
 8002ddc:	6201      	str	r1, [r0, #32]
 8002dde:	6982      	ldr	r2, [r0, #24]
 8002de0:	6a03      	ldr	r3, [r0, #32]
 8002de2:	f422 4270 	bic.w	r2, r2, #61440	; 0xf000
 8002de6:	f023 03a0 	bic.w	r3, r3, #160	; 0xa0
 8002dea:	ea42 3205 	orr.w	r2, r2, r5, lsl #12
 8002dee:	ea43 1304 	orr.w	r3, r3, r4, lsl #4
 8002df2:	6182      	str	r2, [r0, #24]
 8002df4:	6203      	str	r3, [r0, #32]
 8002df6:	e7c2      	b.n	8002d7e <TIM_SlaveTimer_SetConfig+0x26>
 8002df8:	2001      	movs	r0, #1
 8002dfa:	e7c1      	b.n	8002d80 <TIM_SlaveTimer_SetConfig+0x28>

08002dfc <HAL_TIM_SlaveConfigSynchro>:
 8002dfc:	b538      	push	{r3, r4, r5, lr}
 8002dfe:	f890 303c 	ldrb.w	r3, [r0, #60]	; 0x3c
 8002e02:	4604      	mov	r4, r0
 8002e04:	2b01      	cmp	r3, #1
 8002e06:	f04f 0302 	mov.w	r3, #2
 8002e0a:	d01c      	beq.n	8002e46 <HAL_TIM_SlaveConfigSynchro+0x4a>
 8002e0c:	2501      	movs	r5, #1
 8002e0e:	f880 303d 	strb.w	r3, [r0, #61]	; 0x3d
 8002e12:	f880 503c 	strb.w	r5, [r0, #60]	; 0x3c
 8002e16:	f7ff ff9f 	bl	8002d58 <TIM_SlaveTimer_SetConfig>
 8002e1a:	b130      	cbz	r0, 8002e2a <HAL_TIM_SlaveConfigSynchro+0x2e>
 8002e1c:	2300      	movs	r3, #0
 8002e1e:	4628      	mov	r0, r5
 8002e20:	f884 503d 	strb.w	r5, [r4, #61]	; 0x3d
 8002e24:	f884 303c 	strb.w	r3, [r4, #60]	; 0x3c
 8002e28:	bd38      	pop	{r3, r4, r5, pc}
 8002e2a:	6823      	ldr	r3, [r4, #0]
 8002e2c:	68da      	ldr	r2, [r3, #12]
 8002e2e:	f022 0240 	bic.w	r2, r2, #64	; 0x40
 8002e32:	60da      	str	r2, [r3, #12]
 8002e34:	68da      	ldr	r2, [r3, #12]
 8002e36:	f422 4280 	bic.w	r2, r2, #16384	; 0x4000
 8002e3a:	60da      	str	r2, [r3, #12]
 8002e3c:	f884 503d 	strb.w	r5, [r4, #61]	; 0x3d
 8002e40:	f884 003c 	strb.w	r0, [r4, #60]	; 0x3c
 8002e44:	e7f0      	b.n	8002e28 <HAL_TIM_SlaveConfigSynchro+0x2c>
 8002e46:	4618      	mov	r0, r3
 8002e48:	e7ee      	b.n	8002e28 <HAL_TIM_SlaveConfigSynchro+0x2c>

08002e4a <TIM_CCxChannelCmd>:
 8002e4a:	b510      	push	{r4, lr}
 8002e4c:	2401      	movs	r4, #1
 8002e4e:	6a03      	ldr	r3, [r0, #32]
 8002e50:	f001 011f 	and.w	r1, r1, #31
 8002e54:	408c      	lsls	r4, r1
 8002e56:	ea23 0304 	bic.w	r3, r3, r4
 8002e5a:	6203      	str	r3, [r0, #32]
 8002e5c:	6a03      	ldr	r3, [r0, #32]
 8002e5e:	408a      	lsls	r2, r1
 8002e60:	431a      	orrs	r2, r3
 8002e62:	6202      	str	r2, [r0, #32]
 8002e64:	bd10      	pop	{r4, pc}
	...

08002e68 <HAL_TIM_OC_Start>:
 8002e68:	b510      	push	{r4, lr}
 8002e6a:	4604      	mov	r4, r0
 8002e6c:	b929      	cbnz	r1, 8002e7a <HAL_TIM_OC_Start+0x12>
 8002e6e:	f890 303e 	ldrb.w	r3, [r0, #62]	; 0x3e
 8002e72:	2b01      	cmp	r3, #1
 8002e74:	d01d      	beq.n	8002eb2 <HAL_TIM_OC_Start+0x4a>
 8002e76:	2001      	movs	r0, #1
 8002e78:	bd10      	pop	{r4, pc}
 8002e7a:	2904      	cmp	r1, #4
 8002e7c:	d107      	bne.n	8002e8e <HAL_TIM_OC_Start+0x26>
 8002e7e:	f890 303f 	ldrb.w	r3, [r0, #63]	; 0x3f
 8002e82:	2b01      	cmp	r3, #1
 8002e84:	d1f7      	bne.n	8002e76 <HAL_TIM_OC_Start+0xe>
 8002e86:	2302      	movs	r3, #2
 8002e88:	f880 303f 	strb.w	r3, [r0, #63]	; 0x3f
 8002e8c:	e014      	b.n	8002eb8 <HAL_TIM_OC_Start+0x50>
 8002e8e:	2908      	cmp	r1, #8
 8002e90:	d107      	bne.n	8002ea2 <HAL_TIM_OC_Start+0x3a>
 8002e92:	f890 3040 	ldrb.w	r3, [r0, #64]	; 0x40
 8002e96:	2b01      	cmp	r3, #1
 8002e98:	d1ed      	bne.n	8002e76 <HAL_TIM_OC_Start+0xe>
 8002e9a:	2302      	movs	r3, #2
 8002e9c:	f880 3040 	strb.w	r3, [r0, #64]	; 0x40
 8002ea0:	e00a      	b.n	8002eb8 <HAL_TIM_OC_Start+0x50>
 8002ea2:	f890 3041 	ldrb.w	r3, [r0, #65]	; 0x41
 8002ea6:	2b01      	cmp	r3, #1
 8002ea8:	d1e5      	bne.n	8002e76 <HAL_TIM_OC_Start+0xe>
 8002eaa:	2302      	movs	r3, #2
 8002eac:	f880 3041 	strb.w	r3, [r0, #65]	; 0x41
 8002eb0:	e002      	b.n	8002eb8 <HAL_TIM_OC_Start+0x50>
 8002eb2:	2302      	movs	r3, #2
 8002eb4:	f880 303e 	strb.w	r3, [r0, #62]	; 0x3e
 8002eb8:	2201      	movs	r2, #1
 8002eba:	6820      	ldr	r0, [r4, #0]
 8002ebc:	f7ff ffc5 	bl	8002e4a <TIM_CCxChannelCmd>
 8002ec0:	6823      	ldr	r3, [r4, #0]
 8002ec2:	4a0e      	ldr	r2, [pc, #56]	; (8002efc <HAL_TIM_OC_Start+0x94>)
 8002ec4:	4293      	cmp	r3, r2
 8002ec6:	d10a      	bne.n	8002ede <HAL_TIM_OC_Start+0x76>
 8002ec8:	6c5a      	ldr	r2, [r3, #68]	; 0x44
 8002eca:	f442 4200 	orr.w	r2, r2, #32768	; 0x8000
 8002ece:	645a      	str	r2, [r3, #68]	; 0x44
 8002ed0:	689a      	ldr	r2, [r3, #8]
 8002ed2:	f002 0207 	and.w	r2, r2, #7
 8002ed6:	2a06      	cmp	r2, #6
 8002ed8:	d10b      	bne.n	8002ef2 <HAL_TIM_OC_Start+0x8a>
 8002eda:	2000      	movs	r0, #0
 8002edc:	e7cc      	b.n	8002e78 <HAL_TIM_OC_Start+0x10>
 8002ede:	f1b3 4f80 	cmp.w	r3, #1073741824	; 0x40000000
 8002ee2:	d0f5      	beq.n	8002ed0 <HAL_TIM_OC_Start+0x68>
 8002ee4:	4a06      	ldr	r2, [pc, #24]	; (8002f00 <HAL_TIM_OC_Start+0x98>)
 8002ee6:	4293      	cmp	r3, r2
 8002ee8:	d0f2      	beq.n	8002ed0 <HAL_TIM_OC_Start+0x68>
 8002eea:	f502 6280 	add.w	r2, r2, #1024	; 0x400
 8002eee:	4293      	cmp	r3, r2
 8002ef0:	d0ee      	beq.n	8002ed0 <HAL_TIM_OC_Start+0x68>
 8002ef2:	681a      	ldr	r2, [r3, #0]
 8002ef4:	f042 0201 	orr.w	r2, r2, #1
 8002ef8:	601a      	str	r2, [r3, #0]
 8002efa:	e7ee      	b.n	8002eda <HAL_TIM_OC_Start+0x72>
 8002efc:	40012c00 	.word	0x40012c00
 8002f00:	40000400 	.word	0x40000400

08002f04 <HAL_TIM_OC_Stop>:
 8002f04:	b538      	push	{r3, r4, r5, lr}
 8002f06:	4604      	mov	r4, r0
 8002f08:	2200      	movs	r2, #0
 8002f0a:	6800      	ldr	r0, [r0, #0]
 8002f0c:	460d      	mov	r5, r1
 8002f0e:	f7ff ff9c 	bl	8002e4a <TIM_CCxChannelCmd>
 8002f12:	6823      	ldr	r3, [r4, #0]
 8002f14:	4a18      	ldr	r2, [pc, #96]	; (8002f78 <HAL_TIM_OC_Stop+0x74>)
 8002f16:	4293      	cmp	r3, r2
 8002f18:	d10d      	bne.n	8002f36 <HAL_TIM_OC_Stop+0x32>
 8002f1a:	f241 1211 	movw	r2, #4369	; 0x1111
 8002f1e:	6a19      	ldr	r1, [r3, #32]
 8002f20:	4211      	tst	r1, r2
 8002f22:	d108      	bne.n	8002f36 <HAL_TIM_OC_Stop+0x32>
 8002f24:	f240 4244 	movw	r2, #1092	; 0x444
 8002f28:	6a19      	ldr	r1, [r3, #32]
 8002f2a:	4211      	tst	r1, r2
 8002f2c:	bf02      	ittt	eq
 8002f2e:	6c5a      	ldreq	r2, [r3, #68]	; 0x44
 8002f30:	f422 4200 	biceq.w	r2, r2, #32768	; 0x8000
 8002f34:	645a      	streq	r2, [r3, #68]	; 0x44
 8002f36:	f241 1211 	movw	r2, #4369	; 0x1111
 8002f3a:	6a19      	ldr	r1, [r3, #32]
 8002f3c:	4211      	tst	r1, r2
 8002f3e:	d108      	bne.n	8002f52 <HAL_TIM_OC_Stop+0x4e>
 8002f40:	f240 4244 	movw	r2, #1092	; 0x444
 8002f44:	6a19      	ldr	r1, [r3, #32]
 8002f46:	4211      	tst	r1, r2
 8002f48:	bf02      	ittt	eq
 8002f4a:	681a      	ldreq	r2, [r3, #0]
 8002f4c:	f022 0201 	biceq.w	r2, r2, #1
 8002f50:	601a      	streq	r2, [r3, #0]
 8002f52:	2301      	movs	r3, #1
 8002f54:	b91d      	cbnz	r5, 8002f5e <HAL_TIM_OC_Stop+0x5a>
 8002f56:	f884 303e 	strb.w	r3, [r4, #62]	; 0x3e
 8002f5a:	2000      	movs	r0, #0
 8002f5c:	bd38      	pop	{r3, r4, r5, pc}
 8002f5e:	2d04      	cmp	r5, #4
 8002f60:	d102      	bne.n	8002f68 <HAL_TIM_OC_Stop+0x64>
 8002f62:	f884 303f 	strb.w	r3, [r4, #63]	; 0x3f
 8002f66:	e7f8      	b.n	8002f5a <HAL_TIM_OC_Stop+0x56>
 8002f68:	2d08      	cmp	r5, #8
 8002f6a:	bf0c      	ite	eq
 8002f6c:	f884 3040 	strbeq.w	r3, [r4, #64]	; 0x40
 8002f70:	f884 3041 	strbne.w	r3, [r4, #65]	; 0x41
 8002f74:	e7f1      	b.n	8002f5a <HAL_TIM_OC_Stop+0x56>
 8002f76:	bf00      	nop
 8002f78:	40012c00 	.word	0x40012c00

08002f7c <HAL_TIM_IC_Start_DMA>:
 8002f7c:	e92d 41f0 	stmdb	sp!, {r4, r5, r6, r7, r8, lr}
 8002f80:	4604      	mov	r4, r0
 8002f82:	4616      	mov	r6, r2
 8002f84:	461f      	mov	r7, r3
 8002f86:	4688      	mov	r8, r1
 8002f88:	b979      	cbnz	r1, 8002faa <HAL_TIM_IC_Start_DMA+0x2e>
 8002f8a:	f890 003e 	ldrb.w	r0, [r0, #62]	; 0x3e
 8002f8e:	f894 5042 	ldrb.w	r5, [r4, #66]	; 0x42
 8002f92:	b2c0      	uxtb	r0, r0
 8002f94:	2802      	cmp	r0, #2
 8002f96:	b2ed      	uxtb	r5, r5
 8002f98:	d005      	beq.n	8002fa6 <HAL_TIM_IC_Start_DMA+0x2a>
 8002f9a:	2d02      	cmp	r5, #2
 8002f9c:	f000 80b8 	beq.w	8003110 <HAL_TIM_IC_Start_DMA+0x194>
 8002fa0:	2801      	cmp	r0, #1
 8002fa2:	d018      	beq.n	8002fd6 <HAL_TIM_IC_Start_DMA+0x5a>
 8002fa4:	2001      	movs	r0, #1
 8002fa6:	e8bd 81f0 	ldmia.w	sp!, {r4, r5, r6, r7, r8, pc}
 8002faa:	2904      	cmp	r1, #4
 8002fac:	d105      	bne.n	8002fba <HAL_TIM_IC_Start_DMA+0x3e>
 8002fae:	f890 003f 	ldrb.w	r0, [r0, #63]	; 0x3f
 8002fb2:	f894 5043 	ldrb.w	r5, [r4, #67]	; 0x43
 8002fb6:	b2c0      	uxtb	r0, r0
 8002fb8:	e7ec      	b.n	8002f94 <HAL_TIM_IC_Start_DMA+0x18>
 8002fba:	2908      	cmp	r1, #8
 8002fbc:	bf0b      	itete	eq
 8002fbe:	f890 0040 	ldrbeq.w	r0, [r0, #64]	; 0x40
 8002fc2:	f894 0041 	ldrbne.w	r0, [r4, #65]	; 0x41
 8002fc6:	f894 5044 	ldrbeq.w	r5, [r4, #68]	; 0x44
 8002fca:	f894 5045 	ldrbne.w	r5, [r4, #69]	; 0x45
 8002fce:	bf0c      	ite	eq
 8002fd0:	b2c0      	uxtbeq	r0, r0
 8002fd2:	b2c0      	uxtbne	r0, r0
 8002fd4:	e7de      	b.n	8002f94 <HAL_TIM_IC_Start_DMA+0x18>
 8002fd6:	2d01      	cmp	r5, #1
 8002fd8:	d1e4      	bne.n	8002fa4 <HAL_TIM_IC_Start_DMA+0x28>
 8002fda:	b90e      	cbnz	r6, 8002fe0 <HAL_TIM_IC_Start_DMA+0x64>
 8002fdc:	2f00      	cmp	r7, #0
 8002fde:	d1e1      	bne.n	8002fa4 <HAL_TIM_IC_Start_DMA+0x28>
 8002fe0:	2302      	movs	r3, #2
 8002fe2:	f1b8 0f00 	cmp.w	r8, #0
 8002fe6:	d12c      	bne.n	8003042 <HAL_TIM_IC_Start_DMA+0xc6>
 8002fe8:	f884 303e 	strb.w	r3, [r4, #62]	; 0x3e
 8002fec:	f884 3042 	strb.w	r3, [r4, #66]	; 0x42
 8002ff0:	4641      	mov	r1, r8
 8002ff2:	2201      	movs	r2, #1
 8002ff4:	6820      	ldr	r0, [r4, #0]
 8002ff6:	f7ff ff28 	bl	8002e4a <TIM_CCxChannelCmd>
 8002ffa:	6821      	ldr	r1, [r4, #0]
 8002ffc:	4b45      	ldr	r3, [pc, #276]	; (8003114 <HAL_TIM_IC_Start_DMA+0x198>)
 8002ffe:	4299      	cmp	r1, r3
 8003000:	d00a      	beq.n	8003018 <HAL_TIM_IC_Start_DMA+0x9c>
 8003002:	f1b1 4f80 	cmp.w	r1, #1073741824	; 0x40000000
 8003006:	d007      	beq.n	8003018 <HAL_TIM_IC_Start_DMA+0x9c>
 8003008:	f5a3 3394 	sub.w	r3, r3, #75776	; 0x12800
 800300c:	4299      	cmp	r1, r3
 800300e:	d003      	beq.n	8003018 <HAL_TIM_IC_Start_DMA+0x9c>
 8003010:	f503 6380 	add.w	r3, r3, #1024	; 0x400
 8003014:	4299      	cmp	r1, r3
 8003016:	d104      	bne.n	8003022 <HAL_TIM_IC_Start_DMA+0xa6>
 8003018:	688b      	ldr	r3, [r1, #8]
 800301a:	f003 0307 	and.w	r3, r3, #7
 800301e:	2b06      	cmp	r3, #6
 8003020:	d003      	beq.n	800302a <HAL_TIM_IC_Start_DMA+0xae>
 8003022:	680b      	ldr	r3, [r1, #0]
 8003024:	f043 0301 	orr.w	r3, r3, #1
 8003028:	600b      	str	r3, [r1, #0]
 800302a:	f1b8 0f08 	cmp.w	r8, #8
 800302e:	d05b      	beq.n	80030e8 <HAL_TIM_IC_Start_DMA+0x16c>
 8003030:	d81b      	bhi.n	800306a <HAL_TIM_IC_Start_DMA+0xee>
 8003032:	f1b8 0f00 	cmp.w	r8, #0
 8003036:	d02e      	beq.n	8003096 <HAL_TIM_IC_Start_DMA+0x11a>
 8003038:	f1b8 0f04 	cmp.w	r8, #4
 800303c:	d040      	beq.n	80030c0 <HAL_TIM_IC_Start_DMA+0x144>
 800303e:	2000      	movs	r0, #0
 8003040:	e7b1      	b.n	8002fa6 <HAL_TIM_IC_Start_DMA+0x2a>
 8003042:	f1b8 0f04 	cmp.w	r8, #4
 8003046:	d104      	bne.n	8003052 <HAL_TIM_IC_Start_DMA+0xd6>
 8003048:	f884 303f 	strb.w	r3, [r4, #63]	; 0x3f
 800304c:	f884 3043 	strb.w	r3, [r4, #67]	; 0x43
 8003050:	e7ce      	b.n	8002ff0 <HAL_TIM_IC_Start_DMA+0x74>
 8003052:	f1b8 0f08 	cmp.w	r8, #8
 8003056:	bf0b      	itete	eq
 8003058:	f884 3040 	strbeq.w	r3, [r4, #64]	; 0x40
 800305c:	f884 3041 	strbne.w	r3, [r4, #65]	; 0x41
 8003060:	f884 3044 	strbeq.w	r3, [r4, #68]	; 0x44
 8003064:	f884 3045 	strbne.w	r3, [r4, #69]	; 0x45
 8003068:	e7c2      	b.n	8002ff0 <HAL_TIM_IC_Start_DMA+0x74>
 800306a:	f1b8 0f0c 	cmp.w	r8, #12
 800306e:	d1e6      	bne.n	800303e <HAL_TIM_IC_Start_DMA+0xc2>
 8003070:	6b20      	ldr	r0, [r4, #48]	; 0x30
 8003072:	4b29      	ldr	r3, [pc, #164]	; (8003118 <HAL_TIM_IC_Start_DMA+0x19c>)
 8003074:	4632      	mov	r2, r6
 8003076:	6283      	str	r3, [r0, #40]	; 0x28
 8003078:	4b28      	ldr	r3, [pc, #160]	; (800311c <HAL_TIM_IC_Start_DMA+0x1a0>)
 800307a:	3140      	adds	r1, #64	; 0x40
 800307c:	62c3      	str	r3, [r0, #44]	; 0x2c
 800307e:	4b28      	ldr	r3, [pc, #160]	; (8003120 <HAL_TIM_IC_Start_DMA+0x1a4>)
 8003080:	6303      	str	r3, [r0, #48]	; 0x30
 8003082:	463b      	mov	r3, r7
 8003084:	f7fe fc86 	bl	8001994 <HAL_DMA_Start_IT>
 8003088:	2800      	cmp	r0, #0
 800308a:	d18b      	bne.n	8002fa4 <HAL_TIM_IC_Start_DMA+0x28>
 800308c:	6822      	ldr	r2, [r4, #0]
 800308e:	68d3      	ldr	r3, [r2, #12]
 8003090:	f443 5380 	orr.w	r3, r3, #4096	; 0x1000
 8003094:	e012      	b.n	80030bc <HAL_TIM_IC_Start_DMA+0x140>
 8003096:	6a60      	ldr	r0, [r4, #36]	; 0x24
 8003098:	4b1f      	ldr	r3, [pc, #124]	; (8003118 <HAL_TIM_IC_Start_DMA+0x19c>)
 800309a:	4632      	mov	r2, r6
 800309c:	6283      	str	r3, [r0, #40]	; 0x28
 800309e:	4b1f      	ldr	r3, [pc, #124]	; (800311c <HAL_TIM_IC_Start_DMA+0x1a0>)
 80030a0:	3134      	adds	r1, #52	; 0x34
 80030a2:	62c3      	str	r3, [r0, #44]	; 0x2c
 80030a4:	4b1e      	ldr	r3, [pc, #120]	; (8003120 <HAL_TIM_IC_Start_DMA+0x1a4>)
 80030a6:	6303      	str	r3, [r0, #48]	; 0x30
 80030a8:	463b      	mov	r3, r7
 80030aa:	f7fe fc73 	bl	8001994 <HAL_DMA_Start_IT>
 80030ae:	2800      	cmp	r0, #0
 80030b0:	f47f af78 	bne.w	8002fa4 <HAL_TIM_IC_Start_DMA+0x28>
 80030b4:	6822      	ldr	r2, [r4, #0]
 80030b6:	68d3      	ldr	r3, [r2, #12]
 80030b8:	f443 7300 	orr.w	r3, r3, #512	; 0x200
 80030bc:	60d3      	str	r3, [r2, #12]
 80030be:	e772      	b.n	8002fa6 <HAL_TIM_IC_Start_DMA+0x2a>
 80030c0:	6aa0      	ldr	r0, [r4, #40]	; 0x28
 80030c2:	4b15      	ldr	r3, [pc, #84]	; (8003118 <HAL_TIM_IC_Start_DMA+0x19c>)
 80030c4:	4632      	mov	r2, r6
 80030c6:	6283      	str	r3, [r0, #40]	; 0x28
 80030c8:	4b14      	ldr	r3, [pc, #80]	; (800311c <HAL_TIM_IC_Start_DMA+0x1a0>)
 80030ca:	3138      	adds	r1, #56	; 0x38
 80030cc:	62c3      	str	r3, [r0, #44]	; 0x2c
 80030ce:	4b14      	ldr	r3, [pc, #80]	; (8003120 <HAL_TIM_IC_Start_DMA+0x1a4>)
 80030d0:	6303      	str	r3, [r0, #48]	; 0x30
 80030d2:	463b      	mov	r3, r7
 80030d4:	f7fe fc5e 	bl	8001994 <HAL_DMA_Start_IT>
 80030d8:	2800      	cmp	r0, #0
 80030da:	f47f af63 	bne.w	8002fa4 <HAL_TIM_IC_Start_DMA+0x28>
 80030de:	6822      	ldr	r2, [r4, #0]
 80030e0:	68d3      	ldr	r3, [r2, #12]
 80030e2:	f443 6380 	orr.w	r3, r3, #1024	; 0x400
 80030e6:	e7e9      	b.n	80030bc <HAL_TIM_IC_Start_DMA+0x140>
 80030e8:	6ae0      	ldr	r0, [r4, #44]	; 0x2c
 80030ea:	4b0b      	ldr	r3, [pc, #44]	; (8003118 <HAL_TIM_IC_Start_DMA+0x19c>)
 80030ec:	4632      	mov	r2, r6
 80030ee:	6283      	str	r3, [r0, #40]	; 0x28
 80030f0:	4b0a      	ldr	r3, [pc, #40]	; (800311c <HAL_TIM_IC_Start_DMA+0x1a0>)
 80030f2:	313c      	adds	r1, #60	; 0x3c
 80030f4:	62c3      	str	r3, [r0, #44]	; 0x2c
 80030f6:	4b0a      	ldr	r3, [pc, #40]	; (8003120 <HAL_TIM_IC_Start_DMA+0x1a4>)
 80030f8:	6303      	str	r3, [r0, #48]	; 0x30
 80030fa:	463b      	mov	r3, r7
 80030fc:	f7fe fc4a 	bl	8001994 <HAL_DMA_Start_IT>
 8003100:	2800      	cmp	r0, #0
 8003102:	f47f af4f 	bne.w	8002fa4 <HAL_TIM_IC_Start_DMA+0x28>
 8003106:	6822      	ldr	r2, [r4, #0]
 8003108:	68d3      	ldr	r3, [r2, #12]
 800310a:	f443 6300 	orr.w	r3, r3, #2048	; 0x800
 800310e:	e7d5      	b.n	80030bc <HAL_TIM_IC_Start_DMA+0x140>
 8003110:	4628      	mov	r0, r5
 8003112:	e748      	b.n	8002fa6 <HAL_TIM_IC_Start_DMA+0x2a>
 8003114:	40012c00 	.word	0x40012c00
 8003118:	080025ed 	.word	0x080025ed
 800311c:	08002669 	.word	0x08002669
 8003120:	080027eb 	.word	0x080027eb

08003124 <HAL_TIM_IC_Stop_DMA>:
 8003124:	b538      	push	{r3, r4, r5, lr}
 8003126:	460d      	mov	r5, r1
 8003128:	4604      	mov	r4, r0
 800312a:	2200      	movs	r2, #0
 800312c:	6800      	ldr	r0, [r0, #0]
 800312e:	f7ff fe8c 	bl	8002e4a <TIM_CCxChannelCmd>
 8003132:	2d08      	cmp	r5, #8
 8003134:	6823      	ldr	r3, [r4, #0]
 8003136:	d030      	beq.n	800319a <HAL_TIM_IC_Stop_DMA+0x76>
 8003138:	d819      	bhi.n	800316e <HAL_TIM_IC_Stop_DMA+0x4a>
 800313a:	b305      	cbz	r5, 800317e <HAL_TIM_IC_Stop_DMA+0x5a>
 800313c:	2d04      	cmp	r5, #4
 800313e:	d026      	beq.n	800318e <HAL_TIM_IC_Stop_DMA+0x6a>
 8003140:	f241 1211 	movw	r2, #4369	; 0x1111
 8003144:	6823      	ldr	r3, [r4, #0]
 8003146:	6a19      	ldr	r1, [r3, #32]
 8003148:	4211      	tst	r1, r2
 800314a:	d108      	bne.n	800315e <HAL_TIM_IC_Stop_DMA+0x3a>
 800314c:	f240 4244 	movw	r2, #1092	; 0x444
 8003150:	6a19      	ldr	r1, [r3, #32]
 8003152:	4211      	tst	r1, r2
 8003154:	bf02      	ittt	eq
 8003156:	681a      	ldreq	r2, [r3, #0]
 8003158:	f022 0201 	biceq.w	r2, r2, #1
 800315c:	601a      	streq	r2, [r3, #0]
 800315e:	2301      	movs	r3, #1
 8003160:	bb0d      	cbnz	r5, 80031a6 <HAL_TIM_IC_Stop_DMA+0x82>
 8003162:	f884 303e 	strb.w	r3, [r4, #62]	; 0x3e
 8003166:	f884 3042 	strb.w	r3, [r4, #66]	; 0x42
 800316a:	2000      	movs	r0, #0
 800316c:	bd38      	pop	{r3, r4, r5, pc}
 800316e:	2d0c      	cmp	r5, #12
 8003170:	d1e6      	bne.n	8003140 <HAL_TIM_IC_Stop_DMA+0x1c>
 8003172:	68da      	ldr	r2, [r3, #12]
 8003174:	6b20      	ldr	r0, [r4, #48]	; 0x30
 8003176:	f422 5280 	bic.w	r2, r2, #4096	; 0x1000
 800317a:	60da      	str	r2, [r3, #12]
 800317c:	e004      	b.n	8003188 <HAL_TIM_IC_Stop_DMA+0x64>
 800317e:	68da      	ldr	r2, [r3, #12]
 8003180:	6a60      	ldr	r0, [r4, #36]	; 0x24
 8003182:	f422 7200 	bic.w	r2, r2, #512	; 0x200
 8003186:	60da      	str	r2, [r3, #12]
 8003188:	f7fe fc40 	bl	8001a0c <HAL_DMA_Abort_IT>
 800318c:	e7d8      	b.n	8003140 <HAL_TIM_IC_Stop_DMA+0x1c>
 800318e:	68da      	ldr	r2, [r3, #12]
 8003190:	6aa0      	ldr	r0, [r4, #40]	; 0x28
 8003192:	f422 6280 	bic.w	r2, r2, #1024	; 0x400
 8003196:	60da      	str	r2, [r3, #12]
 8003198:	e7f6      	b.n	8003188 <HAL_TIM_IC_Stop_DMA+0x64>
 800319a:	68da      	ldr	r2, [r3, #12]
 800319c:	6ae0      	ldr	r0, [r4, #44]	; 0x2c
 800319e:	f422 6200 	bic.w	r2, r2, #2048	; 0x800
 80031a2:	60da      	str	r2, [r3, #12]
 80031a4:	e7f0      	b.n	8003188 <HAL_TIM_IC_Stop_DMA+0x64>
 80031a6:	2d04      	cmp	r5, #4
 80031a8:	d104      	bne.n	80031b4 <HAL_TIM_IC_Stop_DMA+0x90>
 80031aa:	f884 303f 	strb.w	r3, [r4, #63]	; 0x3f
 80031ae:	f884 3043 	strb.w	r3, [r4, #67]	; 0x43
 80031b2:	e7da      	b.n	800316a <HAL_TIM_IC_Stop_DMA+0x46>
 80031b4:	2d08      	cmp	r5, #8
 80031b6:	bf0b      	itete	eq
 80031b8:	f884 3040 	strbeq.w	r3, [r4, #64]	; 0x40
 80031bc:	f884 3041 	strbne.w	r3, [r4, #65]	; 0x41
 80031c0:	f884 3044 	strbeq.w	r3, [r4, #68]	; 0x44
 80031c4:	f884 3045 	strbne.w	r3, [r4, #69]	; 0x45
 80031c8:	e7cf      	b.n	800316a <HAL_TIM_IC_Stop_DMA+0x46>
	...

080031cc <HAL_TIMEx_MasterConfigSynchronization>:
 80031cc:	b530      	push	{r4, r5, lr}
 80031ce:	f890 303c 	ldrb.w	r3, [r0, #60]	; 0x3c
 80031d2:	4602      	mov	r2, r0
 80031d4:	2b01      	cmp	r3, #1
 80031d6:	f04f 0002 	mov.w	r0, #2
 80031da:	d022      	beq.n	8003222 <HAL_TIMEx_MasterConfigSynchronization+0x56>
 80031dc:	6813      	ldr	r3, [r2, #0]
 80031de:	f882 003d 	strb.w	r0, [r2, #61]	; 0x3d
 80031e2:	685c      	ldr	r4, [r3, #4]
 80031e4:	680d      	ldr	r5, [r1, #0]
 80031e6:	f024 0470 	bic.w	r4, r4, #112	; 0x70
 80031ea:	432c      	orrs	r4, r5
 80031ec:	6898      	ldr	r0, [r3, #8]
 80031ee:	605c      	str	r4, [r3, #4]
 80031f0:	4c0c      	ldr	r4, [pc, #48]	; (8003224 <HAL_TIMEx_MasterConfigSynchronization+0x58>)
 80031f2:	42a3      	cmp	r3, r4
 80031f4:	d00a      	beq.n	800320c <HAL_TIMEx_MasterConfigSynchronization+0x40>
 80031f6:	f1b3 4f80 	cmp.w	r3, #1073741824	; 0x40000000
 80031fa:	d007      	beq.n	800320c <HAL_TIMEx_MasterConfigSynchronization+0x40>
 80031fc:	f5a4 3494 	sub.w	r4, r4, #75776	; 0x12800
 8003200:	42a3      	cmp	r3, r4
 8003202:	d003      	beq.n	800320c <HAL_TIMEx_MasterConfigSynchronization+0x40>
 8003204:	f504 6480 	add.w	r4, r4, #1024	; 0x400
 8003208:	42a3      	cmp	r3, r4
 800320a:	d104      	bne.n	8003216 <HAL_TIMEx_MasterConfigSynchronization+0x4a>
 800320c:	6849      	ldr	r1, [r1, #4]
 800320e:	f020 0080 	bic.w	r0, r0, #128	; 0x80
 8003212:	4301      	orrs	r1, r0
 8003214:	6099      	str	r1, [r3, #8]
 8003216:	2301      	movs	r3, #1
 8003218:	2000      	movs	r0, #0
 800321a:	f882 303d 	strb.w	r3, [r2, #61]	; 0x3d
 800321e:	f882 003c 	strb.w	r0, [r2, #60]	; 0x3c
 8003222:	bd30      	pop	{r4, r5, pc}
 8003224:	40012c00 	.word	0x40012c00

08003228 <HAL_TIMEx_ConfigBreakDeadTime>:
 8003228:	f890 303c 	ldrb.w	r3, [r0, #60]	; 0x3c
 800322c:	2b01      	cmp	r3, #1
 800322e:	d01f      	beq.n	8003270 <HAL_TIMEx_ConfigBreakDeadTime+0x48>
 8003230:	68cb      	ldr	r3, [r1, #12]
 8003232:	688a      	ldr	r2, [r1, #8]
 8003234:	f423 7340 	bic.w	r3, r3, #768	; 0x300
 8003238:	4313      	orrs	r3, r2
 800323a:	684a      	ldr	r2, [r1, #4]
 800323c:	f423 6380 	bic.w	r3, r3, #1024	; 0x400
 8003240:	4313      	orrs	r3, r2
 8003242:	680a      	ldr	r2, [r1, #0]
 8003244:	f423 6300 	bic.w	r3, r3, #2048	; 0x800
 8003248:	4313      	orrs	r3, r2
 800324a:	690a      	ldr	r2, [r1, #16]
 800324c:	f423 5380 	bic.w	r3, r3, #4096	; 0x1000
 8003250:	4313      	orrs	r3, r2
 8003252:	694a      	ldr	r2, [r1, #20]
 8003254:	f423 5300 	bic.w	r3, r3, #8192	; 0x2000
 8003258:	4313      	orrs	r3, r2
 800325a:	69ca      	ldr	r2, [r1, #28]
 800325c:	f423 4380 	bic.w	r3, r3, #16384	; 0x4000
 8003260:	4313      	orrs	r3, r2
 8003262:	6802      	ldr	r2, [r0, #0]
 8003264:	6453      	str	r3, [r2, #68]	; 0x44
 8003266:	2300      	movs	r3, #0
 8003268:	f880 303c 	strb.w	r3, [r0, #60]	; 0x3c
 800326c:	4618      	mov	r0, r3
 800326e:	4770      	bx	lr
 8003270:	2002      	movs	r0, #2
 8003272:	4770      	bx	lr

08003274 <HAL_TIMEx_CommutCallback>:
 8003274:	4770      	bx	lr

08003276 <HAL_TIMEx_BreakCallback>:
 8003276:	4770      	bx	lr

08003278 <UART_SetConfig>:
 8003278:	b510      	push	{r4, lr}
 800327a:	4604      	mov	r4, r0
 800327c:	6803      	ldr	r3, [r0, #0]
 800327e:	68c1      	ldr	r1, [r0, #12]
 8003280:	691a      	ldr	r2, [r3, #16]
 8003282:	f422 5240 	bic.w	r2, r2, #12288	; 0x3000
 8003286:	430a      	orrs	r2, r1
 8003288:	611a      	str	r2, [r3, #16]
 800328a:	6882      	ldr	r2, [r0, #8]
 800328c:	6900      	ldr	r0, [r0, #16]
 800328e:	68d9      	ldr	r1, [r3, #12]
 8003290:	4302      	orrs	r2, r0
 8003292:	6960      	ldr	r0, [r4, #20]
 8003294:	f421 51b0 	bic.w	r1, r1, #5632	; 0x1600
 8003298:	f021 010c 	bic.w	r1, r1, #12
 800329c:	4302      	orrs	r2, r0
 800329e:	430a      	orrs	r2, r1
 80032a0:	60da      	str	r2, [r3, #12]
 80032a2:	695a      	ldr	r2, [r3, #20]
 80032a4:	69a1      	ldr	r1, [r4, #24]
 80032a6:	f422 7240 	bic.w	r2, r2, #768	; 0x300
 80032aa:	430a      	orrs	r2, r1
 80032ac:	615a      	str	r2, [r3, #20]
 80032ae:	4a0e      	ldr	r2, [pc, #56]	; (80032e8 <UART_SetConfig+0x70>)
 80032b0:	4293      	cmp	r3, r2
 80032b2:	d115      	bne.n	80032e0 <UART_SetConfig+0x68>
 80032b4:	f7ff f88e 	bl	80023d4 <HAL_RCC_GetPCLK2Freq>
 80032b8:	2319      	movs	r3, #25
 80032ba:	4343      	muls	r3, r0
 80032bc:	6862      	ldr	r2, [r4, #4]
 80032be:	6820      	ldr	r0, [r4, #0]
 80032c0:	0092      	lsls	r2, r2, #2
 80032c2:	fbb3 f3f2 	udiv	r3, r3, r2
 80032c6:	2264      	movs	r2, #100	; 0x64
 80032c8:	fbb3 f1f2 	udiv	r1, r3, r2
 80032cc:	fb02 3311 	mls	r3, r2, r1, r3
 80032d0:	011b      	lsls	r3, r3, #4
 80032d2:	3332      	adds	r3, #50	; 0x32
 80032d4:	fbb3 f3f2 	udiv	r3, r3, r2
 80032d8:	eb03 1301 	add.w	r3, r3, r1, lsl #4
 80032dc:	6083      	str	r3, [r0, #8]
 80032de:	bd10      	pop	{r4, pc}
 80032e0:	f7ff f868 	bl	80023b4 <HAL_RCC_GetPCLK1Freq>
 80032e4:	e7e8      	b.n	80032b8 <UART_SetConfig+0x40>
 80032e6:	bf00      	nop
 80032e8:	40013800 	.word	0x40013800

080032ec <UART_WaitOnFlagUntilTimeout.constprop.0>:
 80032ec:	b5f8      	push	{r3, r4, r5, r6, r7, lr}
 80032ee:	4604      	mov	r4, r0
 80032f0:	460e      	mov	r6, r1
 80032f2:	4617      	mov	r7, r2
 80032f4:	461d      	mov	r5, r3
 80032f6:	6822      	ldr	r2, [r4, #0]
 80032f8:	6813      	ldr	r3, [r2, #0]
 80032fa:	ea36 0303 	bics.w	r3, r6, r3
 80032fe:	d101      	bne.n	8003304 <UART_WaitOnFlagUntilTimeout.constprop.0+0x18>
 8003300:	2000      	movs	r0, #0
 8003302:	e014      	b.n	800332e <UART_WaitOnFlagUntilTimeout.constprop.0+0x42>
 8003304:	1c6b      	adds	r3, r5, #1
 8003306:	d0f7      	beq.n	80032f8 <UART_WaitOnFlagUntilTimeout.constprop.0+0xc>
 8003308:	b995      	cbnz	r5, 8003330 <UART_WaitOnFlagUntilTimeout.constprop.0+0x44>
 800330a:	6823      	ldr	r3, [r4, #0]
 800330c:	2003      	movs	r0, #3
 800330e:	68da      	ldr	r2, [r3, #12]
 8003310:	f422 72d0 	bic.w	r2, r2, #416	; 0x1a0
 8003314:	60da      	str	r2, [r3, #12]
 8003316:	695a      	ldr	r2, [r3, #20]
 8003318:	f022 0201 	bic.w	r2, r2, #1
 800331c:	615a      	str	r2, [r3, #20]
 800331e:	2320      	movs	r3, #32
 8003320:	f884 303d 	strb.w	r3, [r4, #61]	; 0x3d
 8003324:	f884 303e 	strb.w	r3, [r4, #62]	; 0x3e
 8003328:	2300      	movs	r3, #0
 800332a:	f884 303c 	strb.w	r3, [r4, #60]	; 0x3c
 800332e:	bdf8      	pop	{r3, r4, r5, r6, r7, pc}
 8003330:	f7fe fa82 	bl	8001838 <HAL_GetTick>
 8003334:	1bc0      	subs	r0, r0, r7
 8003336:	4285      	cmp	r5, r0
 8003338:	d2dd      	bcs.n	80032f6 <UART_WaitOnFlagUntilTimeout.constprop.0+0xa>
 800333a:	e7e6      	b.n	800330a <UART_WaitOnFlagUntilTimeout.constprop.0+0x1e>

0800333c <HAL_UART_Init>:
 800333c:	b510      	push	{r4, lr}
 800333e:	4604      	mov	r4, r0
 8003340:	b340      	cbz	r0, 8003394 <HAL_UART_Init+0x58>
 8003342:	f890 303d 	ldrb.w	r3, [r0, #61]	; 0x3d
 8003346:	f003 02ff 	and.w	r2, r3, #255	; 0xff
 800334a:	b91b      	cbnz	r3, 8003354 <HAL_UART_Init+0x18>
 800334c:	f880 203c 	strb.w	r2, [r0, #60]	; 0x3c
 8003350:	f7fd fffa 	bl	8001348 <HAL_UART_MspInit>
 8003354:	2324      	movs	r3, #36	; 0x24
 8003356:	6822      	ldr	r2, [r4, #0]
 8003358:	f884 303d 	strb.w	r3, [r4, #61]	; 0x3d
 800335c:	68d3      	ldr	r3, [r2, #12]
 800335e:	4620      	mov	r0, r4
 8003360:	f423 5300 	bic.w	r3, r3, #8192	; 0x2000
 8003364:	60d3      	str	r3, [r2, #12]
 8003366:	f7ff ff87 	bl	8003278 <UART_SetConfig>
 800336a:	6823      	ldr	r3, [r4, #0]
 800336c:	2000      	movs	r0, #0
 800336e:	691a      	ldr	r2, [r3, #16]
 8003370:	f422 4290 	bic.w	r2, r2, #18432	; 0x4800
 8003374:	611a      	str	r2, [r3, #16]
 8003376:	695a      	ldr	r2, [r3, #20]
 8003378:	f022 022a 	bic.w	r2, r2, #42	; 0x2a
 800337c:	615a      	str	r2, [r3, #20]
 800337e:	68da      	ldr	r2, [r3, #12]
 8003380:	f442 5200 	orr.w	r2, r2, #8192	; 0x2000
 8003384:	60da      	str	r2, [r3, #12]
 8003386:	2320      	movs	r3, #32
 8003388:	6420      	str	r0, [r4, #64]	; 0x40
 800338a:	f884 303d 	strb.w	r3, [r4, #61]	; 0x3d
 800338e:	f884 303e 	strb.w	r3, [r4, #62]	; 0x3e
 8003392:	bd10      	pop	{r4, pc}
 8003394:	2001      	movs	r0, #1
 8003396:	e7fc      	b.n	8003392 <HAL_UART_Init+0x56>

08003398 <HAL_UART_Transmit>:
 8003398:	e92d 43f8 	stmdb	sp!, {r3, r4, r5, r6, r7, r8, r9, lr}
 800339c:	4699      	mov	r9, r3
 800339e:	f890 303d 	ldrb.w	r3, [r0, #61]	; 0x3d
 80033a2:	4604      	mov	r4, r0
 80033a4:	2b20      	cmp	r3, #32
 80033a6:	460e      	mov	r6, r1
 80033a8:	4617      	mov	r7, r2
 80033aa:	d148      	bne.n	800343e <HAL_UART_Transmit+0xa6>
 80033ac:	2900      	cmp	r1, #0
 80033ae:	d044      	beq.n	800343a <HAL_UART_Transmit+0xa2>
 80033b0:	2a00      	cmp	r2, #0
 80033b2:	d042      	beq.n	800343a <HAL_UART_Transmit+0xa2>
 80033b4:	f890 303c 	ldrb.w	r3, [r0, #60]	; 0x3c
 80033b8:	2b01      	cmp	r3, #1
 80033ba:	d040      	beq.n	800343e <HAL_UART_Transmit+0xa6>
 80033bc:	2301      	movs	r3, #1
 80033be:	2500      	movs	r5, #0
 80033c0:	f880 303c 	strb.w	r3, [r0, #60]	; 0x3c
 80033c4:	2321      	movs	r3, #33	; 0x21
 80033c6:	6405      	str	r5, [r0, #64]	; 0x40
 80033c8:	f880 303d 	strb.w	r3, [r0, #61]	; 0x3d
 80033cc:	f7fe fa34 	bl	8001838 <HAL_GetTick>
 80033d0:	68a3      	ldr	r3, [r4, #8]
 80033d2:	4680      	mov	r8, r0
 80033d4:	f5b3 5f80 	cmp.w	r3, #4096	; 0x1000
 80033d8:	84a7      	strh	r7, [r4, #36]	; 0x24
 80033da:	84e7      	strh	r7, [r4, #38]	; 0x26
 80033dc:	d103      	bne.n	80033e6 <HAL_UART_Transmit+0x4e>
 80033de:	6923      	ldr	r3, [r4, #16]
 80033e0:	b90b      	cbnz	r3, 80033e6 <HAL_UART_Transmit+0x4e>
 80033e2:	4635      	mov	r5, r6
 80033e4:	461e      	mov	r6, r3
 80033e6:	2300      	movs	r3, #0
 80033e8:	f884 303c 	strb.w	r3, [r4, #60]	; 0x3c
 80033ec:	8ce3      	ldrh	r3, [r4, #38]	; 0x26
 80033ee:	b29b      	uxth	r3, r3
 80033f0:	b953      	cbnz	r3, 8003408 <HAL_UART_Transmit+0x70>
 80033f2:	464b      	mov	r3, r9
 80033f4:	4642      	mov	r2, r8
 80033f6:	2140      	movs	r1, #64	; 0x40
 80033f8:	4620      	mov	r0, r4
 80033fa:	f7ff ff77 	bl	80032ec <UART_WaitOnFlagUntilTimeout.constprop.0>
 80033fe:	b950      	cbnz	r0, 8003416 <HAL_UART_Transmit+0x7e>
 8003400:	2320      	movs	r3, #32
 8003402:	f884 303d 	strb.w	r3, [r4, #61]	; 0x3d
 8003406:	e007      	b.n	8003418 <HAL_UART_Transmit+0x80>
 8003408:	464b      	mov	r3, r9
 800340a:	4642      	mov	r2, r8
 800340c:	2180      	movs	r1, #128	; 0x80
 800340e:	4620      	mov	r0, r4
 8003410:	f7ff ff6c 	bl	80032ec <UART_WaitOnFlagUntilTimeout.constprop.0>
 8003414:	b110      	cbz	r0, 800341c <HAL_UART_Transmit+0x84>
 8003416:	2003      	movs	r0, #3
 8003418:	e8bd 83f8 	ldmia.w	sp!, {r3, r4, r5, r6, r7, r8, r9, pc}
 800341c:	6822      	ldr	r2, [r4, #0]
 800341e:	b94e      	cbnz	r6, 8003434 <HAL_UART_Transmit+0x9c>
 8003420:	f835 3b02 	ldrh.w	r3, [r5], #2
 8003424:	f3c3 0308 	ubfx	r3, r3, #0, #9
 8003428:	6053      	str	r3, [r2, #4]
 800342a:	8ce1      	ldrh	r1, [r4, #38]	; 0x26
 800342c:	3901      	subs	r1, #1
 800342e:	b289      	uxth	r1, r1
 8003430:	84e1      	strh	r1, [r4, #38]	; 0x26
 8003432:	e7db      	b.n	80033ec <HAL_UART_Transmit+0x54>
 8003434:	f816 3b01 	ldrb.w	r3, [r6], #1
 8003438:	e7f6      	b.n	8003428 <HAL_UART_Transmit+0x90>
 800343a:	2001      	movs	r0, #1
 800343c:	e7ec      	b.n	8003418 <HAL_UART_Transmit+0x80>
 800343e:	2002      	movs	r0, #2
 8003440:	e7ea      	b.n	8003418 <HAL_UART_Transmit+0x80>
	...

08003444 <acos>:
 8003444:	b5f8      	push	{r3, r4, r5, r6, r7, lr}
 8003446:	4604      	mov	r4, r0
 8003448:	460d      	mov	r5, r1
 800344a:	f000 f855 	bl	80034f8 <__ieee754_acos>
 800344e:	4b11      	ldr	r3, [pc, #68]	; (8003494 <acos+0x50>)
 8003450:	4606      	mov	r6, r0
 8003452:	f993 3000 	ldrsb.w	r3, [r3]
 8003456:	460f      	mov	r7, r1
 8003458:	3301      	adds	r3, #1
 800345a:	d018      	beq.n	800348e <acos+0x4a>
 800345c:	4622      	mov	r2, r4
 800345e:	462b      	mov	r3, r5
 8003460:	4620      	mov	r0, r4
 8003462:	4629      	mov	r1, r5
 8003464:	f7fd fad2 	bl	8000a0c <__aeabi_dcmpun>
 8003468:	b988      	cbnz	r0, 800348e <acos+0x4a>
 800346a:	4620      	mov	r0, r4
 800346c:	4629      	mov	r1, r5
 800346e:	f000 fb3b 	bl	8003ae8 <fabs>
 8003472:	2200      	movs	r2, #0
 8003474:	4b08      	ldr	r3, [pc, #32]	; (8003498 <acos+0x54>)
 8003476:	f7fd fabf 	bl	80009f8 <__aeabi_dcmpgt>
 800347a:	b140      	cbz	r0, 800348e <acos+0x4a>
 800347c:	f000 fb3e 	bl	8003afc <__errno>
 8003480:	2321      	movs	r3, #33	; 0x21
 8003482:	6003      	str	r3, [r0, #0]
 8003484:	4805      	ldr	r0, [pc, #20]	; (800349c <acos+0x58>)
 8003486:	e8bd 40f8 	ldmia.w	sp!, {r3, r4, r5, r6, r7, lr}
 800348a:	f000 bb31 	b.w	8003af0 <nan>
 800348e:	4630      	mov	r0, r6
 8003490:	4639      	mov	r1, r7
 8003492:	bdf8      	pop	{r3, r4, r5, r6, r7, pc}
 8003494:	2000000c 	.word	0x2000000c
 8003498:	3ff00000 	.word	0x3ff00000
 800349c:	080068d4 	.word	0x080068d4

080034a0 <sqrt>:
 80034a0:	b5f8      	push	{r3, r4, r5, r6, r7, lr}
 80034a2:	4606      	mov	r6, r0
 80034a4:	460f      	mov	r7, r1
 80034a6:	f000 fa73 	bl	8003990 <__ieee754_sqrt>
 80034aa:	4b12      	ldr	r3, [pc, #72]	; (80034f4 <sqrt+0x54>)
 80034ac:	4604      	mov	r4, r0
 80034ae:	f993 3000 	ldrsb.w	r3, [r3]
 80034b2:	460d      	mov	r5, r1
 80034b4:	3301      	adds	r3, #1
 80034b6:	d019      	beq.n	80034ec <sqrt+0x4c>
 80034b8:	4632      	mov	r2, r6
 80034ba:	463b      	mov	r3, r7
 80034bc:	4630      	mov	r0, r6
 80034be:	4639      	mov	r1, r7
 80034c0:	f7fd faa4 	bl	8000a0c <__aeabi_dcmpun>
 80034c4:	b990      	cbnz	r0, 80034ec <sqrt+0x4c>
 80034c6:	2200      	movs	r2, #0
 80034c8:	2300      	movs	r3, #0
 80034ca:	4630      	mov	r0, r6
 80034cc:	4639      	mov	r1, r7
 80034ce:	f7fd fa75 	bl	80009bc <__aeabi_dcmplt>
 80034d2:	b158      	cbz	r0, 80034ec <sqrt+0x4c>
 80034d4:	f000 fb12 	bl	8003afc <__errno>
 80034d8:	2321      	movs	r3, #33	; 0x21
 80034da:	2200      	movs	r2, #0
 80034dc:	6003      	str	r3, [r0, #0]
 80034de:	2300      	movs	r3, #0
 80034e0:	4610      	mov	r0, r2
 80034e2:	4619      	mov	r1, r3
 80034e4:	f7fd f922 	bl	800072c <__aeabi_ddiv>
 80034e8:	4604      	mov	r4, r0
 80034ea:	460d      	mov	r5, r1
 80034ec:	4620      	mov	r0, r4
 80034ee:	4629      	mov	r1, r5
 80034f0:	bdf8      	pop	{r3, r4, r5, r6, r7, pc}
 80034f2:	bf00      	nop
 80034f4:	2000000c 	.word	0x2000000c

080034f8 <__ieee754_acos>:
 80034f8:	e92d 4ff8 	stmdb	sp!, {r3, r4, r5, r6, r7, r8, r9, sl, fp, lr}
 80034fc:	4cb2      	ldr	r4, [pc, #712]	; (80037c8 <__ieee754_acos+0x2d0>)
 80034fe:	f021 4300 	bic.w	r3, r1, #2147483648	; 0x80000000
 8003502:	42a3      	cmp	r3, r4
 8003504:	4607      	mov	r7, r0
 8003506:	460e      	mov	r6, r1
 8003508:	dd16      	ble.n	8003538 <__ieee754_acos+0x40>
 800350a:	f103 4340 	add.w	r3, r3, #3221225472	; 0xc0000000
 800350e:	f503 1380 	add.w	r3, r3, #1048576	; 0x100000
 8003512:	4303      	orrs	r3, r0
 8003514:	d107      	bne.n	8003526 <__ieee754_acos+0x2e>
 8003516:	2900      	cmp	r1, #0
 8003518:	f300 8202 	bgt.w	8003920 <__ieee754_acos+0x428>
 800351c:	a190      	add	r1, pc, #576	; (adr r1, 8003760 <__ieee754_acos+0x268>)
 800351e:	e9d1 0100 	ldrd	r0, r1, [r1]
 8003522:	e8bd 8ff8 	ldmia.w	sp!, {r3, r4, r5, r6, r7, r8, r9, sl, fp, pc}
 8003526:	4602      	mov	r2, r0
 8003528:	460b      	mov	r3, r1
 800352a:	f7fc fe1d 	bl	8000168 <__aeabi_dsub>
 800352e:	4602      	mov	r2, r0
 8003530:	460b      	mov	r3, r1
 8003532:	f7fd f8fb 	bl	800072c <__aeabi_ddiv>
 8003536:	e7f4      	b.n	8003522 <__ieee754_acos+0x2a>
 8003538:	4ca4      	ldr	r4, [pc, #656]	; (80037cc <__ieee754_acos+0x2d4>)
 800353a:	42a3      	cmp	r3, r4
 800353c:	f300 8083 	bgt.w	8003646 <__ieee754_acos+0x14e>
 8003540:	4aa3      	ldr	r2, [pc, #652]	; (80037d0 <__ieee754_acos+0x2d8>)
 8003542:	4293      	cmp	r3, r2
 8003544:	f340 81ef 	ble.w	8003926 <__ieee754_acos+0x42e>
 8003548:	4602      	mov	r2, r0
 800354a:	460b      	mov	r3, r1
 800354c:	f7fc ffc4 	bl	80004d8 <__aeabi_dmul>
 8003550:	a385      	add	r3, pc, #532	; (adr r3, 8003768 <__ieee754_acos+0x270>)
 8003552:	e9d3 2300 	ldrd	r2, r3, [r3]
 8003556:	4604      	mov	r4, r0
 8003558:	460d      	mov	r5, r1
 800355a:	f7fc ffbd 	bl	80004d8 <__aeabi_dmul>
 800355e:	a384      	add	r3, pc, #528	; (adr r3, 8003770 <__ieee754_acos+0x278>)
 8003560:	e9d3 2300 	ldrd	r2, r3, [r3]
 8003564:	f7fc fe02 	bl	800016c <__adddf3>
 8003568:	4622      	mov	r2, r4
 800356a:	462b      	mov	r3, r5
 800356c:	f7fc ffb4 	bl	80004d8 <__aeabi_dmul>
 8003570:	a381      	add	r3, pc, #516	; (adr r3, 8003778 <__ieee754_acos+0x280>)
 8003572:	e9d3 2300 	ldrd	r2, r3, [r3]
 8003576:	f7fc fdf7 	bl	8000168 <__aeabi_dsub>
 800357a:	4622      	mov	r2, r4
 800357c:	462b      	mov	r3, r5
 800357e:	f7fc ffab 	bl	80004d8 <__aeabi_dmul>
 8003582:	a37f      	add	r3, pc, #508	; (adr r3, 8003780 <__ieee754_acos+0x288>)
 8003584:	e9d3 2300 	ldrd	r2, r3, [r3]
 8003588:	f7fc fdf0 	bl	800016c <__adddf3>
 800358c:	4622      	mov	r2, r4
 800358e:	462b      	mov	r3, r5
 8003590:	f7fc ffa2 	bl	80004d8 <__aeabi_dmul>
 8003594:	a37c      	add	r3, pc, #496	; (adr r3, 8003788 <__ieee754_acos+0x290>)
 8003596:	e9d3 2300 	ldrd	r2, r3, [r3]
 800359a:	f7fc fde5 	bl	8000168 <__aeabi_dsub>
 800359e:	4622      	mov	r2, r4
 80035a0:	462b      	mov	r3, r5
 80035a2:	f7fc ff99 	bl	80004d8 <__aeabi_dmul>
 80035a6:	a37a      	add	r3, pc, #488	; (adr r3, 8003790 <__ieee754_acos+0x298>)
 80035a8:	e9d3 2300 	ldrd	r2, r3, [r3]
 80035ac:	f7fc fdde 	bl	800016c <__adddf3>
 80035b0:	4622      	mov	r2, r4
 80035b2:	462b      	mov	r3, r5
 80035b4:	f7fc ff90 	bl	80004d8 <__aeabi_dmul>
 80035b8:	a377      	add	r3, pc, #476	; (adr r3, 8003798 <__ieee754_acos+0x2a0>)
 80035ba:	e9d3 2300 	ldrd	r2, r3, [r3]
 80035be:	4680      	mov	r8, r0
 80035c0:	4689      	mov	r9, r1
 80035c2:	4620      	mov	r0, r4
 80035c4:	4629      	mov	r1, r5
 80035c6:	f7fc ff87 	bl	80004d8 <__aeabi_dmul>
 80035ca:	a375      	add	r3, pc, #468	; (adr r3, 80037a0 <__ieee754_acos+0x2a8>)
 80035cc:	e9d3 2300 	ldrd	r2, r3, [r3]
 80035d0:	f7fc fdca 	bl	8000168 <__aeabi_dsub>
 80035d4:	4622      	mov	r2, r4
 80035d6:	462b      	mov	r3, r5
 80035d8:	f7fc ff7e 	bl	80004d8 <__aeabi_dmul>
 80035dc:	a372      	add	r3, pc, #456	; (adr r3, 80037a8 <__ieee754_acos+0x2b0>)
 80035de:	e9d3 2300 	ldrd	r2, r3, [r3]
 80035e2:	f7fc fdc3 	bl	800016c <__adddf3>
 80035e6:	4622      	mov	r2, r4
 80035e8:	462b      	mov	r3, r5
 80035ea:	f7fc ff75 	bl	80004d8 <__aeabi_dmul>
 80035ee:	a370      	add	r3, pc, #448	; (adr r3, 80037b0 <__ieee754_acos+0x2b8>)
 80035f0:	e9d3 2300 	ldrd	r2, r3, [r3]
 80035f4:	f7fc fdb8 	bl	8000168 <__aeabi_dsub>
 80035f8:	4622      	mov	r2, r4
 80035fa:	462b      	mov	r3, r5
 80035fc:	f7fc ff6c 	bl	80004d8 <__aeabi_dmul>
 8003600:	2200      	movs	r2, #0
 8003602:	4b74      	ldr	r3, [pc, #464]	; (80037d4 <__ieee754_acos+0x2dc>)
 8003604:	f7fc fdb2 	bl	800016c <__adddf3>
 8003608:	4602      	mov	r2, r0
 800360a:	460b      	mov	r3, r1
 800360c:	4640      	mov	r0, r8
 800360e:	4649      	mov	r1, r9
 8003610:	f7fd f88c 	bl	800072c <__aeabi_ddiv>
 8003614:	463a      	mov	r2, r7
 8003616:	4633      	mov	r3, r6
 8003618:	f7fc ff5e 	bl	80004d8 <__aeabi_dmul>
 800361c:	4602      	mov	r2, r0
 800361e:	460b      	mov	r3, r1
 8003620:	a165      	add	r1, pc, #404	; (adr r1, 80037b8 <__ieee754_acos+0x2c0>)
 8003622:	e9d1 0100 	ldrd	r0, r1, [r1]
 8003626:	f7fc fd9f 	bl	8000168 <__aeabi_dsub>
 800362a:	4602      	mov	r2, r0
 800362c:	460b      	mov	r3, r1
 800362e:	4638      	mov	r0, r7
 8003630:	4631      	mov	r1, r6
 8003632:	f7fc fd99 	bl	8000168 <__aeabi_dsub>
 8003636:	4602      	mov	r2, r0
 8003638:	460b      	mov	r3, r1
 800363a:	a161      	add	r1, pc, #388	; (adr r1, 80037c0 <__ieee754_acos+0x2c8>)
 800363c:	e9d1 0100 	ldrd	r0, r1, [r1]
 8003640:	f7fc fd92 	bl	8000168 <__aeabi_dsub>
 8003644:	e76d      	b.n	8003522 <__ieee754_acos+0x2a>
 8003646:	2900      	cmp	r1, #0
 8003648:	f280 80c8 	bge.w	80037dc <__ieee754_acos+0x2e4>
 800364c:	2200      	movs	r2, #0
 800364e:	4b61      	ldr	r3, [pc, #388]	; (80037d4 <__ieee754_acos+0x2dc>)
 8003650:	f7fc fd8c 	bl	800016c <__adddf3>
 8003654:	2200      	movs	r2, #0
 8003656:	4b60      	ldr	r3, [pc, #384]	; (80037d8 <__ieee754_acos+0x2e0>)
 8003658:	f7fc ff3e 	bl	80004d8 <__aeabi_dmul>
 800365c:	a342      	add	r3, pc, #264	; (adr r3, 8003768 <__ieee754_acos+0x270>)
 800365e:	e9d3 2300 	ldrd	r2, r3, [r3]
 8003662:	4604      	mov	r4, r0
 8003664:	460d      	mov	r5, r1
 8003666:	f7fc ff37 	bl	80004d8 <__aeabi_dmul>
 800366a:	a341      	add	r3, pc, #260	; (adr r3, 8003770 <__ieee754_acos+0x278>)
 800366c:	e9d3 2300 	ldrd	r2, r3, [r3]
 8003670:	f7fc fd7c 	bl	800016c <__adddf3>
 8003674:	4622      	mov	r2, r4
 8003676:	462b      	mov	r3, r5
 8003678:	f7fc ff2e 	bl	80004d8 <__aeabi_dmul>
 800367c:	a33e      	add	r3, pc, #248	; (adr r3, 8003778 <__ieee754_acos+0x280>)
 800367e:	e9d3 2300 	ldrd	r2, r3, [r3]
 8003682:	f7fc fd71 	bl	8000168 <__aeabi_dsub>
 8003686:	4622      	mov	r2, r4
 8003688:	462b      	mov	r3, r5
 800368a:	f7fc ff25 	bl	80004d8 <__aeabi_dmul>
 800368e:	a33c      	add	r3, pc, #240	; (adr r3, 8003780 <__ieee754_acos+0x288>)
 8003690:	e9d3 2300 	ldrd	r2, r3, [r3]
 8003694:	f7fc fd6a 	bl	800016c <__adddf3>
 8003698:	4622      	mov	r2, r4
 800369a:	462b      	mov	r3, r5
 800369c:	f7fc ff1c 	bl	80004d8 <__aeabi_dmul>
 80036a0:	a339      	add	r3, pc, #228	; (adr r3, 8003788 <__ieee754_acos+0x290>)
 80036a2:	e9d3 2300 	ldrd	r2, r3, [r3]
 80036a6:	f7fc fd5f 	bl	8000168 <__aeabi_dsub>
 80036aa:	4622      	mov	r2, r4
 80036ac:	462b      	mov	r3, r5
 80036ae:	f7fc ff13 	bl	80004d8 <__aeabi_dmul>
 80036b2:	a337      	add	r3, pc, #220	; (adr r3, 8003790 <__ieee754_acos+0x298>)
 80036b4:	e9d3 2300 	ldrd	r2, r3, [r3]
 80036b8:	f7fc fd58 	bl	800016c <__adddf3>
 80036bc:	4622      	mov	r2, r4
 80036be:	462b      	mov	r3, r5
 80036c0:	f7fc ff0a 	bl	80004d8 <__aeabi_dmul>
 80036c4:	4680      	mov	r8, r0
 80036c6:	4689      	mov	r9, r1
 80036c8:	4620      	mov	r0, r4
 80036ca:	4629      	mov	r1, r5
 80036cc:	f000 f960 	bl	8003990 <__ieee754_sqrt>
 80036d0:	a331      	add	r3, pc, #196	; (adr r3, 8003798 <__ieee754_acos+0x2a0>)
 80036d2:	e9d3 2300 	ldrd	r2, r3, [r3]
 80036d6:	4606      	mov	r6, r0
 80036d8:	460f      	mov	r7, r1
 80036da:	4620      	mov	r0, r4
 80036dc:	4629      	mov	r1, r5
 80036de:	f7fc fefb 	bl	80004d8 <__aeabi_dmul>
 80036e2:	a32f      	add	r3, pc, #188	; (adr r3, 80037a0 <__ieee754_acos+0x2a8>)
 80036e4:	e9d3 2300 	ldrd	r2, r3, [r3]
 80036e8:	f7fc fd3e 	bl	8000168 <__aeabi_dsub>
 80036ec:	4622      	mov	r2, r4
 80036ee:	462b      	mov	r3, r5
 80036f0:	f7fc fef2 	bl	80004d8 <__aeabi_dmul>
 80036f4:	a32c      	add	r3, pc, #176	; (adr r3, 80037a8 <__ieee754_acos+0x2b0>)
 80036f6:	e9d3 2300 	ldrd	r2, r3, [r3]
 80036fa:	f7fc fd37 	bl	800016c <__adddf3>
 80036fe:	4622      	mov	r2, r4
 8003700:	462b      	mov	r3, r5
 8003702:	f7fc fee9 	bl	80004d8 <__aeabi_dmul>
 8003706:	a32a      	add	r3, pc, #168	; (adr r3, 80037b0 <__ieee754_acos+0x2b8>)
 8003708:	e9d3 2300 	ldrd	r2, r3, [r3]
 800370c:	f7fc fd2c 	bl	8000168 <__aeabi_dsub>
 8003710:	4622      	mov	r2, r4
 8003712:	462b      	mov	r3, r5
 8003714:	f7fc fee0 	bl	80004d8 <__aeabi_dmul>
 8003718:	2200      	movs	r2, #0
 800371a:	4b2e      	ldr	r3, [pc, #184]	; (80037d4 <__ieee754_acos+0x2dc>)
 800371c:	f7fc fd26 	bl	800016c <__adddf3>
 8003720:	4602      	mov	r2, r0
 8003722:	460b      	mov	r3, r1
 8003724:	4640      	mov	r0, r8
 8003726:	4649      	mov	r1, r9
 8003728:	f7fd f800 	bl	800072c <__aeabi_ddiv>
 800372c:	4632      	mov	r2, r6
 800372e:	463b      	mov	r3, r7
 8003730:	f7fc fed2 	bl	80004d8 <__aeabi_dmul>
 8003734:	a320      	add	r3, pc, #128	; (adr r3, 80037b8 <__ieee754_acos+0x2c0>)
 8003736:	e9d3 2300 	ldrd	r2, r3, [r3]
 800373a:	f7fc fd15 	bl	8000168 <__aeabi_dsub>
 800373e:	4632      	mov	r2, r6
 8003740:	463b      	mov	r3, r7
 8003742:	f7fc fd13 	bl	800016c <__adddf3>
 8003746:	4602      	mov	r2, r0
 8003748:	460b      	mov	r3, r1
 800374a:	f7fc fd0f 	bl	800016c <__adddf3>
 800374e:	4602      	mov	r2, r0
 8003750:	460b      	mov	r3, r1
 8003752:	a103      	add	r1, pc, #12	; (adr r1, 8003760 <__ieee754_acos+0x268>)
 8003754:	e9d1 0100 	ldrd	r0, r1, [r1]
 8003758:	e772      	b.n	8003640 <__ieee754_acos+0x148>
 800375a:	bf00      	nop
 800375c:	f3af 8000 	nop.w
 8003760:	54442d18 	.word	0x54442d18
 8003764:	400921fb 	.word	0x400921fb
 8003768:	0dfdf709 	.word	0x0dfdf709
 800376c:	3f023de1 	.word	0x3f023de1
 8003770:	7501b288 	.word	0x7501b288
 8003774:	3f49efe0 	.word	0x3f49efe0
 8003778:	b5688f3b 	.word	0xb5688f3b
 800377c:	3fa48228 	.word	0x3fa48228
 8003780:	0e884455 	.word	0x0e884455
 8003784:	3fc9c155 	.word	0x3fc9c155
 8003788:	03eb6f7d 	.word	0x03eb6f7d
 800378c:	3fd4d612 	.word	0x3fd4d612
 8003790:	55555555 	.word	0x55555555
 8003794:	3fc55555 	.word	0x3fc55555
 8003798:	b12e9282 	.word	0xb12e9282
 800379c:	3fb3b8c5 	.word	0x3fb3b8c5
 80037a0:	1b8d0159 	.word	0x1b8d0159
 80037a4:	3fe6066c 	.word	0x3fe6066c
 80037a8:	9c598ac8 	.word	0x9c598ac8
 80037ac:	40002ae5 	.word	0x40002ae5
 80037b0:	1c8a2d4b 	.word	0x1c8a2d4b
 80037b4:	40033a27 	.word	0x40033a27
 80037b8:	33145c07 	.word	0x33145c07
 80037bc:	3c91a626 	.word	0x3c91a626
 80037c0:	54442d18 	.word	0x54442d18
 80037c4:	3ff921fb 	.word	0x3ff921fb
 80037c8:	3fefffff 	.word	0x3fefffff
 80037cc:	3fdfffff 	.word	0x3fdfffff
 80037d0:	3c600000 	.word	0x3c600000
 80037d4:	3ff00000 	.word	0x3ff00000
 80037d8:	3fe00000 	.word	0x3fe00000
 80037dc:	4602      	mov	r2, r0
 80037de:	460b      	mov	r3, r1
 80037e0:	2000      	movs	r0, #0
 80037e2:	4969      	ldr	r1, [pc, #420]	; (8003988 <__ieee754_acos+0x490>)
 80037e4:	f7fc fcc0 	bl	8000168 <__aeabi_dsub>
 80037e8:	2200      	movs	r2, #0
 80037ea:	4b68      	ldr	r3, [pc, #416]	; (800398c <__ieee754_acos+0x494>)
 80037ec:	f7fc fe74 	bl	80004d8 <__aeabi_dmul>
 80037f0:	4604      	mov	r4, r0
 80037f2:	460d      	mov	r5, r1
 80037f4:	f000 f8cc 	bl	8003990 <__ieee754_sqrt>
 80037f8:	a34d      	add	r3, pc, #308	; (adr r3, 8003930 <__ieee754_acos+0x438>)
 80037fa:	e9d3 2300 	ldrd	r2, r3, [r3]
 80037fe:	4689      	mov	r9, r1
 8003800:	4680      	mov	r8, r0
 8003802:	4629      	mov	r1, r5
 8003804:	4620      	mov	r0, r4
 8003806:	f7fc fe67 	bl	80004d8 <__aeabi_dmul>
 800380a:	a34b      	add	r3, pc, #300	; (adr r3, 8003938 <__ieee754_acos+0x440>)
 800380c:	e9d3 2300 	ldrd	r2, r3, [r3]
 8003810:	f7fc fcac 	bl	800016c <__adddf3>
 8003814:	4622      	mov	r2, r4
 8003816:	462b      	mov	r3, r5
 8003818:	f7fc fe5e 	bl	80004d8 <__aeabi_dmul>
 800381c:	a348      	add	r3, pc, #288	; (adr r3, 8003940 <__ieee754_acos+0x448>)
 800381e:	e9d3 2300 	ldrd	r2, r3, [r3]
 8003822:	f7fc fca1 	bl	8000168 <__aeabi_dsub>
 8003826:	4622      	mov	r2, r4
 8003828:	462b      	mov	r3, r5
 800382a:	f7fc fe55 	bl	80004d8 <__aeabi_dmul>
 800382e:	a346      	add	r3, pc, #280	; (adr r3, 8003948 <__ieee754_acos+0x450>)
 8003830:	e9d3 2300 	ldrd	r2, r3, [r3]
 8003834:	f7fc fc9a 	bl	800016c <__adddf3>
 8003838:	4622      	mov	r2, r4
 800383a:	462b      	mov	r3, r5
 800383c:	f7fc fe4c 	bl	80004d8 <__aeabi_dmul>
 8003840:	a343      	add	r3, pc, #268	; (adr r3, 8003950 <__ieee754_acos+0x458>)
 8003842:	e9d3 2300 	ldrd	r2, r3, [r3]
 8003846:	f7fc fc8f 	bl	8000168 <__aeabi_dsub>
 800384a:	4622      	mov	r2, r4
 800384c:	462b      	mov	r3, r5
 800384e:	f7fc fe43 	bl	80004d8 <__aeabi_dmul>
 8003852:	a341      	add	r3, pc, #260	; (adr r3, 8003958 <__ieee754_acos+0x460>)
 8003854:	e9d3 2300 	ldrd	r2, r3, [r3]
 8003858:	f7fc fc88 	bl	800016c <__adddf3>
 800385c:	4622      	mov	r2, r4
 800385e:	462b      	mov	r3, r5
 8003860:	f7fc fe3a 	bl	80004d8 <__aeabi_dmul>
 8003864:	a33e      	add	r3, pc, #248	; (adr r3, 8003960 <__ieee754_acos+0x468>)
 8003866:	e9d3 2300 	ldrd	r2, r3, [r3]
 800386a:	4682      	mov	sl, r0
 800386c:	468b      	mov	fp, r1
 800386e:	4620      	mov	r0, r4
 8003870:	4629      	mov	r1, r5
 8003872:	f7fc fe31 	bl	80004d8 <__aeabi_dmul>
 8003876:	a33c      	add	r3, pc, #240	; (adr r3, 8003968 <__ieee754_acos+0x470>)
 8003878:	e9d3 2300 	ldrd	r2, r3, [r3]
 800387c:	f7fc fc74 	bl	8000168 <__aeabi_dsub>
 8003880:	4622      	mov	r2, r4
 8003882:	462b      	mov	r3, r5
 8003884:	f7fc fe28 	bl	80004d8 <__aeabi_dmul>
 8003888:	a339      	add	r3, pc, #228	; (adr r3, 8003970 <__ieee754_acos+0x478>)
 800388a:	e9d3 2300 	ldrd	r2, r3, [r3]
 800388e:	f7fc fc6d 	bl	800016c <__adddf3>
 8003892:	4622      	mov	r2, r4
 8003894:	462b      	mov	r3, r5
 8003896:	f7fc fe1f 	bl	80004d8 <__aeabi_dmul>
 800389a:	a337      	add	r3, pc, #220	; (adr r3, 8003978 <__ieee754_acos+0x480>)
 800389c:	e9d3 2300 	ldrd	r2, r3, [r3]
 80038a0:	f7fc fc62 	bl	8000168 <__aeabi_dsub>
 80038a4:	4622      	mov	r2, r4
 80038a6:	462b      	mov	r3, r5
 80038a8:	f7fc fe16 	bl	80004d8 <__aeabi_dmul>
 80038ac:	2200      	movs	r2, #0
 80038ae:	4b36      	ldr	r3, [pc, #216]	; (8003988 <__ieee754_acos+0x490>)
 80038b0:	f7fc fc5c 	bl	800016c <__adddf3>
 80038b4:	4602      	mov	r2, r0
 80038b6:	460b      	mov	r3, r1
 80038b8:	4650      	mov	r0, sl
 80038ba:	4659      	mov	r1, fp
 80038bc:	f7fc ff36 	bl	800072c <__aeabi_ddiv>
 80038c0:	4642      	mov	r2, r8
 80038c2:	464b      	mov	r3, r9
 80038c4:	f7fc fe08 	bl	80004d8 <__aeabi_dmul>
 80038c8:	2600      	movs	r6, #0
 80038ca:	4682      	mov	sl, r0
 80038cc:	468b      	mov	fp, r1
 80038ce:	4632      	mov	r2, r6
 80038d0:	464b      	mov	r3, r9
 80038d2:	4630      	mov	r0, r6
 80038d4:	4649      	mov	r1, r9
 80038d6:	f7fc fdff 	bl	80004d8 <__aeabi_dmul>
 80038da:	4602      	mov	r2, r0
 80038dc:	460b      	mov	r3, r1
 80038de:	4620      	mov	r0, r4
 80038e0:	4629      	mov	r1, r5
 80038e2:	f7fc fc41 	bl	8000168 <__aeabi_dsub>
 80038e6:	4632      	mov	r2, r6
 80038e8:	4604      	mov	r4, r0
 80038ea:	460d      	mov	r5, r1
 80038ec:	464b      	mov	r3, r9
 80038ee:	4640      	mov	r0, r8
 80038f0:	4649      	mov	r1, r9
 80038f2:	f7fc fc3b 	bl	800016c <__adddf3>
 80038f6:	4602      	mov	r2, r0
 80038f8:	460b      	mov	r3, r1
 80038fa:	4620      	mov	r0, r4
 80038fc:	4629      	mov	r1, r5
 80038fe:	f7fc ff15 	bl	800072c <__aeabi_ddiv>
 8003902:	4602      	mov	r2, r0
 8003904:	460b      	mov	r3, r1
 8003906:	4650      	mov	r0, sl
 8003908:	4659      	mov	r1, fp
 800390a:	f7fc fc2f 	bl	800016c <__adddf3>
 800390e:	4632      	mov	r2, r6
 8003910:	464b      	mov	r3, r9
 8003912:	f7fc fc2b 	bl	800016c <__adddf3>
 8003916:	4602      	mov	r2, r0
 8003918:	460b      	mov	r3, r1
 800391a:	f7fc fc27 	bl	800016c <__adddf3>
 800391e:	e600      	b.n	8003522 <__ieee754_acos+0x2a>
 8003920:	2000      	movs	r0, #0
 8003922:	2100      	movs	r1, #0
 8003924:	e5fd      	b.n	8003522 <__ieee754_acos+0x2a>
 8003926:	a116      	add	r1, pc, #88	; (adr r1, 8003980 <__ieee754_acos+0x488>)
 8003928:	e9d1 0100 	ldrd	r0, r1, [r1]
 800392c:	e5f9      	b.n	8003522 <__ieee754_acos+0x2a>
 800392e:	bf00      	nop
 8003930:	0dfdf709 	.word	0x0dfdf709
 8003934:	3f023de1 	.word	0x3f023de1
 8003938:	7501b288 	.word	0x7501b288
 800393c:	3f49efe0 	.word	0x3f49efe0
 8003940:	b5688f3b 	.word	0xb5688f3b
 8003944:	3fa48228 	.word	0x3fa48228
 8003948:	0e884455 	.word	0x0e884455
 800394c:	3fc9c155 	.word	0x3fc9c155
 8003950:	03eb6f7d 	.word	0x03eb6f7d
 8003954:	3fd4d612 	.word	0x3fd4d612
 8003958:	55555555 	.word	0x55555555
 800395c:	3fc55555 	.word	0x3fc55555
 8003960:	b12e9282 	.word	0xb12e9282
 8003964:	3fb3b8c5 	.word	0x3fb3b8c5
 8003968:	1b8d0159 	.word	0x1b8d0159
 800396c:	3fe6066c 	.word	0x3fe6066c
 8003970:	9c598ac8 	.word	0x9c598ac8
 8003974:	40002ae5 	.word	0x40002ae5
 8003978:	1c8a2d4b 	.word	0x1c8a2d4b
 800397c:	40033a27 	.word	0x40033a27
 8003980:	54442d18 	.word	0x54442d18
 8003984:	3ff921fb 	.word	0x3ff921fb
 8003988:	3ff00000 	.word	0x3ff00000
 800398c:	3fe00000 	.word	0x3fe00000

08003990 <__ieee754_sqrt>:
 8003990:	f8df c150 	ldr.w	ip, [pc, #336]	; 8003ae4 <__ieee754_sqrt+0x154>
 8003994:	e92d 41f0 	stmdb	sp!, {r4, r5, r6, r7, r8, lr}
 8003998:	ea3c 0c01 	bics.w	ip, ip, r1
 800399c:	460b      	mov	r3, r1
 800399e:	4606      	mov	r6, r0
 80039a0:	460d      	mov	r5, r1
 80039a2:	460a      	mov	r2, r1
 80039a4:	4607      	mov	r7, r0
 80039a6:	4604      	mov	r4, r0
 80039a8:	d10e      	bne.n	80039c8 <__ieee754_sqrt+0x38>
 80039aa:	4602      	mov	r2, r0
 80039ac:	f7fc fd94 	bl	80004d8 <__aeabi_dmul>
 80039b0:	4602      	mov	r2, r0
 80039b2:	460b      	mov	r3, r1
 80039b4:	4630      	mov	r0, r6
 80039b6:	4629      	mov	r1, r5
 80039b8:	f7fc fbd8 	bl	800016c <__adddf3>
 80039bc:	4606      	mov	r6, r0
 80039be:	460d      	mov	r5, r1
 80039c0:	4630      	mov	r0, r6
 80039c2:	4629      	mov	r1, r5
 80039c4:	e8bd 81f0 	ldmia.w	sp!, {r4, r5, r6, r7, r8, pc}
 80039c8:	2900      	cmp	r1, #0
 80039ca:	dc0d      	bgt.n	80039e8 <__ieee754_sqrt+0x58>
 80039cc:	f021 4c00 	bic.w	ip, r1, #2147483648	; 0x80000000
 80039d0:	ea5c 0707 	orrs.w	r7, ip, r7
 80039d4:	d0f4      	beq.n	80039c0 <__ieee754_sqrt+0x30>
 80039d6:	b139      	cbz	r1, 80039e8 <__ieee754_sqrt+0x58>
 80039d8:	4602      	mov	r2, r0
 80039da:	f7fc fbc5 	bl	8000168 <__aeabi_dsub>
 80039de:	4602      	mov	r2, r0
 80039e0:	460b      	mov	r3, r1
 80039e2:	f7fc fea3 	bl	800072c <__aeabi_ddiv>
 80039e6:	e7e9      	b.n	80039bc <__ieee754_sqrt+0x2c>
 80039e8:	1512      	asrs	r2, r2, #20
 80039ea:	d074      	beq.n	8003ad6 <__ieee754_sqrt+0x146>
 80039ec:	2000      	movs	r0, #0
 80039ee:	07d5      	lsls	r5, r2, #31
 80039f0:	f3c3 0313 	ubfx	r3, r3, #0, #20
 80039f4:	f443 1180 	orr.w	r1, r3, #1048576	; 0x100000
 80039f8:	bf5e      	ittt	pl
 80039fa:	0fe3      	lsrpl	r3, r4, #31
 80039fc:	0064      	lslpl	r4, r4, #1
 80039fe:	eb03 0141 	addpl.w	r1, r3, r1, lsl #1
 8003a02:	0fe3      	lsrs	r3, r4, #31
 8003a04:	f2a2 36ff 	subw	r6, r2, #1023	; 0x3ff
 8003a08:	eb03 0341 	add.w	r3, r3, r1, lsl #1
 8003a0c:	2516      	movs	r5, #22
 8003a0e:	4601      	mov	r1, r0
 8003a10:	f44f 1200 	mov.w	r2, #2097152	; 0x200000
 8003a14:	1076      	asrs	r6, r6, #1
 8003a16:	0064      	lsls	r4, r4, #1
 8003a18:	188f      	adds	r7, r1, r2
 8003a1a:	429f      	cmp	r7, r3
 8003a1c:	bfde      	ittt	le
 8003a1e:	1bdb      	suble	r3, r3, r7
 8003a20:	18b9      	addle	r1, r7, r2
 8003a22:	1880      	addle	r0, r0, r2
 8003a24:	005b      	lsls	r3, r3, #1
 8003a26:	3d01      	subs	r5, #1
 8003a28:	eb03 73d4 	add.w	r3, r3, r4, lsr #31
 8003a2c:	ea4f 0252 	mov.w	r2, r2, lsr #1
 8003a30:	ea4f 0444 	mov.w	r4, r4, lsl #1
 8003a34:	d1f0      	bne.n	8003a18 <__ieee754_sqrt+0x88>
 8003a36:	462a      	mov	r2, r5
 8003a38:	f04f 0e20 	mov.w	lr, #32
 8003a3c:	f04f 4700 	mov.w	r7, #2147483648	; 0x80000000
 8003a40:	428b      	cmp	r3, r1
 8003a42:	eb07 0c05 	add.w	ip, r7, r5
 8003a46:	dc02      	bgt.n	8003a4e <__ieee754_sqrt+0xbe>
 8003a48:	d113      	bne.n	8003a72 <__ieee754_sqrt+0xe2>
 8003a4a:	45a4      	cmp	ip, r4
 8003a4c:	d811      	bhi.n	8003a72 <__ieee754_sqrt+0xe2>
 8003a4e:	f1bc 0f00 	cmp.w	ip, #0
 8003a52:	eb0c 0507 	add.w	r5, ip, r7
 8003a56:	da43      	bge.n	8003ae0 <__ieee754_sqrt+0x150>
 8003a58:	2d00      	cmp	r5, #0
 8003a5a:	db41      	blt.n	8003ae0 <__ieee754_sqrt+0x150>
 8003a5c:	f101 0801 	add.w	r8, r1, #1
 8003a60:	1a5b      	subs	r3, r3, r1
 8003a62:	4641      	mov	r1, r8
 8003a64:	45a4      	cmp	ip, r4
 8003a66:	bf88      	it	hi
 8003a68:	f103 33ff 	addhi.w	r3, r3, #4294967295	; 0xffffffff
 8003a6c:	eba4 040c 	sub.w	r4, r4, ip
 8003a70:	443a      	add	r2, r7
 8003a72:	005b      	lsls	r3, r3, #1
 8003a74:	f1be 0e01 	subs.w	lr, lr, #1
 8003a78:	eb03 73d4 	add.w	r3, r3, r4, lsr #31
 8003a7c:	ea4f 0757 	mov.w	r7, r7, lsr #1
 8003a80:	ea4f 0444 	mov.w	r4, r4, lsl #1
 8003a84:	d1dc      	bne.n	8003a40 <__ieee754_sqrt+0xb0>
 8003a86:	4323      	orrs	r3, r4
 8003a88:	d006      	beq.n	8003a98 <__ieee754_sqrt+0x108>
 8003a8a:	1c54      	adds	r4, r2, #1
 8003a8c:	bf0b      	itete	eq
 8003a8e:	4672      	moveq	r2, lr
 8003a90:	3201      	addne	r2, #1
 8003a92:	3001      	addeq	r0, #1
 8003a94:	f022 0201 	bicne.w	r2, r2, #1
 8003a98:	1043      	asrs	r3, r0, #1
 8003a9a:	07c1      	lsls	r1, r0, #31
 8003a9c:	ea4f 0252 	mov.w	r2, r2, lsr #1
 8003aa0:	f103 537f 	add.w	r3, r3, #1069547520	; 0x3fc00000
 8003aa4:	f503 1300 	add.w	r3, r3, #2097152	; 0x200000
 8003aa8:	bf48      	it	mi
 8003aaa:	f042 4200 	orrmi.w	r2, r2, #2147483648	; 0x80000000
 8003aae:	4610      	mov	r0, r2
 8003ab0:	eb03 5106 	add.w	r1, r3, r6, lsl #20
 8003ab4:	e782      	b.n	80039bc <__ieee754_sqrt+0x2c>
 8003ab6:	0ae3      	lsrs	r3, r4, #11
 8003ab8:	3915      	subs	r1, #21
 8003aba:	0564      	lsls	r4, r4, #21
 8003abc:	2b00      	cmp	r3, #0
 8003abe:	d0fa      	beq.n	8003ab6 <__ieee754_sqrt+0x126>
 8003ac0:	02de      	lsls	r6, r3, #11
 8003ac2:	d50a      	bpl.n	8003ada <__ieee754_sqrt+0x14a>
 8003ac4:	f1c2 0020 	rsb	r0, r2, #32
 8003ac8:	fa24 f000 	lsr.w	r0, r4, r0
 8003acc:	1e55      	subs	r5, r2, #1
 8003ace:	4094      	lsls	r4, r2
 8003ad0:	4303      	orrs	r3, r0
 8003ad2:	1b4a      	subs	r2, r1, r5
 8003ad4:	e78a      	b.n	80039ec <__ieee754_sqrt+0x5c>
 8003ad6:	4611      	mov	r1, r2
 8003ad8:	e7f0      	b.n	8003abc <__ieee754_sqrt+0x12c>
 8003ada:	005b      	lsls	r3, r3, #1
 8003adc:	3201      	adds	r2, #1
 8003ade:	e7ef      	b.n	8003ac0 <__ieee754_sqrt+0x130>
 8003ae0:	4688      	mov	r8, r1
 8003ae2:	e7bd      	b.n	8003a60 <__ieee754_sqrt+0xd0>
 8003ae4:	7ff00000 	.word	0x7ff00000

08003ae8 <fabs>:
 8003ae8:	f021 4100 	bic.w	r1, r1, #2147483648	; 0x80000000
 8003aec:	4770      	bx	lr
	...

08003af0 <nan>:
 8003af0:	2000      	movs	r0, #0
 8003af2:	4901      	ldr	r1, [pc, #4]	; (8003af8 <nan+0x8>)
 8003af4:	4770      	bx	lr
 8003af6:	bf00      	nop
 8003af8:	7ff80000 	.word	0x7ff80000

08003afc <__errno>:
 8003afc:	4b01      	ldr	r3, [pc, #4]	; (8003b04 <__errno+0x8>)
 8003afe:	6818      	ldr	r0, [r3, #0]
 8003b00:	4770      	bx	lr
 8003b02:	bf00      	nop
 8003b04:	20000010 	.word	0x20000010

08003b08 <__libc_init_array>:
 8003b08:	b570      	push	{r4, r5, r6, lr}
 8003b0a:	2600      	movs	r6, #0
 8003b0c:	4d0c      	ldr	r5, [pc, #48]	; (8003b40 <__libc_init_array+0x38>)
 8003b0e:	4c0d      	ldr	r4, [pc, #52]	; (8003b44 <__libc_init_array+0x3c>)
 8003b10:	1b64      	subs	r4, r4, r5
 8003b12:	10a4      	asrs	r4, r4, #2
 8003b14:	42a6      	cmp	r6, r4
 8003b16:	d109      	bne.n	8003b2c <__libc_init_array+0x24>
 8003b18:	f002 fec4 	bl	80068a4 <_init>
 8003b1c:	2600      	movs	r6, #0
 8003b1e:	4d0a      	ldr	r5, [pc, #40]	; (8003b48 <__libc_init_array+0x40>)
 8003b20:	4c0a      	ldr	r4, [pc, #40]	; (8003b4c <__libc_init_array+0x44>)
 8003b22:	1b64      	subs	r4, r4, r5
 8003b24:	10a4      	asrs	r4, r4, #2
 8003b26:	42a6      	cmp	r6, r4
 8003b28:	d105      	bne.n	8003b36 <__libc_init_array+0x2e>
 8003b2a:	bd70      	pop	{r4, r5, r6, pc}
 8003b2c:	f855 3b04 	ldr.w	r3, [r5], #4
 8003b30:	4798      	blx	r3
 8003b32:	3601      	adds	r6, #1
 8003b34:	e7ee      	b.n	8003b14 <__libc_init_array+0xc>
 8003b36:	f855 3b04 	ldr.w	r3, [r5], #4
 8003b3a:	4798      	blx	r3
 8003b3c:	3601      	adds	r6, #1
 8003b3e:	e7f2      	b.n	8003b26 <__libc_init_array+0x1e>
 8003b40:	08006d04 	.word	0x08006d04
 8003b44:	08006d04 	.word	0x08006d04
 8003b48:	08006d04 	.word	0x08006d04
 8003b4c:	08006d08 	.word	0x08006d08

08003b50 <memset>:
 8003b50:	4603      	mov	r3, r0
 8003b52:	4402      	add	r2, r0
 8003b54:	4293      	cmp	r3, r2
 8003b56:	d100      	bne.n	8003b5a <memset+0xa>
 8003b58:	4770      	bx	lr
 8003b5a:	f803 1b01 	strb.w	r1, [r3], #1
 8003b5e:	e7f9      	b.n	8003b54 <memset+0x4>

08003b60 <__cvt>:
 8003b60:	2b00      	cmp	r3, #0
 8003b62:	e92d 47f0 	stmdb	sp!, {r4, r5, r6, r7, r8, r9, sl, lr}
 8003b66:	461f      	mov	r7, r3
 8003b68:	bfbb      	ittet	lt
 8003b6a:	f103 4300 	addlt.w	r3, r3, #2147483648	; 0x80000000
 8003b6e:	461f      	movlt	r7, r3
 8003b70:	2300      	movge	r3, #0
 8003b72:	232d      	movlt	r3, #45	; 0x2d
 8003b74:	b088      	sub	sp, #32
 8003b76:	4614      	mov	r4, r2
 8003b78:	9a12      	ldr	r2, [sp, #72]	; 0x48
 8003b7a:	9d10      	ldr	r5, [sp, #64]	; 0x40
 8003b7c:	7013      	strb	r3, [r2, #0]
 8003b7e:	9b14      	ldr	r3, [sp, #80]	; 0x50
 8003b80:	f8dd a04c 	ldr.w	sl, [sp, #76]	; 0x4c
 8003b84:	f023 0820 	bic.w	r8, r3, #32
 8003b88:	f1b8 0f46 	cmp.w	r8, #70	; 0x46
 8003b8c:	d005      	beq.n	8003b9a <__cvt+0x3a>
 8003b8e:	f1b8 0f45 	cmp.w	r8, #69	; 0x45
 8003b92:	d100      	bne.n	8003b96 <__cvt+0x36>
 8003b94:	3501      	adds	r5, #1
 8003b96:	2302      	movs	r3, #2
 8003b98:	e000      	b.n	8003b9c <__cvt+0x3c>
 8003b9a:	2303      	movs	r3, #3
 8003b9c:	aa07      	add	r2, sp, #28
 8003b9e:	9204      	str	r2, [sp, #16]
 8003ba0:	aa06      	add	r2, sp, #24
 8003ba2:	e9cd a202 	strd	sl, r2, [sp, #8]
 8003ba6:	e9cd 3500 	strd	r3, r5, [sp]
 8003baa:	4622      	mov	r2, r4
 8003bac:	463b      	mov	r3, r7
 8003bae:	f000 fcef 	bl	8004590 <_dtoa_r>
 8003bb2:	f1b8 0f47 	cmp.w	r8, #71	; 0x47
 8003bb6:	4606      	mov	r6, r0
 8003bb8:	d102      	bne.n	8003bc0 <__cvt+0x60>
 8003bba:	9b11      	ldr	r3, [sp, #68]	; 0x44
 8003bbc:	07db      	lsls	r3, r3, #31
 8003bbe:	d522      	bpl.n	8003c06 <__cvt+0xa6>
 8003bc0:	f1b8 0f46 	cmp.w	r8, #70	; 0x46
 8003bc4:	eb06 0905 	add.w	r9, r6, r5
 8003bc8:	d110      	bne.n	8003bec <__cvt+0x8c>
 8003bca:	7833      	ldrb	r3, [r6, #0]
 8003bcc:	2b30      	cmp	r3, #48	; 0x30
 8003bce:	d10a      	bne.n	8003be6 <__cvt+0x86>
 8003bd0:	2200      	movs	r2, #0
 8003bd2:	2300      	movs	r3, #0
 8003bd4:	4620      	mov	r0, r4
 8003bd6:	4639      	mov	r1, r7
 8003bd8:	f7fc fee6 	bl	80009a8 <__aeabi_dcmpeq>
 8003bdc:	b918      	cbnz	r0, 8003be6 <__cvt+0x86>
 8003bde:	f1c5 0501 	rsb	r5, r5, #1
 8003be2:	f8ca 5000 	str.w	r5, [sl]
 8003be6:	f8da 3000 	ldr.w	r3, [sl]
 8003bea:	4499      	add	r9, r3
 8003bec:	2200      	movs	r2, #0
 8003bee:	2300      	movs	r3, #0
 8003bf0:	4620      	mov	r0, r4
 8003bf2:	4639      	mov	r1, r7
 8003bf4:	f7fc fed8 	bl	80009a8 <__aeabi_dcmpeq>
 8003bf8:	b108      	cbz	r0, 8003bfe <__cvt+0x9e>
 8003bfa:	f8cd 901c 	str.w	r9, [sp, #28]
 8003bfe:	2230      	movs	r2, #48	; 0x30
 8003c00:	9b07      	ldr	r3, [sp, #28]
 8003c02:	454b      	cmp	r3, r9
 8003c04:	d307      	bcc.n	8003c16 <__cvt+0xb6>
 8003c06:	4630      	mov	r0, r6
 8003c08:	9b07      	ldr	r3, [sp, #28]
 8003c0a:	9a15      	ldr	r2, [sp, #84]	; 0x54
 8003c0c:	1b9b      	subs	r3, r3, r6
 8003c0e:	6013      	str	r3, [r2, #0]
 8003c10:	b008      	add	sp, #32
 8003c12:	e8bd 87f0 	ldmia.w	sp!, {r4, r5, r6, r7, r8, r9, sl, pc}
 8003c16:	1c59      	adds	r1, r3, #1
 8003c18:	9107      	str	r1, [sp, #28]
 8003c1a:	701a      	strb	r2, [r3, #0]
 8003c1c:	e7f0      	b.n	8003c00 <__cvt+0xa0>

08003c1e <__exponent>:
 8003c1e:	4603      	mov	r3, r0
 8003c20:	b5f7      	push	{r0, r1, r2, r4, r5, r6, r7, lr}
 8003c22:	2900      	cmp	r1, #0
 8003c24:	f803 2b02 	strb.w	r2, [r3], #2
 8003c28:	bfb6      	itet	lt
 8003c2a:	222d      	movlt	r2, #45	; 0x2d
 8003c2c:	222b      	movge	r2, #43	; 0x2b
 8003c2e:	4249      	neglt	r1, r1
 8003c30:	2909      	cmp	r1, #9
 8003c32:	7042      	strb	r2, [r0, #1]
 8003c34:	dd2b      	ble.n	8003c8e <__exponent+0x70>
 8003c36:	f10d 0407 	add.w	r4, sp, #7
 8003c3a:	46a4      	mov	ip, r4
 8003c3c:	270a      	movs	r7, #10
 8003c3e:	fb91 f6f7 	sdiv	r6, r1, r7
 8003c42:	460a      	mov	r2, r1
 8003c44:	46a6      	mov	lr, r4
 8003c46:	fb07 1516 	mls	r5, r7, r6, r1
 8003c4a:	2a63      	cmp	r2, #99	; 0x63
 8003c4c:	f105 0530 	add.w	r5, r5, #48	; 0x30
 8003c50:	4631      	mov	r1, r6
 8003c52:	f104 34ff 	add.w	r4, r4, #4294967295	; 0xffffffff
 8003c56:	f80e 5c01 	strb.w	r5, [lr, #-1]
 8003c5a:	dcf0      	bgt.n	8003c3e <__exponent+0x20>
 8003c5c:	3130      	adds	r1, #48	; 0x30
 8003c5e:	f1ae 0502 	sub.w	r5, lr, #2
 8003c62:	f804 1c01 	strb.w	r1, [r4, #-1]
 8003c66:	4629      	mov	r1, r5
 8003c68:	1c44      	adds	r4, r0, #1
 8003c6a:	4561      	cmp	r1, ip
 8003c6c:	d30a      	bcc.n	8003c84 <__exponent+0x66>
 8003c6e:	f10d 0209 	add.w	r2, sp, #9
 8003c72:	eba2 020e 	sub.w	r2, r2, lr
 8003c76:	4565      	cmp	r5, ip
 8003c78:	bf88      	it	hi
 8003c7a:	2200      	movhi	r2, #0
 8003c7c:	4413      	add	r3, r2
 8003c7e:	1a18      	subs	r0, r3, r0
 8003c80:	b003      	add	sp, #12
 8003c82:	bdf0      	pop	{r4, r5, r6, r7, pc}
 8003c84:	f811 2b01 	ldrb.w	r2, [r1], #1
 8003c88:	f804 2f01 	strb.w	r2, [r4, #1]!
 8003c8c:	e7ed      	b.n	8003c6a <__exponent+0x4c>
 8003c8e:	2330      	movs	r3, #48	; 0x30
 8003c90:	3130      	adds	r1, #48	; 0x30
 8003c92:	7083      	strb	r3, [r0, #2]
 8003c94:	70c1      	strb	r1, [r0, #3]
 8003c96:	1d03      	adds	r3, r0, #4
 8003c98:	e7f1      	b.n	8003c7e <__exponent+0x60>
	...

08003c9c <_printf_float>:
 8003c9c:	e92d 4ff0 	stmdb	sp!, {r4, r5, r6, r7, r8, r9, sl, fp, lr}
 8003ca0:	b091      	sub	sp, #68	; 0x44
 8003ca2:	460c      	mov	r4, r1
 8003ca4:	f8dd 8068 	ldr.w	r8, [sp, #104]	; 0x68
 8003ca8:	4616      	mov	r6, r2
 8003caa:	461f      	mov	r7, r3
 8003cac:	4605      	mov	r5, r0
 8003cae:	f001 fa5d 	bl	800516c <_localeconv_r>
 8003cb2:	6803      	ldr	r3, [r0, #0]
 8003cb4:	4618      	mov	r0, r3
 8003cb6:	9309      	str	r3, [sp, #36]	; 0x24
 8003cb8:	f7fc fa4a 	bl	8000150 <strlen>
 8003cbc:	2300      	movs	r3, #0
 8003cbe:	930e      	str	r3, [sp, #56]	; 0x38
 8003cc0:	f8d8 3000 	ldr.w	r3, [r8]
 8003cc4:	900a      	str	r0, [sp, #40]	; 0x28
 8003cc6:	3307      	adds	r3, #7
 8003cc8:	f023 0307 	bic.w	r3, r3, #7
 8003ccc:	f103 0208 	add.w	r2, r3, #8
 8003cd0:	f894 9018 	ldrb.w	r9, [r4, #24]
 8003cd4:	f8d4 b000 	ldr.w	fp, [r4]
 8003cd8:	f8c8 2000 	str.w	r2, [r8]
 8003cdc:	e9d3 2300 	ldrd	r2, r3, [r3]
 8003ce0:	e9c4 2312 	strd	r2, r3, [r4, #72]	; 0x48
 8003ce4:	e9d4 8a12 	ldrd	r8, sl, [r4, #72]	; 0x48
 8003ce8:	f02a 4300 	bic.w	r3, sl, #2147483648	; 0x80000000
 8003cec:	930b      	str	r3, [sp, #44]	; 0x2c
 8003cee:	f04f 32ff 	mov.w	r2, #4294967295	; 0xffffffff
 8003cf2:	4640      	mov	r0, r8
 8003cf4:	4b9c      	ldr	r3, [pc, #624]	; (8003f68 <_printf_float+0x2cc>)
 8003cf6:	990b      	ldr	r1, [sp, #44]	; 0x2c
 8003cf8:	f7fc fe88 	bl	8000a0c <__aeabi_dcmpun>
 8003cfc:	bb70      	cbnz	r0, 8003d5c <_printf_float+0xc0>
 8003cfe:	f04f 32ff 	mov.w	r2, #4294967295	; 0xffffffff
 8003d02:	4640      	mov	r0, r8
 8003d04:	4b98      	ldr	r3, [pc, #608]	; (8003f68 <_printf_float+0x2cc>)
 8003d06:	990b      	ldr	r1, [sp, #44]	; 0x2c
 8003d08:	f7fc fe62 	bl	80009d0 <__aeabi_dcmple>
 8003d0c:	bb30      	cbnz	r0, 8003d5c <_printf_float+0xc0>
 8003d0e:	2200      	movs	r2, #0
 8003d10:	2300      	movs	r3, #0
 8003d12:	4640      	mov	r0, r8
 8003d14:	4651      	mov	r1, sl
 8003d16:	f7fc fe51 	bl	80009bc <__aeabi_dcmplt>
 8003d1a:	b110      	cbz	r0, 8003d22 <_printf_float+0x86>
 8003d1c:	232d      	movs	r3, #45	; 0x2d
 8003d1e:	f884 3043 	strb.w	r3, [r4, #67]	; 0x43
 8003d22:	4b92      	ldr	r3, [pc, #584]	; (8003f6c <_printf_float+0x2d0>)
 8003d24:	4892      	ldr	r0, [pc, #584]	; (8003f70 <_printf_float+0x2d4>)
 8003d26:	f1b9 0f47 	cmp.w	r9, #71	; 0x47
 8003d2a:	bf94      	ite	ls
 8003d2c:	4698      	movls	r8, r3
 8003d2e:	4680      	movhi	r8, r0
 8003d30:	2303      	movs	r3, #3
 8003d32:	f04f 0a00 	mov.w	sl, #0
 8003d36:	6123      	str	r3, [r4, #16]
 8003d38:	f02b 0304 	bic.w	r3, fp, #4
 8003d3c:	6023      	str	r3, [r4, #0]
 8003d3e:	4633      	mov	r3, r6
 8003d40:	4621      	mov	r1, r4
 8003d42:	4628      	mov	r0, r5
 8003d44:	9700      	str	r7, [sp, #0]
 8003d46:	aa0f      	add	r2, sp, #60	; 0x3c
 8003d48:	f000 f9d4 	bl	80040f4 <_printf_common>
 8003d4c:	3001      	adds	r0, #1
 8003d4e:	f040 8090 	bne.w	8003e72 <_printf_float+0x1d6>
 8003d52:	f04f 30ff 	mov.w	r0, #4294967295	; 0xffffffff
 8003d56:	b011      	add	sp, #68	; 0x44
 8003d58:	e8bd 8ff0 	ldmia.w	sp!, {r4, r5, r6, r7, r8, r9, sl, fp, pc}
 8003d5c:	4642      	mov	r2, r8
 8003d5e:	4653      	mov	r3, sl
 8003d60:	4640      	mov	r0, r8
 8003d62:	4651      	mov	r1, sl
 8003d64:	f7fc fe52 	bl	8000a0c <__aeabi_dcmpun>
 8003d68:	b148      	cbz	r0, 8003d7e <_printf_float+0xe2>
 8003d6a:	f1ba 0f00 	cmp.w	sl, #0
 8003d6e:	bfb8      	it	lt
 8003d70:	232d      	movlt	r3, #45	; 0x2d
 8003d72:	4880      	ldr	r0, [pc, #512]	; (8003f74 <_printf_float+0x2d8>)
 8003d74:	bfb8      	it	lt
 8003d76:	f884 3043 	strblt.w	r3, [r4, #67]	; 0x43
 8003d7a:	4b7f      	ldr	r3, [pc, #508]	; (8003f78 <_printf_float+0x2dc>)
 8003d7c:	e7d3      	b.n	8003d26 <_printf_float+0x8a>
 8003d7e:	6863      	ldr	r3, [r4, #4]
 8003d80:	f009 01df 	and.w	r1, r9, #223	; 0xdf
 8003d84:	1c5a      	adds	r2, r3, #1
 8003d86:	d142      	bne.n	8003e0e <_printf_float+0x172>
 8003d88:	2306      	movs	r3, #6
 8003d8a:	6063      	str	r3, [r4, #4]
 8003d8c:	2200      	movs	r2, #0
 8003d8e:	9206      	str	r2, [sp, #24]
 8003d90:	aa0e      	add	r2, sp, #56	; 0x38
 8003d92:	e9cd 9204 	strd	r9, r2, [sp, #16]
 8003d96:	aa0d      	add	r2, sp, #52	; 0x34
 8003d98:	f44b 6380 	orr.w	r3, fp, #1024	; 0x400
 8003d9c:	9203      	str	r2, [sp, #12]
 8003d9e:	f10d 0233 	add.w	r2, sp, #51	; 0x33
 8003da2:	e9cd 3201 	strd	r3, r2, [sp, #4]
 8003da6:	6023      	str	r3, [r4, #0]
 8003da8:	6863      	ldr	r3, [r4, #4]
 8003daa:	4642      	mov	r2, r8
 8003dac:	9300      	str	r3, [sp, #0]
 8003dae:	4628      	mov	r0, r5
 8003db0:	4653      	mov	r3, sl
 8003db2:	910b      	str	r1, [sp, #44]	; 0x2c
 8003db4:	f7ff fed4 	bl	8003b60 <__cvt>
 8003db8:	990b      	ldr	r1, [sp, #44]	; 0x2c
 8003dba:	4680      	mov	r8, r0
 8003dbc:	2947      	cmp	r1, #71	; 0x47
 8003dbe:	990d      	ldr	r1, [sp, #52]	; 0x34
 8003dc0:	d108      	bne.n	8003dd4 <_printf_float+0x138>
 8003dc2:	1cc8      	adds	r0, r1, #3
 8003dc4:	db02      	blt.n	8003dcc <_printf_float+0x130>
 8003dc6:	6863      	ldr	r3, [r4, #4]
 8003dc8:	4299      	cmp	r1, r3
 8003dca:	dd40      	ble.n	8003e4e <_printf_float+0x1b2>
 8003dcc:	f1a9 0902 	sub.w	r9, r9, #2
 8003dd0:	fa5f f989 	uxtb.w	r9, r9
 8003dd4:	f1b9 0f65 	cmp.w	r9, #101	; 0x65
 8003dd8:	d81f      	bhi.n	8003e1a <_printf_float+0x17e>
 8003dda:	464a      	mov	r2, r9
 8003ddc:	3901      	subs	r1, #1
 8003dde:	f104 0050 	add.w	r0, r4, #80	; 0x50
 8003de2:	910d      	str	r1, [sp, #52]	; 0x34
 8003de4:	f7ff ff1b 	bl	8003c1e <__exponent>
 8003de8:	9a0e      	ldr	r2, [sp, #56]	; 0x38
 8003dea:	4682      	mov	sl, r0
 8003dec:	1813      	adds	r3, r2, r0
 8003dee:	2a01      	cmp	r2, #1
 8003df0:	6123      	str	r3, [r4, #16]
 8003df2:	dc02      	bgt.n	8003dfa <_printf_float+0x15e>
 8003df4:	6822      	ldr	r2, [r4, #0]
 8003df6:	07d2      	lsls	r2, r2, #31
 8003df8:	d501      	bpl.n	8003dfe <_printf_float+0x162>
 8003dfa:	3301      	adds	r3, #1
 8003dfc:	6123      	str	r3, [r4, #16]
 8003dfe:	f89d 3033 	ldrb.w	r3, [sp, #51]	; 0x33
 8003e02:	2b00      	cmp	r3, #0
 8003e04:	d09b      	beq.n	8003d3e <_printf_float+0xa2>
 8003e06:	232d      	movs	r3, #45	; 0x2d
 8003e08:	f884 3043 	strb.w	r3, [r4, #67]	; 0x43
 8003e0c:	e797      	b.n	8003d3e <_printf_float+0xa2>
 8003e0e:	2947      	cmp	r1, #71	; 0x47
 8003e10:	d1bc      	bne.n	8003d8c <_printf_float+0xf0>
 8003e12:	2b00      	cmp	r3, #0
 8003e14:	d1ba      	bne.n	8003d8c <_printf_float+0xf0>
 8003e16:	2301      	movs	r3, #1
 8003e18:	e7b7      	b.n	8003d8a <_printf_float+0xee>
 8003e1a:	f1b9 0f66 	cmp.w	r9, #102	; 0x66
 8003e1e:	d118      	bne.n	8003e52 <_printf_float+0x1b6>
 8003e20:	2900      	cmp	r1, #0
 8003e22:	6863      	ldr	r3, [r4, #4]
 8003e24:	dd0b      	ble.n	8003e3e <_printf_float+0x1a2>
 8003e26:	6121      	str	r1, [r4, #16]
 8003e28:	b913      	cbnz	r3, 8003e30 <_printf_float+0x194>
 8003e2a:	6822      	ldr	r2, [r4, #0]
 8003e2c:	07d0      	lsls	r0, r2, #31
 8003e2e:	d502      	bpl.n	8003e36 <_printf_float+0x19a>
 8003e30:	3301      	adds	r3, #1
 8003e32:	440b      	add	r3, r1
 8003e34:	6123      	str	r3, [r4, #16]
 8003e36:	f04f 0a00 	mov.w	sl, #0
 8003e3a:	65a1      	str	r1, [r4, #88]	; 0x58
 8003e3c:	e7df      	b.n	8003dfe <_printf_float+0x162>
 8003e3e:	b913      	cbnz	r3, 8003e46 <_printf_float+0x1aa>
 8003e40:	6822      	ldr	r2, [r4, #0]
 8003e42:	07d2      	lsls	r2, r2, #31
 8003e44:	d501      	bpl.n	8003e4a <_printf_float+0x1ae>
 8003e46:	3302      	adds	r3, #2
 8003e48:	e7f4      	b.n	8003e34 <_printf_float+0x198>
 8003e4a:	2301      	movs	r3, #1
 8003e4c:	e7f2      	b.n	8003e34 <_printf_float+0x198>
 8003e4e:	f04f 0967 	mov.w	r9, #103	; 0x67
 8003e52:	9b0e      	ldr	r3, [sp, #56]	; 0x38
 8003e54:	4299      	cmp	r1, r3
 8003e56:	db05      	blt.n	8003e64 <_printf_float+0x1c8>
 8003e58:	6823      	ldr	r3, [r4, #0]
 8003e5a:	6121      	str	r1, [r4, #16]
 8003e5c:	07d8      	lsls	r0, r3, #31
 8003e5e:	d5ea      	bpl.n	8003e36 <_printf_float+0x19a>
 8003e60:	1c4b      	adds	r3, r1, #1
 8003e62:	e7e7      	b.n	8003e34 <_printf_float+0x198>
 8003e64:	2900      	cmp	r1, #0
 8003e66:	bfcc      	ite	gt
 8003e68:	2201      	movgt	r2, #1
 8003e6a:	f1c1 0202 	rsble	r2, r1, #2
 8003e6e:	4413      	add	r3, r2
 8003e70:	e7e0      	b.n	8003e34 <_printf_float+0x198>
 8003e72:	6823      	ldr	r3, [r4, #0]
 8003e74:	055a      	lsls	r2, r3, #21
 8003e76:	d407      	bmi.n	8003e88 <_printf_float+0x1ec>
 8003e78:	6923      	ldr	r3, [r4, #16]
 8003e7a:	4642      	mov	r2, r8
 8003e7c:	4631      	mov	r1, r6
 8003e7e:	4628      	mov	r0, r5
 8003e80:	47b8      	blx	r7
 8003e82:	3001      	adds	r0, #1
 8003e84:	d12b      	bne.n	8003ede <_printf_float+0x242>
 8003e86:	e764      	b.n	8003d52 <_printf_float+0xb6>
 8003e88:	f1b9 0f65 	cmp.w	r9, #101	; 0x65
 8003e8c:	f240 80dd 	bls.w	800404a <_printf_float+0x3ae>
 8003e90:	e9d4 0112 	ldrd	r0, r1, [r4, #72]	; 0x48
 8003e94:	2200      	movs	r2, #0
 8003e96:	2300      	movs	r3, #0
 8003e98:	f7fc fd86 	bl	80009a8 <__aeabi_dcmpeq>
 8003e9c:	2800      	cmp	r0, #0
 8003e9e:	d033      	beq.n	8003f08 <_printf_float+0x26c>
 8003ea0:	2301      	movs	r3, #1
 8003ea2:	4631      	mov	r1, r6
 8003ea4:	4628      	mov	r0, r5
 8003ea6:	4a35      	ldr	r2, [pc, #212]	; (8003f7c <_printf_float+0x2e0>)
 8003ea8:	47b8      	blx	r7
 8003eaa:	3001      	adds	r0, #1
 8003eac:	f43f af51 	beq.w	8003d52 <_printf_float+0xb6>
 8003eb0:	e9dd 230d 	ldrd	r2, r3, [sp, #52]	; 0x34
 8003eb4:	429a      	cmp	r2, r3
 8003eb6:	db02      	blt.n	8003ebe <_printf_float+0x222>
 8003eb8:	6823      	ldr	r3, [r4, #0]
 8003eba:	07d8      	lsls	r0, r3, #31
 8003ebc:	d50f      	bpl.n	8003ede <_printf_float+0x242>
 8003ebe:	e9dd 2309 	ldrd	r2, r3, [sp, #36]	; 0x24
 8003ec2:	4631      	mov	r1, r6
 8003ec4:	4628      	mov	r0, r5
 8003ec6:	47b8      	blx	r7
 8003ec8:	3001      	adds	r0, #1
 8003eca:	f43f af42 	beq.w	8003d52 <_printf_float+0xb6>
 8003ece:	f04f 0800 	mov.w	r8, #0
 8003ed2:	f104 091a 	add.w	r9, r4, #26
 8003ed6:	9b0e      	ldr	r3, [sp, #56]	; 0x38
 8003ed8:	3b01      	subs	r3, #1
 8003eda:	4543      	cmp	r3, r8
 8003edc:	dc09      	bgt.n	8003ef2 <_printf_float+0x256>
 8003ede:	6823      	ldr	r3, [r4, #0]
 8003ee0:	079b      	lsls	r3, r3, #30
 8003ee2:	f100 8102 	bmi.w	80040ea <_printf_float+0x44e>
 8003ee6:	68e0      	ldr	r0, [r4, #12]
 8003ee8:	9b0f      	ldr	r3, [sp, #60]	; 0x3c
 8003eea:	4298      	cmp	r0, r3
 8003eec:	bfb8      	it	lt
 8003eee:	4618      	movlt	r0, r3
 8003ef0:	e731      	b.n	8003d56 <_printf_float+0xba>
 8003ef2:	2301      	movs	r3, #1
 8003ef4:	464a      	mov	r2, r9
 8003ef6:	4631      	mov	r1, r6
 8003ef8:	4628      	mov	r0, r5
 8003efa:	47b8      	blx	r7
 8003efc:	3001      	adds	r0, #1
 8003efe:	f43f af28 	beq.w	8003d52 <_printf_float+0xb6>
 8003f02:	f108 0801 	add.w	r8, r8, #1
 8003f06:	e7e6      	b.n	8003ed6 <_printf_float+0x23a>
 8003f08:	9b0d      	ldr	r3, [sp, #52]	; 0x34
 8003f0a:	2b00      	cmp	r3, #0
 8003f0c:	dc38      	bgt.n	8003f80 <_printf_float+0x2e4>
 8003f0e:	2301      	movs	r3, #1
 8003f10:	4631      	mov	r1, r6
 8003f12:	4628      	mov	r0, r5
 8003f14:	4a19      	ldr	r2, [pc, #100]	; (8003f7c <_printf_float+0x2e0>)
 8003f16:	47b8      	blx	r7
 8003f18:	3001      	adds	r0, #1
 8003f1a:	f43f af1a 	beq.w	8003d52 <_printf_float+0xb6>
 8003f1e:	e9dd 230d 	ldrd	r2, r3, [sp, #52]	; 0x34
 8003f22:	4313      	orrs	r3, r2
 8003f24:	d102      	bne.n	8003f2c <_printf_float+0x290>
 8003f26:	6823      	ldr	r3, [r4, #0]
 8003f28:	07d9      	lsls	r1, r3, #31
 8003f2a:	d5d8      	bpl.n	8003ede <_printf_float+0x242>
 8003f2c:	e9dd 2309 	ldrd	r2, r3, [sp, #36]	; 0x24
 8003f30:	4631      	mov	r1, r6
 8003f32:	4628      	mov	r0, r5
 8003f34:	47b8      	blx	r7
 8003f36:	3001      	adds	r0, #1
 8003f38:	f43f af0b 	beq.w	8003d52 <_printf_float+0xb6>
 8003f3c:	f04f 0900 	mov.w	r9, #0
 8003f40:	f104 0a1a 	add.w	sl, r4, #26
 8003f44:	9b0d      	ldr	r3, [sp, #52]	; 0x34
 8003f46:	425b      	negs	r3, r3
 8003f48:	454b      	cmp	r3, r9
 8003f4a:	dc01      	bgt.n	8003f50 <_printf_float+0x2b4>
 8003f4c:	9b0e      	ldr	r3, [sp, #56]	; 0x38
 8003f4e:	e794      	b.n	8003e7a <_printf_float+0x1de>
 8003f50:	2301      	movs	r3, #1
 8003f52:	4652      	mov	r2, sl
 8003f54:	4631      	mov	r1, r6
 8003f56:	4628      	mov	r0, r5
 8003f58:	47b8      	blx	r7
 8003f5a:	3001      	adds	r0, #1
 8003f5c:	f43f aef9 	beq.w	8003d52 <_printf_float+0xb6>
 8003f60:	f109 0901 	add.w	r9, r9, #1
 8003f64:	e7ee      	b.n	8003f44 <_printf_float+0x2a8>
 8003f66:	bf00      	nop
 8003f68:	7fefffff 	.word	0x7fefffff
 8003f6c:	08006928 	.word	0x08006928
 8003f70:	0800692c 	.word	0x0800692c
 8003f74:	08006934 	.word	0x08006934
 8003f78:	08006930 	.word	0x08006930
 8003f7c:	08006938 	.word	0x08006938
 8003f80:	9a0e      	ldr	r2, [sp, #56]	; 0x38
 8003f82:	6da3      	ldr	r3, [r4, #88]	; 0x58
 8003f84:	429a      	cmp	r2, r3
 8003f86:	bfa8      	it	ge
 8003f88:	461a      	movge	r2, r3
 8003f8a:	2a00      	cmp	r2, #0
 8003f8c:	4691      	mov	r9, r2
 8003f8e:	dc37      	bgt.n	8004000 <_printf_float+0x364>
 8003f90:	f04f 0b00 	mov.w	fp, #0
 8003f94:	ea29 79e9 	bic.w	r9, r9, r9, asr #31
 8003f98:	f104 021a 	add.w	r2, r4, #26
 8003f9c:	f8d4 a058 	ldr.w	sl, [r4, #88]	; 0x58
 8003fa0:	ebaa 0309 	sub.w	r3, sl, r9
 8003fa4:	455b      	cmp	r3, fp
 8003fa6:	dc33      	bgt.n	8004010 <_printf_float+0x374>
 8003fa8:	e9dd 230d 	ldrd	r2, r3, [sp, #52]	; 0x34
 8003fac:	429a      	cmp	r2, r3
 8003fae:	db3b      	blt.n	8004028 <_printf_float+0x38c>
 8003fb0:	6823      	ldr	r3, [r4, #0]
 8003fb2:	07da      	lsls	r2, r3, #31
 8003fb4:	d438      	bmi.n	8004028 <_printf_float+0x38c>
 8003fb6:	9a0e      	ldr	r2, [sp, #56]	; 0x38
 8003fb8:	990d      	ldr	r1, [sp, #52]	; 0x34
 8003fba:	eba2 030a 	sub.w	r3, r2, sl
 8003fbe:	eba2 0901 	sub.w	r9, r2, r1
 8003fc2:	4599      	cmp	r9, r3
 8003fc4:	bfa8      	it	ge
 8003fc6:	4699      	movge	r9, r3
 8003fc8:	f1b9 0f00 	cmp.w	r9, #0
 8003fcc:	dc34      	bgt.n	8004038 <_printf_float+0x39c>
 8003fce:	f04f 0800 	mov.w	r8, #0
 8003fd2:	ea29 79e9 	bic.w	r9, r9, r9, asr #31
 8003fd6:	f104 0a1a 	add.w	sl, r4, #26
 8003fda:	e9dd 230d 	ldrd	r2, r3, [sp, #52]	; 0x34
 8003fde:	1a9b      	subs	r3, r3, r2
 8003fe0:	eba3 0309 	sub.w	r3, r3, r9
 8003fe4:	4543      	cmp	r3, r8
 8003fe6:	f77f af7a 	ble.w	8003ede <_printf_float+0x242>
 8003fea:	2301      	movs	r3, #1
 8003fec:	4652      	mov	r2, sl
 8003fee:	4631      	mov	r1, r6
 8003ff0:	4628      	mov	r0, r5
 8003ff2:	47b8      	blx	r7
 8003ff4:	3001      	adds	r0, #1
 8003ff6:	f43f aeac 	beq.w	8003d52 <_printf_float+0xb6>
 8003ffa:	f108 0801 	add.w	r8, r8, #1
 8003ffe:	e7ec      	b.n	8003fda <_printf_float+0x33e>
 8004000:	4613      	mov	r3, r2
 8004002:	4631      	mov	r1, r6
 8004004:	4642      	mov	r2, r8
 8004006:	4628      	mov	r0, r5
 8004008:	47b8      	blx	r7
 800400a:	3001      	adds	r0, #1
 800400c:	d1c0      	bne.n	8003f90 <_printf_float+0x2f4>
 800400e:	e6a0      	b.n	8003d52 <_printf_float+0xb6>
 8004010:	2301      	movs	r3, #1
 8004012:	4631      	mov	r1, r6
 8004014:	4628      	mov	r0, r5
 8004016:	920b      	str	r2, [sp, #44]	; 0x2c
 8004018:	47b8      	blx	r7
 800401a:	3001      	adds	r0, #1
 800401c:	f43f ae99 	beq.w	8003d52 <_printf_float+0xb6>
 8004020:	9a0b      	ldr	r2, [sp, #44]	; 0x2c
 8004022:	f10b 0b01 	add.w	fp, fp, #1
 8004026:	e7b9      	b.n	8003f9c <_printf_float+0x300>
 8004028:	4631      	mov	r1, r6
 800402a:	e9dd 2309 	ldrd	r2, r3, [sp, #36]	; 0x24
 800402e:	4628      	mov	r0, r5
 8004030:	47b8      	blx	r7
 8004032:	3001      	adds	r0, #1
 8004034:	d1bf      	bne.n	8003fb6 <_printf_float+0x31a>
 8004036:	e68c      	b.n	8003d52 <_printf_float+0xb6>
 8004038:	464b      	mov	r3, r9
 800403a:	4631      	mov	r1, r6
 800403c:	4628      	mov	r0, r5
 800403e:	eb08 020a 	add.w	r2, r8, sl
 8004042:	47b8      	blx	r7
 8004044:	3001      	adds	r0, #1
 8004046:	d1c2      	bne.n	8003fce <_printf_float+0x332>
 8004048:	e683      	b.n	8003d52 <_printf_float+0xb6>
 800404a:	9a0e      	ldr	r2, [sp, #56]	; 0x38
 800404c:	2a01      	cmp	r2, #1
 800404e:	dc01      	bgt.n	8004054 <_printf_float+0x3b8>
 8004050:	07db      	lsls	r3, r3, #31
 8004052:	d537      	bpl.n	80040c4 <_printf_float+0x428>
 8004054:	2301      	movs	r3, #1
 8004056:	4642      	mov	r2, r8
 8004058:	4631      	mov	r1, r6
 800405a:	4628      	mov	r0, r5
 800405c:	47b8      	blx	r7
 800405e:	3001      	adds	r0, #1
 8004060:	f43f ae77 	beq.w	8003d52 <_printf_float+0xb6>
 8004064:	e9dd 2309 	ldrd	r2, r3, [sp, #36]	; 0x24
 8004068:	4631      	mov	r1, r6
 800406a:	4628      	mov	r0, r5
 800406c:	47b8      	blx	r7
 800406e:	3001      	adds	r0, #1
 8004070:	f43f ae6f 	beq.w	8003d52 <_printf_float+0xb6>
 8004074:	e9d4 0112 	ldrd	r0, r1, [r4, #72]	; 0x48
 8004078:	2200      	movs	r2, #0
 800407a:	2300      	movs	r3, #0
 800407c:	f7fc fc94 	bl	80009a8 <__aeabi_dcmpeq>
 8004080:	b9d8      	cbnz	r0, 80040ba <_printf_float+0x41e>
 8004082:	9b0e      	ldr	r3, [sp, #56]	; 0x38
 8004084:	f108 0201 	add.w	r2, r8, #1
 8004088:	3b01      	subs	r3, #1
 800408a:	4631      	mov	r1, r6
 800408c:	4628      	mov	r0, r5
 800408e:	47b8      	blx	r7
 8004090:	3001      	adds	r0, #1
 8004092:	d10e      	bne.n	80040b2 <_printf_float+0x416>
 8004094:	e65d      	b.n	8003d52 <_printf_float+0xb6>
 8004096:	2301      	movs	r3, #1
 8004098:	464a      	mov	r2, r9
 800409a:	4631      	mov	r1, r6
 800409c:	4628      	mov	r0, r5
 800409e:	47b8      	blx	r7
 80040a0:	3001      	adds	r0, #1
 80040a2:	f43f ae56 	beq.w	8003d52 <_printf_float+0xb6>
 80040a6:	f108 0801 	add.w	r8, r8, #1
 80040aa:	9b0e      	ldr	r3, [sp, #56]	; 0x38
 80040ac:	3b01      	subs	r3, #1
 80040ae:	4543      	cmp	r3, r8
 80040b0:	dcf1      	bgt.n	8004096 <_printf_float+0x3fa>
 80040b2:	4653      	mov	r3, sl
 80040b4:	f104 0250 	add.w	r2, r4, #80	; 0x50
 80040b8:	e6e0      	b.n	8003e7c <_printf_float+0x1e0>
 80040ba:	f04f 0800 	mov.w	r8, #0
 80040be:	f104 091a 	add.w	r9, r4, #26
 80040c2:	e7f2      	b.n	80040aa <_printf_float+0x40e>
 80040c4:	2301      	movs	r3, #1
 80040c6:	4642      	mov	r2, r8
 80040c8:	e7df      	b.n	800408a <_printf_float+0x3ee>
 80040ca:	2301      	movs	r3, #1
 80040cc:	464a      	mov	r2, r9
 80040ce:	4631      	mov	r1, r6
 80040d0:	4628      	mov	r0, r5
 80040d2:	47b8      	blx	r7
 80040d4:	3001      	adds	r0, #1
 80040d6:	f43f ae3c 	beq.w	8003d52 <_printf_float+0xb6>
 80040da:	f108 0801 	add.w	r8, r8, #1
 80040de:	68e3      	ldr	r3, [r4, #12]
 80040e0:	990f      	ldr	r1, [sp, #60]	; 0x3c
 80040e2:	1a5b      	subs	r3, r3, r1
 80040e4:	4543      	cmp	r3, r8
 80040e6:	dcf0      	bgt.n	80040ca <_printf_float+0x42e>
 80040e8:	e6fd      	b.n	8003ee6 <_printf_float+0x24a>
 80040ea:	f04f 0800 	mov.w	r8, #0
 80040ee:	f104 0919 	add.w	r9, r4, #25
 80040f2:	e7f4      	b.n	80040de <_printf_float+0x442>

080040f4 <_printf_common>:
 80040f4:	e92d 47f0 	stmdb	sp!, {r4, r5, r6, r7, r8, r9, sl, lr}
 80040f8:	4616      	mov	r6, r2
 80040fa:	4699      	mov	r9, r3
 80040fc:	688a      	ldr	r2, [r1, #8]
 80040fe:	690b      	ldr	r3, [r1, #16]
 8004100:	4607      	mov	r7, r0
 8004102:	4293      	cmp	r3, r2
 8004104:	bfb8      	it	lt
 8004106:	4613      	movlt	r3, r2
 8004108:	6033      	str	r3, [r6, #0]
 800410a:	f891 2043 	ldrb.w	r2, [r1, #67]	; 0x43
 800410e:	460c      	mov	r4, r1
 8004110:	f8dd 8020 	ldr.w	r8, [sp, #32]
 8004114:	b10a      	cbz	r2, 800411a <_printf_common+0x26>
 8004116:	3301      	adds	r3, #1
 8004118:	6033      	str	r3, [r6, #0]
 800411a:	6823      	ldr	r3, [r4, #0]
 800411c:	0699      	lsls	r1, r3, #26
 800411e:	bf42      	ittt	mi
 8004120:	6833      	ldrmi	r3, [r6, #0]
 8004122:	3302      	addmi	r3, #2
 8004124:	6033      	strmi	r3, [r6, #0]
 8004126:	6825      	ldr	r5, [r4, #0]
 8004128:	f015 0506 	ands.w	r5, r5, #6
 800412c:	d106      	bne.n	800413c <_printf_common+0x48>
 800412e:	f104 0a19 	add.w	sl, r4, #25
 8004132:	68e3      	ldr	r3, [r4, #12]
 8004134:	6832      	ldr	r2, [r6, #0]
 8004136:	1a9b      	subs	r3, r3, r2
 8004138:	42ab      	cmp	r3, r5
 800413a:	dc28      	bgt.n	800418e <_printf_common+0x9a>
 800413c:	f894 2043 	ldrb.w	r2, [r4, #67]	; 0x43
 8004140:	1e13      	subs	r3, r2, #0
 8004142:	6822      	ldr	r2, [r4, #0]
 8004144:	bf18      	it	ne
 8004146:	2301      	movne	r3, #1
 8004148:	0692      	lsls	r2, r2, #26
 800414a:	d42d      	bmi.n	80041a8 <_printf_common+0xb4>
 800414c:	4649      	mov	r1, r9
 800414e:	4638      	mov	r0, r7
 8004150:	f104 0243 	add.w	r2, r4, #67	; 0x43
 8004154:	47c0      	blx	r8
 8004156:	3001      	adds	r0, #1
 8004158:	d020      	beq.n	800419c <_printf_common+0xa8>
 800415a:	6823      	ldr	r3, [r4, #0]
 800415c:	68e5      	ldr	r5, [r4, #12]
 800415e:	f003 0306 	and.w	r3, r3, #6
 8004162:	2b04      	cmp	r3, #4
 8004164:	bf18      	it	ne
 8004166:	2500      	movne	r5, #0
 8004168:	6832      	ldr	r2, [r6, #0]
 800416a:	f04f 0600 	mov.w	r6, #0
 800416e:	68a3      	ldr	r3, [r4, #8]
 8004170:	bf08      	it	eq
 8004172:	1aad      	subeq	r5, r5, r2
 8004174:	6922      	ldr	r2, [r4, #16]
 8004176:	bf08      	it	eq
 8004178:	ea25 75e5 	biceq.w	r5, r5, r5, asr #31
 800417c:	4293      	cmp	r3, r2
 800417e:	bfc4      	itt	gt
 8004180:	1a9b      	subgt	r3, r3, r2
 8004182:	18ed      	addgt	r5, r5, r3
 8004184:	341a      	adds	r4, #26
 8004186:	42b5      	cmp	r5, r6
 8004188:	d11a      	bne.n	80041c0 <_printf_common+0xcc>
 800418a:	2000      	movs	r0, #0
 800418c:	e008      	b.n	80041a0 <_printf_common+0xac>
 800418e:	2301      	movs	r3, #1
 8004190:	4652      	mov	r2, sl
 8004192:	4649      	mov	r1, r9
 8004194:	4638      	mov	r0, r7
 8004196:	47c0      	blx	r8
 8004198:	3001      	adds	r0, #1
 800419a:	d103      	bne.n	80041a4 <_printf_common+0xb0>
 800419c:	f04f 30ff 	mov.w	r0, #4294967295	; 0xffffffff
 80041a0:	e8bd 87f0 	ldmia.w	sp!, {r4, r5, r6, r7, r8, r9, sl, pc}
 80041a4:	3501      	adds	r5, #1
 80041a6:	e7c4      	b.n	8004132 <_printf_common+0x3e>
 80041a8:	2030      	movs	r0, #48	; 0x30
 80041aa:	18e1      	adds	r1, r4, r3
 80041ac:	f881 0043 	strb.w	r0, [r1, #67]	; 0x43
 80041b0:	1c5a      	adds	r2, r3, #1
 80041b2:	f894 1045 	ldrb.w	r1, [r4, #69]	; 0x45
 80041b6:	4422      	add	r2, r4
 80041b8:	3302      	adds	r3, #2
 80041ba:	f882 1043 	strb.w	r1, [r2, #67]	; 0x43
 80041be:	e7c5      	b.n	800414c <_printf_common+0x58>
 80041c0:	2301      	movs	r3, #1
 80041c2:	4622      	mov	r2, r4
 80041c4:	4649      	mov	r1, r9
 80041c6:	4638      	mov	r0, r7
 80041c8:	47c0      	blx	r8
 80041ca:	3001      	adds	r0, #1
 80041cc:	d0e6      	beq.n	800419c <_printf_common+0xa8>
 80041ce:	3601      	adds	r6, #1
 80041d0:	e7d9      	b.n	8004186 <_printf_common+0x92>
	...

080041d4 <_printf_i>:
 80041d4:	e92d 47ff 	stmdb	sp!, {r0, r1, r2, r3, r4, r5, r6, r7, r8, r9, sl, lr}
 80041d8:	460c      	mov	r4, r1
 80041da:	7e27      	ldrb	r7, [r4, #24]
 80041dc:	4691      	mov	r9, r2
 80041de:	2f78      	cmp	r7, #120	; 0x78
 80041e0:	4680      	mov	r8, r0
 80041e2:	469a      	mov	sl, r3
 80041e4:	990c      	ldr	r1, [sp, #48]	; 0x30
 80041e6:	f104 0243 	add.w	r2, r4, #67	; 0x43
 80041ea:	d807      	bhi.n	80041fc <_printf_i+0x28>
 80041ec:	2f62      	cmp	r7, #98	; 0x62
 80041ee:	d80a      	bhi.n	8004206 <_printf_i+0x32>
 80041f0:	2f00      	cmp	r7, #0
 80041f2:	f000 80d9 	beq.w	80043a8 <_printf_i+0x1d4>
 80041f6:	2f58      	cmp	r7, #88	; 0x58
 80041f8:	f000 80a4 	beq.w	8004344 <_printf_i+0x170>
 80041fc:	f104 0642 	add.w	r6, r4, #66	; 0x42
 8004200:	f884 7042 	strb.w	r7, [r4, #66]	; 0x42
 8004204:	e03a      	b.n	800427c <_printf_i+0xa8>
 8004206:	f1a7 0363 	sub.w	r3, r7, #99	; 0x63
 800420a:	2b15      	cmp	r3, #21
 800420c:	d8f6      	bhi.n	80041fc <_printf_i+0x28>
 800420e:	a001      	add	r0, pc, #4	; (adr r0, 8004214 <_printf_i+0x40>)
 8004210:	f850 f023 	ldr.w	pc, [r0, r3, lsl #2]
 8004214:	0800426d 	.word	0x0800426d
 8004218:	08004281 	.word	0x08004281
 800421c:	080041fd 	.word	0x080041fd
 8004220:	080041fd 	.word	0x080041fd
 8004224:	080041fd 	.word	0x080041fd
 8004228:	080041fd 	.word	0x080041fd
 800422c:	08004281 	.word	0x08004281
 8004230:	080041fd 	.word	0x080041fd
 8004234:	080041fd 	.word	0x080041fd
 8004238:	080041fd 	.word	0x080041fd
 800423c:	080041fd 	.word	0x080041fd
 8004240:	0800438f 	.word	0x0800438f
 8004244:	080042b1 	.word	0x080042b1
 8004248:	08004371 	.word	0x08004371
 800424c:	080041fd 	.word	0x080041fd
 8004250:	080041fd 	.word	0x080041fd
 8004254:	080043b1 	.word	0x080043b1
 8004258:	080041fd 	.word	0x080041fd
 800425c:	080042b1 	.word	0x080042b1
 8004260:	080041fd 	.word	0x080041fd
 8004264:	080041fd 	.word	0x080041fd
 8004268:	08004379 	.word	0x08004379
 800426c:	680b      	ldr	r3, [r1, #0]
 800426e:	f104 0642 	add.w	r6, r4, #66	; 0x42
 8004272:	1d1a      	adds	r2, r3, #4
 8004274:	681b      	ldr	r3, [r3, #0]
 8004276:	600a      	str	r2, [r1, #0]
 8004278:	f884 3042 	strb.w	r3, [r4, #66]	; 0x42
 800427c:	2301      	movs	r3, #1
 800427e:	e0a4      	b.n	80043ca <_printf_i+0x1f6>
 8004280:	6825      	ldr	r5, [r4, #0]
 8004282:	6808      	ldr	r0, [r1, #0]
 8004284:	062e      	lsls	r6, r5, #24
 8004286:	f100 0304 	add.w	r3, r0, #4
 800428a:	d50a      	bpl.n	80042a2 <_printf_i+0xce>
 800428c:	6805      	ldr	r5, [r0, #0]
 800428e:	600b      	str	r3, [r1, #0]
 8004290:	2d00      	cmp	r5, #0
 8004292:	da03      	bge.n	800429c <_printf_i+0xc8>
 8004294:	232d      	movs	r3, #45	; 0x2d
 8004296:	426d      	negs	r5, r5
 8004298:	f884 3043 	strb.w	r3, [r4, #67]	; 0x43
 800429c:	230a      	movs	r3, #10
 800429e:	485e      	ldr	r0, [pc, #376]	; (8004418 <_printf_i+0x244>)
 80042a0:	e019      	b.n	80042d6 <_printf_i+0x102>
 80042a2:	f015 0f40 	tst.w	r5, #64	; 0x40
 80042a6:	6805      	ldr	r5, [r0, #0]
 80042a8:	600b      	str	r3, [r1, #0]
 80042aa:	bf18      	it	ne
 80042ac:	b22d      	sxthne	r5, r5
 80042ae:	e7ef      	b.n	8004290 <_printf_i+0xbc>
 80042b0:	680b      	ldr	r3, [r1, #0]
 80042b2:	6825      	ldr	r5, [r4, #0]
 80042b4:	1d18      	adds	r0, r3, #4
 80042b6:	6008      	str	r0, [r1, #0]
 80042b8:	0628      	lsls	r0, r5, #24
 80042ba:	d501      	bpl.n	80042c0 <_printf_i+0xec>
 80042bc:	681d      	ldr	r5, [r3, #0]
 80042be:	e002      	b.n	80042c6 <_printf_i+0xf2>
 80042c0:	0669      	lsls	r1, r5, #25
 80042c2:	d5fb      	bpl.n	80042bc <_printf_i+0xe8>
 80042c4:	881d      	ldrh	r5, [r3, #0]
 80042c6:	2f6f      	cmp	r7, #111	; 0x6f
 80042c8:	bf0c      	ite	eq
 80042ca:	2308      	moveq	r3, #8
 80042cc:	230a      	movne	r3, #10
 80042ce:	4852      	ldr	r0, [pc, #328]	; (8004418 <_printf_i+0x244>)
 80042d0:	2100      	movs	r1, #0
 80042d2:	f884 1043 	strb.w	r1, [r4, #67]	; 0x43
 80042d6:	6866      	ldr	r6, [r4, #4]
 80042d8:	2e00      	cmp	r6, #0
 80042da:	bfa8      	it	ge
 80042dc:	6821      	ldrge	r1, [r4, #0]
 80042de:	60a6      	str	r6, [r4, #8]
 80042e0:	bfa4      	itt	ge
 80042e2:	f021 0104 	bicge.w	r1, r1, #4
 80042e6:	6021      	strge	r1, [r4, #0]
 80042e8:	b90d      	cbnz	r5, 80042ee <_printf_i+0x11a>
 80042ea:	2e00      	cmp	r6, #0
 80042ec:	d04d      	beq.n	800438a <_printf_i+0x1b6>
 80042ee:	4616      	mov	r6, r2
 80042f0:	fbb5 f1f3 	udiv	r1, r5, r3
 80042f4:	fb03 5711 	mls	r7, r3, r1, r5
 80042f8:	5dc7      	ldrb	r7, [r0, r7]
 80042fa:	f806 7d01 	strb.w	r7, [r6, #-1]!
 80042fe:	462f      	mov	r7, r5
 8004300:	42bb      	cmp	r3, r7
 8004302:	460d      	mov	r5, r1
 8004304:	d9f4      	bls.n	80042f0 <_printf_i+0x11c>
 8004306:	2b08      	cmp	r3, #8
 8004308:	d10b      	bne.n	8004322 <_printf_i+0x14e>
 800430a:	6823      	ldr	r3, [r4, #0]
 800430c:	07df      	lsls	r7, r3, #31
 800430e:	d508      	bpl.n	8004322 <_printf_i+0x14e>
 8004310:	6923      	ldr	r3, [r4, #16]
 8004312:	6861      	ldr	r1, [r4, #4]
 8004314:	4299      	cmp	r1, r3
 8004316:	bfde      	ittt	le
 8004318:	2330      	movle	r3, #48	; 0x30
 800431a:	f806 3c01 	strble.w	r3, [r6, #-1]
 800431e:	f106 36ff 	addle.w	r6, r6, #4294967295	; 0xffffffff
 8004322:	1b92      	subs	r2, r2, r6
 8004324:	6122      	str	r2, [r4, #16]
 8004326:	464b      	mov	r3, r9
 8004328:	4621      	mov	r1, r4
 800432a:	4640      	mov	r0, r8
 800432c:	f8cd a000 	str.w	sl, [sp]
 8004330:	aa03      	add	r2, sp, #12
 8004332:	f7ff fedf 	bl	80040f4 <_printf_common>
 8004336:	3001      	adds	r0, #1
 8004338:	d14c      	bne.n	80043d4 <_printf_i+0x200>
 800433a:	f04f 30ff 	mov.w	r0, #4294967295	; 0xffffffff
 800433e:	b004      	add	sp, #16
 8004340:	e8bd 87f0 	ldmia.w	sp!, {r4, r5, r6, r7, r8, r9, sl, pc}
 8004344:	4834      	ldr	r0, [pc, #208]	; (8004418 <_printf_i+0x244>)
 8004346:	f884 7045 	strb.w	r7, [r4, #69]	; 0x45
 800434a:	680e      	ldr	r6, [r1, #0]
 800434c:	6823      	ldr	r3, [r4, #0]
 800434e:	f856 5b04 	ldr.w	r5, [r6], #4
 8004352:	061f      	lsls	r7, r3, #24
 8004354:	600e      	str	r6, [r1, #0]
 8004356:	d514      	bpl.n	8004382 <_printf_i+0x1ae>
 8004358:	07d9      	lsls	r1, r3, #31
 800435a:	bf44      	itt	mi
 800435c:	f043 0320 	orrmi.w	r3, r3, #32
 8004360:	6023      	strmi	r3, [r4, #0]
 8004362:	b91d      	cbnz	r5, 800436c <_printf_i+0x198>
 8004364:	6823      	ldr	r3, [r4, #0]
 8004366:	f023 0320 	bic.w	r3, r3, #32
 800436a:	6023      	str	r3, [r4, #0]
 800436c:	2310      	movs	r3, #16
 800436e:	e7af      	b.n	80042d0 <_printf_i+0xfc>
 8004370:	6823      	ldr	r3, [r4, #0]
 8004372:	f043 0320 	orr.w	r3, r3, #32
 8004376:	6023      	str	r3, [r4, #0]
 8004378:	2378      	movs	r3, #120	; 0x78
 800437a:	4828      	ldr	r0, [pc, #160]	; (800441c <_printf_i+0x248>)
 800437c:	f884 3045 	strb.w	r3, [r4, #69]	; 0x45
 8004380:	e7e3      	b.n	800434a <_printf_i+0x176>
 8004382:	065e      	lsls	r6, r3, #25
 8004384:	bf48      	it	mi
 8004386:	b2ad      	uxthmi	r5, r5
 8004388:	e7e6      	b.n	8004358 <_printf_i+0x184>
 800438a:	4616      	mov	r6, r2
 800438c:	e7bb      	b.n	8004306 <_printf_i+0x132>
 800438e:	680b      	ldr	r3, [r1, #0]
 8004390:	6826      	ldr	r6, [r4, #0]
 8004392:	1d1d      	adds	r5, r3, #4
 8004394:	6960      	ldr	r0, [r4, #20]
 8004396:	600d      	str	r5, [r1, #0]
 8004398:	0635      	lsls	r5, r6, #24
 800439a:	681b      	ldr	r3, [r3, #0]
 800439c:	d501      	bpl.n	80043a2 <_printf_i+0x1ce>
 800439e:	6018      	str	r0, [r3, #0]
 80043a0:	e002      	b.n	80043a8 <_printf_i+0x1d4>
 80043a2:	0671      	lsls	r1, r6, #25
 80043a4:	d5fb      	bpl.n	800439e <_printf_i+0x1ca>
 80043a6:	8018      	strh	r0, [r3, #0]
 80043a8:	2300      	movs	r3, #0
 80043aa:	4616      	mov	r6, r2
 80043ac:	6123      	str	r3, [r4, #16]
 80043ae:	e7ba      	b.n	8004326 <_printf_i+0x152>
 80043b0:	680b      	ldr	r3, [r1, #0]
 80043b2:	1d1a      	adds	r2, r3, #4
 80043b4:	600a      	str	r2, [r1, #0]
 80043b6:	681e      	ldr	r6, [r3, #0]
 80043b8:	2100      	movs	r1, #0
 80043ba:	4630      	mov	r0, r6
 80043bc:	6862      	ldr	r2, [r4, #4]
 80043be:	f000 fee1 	bl	8005184 <memchr>
 80043c2:	b108      	cbz	r0, 80043c8 <_printf_i+0x1f4>
 80043c4:	1b80      	subs	r0, r0, r6
 80043c6:	6060      	str	r0, [r4, #4]
 80043c8:	6863      	ldr	r3, [r4, #4]
 80043ca:	6123      	str	r3, [r4, #16]
 80043cc:	2300      	movs	r3, #0
 80043ce:	f884 3043 	strb.w	r3, [r4, #67]	; 0x43
 80043d2:	e7a8      	b.n	8004326 <_printf_i+0x152>
 80043d4:	4632      	mov	r2, r6
 80043d6:	4649      	mov	r1, r9
 80043d8:	4640      	mov	r0, r8
 80043da:	6923      	ldr	r3, [r4, #16]
 80043dc:	47d0      	blx	sl
 80043de:	3001      	adds	r0, #1
 80043e0:	d0ab      	beq.n	800433a <_printf_i+0x166>
 80043e2:	6823      	ldr	r3, [r4, #0]
 80043e4:	079b      	lsls	r3, r3, #30
 80043e6:	d413      	bmi.n	8004410 <_printf_i+0x23c>
 80043e8:	68e0      	ldr	r0, [r4, #12]
 80043ea:	9b03      	ldr	r3, [sp, #12]
 80043ec:	4298      	cmp	r0, r3
 80043ee:	bfb8      	it	lt
 80043f0:	4618      	movlt	r0, r3
 80043f2:	e7a4      	b.n	800433e <_printf_i+0x16a>
 80043f4:	2301      	movs	r3, #1
 80043f6:	4632      	mov	r2, r6
 80043f8:	4649      	mov	r1, r9
 80043fa:	4640      	mov	r0, r8
 80043fc:	47d0      	blx	sl
 80043fe:	3001      	adds	r0, #1
 8004400:	d09b      	beq.n	800433a <_printf_i+0x166>
 8004402:	3501      	adds	r5, #1
 8004404:	68e3      	ldr	r3, [r4, #12]
 8004406:	9903      	ldr	r1, [sp, #12]
 8004408:	1a5b      	subs	r3, r3, r1
 800440a:	42ab      	cmp	r3, r5
 800440c:	dcf2      	bgt.n	80043f4 <_printf_i+0x220>
 800440e:	e7eb      	b.n	80043e8 <_printf_i+0x214>
 8004410:	2500      	movs	r5, #0
 8004412:	f104 0619 	add.w	r6, r4, #25
 8004416:	e7f5      	b.n	8004404 <_printf_i+0x230>
 8004418:	0800693a 	.word	0x0800693a
 800441c:	0800694b 	.word	0x0800694b

08004420 <siprintf>:
 8004420:	b40e      	push	{r1, r2, r3}
 8004422:	f06f 4100 	mvn.w	r1, #2147483648	; 0x80000000
 8004426:	b500      	push	{lr}
 8004428:	b09c      	sub	sp, #112	; 0x70
 800442a:	ab1d      	add	r3, sp, #116	; 0x74
 800442c:	9002      	str	r0, [sp, #8]
 800442e:	9006      	str	r0, [sp, #24]
 8004430:	9107      	str	r1, [sp, #28]
 8004432:	9104      	str	r1, [sp, #16]
 8004434:	4808      	ldr	r0, [pc, #32]	; (8004458 <siprintf+0x38>)
 8004436:	4909      	ldr	r1, [pc, #36]	; (800445c <siprintf+0x3c>)
 8004438:	f853 2b04 	ldr.w	r2, [r3], #4
 800443c:	9105      	str	r1, [sp, #20]
 800443e:	6800      	ldr	r0, [r0, #0]
 8004440:	a902      	add	r1, sp, #8
 8004442:	9301      	str	r3, [sp, #4]
 8004444:	f001 fb4c 	bl	8005ae0 <_svfiprintf_r>
 8004448:	2200      	movs	r2, #0
 800444a:	9b02      	ldr	r3, [sp, #8]
 800444c:	701a      	strb	r2, [r3, #0]
 800444e:	b01c      	add	sp, #112	; 0x70
 8004450:	f85d eb04 	ldr.w	lr, [sp], #4
 8004454:	b003      	add	sp, #12
 8004456:	4770      	bx	lr
 8004458:	20000010 	.word	0x20000010
 800445c:	ffff0208 	.word	0xffff0208

08004460 <strcpy>:
 8004460:	4603      	mov	r3, r0
 8004462:	f811 2b01 	ldrb.w	r2, [r1], #1
 8004466:	f803 2b01 	strb.w	r2, [r3], #1
 800446a:	2a00      	cmp	r2, #0
 800446c:	d1f9      	bne.n	8004462 <strcpy+0x2>
 800446e:	4770      	bx	lr

08004470 <quorem>:
 8004470:	e92d 4ff7 	stmdb	sp!, {r0, r1, r2, r4, r5, r6, r7, r8, r9, sl, fp, lr}
 8004474:	6903      	ldr	r3, [r0, #16]
 8004476:	690c      	ldr	r4, [r1, #16]
 8004478:	4607      	mov	r7, r0
 800447a:	42a3      	cmp	r3, r4
 800447c:	f2c0 8083 	blt.w	8004586 <quorem+0x116>
 8004480:	3c01      	subs	r4, #1
 8004482:	f100 0514 	add.w	r5, r0, #20
 8004486:	f101 0814 	add.w	r8, r1, #20
 800448a:	eb05 0384 	add.w	r3, r5, r4, lsl #2
 800448e:	9301      	str	r3, [sp, #4]
 8004490:	f858 3024 	ldr.w	r3, [r8, r4, lsl #2]
 8004494:	f855 2024 	ldr.w	r2, [r5, r4, lsl #2]
 8004498:	3301      	adds	r3, #1
 800449a:	429a      	cmp	r2, r3
 800449c:	fbb2 f6f3 	udiv	r6, r2, r3
 80044a0:	ea4f 0b84 	mov.w	fp, r4, lsl #2
 80044a4:	eb08 0984 	add.w	r9, r8, r4, lsl #2
 80044a8:	d332      	bcc.n	8004510 <quorem+0xa0>
 80044aa:	f04f 0e00 	mov.w	lr, #0
 80044ae:	4640      	mov	r0, r8
 80044b0:	46ac      	mov	ip, r5
 80044b2:	46f2      	mov	sl, lr
 80044b4:	f850 2b04 	ldr.w	r2, [r0], #4
 80044b8:	b293      	uxth	r3, r2
 80044ba:	fb06 e303 	mla	r3, r6, r3, lr
 80044be:	0c12      	lsrs	r2, r2, #16
 80044c0:	ea4f 4e13 	mov.w	lr, r3, lsr #16
 80044c4:	fb06 e202 	mla	r2, r6, r2, lr
 80044c8:	b29b      	uxth	r3, r3
 80044ca:	ebaa 0303 	sub.w	r3, sl, r3
 80044ce:	f8dc a000 	ldr.w	sl, [ip]
 80044d2:	ea4f 4e12 	mov.w	lr, r2, lsr #16
 80044d6:	fa1f fa8a 	uxth.w	sl, sl
 80044da:	4453      	add	r3, sl
 80044dc:	fa1f fa82 	uxth.w	sl, r2
 80044e0:	f8dc 2000 	ldr.w	r2, [ip]
 80044e4:	4581      	cmp	r9, r0
 80044e6:	ebca 4212 	rsb	r2, sl, r2, lsr #16
 80044ea:	eb02 4223 	add.w	r2, r2, r3, asr #16
 80044ee:	b29b      	uxth	r3, r3
 80044f0:	ea43 4302 	orr.w	r3, r3, r2, lsl #16
 80044f4:	ea4f 4a22 	mov.w	sl, r2, asr #16
 80044f8:	f84c 3b04 	str.w	r3, [ip], #4
 80044fc:	d2da      	bcs.n	80044b4 <quorem+0x44>
 80044fe:	f855 300b 	ldr.w	r3, [r5, fp]
 8004502:	b92b      	cbnz	r3, 8004510 <quorem+0xa0>
 8004504:	9b01      	ldr	r3, [sp, #4]
 8004506:	3b04      	subs	r3, #4
 8004508:	429d      	cmp	r5, r3
 800450a:	461a      	mov	r2, r3
 800450c:	d32f      	bcc.n	800456e <quorem+0xfe>
 800450e:	613c      	str	r4, [r7, #16]
 8004510:	4638      	mov	r0, r7
 8004512:	f001 f8cd 	bl	80056b0 <__mcmp>
 8004516:	2800      	cmp	r0, #0
 8004518:	db25      	blt.n	8004566 <quorem+0xf6>
 800451a:	4628      	mov	r0, r5
 800451c:	f04f 0c00 	mov.w	ip, #0
 8004520:	3601      	adds	r6, #1
 8004522:	f858 1b04 	ldr.w	r1, [r8], #4
 8004526:	f8d0 e000 	ldr.w	lr, [r0]
 800452a:	b28b      	uxth	r3, r1
 800452c:	ebac 0303 	sub.w	r3, ip, r3
 8004530:	fa1f f28e 	uxth.w	r2, lr
 8004534:	4413      	add	r3, r2
 8004536:	0c0a      	lsrs	r2, r1, #16
 8004538:	ebc2 421e 	rsb	r2, r2, lr, lsr #16
 800453c:	eb02 4223 	add.w	r2, r2, r3, asr #16
 8004540:	b29b      	uxth	r3, r3
 8004542:	ea43 4302 	orr.w	r3, r3, r2, lsl #16
 8004546:	45c1      	cmp	r9, r8
 8004548:	ea4f 4c22 	mov.w	ip, r2, asr #16
 800454c:	f840 3b04 	str.w	r3, [r0], #4
 8004550:	d2e7      	bcs.n	8004522 <quorem+0xb2>
 8004552:	f855 2024 	ldr.w	r2, [r5, r4, lsl #2]
 8004556:	eb05 0384 	add.w	r3, r5, r4, lsl #2
 800455a:	b922      	cbnz	r2, 8004566 <quorem+0xf6>
 800455c:	3b04      	subs	r3, #4
 800455e:	429d      	cmp	r5, r3
 8004560:	461a      	mov	r2, r3
 8004562:	d30a      	bcc.n	800457a <quorem+0x10a>
 8004564:	613c      	str	r4, [r7, #16]
 8004566:	4630      	mov	r0, r6
 8004568:	b003      	add	sp, #12
 800456a:	e8bd 8ff0 	ldmia.w	sp!, {r4, r5, r6, r7, r8, r9, sl, fp, pc}
 800456e:	6812      	ldr	r2, [r2, #0]
 8004570:	3b04      	subs	r3, #4
 8004572:	2a00      	cmp	r2, #0
 8004574:	d1cb      	bne.n	800450e <quorem+0x9e>
 8004576:	3c01      	subs	r4, #1
 8004578:	e7c6      	b.n	8004508 <quorem+0x98>
 800457a:	6812      	ldr	r2, [r2, #0]
 800457c:	3b04      	subs	r3, #4
 800457e:	2a00      	cmp	r2, #0
 8004580:	d1f0      	bne.n	8004564 <quorem+0xf4>
 8004582:	3c01      	subs	r4, #1
 8004584:	e7eb      	b.n	800455e <quorem+0xee>
 8004586:	2000      	movs	r0, #0
 8004588:	e7ee      	b.n	8004568 <quorem+0xf8>
 800458a:	0000      	movs	r0, r0
 800458c:	0000      	movs	r0, r0
	...

08004590 <_dtoa_r>:
 8004590:	e92d 4ff0 	stmdb	sp!, {r4, r5, r6, r7, r8, r9, sl, fp, lr}
 8004594:	4616      	mov	r6, r2
 8004596:	461f      	mov	r7, r3
 8004598:	6a44      	ldr	r4, [r0, #36]	; 0x24
 800459a:	b099      	sub	sp, #100	; 0x64
 800459c:	4605      	mov	r5, r0
 800459e:	e9cd 6704 	strd	r6, r7, [sp, #16]
 80045a2:	f8dd 8094 	ldr.w	r8, [sp, #148]	; 0x94
 80045a6:	b974      	cbnz	r4, 80045c6 <_dtoa_r+0x36>
 80045a8:	2010      	movs	r0, #16
 80045aa:	f000 fde3 	bl	8005174 <malloc>
 80045ae:	4602      	mov	r2, r0
 80045b0:	6268      	str	r0, [r5, #36]	; 0x24
 80045b2:	b920      	cbnz	r0, 80045be <_dtoa_r+0x2e>
 80045b4:	21ea      	movs	r1, #234	; 0xea
 80045b6:	4bae      	ldr	r3, [pc, #696]	; (8004870 <_dtoa_r+0x2e0>)
 80045b8:	48ae      	ldr	r0, [pc, #696]	; (8004874 <_dtoa_r+0x2e4>)
 80045ba:	f001 fba1 	bl	8005d00 <__assert_func>
 80045be:	e9c0 4401 	strd	r4, r4, [r0, #4]
 80045c2:	6004      	str	r4, [r0, #0]
 80045c4:	60c4      	str	r4, [r0, #12]
 80045c6:	6a6b      	ldr	r3, [r5, #36]	; 0x24
 80045c8:	6819      	ldr	r1, [r3, #0]
 80045ca:	b151      	cbz	r1, 80045e2 <_dtoa_r+0x52>
 80045cc:	685a      	ldr	r2, [r3, #4]
 80045ce:	2301      	movs	r3, #1
 80045d0:	4093      	lsls	r3, r2
 80045d2:	604a      	str	r2, [r1, #4]
 80045d4:	608b      	str	r3, [r1, #8]
 80045d6:	4628      	mov	r0, r5
 80045d8:	f000 fe30 	bl	800523c <_Bfree>
 80045dc:	2200      	movs	r2, #0
 80045de:	6a6b      	ldr	r3, [r5, #36]	; 0x24
 80045e0:	601a      	str	r2, [r3, #0]
 80045e2:	1e3b      	subs	r3, r7, #0
 80045e4:	bfaf      	iteee	ge
 80045e6:	2300      	movge	r3, #0
 80045e8:	2201      	movlt	r2, #1
 80045ea:	f023 4300 	biclt.w	r3, r3, #2147483648	; 0x80000000
 80045ee:	9305      	strlt	r3, [sp, #20]
 80045f0:	bfa8      	it	ge
 80045f2:	f8c8 3000 	strge.w	r3, [r8]
 80045f6:	f8dd 9014 	ldr.w	r9, [sp, #20]
 80045fa:	4b9f      	ldr	r3, [pc, #636]	; (8004878 <_dtoa_r+0x2e8>)
 80045fc:	bfb8      	it	lt
 80045fe:	f8c8 2000 	strlt.w	r2, [r8]
 8004602:	ea33 0309 	bics.w	r3, r3, r9
 8004606:	d119      	bne.n	800463c <_dtoa_r+0xac>
 8004608:	f242 730f 	movw	r3, #9999	; 0x270f
 800460c:	9a24      	ldr	r2, [sp, #144]	; 0x90
 800460e:	6013      	str	r3, [r2, #0]
 8004610:	f3c9 0313 	ubfx	r3, r9, #0, #20
 8004614:	4333      	orrs	r3, r6
 8004616:	f000 8580 	beq.w	800511a <_dtoa_r+0xb8a>
 800461a:	9b26      	ldr	r3, [sp, #152]	; 0x98
 800461c:	b953      	cbnz	r3, 8004634 <_dtoa_r+0xa4>
 800461e:	4b97      	ldr	r3, [pc, #604]	; (800487c <_dtoa_r+0x2ec>)
 8004620:	e022      	b.n	8004668 <_dtoa_r+0xd8>
 8004622:	4b97      	ldr	r3, [pc, #604]	; (8004880 <_dtoa_r+0x2f0>)
 8004624:	9308      	str	r3, [sp, #32]
 8004626:	3308      	adds	r3, #8
 8004628:	9a26      	ldr	r2, [sp, #152]	; 0x98
 800462a:	6013      	str	r3, [r2, #0]
 800462c:	9808      	ldr	r0, [sp, #32]
 800462e:	b019      	add	sp, #100	; 0x64
 8004630:	e8bd 8ff0 	ldmia.w	sp!, {r4, r5, r6, r7, r8, r9, sl, fp, pc}
 8004634:	4b91      	ldr	r3, [pc, #580]	; (800487c <_dtoa_r+0x2ec>)
 8004636:	9308      	str	r3, [sp, #32]
 8004638:	3303      	adds	r3, #3
 800463a:	e7f5      	b.n	8004628 <_dtoa_r+0x98>
 800463c:	e9dd 3404 	ldrd	r3, r4, [sp, #16]
 8004640:	e9cd 340c 	strd	r3, r4, [sp, #48]	; 0x30
 8004644:	e9dd 010c 	ldrd	r0, r1, [sp, #48]	; 0x30
 8004648:	2200      	movs	r2, #0
 800464a:	2300      	movs	r3, #0
 800464c:	f7fc f9ac 	bl	80009a8 <__aeabi_dcmpeq>
 8004650:	4680      	mov	r8, r0
 8004652:	b158      	cbz	r0, 800466c <_dtoa_r+0xdc>
 8004654:	2301      	movs	r3, #1
 8004656:	9a24      	ldr	r2, [sp, #144]	; 0x90
 8004658:	6013      	str	r3, [r2, #0]
 800465a:	9b26      	ldr	r3, [sp, #152]	; 0x98
 800465c:	2b00      	cmp	r3, #0
 800465e:	f000 8559 	beq.w	8005114 <_dtoa_r+0xb84>
 8004662:	4888      	ldr	r0, [pc, #544]	; (8004884 <_dtoa_r+0x2f4>)
 8004664:	6018      	str	r0, [r3, #0]
 8004666:	1e43      	subs	r3, r0, #1
 8004668:	9308      	str	r3, [sp, #32]
 800466a:	e7df      	b.n	800462c <_dtoa_r+0x9c>
 800466c:	ab16      	add	r3, sp, #88	; 0x58
 800466e:	9301      	str	r3, [sp, #4]
 8004670:	ab17      	add	r3, sp, #92	; 0x5c
 8004672:	9300      	str	r3, [sp, #0]
 8004674:	4628      	mov	r0, r5
 8004676:	e9dd 230c 	ldrd	r2, r3, [sp, #48]	; 0x30
 800467a:	f001 f8c5 	bl	8005808 <__d2b>
 800467e:	f3c9 540a 	ubfx	r4, r9, #20, #11
 8004682:	4682      	mov	sl, r0
 8004684:	2c00      	cmp	r4, #0
 8004686:	d07e      	beq.n	8004786 <_dtoa_r+0x1f6>
 8004688:	e9dd 010c 	ldrd	r0, r1, [sp, #48]	; 0x30
 800468c:	9b0d      	ldr	r3, [sp, #52]	; 0x34
 800468e:	f2a4 34ff 	subw	r4, r4, #1023	; 0x3ff
 8004692:	f3c3 0313 	ubfx	r3, r3, #0, #20
 8004696:	f043 517f 	orr.w	r1, r3, #1069547520	; 0x3fc00000
 800469a:	f441 1140 	orr.w	r1, r1, #3145728	; 0x300000
 800469e:	f8cd 804c 	str.w	r8, [sp, #76]	; 0x4c
 80046a2:	2200      	movs	r2, #0
 80046a4:	4b78      	ldr	r3, [pc, #480]	; (8004888 <_dtoa_r+0x2f8>)
 80046a6:	f7fb fd5f 	bl	8000168 <__aeabi_dsub>
 80046aa:	a36b      	add	r3, pc, #428	; (adr r3, 8004858 <_dtoa_r+0x2c8>)
 80046ac:	e9d3 2300 	ldrd	r2, r3, [r3]
 80046b0:	f7fb ff12 	bl	80004d8 <__aeabi_dmul>
 80046b4:	a36a      	add	r3, pc, #424	; (adr r3, 8004860 <_dtoa_r+0x2d0>)
 80046b6:	e9d3 2300 	ldrd	r2, r3, [r3]
 80046ba:	f7fb fd57 	bl	800016c <__adddf3>
 80046be:	4606      	mov	r6, r0
 80046c0:	4620      	mov	r0, r4
 80046c2:	460f      	mov	r7, r1
 80046c4:	f7fb fe9e 	bl	8000404 <__aeabi_i2d>
 80046c8:	a367      	add	r3, pc, #412	; (adr r3, 8004868 <_dtoa_r+0x2d8>)
 80046ca:	e9d3 2300 	ldrd	r2, r3, [r3]
 80046ce:	f7fb ff03 	bl	80004d8 <__aeabi_dmul>
 80046d2:	4602      	mov	r2, r0
 80046d4:	460b      	mov	r3, r1
 80046d6:	4630      	mov	r0, r6
 80046d8:	4639      	mov	r1, r7
 80046da:	f7fb fd47 	bl	800016c <__adddf3>
 80046de:	4606      	mov	r6, r0
 80046e0:	460f      	mov	r7, r1
 80046e2:	f7fc f9a9 	bl	8000a38 <__aeabi_d2iz>
 80046e6:	2200      	movs	r2, #0
 80046e8:	4681      	mov	r9, r0
 80046ea:	2300      	movs	r3, #0
 80046ec:	4630      	mov	r0, r6
 80046ee:	4639      	mov	r1, r7
 80046f0:	f7fc f964 	bl	80009bc <__aeabi_dcmplt>
 80046f4:	b148      	cbz	r0, 800470a <_dtoa_r+0x17a>
 80046f6:	4648      	mov	r0, r9
 80046f8:	f7fb fe84 	bl	8000404 <__aeabi_i2d>
 80046fc:	4632      	mov	r2, r6
 80046fe:	463b      	mov	r3, r7
 8004700:	f7fc f952 	bl	80009a8 <__aeabi_dcmpeq>
 8004704:	b908      	cbnz	r0, 800470a <_dtoa_r+0x17a>
 8004706:	f109 39ff 	add.w	r9, r9, #4294967295	; 0xffffffff
 800470a:	f1b9 0f16 	cmp.w	r9, #22
 800470e:	d857      	bhi.n	80047c0 <_dtoa_r+0x230>
 8004710:	e9dd 010c 	ldrd	r0, r1, [sp, #48]	; 0x30
 8004714:	4b5d      	ldr	r3, [pc, #372]	; (800488c <_dtoa_r+0x2fc>)
 8004716:	eb03 03c9 	add.w	r3, r3, r9, lsl #3
 800471a:	e9d3 2300 	ldrd	r2, r3, [r3]
 800471e:	f7fc f94d 	bl	80009bc <__aeabi_dcmplt>
 8004722:	2800      	cmp	r0, #0
 8004724:	d04e      	beq.n	80047c4 <_dtoa_r+0x234>
 8004726:	2300      	movs	r3, #0
 8004728:	f109 39ff 	add.w	r9, r9, #4294967295	; 0xffffffff
 800472c:	930f      	str	r3, [sp, #60]	; 0x3c
 800472e:	9b16      	ldr	r3, [sp, #88]	; 0x58
 8004730:	1b1c      	subs	r4, r3, r4
 8004732:	1e63      	subs	r3, r4, #1
 8004734:	9309      	str	r3, [sp, #36]	; 0x24
 8004736:	bf49      	itett	mi
 8004738:	f1c4 0301 	rsbmi	r3, r4, #1
 800473c:	2300      	movpl	r3, #0
 800473e:	9306      	strmi	r3, [sp, #24]
 8004740:	2300      	movmi	r3, #0
 8004742:	bf54      	ite	pl
 8004744:	9306      	strpl	r3, [sp, #24]
 8004746:	9309      	strmi	r3, [sp, #36]	; 0x24
 8004748:	f1b9 0f00 	cmp.w	r9, #0
 800474c:	db3c      	blt.n	80047c8 <_dtoa_r+0x238>
 800474e:	9b09      	ldr	r3, [sp, #36]	; 0x24
 8004750:	f8cd 9038 	str.w	r9, [sp, #56]	; 0x38
 8004754:	444b      	add	r3, r9
 8004756:	9309      	str	r3, [sp, #36]	; 0x24
 8004758:	2300      	movs	r3, #0
 800475a:	930a      	str	r3, [sp, #40]	; 0x28
 800475c:	9b22      	ldr	r3, [sp, #136]	; 0x88
 800475e:	2b09      	cmp	r3, #9
 8004760:	d86c      	bhi.n	800483c <_dtoa_r+0x2ac>
 8004762:	2b05      	cmp	r3, #5
 8004764:	bfc4      	itt	gt
 8004766:	3b04      	subgt	r3, #4
 8004768:	9322      	strgt	r3, [sp, #136]	; 0x88
 800476a:	9b22      	ldr	r3, [sp, #136]	; 0x88
 800476c:	bfc8      	it	gt
 800476e:	2400      	movgt	r4, #0
 8004770:	f1a3 0302 	sub.w	r3, r3, #2
 8004774:	bfd8      	it	le
 8004776:	2401      	movle	r4, #1
 8004778:	2b03      	cmp	r3, #3
 800477a:	f200 808b 	bhi.w	8004894 <_dtoa_r+0x304>
 800477e:	e8df f003 	tbb	[pc, r3]
 8004782:	4f2d      	.short	0x4f2d
 8004784:	5b4d      	.short	0x5b4d
 8004786:	e9dd 4316 	ldrd	r4, r3, [sp, #88]	; 0x58
 800478a:	441c      	add	r4, r3
 800478c:	f204 4332 	addw	r3, r4, #1074	; 0x432
 8004790:	2b20      	cmp	r3, #32
 8004792:	bfc3      	ittte	gt
 8004794:	f1c3 0340 	rsbgt	r3, r3, #64	; 0x40
 8004798:	f204 4012 	addwgt	r0, r4, #1042	; 0x412
 800479c:	fa09 f303 	lslgt.w	r3, r9, r3
 80047a0:	f1c3 0320 	rsble	r3, r3, #32
 80047a4:	bfc6      	itte	gt
 80047a6:	fa26 f000 	lsrgt.w	r0, r6, r0
 80047aa:	4318      	orrgt	r0, r3
 80047ac:	fa06 f003 	lslle.w	r0, r6, r3
 80047b0:	f7fb fe18 	bl	80003e4 <__aeabi_ui2d>
 80047b4:	2301      	movs	r3, #1
 80047b6:	f1a1 71f8 	sub.w	r1, r1, #32505856	; 0x1f00000
 80047ba:	3c01      	subs	r4, #1
 80047bc:	9313      	str	r3, [sp, #76]	; 0x4c
 80047be:	e770      	b.n	80046a2 <_dtoa_r+0x112>
 80047c0:	2301      	movs	r3, #1
 80047c2:	e7b3      	b.n	800472c <_dtoa_r+0x19c>
 80047c4:	900f      	str	r0, [sp, #60]	; 0x3c
 80047c6:	e7b2      	b.n	800472e <_dtoa_r+0x19e>
 80047c8:	9b06      	ldr	r3, [sp, #24]
 80047ca:	eba3 0309 	sub.w	r3, r3, r9
 80047ce:	9306      	str	r3, [sp, #24]
 80047d0:	f1c9 0300 	rsb	r3, r9, #0
 80047d4:	930a      	str	r3, [sp, #40]	; 0x28
 80047d6:	2300      	movs	r3, #0
 80047d8:	930e      	str	r3, [sp, #56]	; 0x38
 80047da:	e7bf      	b.n	800475c <_dtoa_r+0x1cc>
 80047dc:	2300      	movs	r3, #0
 80047de:	930b      	str	r3, [sp, #44]	; 0x2c
 80047e0:	9b23      	ldr	r3, [sp, #140]	; 0x8c
 80047e2:	2b00      	cmp	r3, #0
 80047e4:	dc59      	bgt.n	800489a <_dtoa_r+0x30a>
 80047e6:	f04f 0b01 	mov.w	fp, #1
 80047ea:	465b      	mov	r3, fp
 80047ec:	f8cd b008 	str.w	fp, [sp, #8]
 80047f0:	f8cd b08c 	str.w	fp, [sp, #140]	; 0x8c
 80047f4:	2200      	movs	r2, #0
 80047f6:	6a68      	ldr	r0, [r5, #36]	; 0x24
 80047f8:	6042      	str	r2, [r0, #4]
 80047fa:	2204      	movs	r2, #4
 80047fc:	f102 0614 	add.w	r6, r2, #20
 8004800:	429e      	cmp	r6, r3
 8004802:	6841      	ldr	r1, [r0, #4]
 8004804:	d94f      	bls.n	80048a6 <_dtoa_r+0x316>
 8004806:	4628      	mov	r0, r5
 8004808:	f000 fcd8 	bl	80051bc <_Balloc>
 800480c:	9008      	str	r0, [sp, #32]
 800480e:	2800      	cmp	r0, #0
 8004810:	d14d      	bne.n	80048ae <_dtoa_r+0x31e>
 8004812:	4602      	mov	r2, r0
 8004814:	f44f 71d5 	mov.w	r1, #426	; 0x1aa
 8004818:	4b1d      	ldr	r3, [pc, #116]	; (8004890 <_dtoa_r+0x300>)
 800481a:	e6cd      	b.n	80045b8 <_dtoa_r+0x28>
 800481c:	2301      	movs	r3, #1
 800481e:	e7de      	b.n	80047de <_dtoa_r+0x24e>
 8004820:	2300      	movs	r3, #0
 8004822:	930b      	str	r3, [sp, #44]	; 0x2c
 8004824:	9b23      	ldr	r3, [sp, #140]	; 0x8c
 8004826:	eb09 0b03 	add.w	fp, r9, r3
 800482a:	f10b 0301 	add.w	r3, fp, #1
 800482e:	2b01      	cmp	r3, #1
 8004830:	9302      	str	r3, [sp, #8]
 8004832:	bfb8      	it	lt
 8004834:	2301      	movlt	r3, #1
 8004836:	e7dd      	b.n	80047f4 <_dtoa_r+0x264>
 8004838:	2301      	movs	r3, #1
 800483a:	e7f2      	b.n	8004822 <_dtoa_r+0x292>
 800483c:	2401      	movs	r4, #1
 800483e:	2300      	movs	r3, #0
 8004840:	940b      	str	r4, [sp, #44]	; 0x2c
 8004842:	9322      	str	r3, [sp, #136]	; 0x88
 8004844:	f04f 3bff 	mov.w	fp, #4294967295	; 0xffffffff
 8004848:	2200      	movs	r2, #0
 800484a:	2312      	movs	r3, #18
 800484c:	f8cd b008 	str.w	fp, [sp, #8]
 8004850:	9223      	str	r2, [sp, #140]	; 0x8c
 8004852:	e7cf      	b.n	80047f4 <_dtoa_r+0x264>
 8004854:	f3af 8000 	nop.w
 8004858:	636f4361 	.word	0x636f4361
 800485c:	3fd287a7 	.word	0x3fd287a7
 8004860:	8b60c8b3 	.word	0x8b60c8b3
 8004864:	3fc68a28 	.word	0x3fc68a28
 8004868:	509f79fb 	.word	0x509f79fb
 800486c:	3fd34413 	.word	0x3fd34413
 8004870:	08006969 	.word	0x08006969
 8004874:	08006980 	.word	0x08006980
 8004878:	7ff00000 	.word	0x7ff00000
 800487c:	08006965 	.word	0x08006965
 8004880:	0800695c 	.word	0x0800695c
 8004884:	08006939 	.word	0x08006939
 8004888:	3ff80000 	.word	0x3ff80000
 800488c:	08006a78 	.word	0x08006a78
 8004890:	080069df 	.word	0x080069df
 8004894:	2301      	movs	r3, #1
 8004896:	930b      	str	r3, [sp, #44]	; 0x2c
 8004898:	e7d4      	b.n	8004844 <_dtoa_r+0x2b4>
 800489a:	f8dd b08c 	ldr.w	fp, [sp, #140]	; 0x8c
 800489e:	465b      	mov	r3, fp
 80048a0:	f8cd b008 	str.w	fp, [sp, #8]
 80048a4:	e7a6      	b.n	80047f4 <_dtoa_r+0x264>
 80048a6:	3101      	adds	r1, #1
 80048a8:	6041      	str	r1, [r0, #4]
 80048aa:	0052      	lsls	r2, r2, #1
 80048ac:	e7a6      	b.n	80047fc <_dtoa_r+0x26c>
 80048ae:	6a6b      	ldr	r3, [r5, #36]	; 0x24
 80048b0:	9a08      	ldr	r2, [sp, #32]
 80048b2:	601a      	str	r2, [r3, #0]
 80048b4:	9b02      	ldr	r3, [sp, #8]
 80048b6:	2b0e      	cmp	r3, #14
 80048b8:	f200 80a8 	bhi.w	8004a0c <_dtoa_r+0x47c>
 80048bc:	2c00      	cmp	r4, #0
 80048be:	f000 80a5 	beq.w	8004a0c <_dtoa_r+0x47c>
 80048c2:	f1b9 0f00 	cmp.w	r9, #0
 80048c6:	dd34      	ble.n	8004932 <_dtoa_r+0x3a2>
 80048c8:	4a9a      	ldr	r2, [pc, #616]	; (8004b34 <_dtoa_r+0x5a4>)
 80048ca:	f009 030f 	and.w	r3, r9, #15
 80048ce:	eb02 03c3 	add.w	r3, r2, r3, lsl #3
 80048d2:	f419 7f80 	tst.w	r9, #256	; 0x100
 80048d6:	e9d3 3400 	ldrd	r3, r4, [r3]
 80048da:	e9cd 3410 	strd	r3, r4, [sp, #64]	; 0x40
 80048de:	ea4f 1429 	mov.w	r4, r9, asr #4
 80048e2:	d016      	beq.n	8004912 <_dtoa_r+0x382>
 80048e4:	e9dd 010c 	ldrd	r0, r1, [sp, #48]	; 0x30
 80048e8:	4b93      	ldr	r3, [pc, #588]	; (8004b38 <_dtoa_r+0x5a8>)
 80048ea:	2703      	movs	r7, #3
 80048ec:	e9d3 2308 	ldrd	r2, r3, [r3, #32]
 80048f0:	f7fb ff1c 	bl	800072c <__aeabi_ddiv>
 80048f4:	e9cd 0104 	strd	r0, r1, [sp, #16]
 80048f8:	f004 040f 	and.w	r4, r4, #15
 80048fc:	4e8e      	ldr	r6, [pc, #568]	; (8004b38 <_dtoa_r+0x5a8>)
 80048fe:	b954      	cbnz	r4, 8004916 <_dtoa_r+0x386>
 8004900:	e9dd 2310 	ldrd	r2, r3, [sp, #64]	; 0x40
 8004904:	e9dd 0104 	ldrd	r0, r1, [sp, #16]
 8004908:	f7fb ff10 	bl	800072c <__aeabi_ddiv>
 800490c:	e9cd 0104 	strd	r0, r1, [sp, #16]
 8004910:	e029      	b.n	8004966 <_dtoa_r+0x3d6>
 8004912:	2702      	movs	r7, #2
 8004914:	e7f2      	b.n	80048fc <_dtoa_r+0x36c>
 8004916:	07e1      	lsls	r1, r4, #31
 8004918:	d508      	bpl.n	800492c <_dtoa_r+0x39c>
 800491a:	e9dd 0110 	ldrd	r0, r1, [sp, #64]	; 0x40
 800491e:	e9d6 2300 	ldrd	r2, r3, [r6]
 8004922:	f7fb fdd9 	bl	80004d8 <__aeabi_dmul>
 8004926:	e9cd 0110 	strd	r0, r1, [sp, #64]	; 0x40
 800492a:	3701      	adds	r7, #1
 800492c:	1064      	asrs	r4, r4, #1
 800492e:	3608      	adds	r6, #8
 8004930:	e7e5      	b.n	80048fe <_dtoa_r+0x36e>
 8004932:	f000 80a5 	beq.w	8004a80 <_dtoa_r+0x4f0>
 8004936:	e9dd 010c 	ldrd	r0, r1, [sp, #48]	; 0x30
 800493a:	f1c9 0400 	rsb	r4, r9, #0
 800493e:	4b7d      	ldr	r3, [pc, #500]	; (8004b34 <_dtoa_r+0x5a4>)
 8004940:	f004 020f 	and.w	r2, r4, #15
 8004944:	eb03 03c2 	add.w	r3, r3, r2, lsl #3
 8004948:	e9d3 2300 	ldrd	r2, r3, [r3]
 800494c:	f7fb fdc4 	bl	80004d8 <__aeabi_dmul>
 8004950:	2702      	movs	r7, #2
 8004952:	2300      	movs	r3, #0
 8004954:	e9cd 0104 	strd	r0, r1, [sp, #16]
 8004958:	4e77      	ldr	r6, [pc, #476]	; (8004b38 <_dtoa_r+0x5a8>)
 800495a:	1124      	asrs	r4, r4, #4
 800495c:	2c00      	cmp	r4, #0
 800495e:	f040 8084 	bne.w	8004a6a <_dtoa_r+0x4da>
 8004962:	2b00      	cmp	r3, #0
 8004964:	d1d2      	bne.n	800490c <_dtoa_r+0x37c>
 8004966:	9b0f      	ldr	r3, [sp, #60]	; 0x3c
 8004968:	2b00      	cmp	r3, #0
 800496a:	f000 808b 	beq.w	8004a84 <_dtoa_r+0x4f4>
 800496e:	e9dd 3404 	ldrd	r3, r4, [sp, #16]
 8004972:	e9cd 3410 	strd	r3, r4, [sp, #64]	; 0x40
 8004976:	e9dd 0110 	ldrd	r0, r1, [sp, #64]	; 0x40
 800497a:	2200      	movs	r2, #0
 800497c:	4b6f      	ldr	r3, [pc, #444]	; (8004b3c <_dtoa_r+0x5ac>)
 800497e:	f7fc f81d 	bl	80009bc <__aeabi_dcmplt>
 8004982:	2800      	cmp	r0, #0
 8004984:	d07e      	beq.n	8004a84 <_dtoa_r+0x4f4>
 8004986:	9b02      	ldr	r3, [sp, #8]
 8004988:	2b00      	cmp	r3, #0
 800498a:	d07b      	beq.n	8004a84 <_dtoa_r+0x4f4>
 800498c:	f1bb 0f00 	cmp.w	fp, #0
 8004990:	dd38      	ble.n	8004a04 <_dtoa_r+0x474>
 8004992:	e9dd 0110 	ldrd	r0, r1, [sp, #64]	; 0x40
 8004996:	2200      	movs	r2, #0
 8004998:	4b69      	ldr	r3, [pc, #420]	; (8004b40 <_dtoa_r+0x5b0>)
 800499a:	f7fb fd9d 	bl	80004d8 <__aeabi_dmul>
 800499e:	465c      	mov	r4, fp
 80049a0:	e9cd 0104 	strd	r0, r1, [sp, #16]
 80049a4:	f109 38ff 	add.w	r8, r9, #4294967295	; 0xffffffff
 80049a8:	3701      	adds	r7, #1
 80049aa:	4638      	mov	r0, r7
 80049ac:	f7fb fd2a 	bl	8000404 <__aeabi_i2d>
 80049b0:	e9dd 2304 	ldrd	r2, r3, [sp, #16]
 80049b4:	f7fb fd90 	bl	80004d8 <__aeabi_dmul>
 80049b8:	2200      	movs	r2, #0
 80049ba:	4b62      	ldr	r3, [pc, #392]	; (8004b44 <_dtoa_r+0x5b4>)
 80049bc:	f7fb fbd6 	bl	800016c <__adddf3>
 80049c0:	f1a1 7650 	sub.w	r6, r1, #54525952	; 0x3400000
 80049c4:	e9cd 0110 	strd	r0, r1, [sp, #64]	; 0x40
 80049c8:	9611      	str	r6, [sp, #68]	; 0x44
 80049ca:	2c00      	cmp	r4, #0
 80049cc:	d15d      	bne.n	8004a8a <_dtoa_r+0x4fa>
 80049ce:	e9dd 0104 	ldrd	r0, r1, [sp, #16]
 80049d2:	2200      	movs	r2, #0
 80049d4:	4b5c      	ldr	r3, [pc, #368]	; (8004b48 <_dtoa_r+0x5b8>)
 80049d6:	f7fb fbc7 	bl	8000168 <__aeabi_dsub>
 80049da:	4602      	mov	r2, r0
 80049dc:	460b      	mov	r3, r1
 80049de:	e9cd 2304 	strd	r2, r3, [sp, #16]
 80049e2:	4633      	mov	r3, r6
 80049e4:	9a10      	ldr	r2, [sp, #64]	; 0x40
 80049e6:	f7fc f807 	bl	80009f8 <__aeabi_dcmpgt>
 80049ea:	2800      	cmp	r0, #0
 80049ec:	f040 829e 	bne.w	8004f2c <_dtoa_r+0x99c>
 80049f0:	e9dd 0104 	ldrd	r0, r1, [sp, #16]
 80049f4:	9a10      	ldr	r2, [sp, #64]	; 0x40
 80049f6:	f106 4300 	add.w	r3, r6, #2147483648	; 0x80000000
 80049fa:	f7fb ffdf 	bl	80009bc <__aeabi_dcmplt>
 80049fe:	2800      	cmp	r0, #0
 8004a00:	f040 8292 	bne.w	8004f28 <_dtoa_r+0x998>
 8004a04:	e9dd 340c 	ldrd	r3, r4, [sp, #48]	; 0x30
 8004a08:	e9cd 3404 	strd	r3, r4, [sp, #16]
 8004a0c:	9b17      	ldr	r3, [sp, #92]	; 0x5c
 8004a0e:	2b00      	cmp	r3, #0
 8004a10:	f2c0 8153 	blt.w	8004cba <_dtoa_r+0x72a>
 8004a14:	f1b9 0f0e 	cmp.w	r9, #14
 8004a18:	f300 814f 	bgt.w	8004cba <_dtoa_r+0x72a>
 8004a1c:	4b45      	ldr	r3, [pc, #276]	; (8004b34 <_dtoa_r+0x5a4>)
 8004a1e:	eb03 03c9 	add.w	r3, r3, r9, lsl #3
 8004a22:	e9d3 3400 	ldrd	r3, r4, [r3]
 8004a26:	e9cd 3406 	strd	r3, r4, [sp, #24]
 8004a2a:	9b23      	ldr	r3, [sp, #140]	; 0x8c
 8004a2c:	2b00      	cmp	r3, #0
 8004a2e:	f280 80db 	bge.w	8004be8 <_dtoa_r+0x658>
 8004a32:	9b02      	ldr	r3, [sp, #8]
 8004a34:	2b00      	cmp	r3, #0
 8004a36:	f300 80d7 	bgt.w	8004be8 <_dtoa_r+0x658>
 8004a3a:	f040 8274 	bne.w	8004f26 <_dtoa_r+0x996>
 8004a3e:	e9dd 0106 	ldrd	r0, r1, [sp, #24]
 8004a42:	2200      	movs	r2, #0
 8004a44:	4b40      	ldr	r3, [pc, #256]	; (8004b48 <_dtoa_r+0x5b8>)
 8004a46:	f7fb fd47 	bl	80004d8 <__aeabi_dmul>
 8004a4a:	e9dd 2304 	ldrd	r2, r3, [sp, #16]
 8004a4e:	f7fb ffc9 	bl	80009e4 <__aeabi_dcmpge>
 8004a52:	9c02      	ldr	r4, [sp, #8]
 8004a54:	4626      	mov	r6, r4
 8004a56:	2800      	cmp	r0, #0
 8004a58:	f040 824a 	bne.w	8004ef0 <_dtoa_r+0x960>
 8004a5c:	2331      	movs	r3, #49	; 0x31
 8004a5e:	9f08      	ldr	r7, [sp, #32]
 8004a60:	f109 0901 	add.w	r9, r9, #1
 8004a64:	f807 3b01 	strb.w	r3, [r7], #1
 8004a68:	e246      	b.n	8004ef8 <_dtoa_r+0x968>
 8004a6a:	07e2      	lsls	r2, r4, #31
 8004a6c:	d505      	bpl.n	8004a7a <_dtoa_r+0x4ea>
 8004a6e:	e9d6 2300 	ldrd	r2, r3, [r6]
 8004a72:	f7fb fd31 	bl	80004d8 <__aeabi_dmul>
 8004a76:	2301      	movs	r3, #1
 8004a78:	3701      	adds	r7, #1
 8004a7a:	1064      	asrs	r4, r4, #1
 8004a7c:	3608      	adds	r6, #8
 8004a7e:	e76d      	b.n	800495c <_dtoa_r+0x3cc>
 8004a80:	2702      	movs	r7, #2
 8004a82:	e770      	b.n	8004966 <_dtoa_r+0x3d6>
 8004a84:	46c8      	mov	r8, r9
 8004a86:	9c02      	ldr	r4, [sp, #8]
 8004a88:	e78f      	b.n	80049aa <_dtoa_r+0x41a>
 8004a8a:	9908      	ldr	r1, [sp, #32]
 8004a8c:	4b29      	ldr	r3, [pc, #164]	; (8004b34 <_dtoa_r+0x5a4>)
 8004a8e:	4421      	add	r1, r4
 8004a90:	9112      	str	r1, [sp, #72]	; 0x48
 8004a92:	990b      	ldr	r1, [sp, #44]	; 0x2c
 8004a94:	eb03 03c4 	add.w	r3, r3, r4, lsl #3
 8004a98:	e9dd 6710 	ldrd	r6, r7, [sp, #64]	; 0x40
 8004a9c:	e953 2302 	ldrd	r2, r3, [r3, #-8]
 8004aa0:	2900      	cmp	r1, #0
 8004aa2:	d055      	beq.n	8004b50 <_dtoa_r+0x5c0>
 8004aa4:	2000      	movs	r0, #0
 8004aa6:	4929      	ldr	r1, [pc, #164]	; (8004b4c <_dtoa_r+0x5bc>)
 8004aa8:	f7fb fe40 	bl	800072c <__aeabi_ddiv>
 8004aac:	463b      	mov	r3, r7
 8004aae:	4632      	mov	r2, r6
 8004ab0:	f7fb fb5a 	bl	8000168 <__aeabi_dsub>
 8004ab4:	e9cd 0110 	strd	r0, r1, [sp, #64]	; 0x40
 8004ab8:	9f08      	ldr	r7, [sp, #32]
 8004aba:	e9dd 0104 	ldrd	r0, r1, [sp, #16]
 8004abe:	f7fb ffbb 	bl	8000a38 <__aeabi_d2iz>
 8004ac2:	4604      	mov	r4, r0
 8004ac4:	f7fb fc9e 	bl	8000404 <__aeabi_i2d>
 8004ac8:	4602      	mov	r2, r0
 8004aca:	460b      	mov	r3, r1
 8004acc:	e9dd 0104 	ldrd	r0, r1, [sp, #16]
 8004ad0:	f7fb fb4a 	bl	8000168 <__aeabi_dsub>
 8004ad4:	4602      	mov	r2, r0
 8004ad6:	460b      	mov	r3, r1
 8004ad8:	3430      	adds	r4, #48	; 0x30
 8004ada:	e9cd 2304 	strd	r2, r3, [sp, #16]
 8004ade:	e9dd 2310 	ldrd	r2, r3, [sp, #64]	; 0x40
 8004ae2:	f807 4b01 	strb.w	r4, [r7], #1
 8004ae6:	f7fb ff69 	bl	80009bc <__aeabi_dcmplt>
 8004aea:	2800      	cmp	r0, #0
 8004aec:	d174      	bne.n	8004bd8 <_dtoa_r+0x648>
 8004aee:	e9dd 2304 	ldrd	r2, r3, [sp, #16]
 8004af2:	2000      	movs	r0, #0
 8004af4:	4911      	ldr	r1, [pc, #68]	; (8004b3c <_dtoa_r+0x5ac>)
 8004af6:	f7fb fb37 	bl	8000168 <__aeabi_dsub>
 8004afa:	e9dd 2310 	ldrd	r2, r3, [sp, #64]	; 0x40
 8004afe:	f7fb ff5d 	bl	80009bc <__aeabi_dcmplt>
 8004b02:	2800      	cmp	r0, #0
 8004b04:	f040 80b6 	bne.w	8004c74 <_dtoa_r+0x6e4>
 8004b08:	9b12      	ldr	r3, [sp, #72]	; 0x48
 8004b0a:	429f      	cmp	r7, r3
 8004b0c:	f43f af7a 	beq.w	8004a04 <_dtoa_r+0x474>
 8004b10:	e9dd 0110 	ldrd	r0, r1, [sp, #64]	; 0x40
 8004b14:	2200      	movs	r2, #0
 8004b16:	4b0a      	ldr	r3, [pc, #40]	; (8004b40 <_dtoa_r+0x5b0>)
 8004b18:	f7fb fcde 	bl	80004d8 <__aeabi_dmul>
 8004b1c:	2200      	movs	r2, #0
 8004b1e:	e9cd 0110 	strd	r0, r1, [sp, #64]	; 0x40
 8004b22:	e9dd 0104 	ldrd	r0, r1, [sp, #16]
 8004b26:	4b06      	ldr	r3, [pc, #24]	; (8004b40 <_dtoa_r+0x5b0>)
 8004b28:	f7fb fcd6 	bl	80004d8 <__aeabi_dmul>
 8004b2c:	e9cd 0104 	strd	r0, r1, [sp, #16]
 8004b30:	e7c3      	b.n	8004aba <_dtoa_r+0x52a>
 8004b32:	bf00      	nop
 8004b34:	08006a78 	.word	0x08006a78
 8004b38:	08006a50 	.word	0x08006a50
 8004b3c:	3ff00000 	.word	0x3ff00000
 8004b40:	40240000 	.word	0x40240000
 8004b44:	401c0000 	.word	0x401c0000
 8004b48:	40140000 	.word	0x40140000
 8004b4c:	3fe00000 	.word	0x3fe00000
 8004b50:	4630      	mov	r0, r6
 8004b52:	4639      	mov	r1, r7
 8004b54:	f7fb fcc0 	bl	80004d8 <__aeabi_dmul>
 8004b58:	9b12      	ldr	r3, [sp, #72]	; 0x48
 8004b5a:	e9cd 0110 	strd	r0, r1, [sp, #64]	; 0x40
 8004b5e:	9c08      	ldr	r4, [sp, #32]
 8004b60:	9314      	str	r3, [sp, #80]	; 0x50
 8004b62:	e9dd 0104 	ldrd	r0, r1, [sp, #16]
 8004b66:	f7fb ff67 	bl	8000a38 <__aeabi_d2iz>
 8004b6a:	9015      	str	r0, [sp, #84]	; 0x54
 8004b6c:	f7fb fc4a 	bl	8000404 <__aeabi_i2d>
 8004b70:	4602      	mov	r2, r0
 8004b72:	460b      	mov	r3, r1
 8004b74:	e9dd 0104 	ldrd	r0, r1, [sp, #16]
 8004b78:	f7fb faf6 	bl	8000168 <__aeabi_dsub>
 8004b7c:	9b15      	ldr	r3, [sp, #84]	; 0x54
 8004b7e:	4606      	mov	r6, r0
 8004b80:	3330      	adds	r3, #48	; 0x30
 8004b82:	f804 3b01 	strb.w	r3, [r4], #1
 8004b86:	9b12      	ldr	r3, [sp, #72]	; 0x48
 8004b88:	460f      	mov	r7, r1
 8004b8a:	429c      	cmp	r4, r3
 8004b8c:	f04f 0200 	mov.w	r2, #0
 8004b90:	d124      	bne.n	8004bdc <_dtoa_r+0x64c>
 8004b92:	e9dd 0110 	ldrd	r0, r1, [sp, #64]	; 0x40
 8004b96:	4bb3      	ldr	r3, [pc, #716]	; (8004e64 <_dtoa_r+0x8d4>)
 8004b98:	f7fb fae8 	bl	800016c <__adddf3>
 8004b9c:	4602      	mov	r2, r0
 8004b9e:	460b      	mov	r3, r1
 8004ba0:	4630      	mov	r0, r6
 8004ba2:	4639      	mov	r1, r7
 8004ba4:	f7fb ff28 	bl	80009f8 <__aeabi_dcmpgt>
 8004ba8:	2800      	cmp	r0, #0
 8004baa:	d162      	bne.n	8004c72 <_dtoa_r+0x6e2>
 8004bac:	e9dd 2310 	ldrd	r2, r3, [sp, #64]	; 0x40
 8004bb0:	2000      	movs	r0, #0
 8004bb2:	49ac      	ldr	r1, [pc, #688]	; (8004e64 <_dtoa_r+0x8d4>)
 8004bb4:	f7fb fad8 	bl	8000168 <__aeabi_dsub>
 8004bb8:	4602      	mov	r2, r0
 8004bba:	460b      	mov	r3, r1
 8004bbc:	4630      	mov	r0, r6
 8004bbe:	4639      	mov	r1, r7
 8004bc0:	f7fb fefc 	bl	80009bc <__aeabi_dcmplt>
 8004bc4:	2800      	cmp	r0, #0
 8004bc6:	f43f af1d 	beq.w	8004a04 <_dtoa_r+0x474>
 8004bca:	9f14      	ldr	r7, [sp, #80]	; 0x50
 8004bcc:	1e7b      	subs	r3, r7, #1
 8004bce:	9314      	str	r3, [sp, #80]	; 0x50
 8004bd0:	f817 3c01 	ldrb.w	r3, [r7, #-1]
 8004bd4:	2b30      	cmp	r3, #48	; 0x30
 8004bd6:	d0f8      	beq.n	8004bca <_dtoa_r+0x63a>
 8004bd8:	46c1      	mov	r9, r8
 8004bda:	e03a      	b.n	8004c52 <_dtoa_r+0x6c2>
 8004bdc:	4ba2      	ldr	r3, [pc, #648]	; (8004e68 <_dtoa_r+0x8d8>)
 8004bde:	f7fb fc7b 	bl	80004d8 <__aeabi_dmul>
 8004be2:	e9cd 0104 	strd	r0, r1, [sp, #16]
 8004be6:	e7bc      	b.n	8004b62 <_dtoa_r+0x5d2>
 8004be8:	9f08      	ldr	r7, [sp, #32]
 8004bea:	e9dd 2306 	ldrd	r2, r3, [sp, #24]
 8004bee:	e9dd 0104 	ldrd	r0, r1, [sp, #16]
 8004bf2:	f7fb fd9b 	bl	800072c <__aeabi_ddiv>
 8004bf6:	f7fb ff1f 	bl	8000a38 <__aeabi_d2iz>
 8004bfa:	4604      	mov	r4, r0
 8004bfc:	f7fb fc02 	bl	8000404 <__aeabi_i2d>
 8004c00:	e9dd 2306 	ldrd	r2, r3, [sp, #24]
 8004c04:	f7fb fc68 	bl	80004d8 <__aeabi_dmul>
 8004c08:	f104 0630 	add.w	r6, r4, #48	; 0x30
 8004c0c:	460b      	mov	r3, r1
 8004c0e:	4602      	mov	r2, r0
 8004c10:	e9dd 0104 	ldrd	r0, r1, [sp, #16]
 8004c14:	f7fb faa8 	bl	8000168 <__aeabi_dsub>
 8004c18:	f807 6b01 	strb.w	r6, [r7], #1
 8004c1c:	9e08      	ldr	r6, [sp, #32]
 8004c1e:	9b02      	ldr	r3, [sp, #8]
 8004c20:	1bbe      	subs	r6, r7, r6
 8004c22:	42b3      	cmp	r3, r6
 8004c24:	d13a      	bne.n	8004c9c <_dtoa_r+0x70c>
 8004c26:	4602      	mov	r2, r0
 8004c28:	460b      	mov	r3, r1
 8004c2a:	f7fb fa9f 	bl	800016c <__adddf3>
 8004c2e:	4602      	mov	r2, r0
 8004c30:	460b      	mov	r3, r1
 8004c32:	e9cd 2302 	strd	r2, r3, [sp, #8]
 8004c36:	e9dd 2306 	ldrd	r2, r3, [sp, #24]
 8004c3a:	f7fb fedd 	bl	80009f8 <__aeabi_dcmpgt>
 8004c3e:	bb58      	cbnz	r0, 8004c98 <_dtoa_r+0x708>
 8004c40:	e9dd 2306 	ldrd	r2, r3, [sp, #24]
 8004c44:	e9dd 0102 	ldrd	r0, r1, [sp, #8]
 8004c48:	f7fb feae 	bl	80009a8 <__aeabi_dcmpeq>
 8004c4c:	b108      	cbz	r0, 8004c52 <_dtoa_r+0x6c2>
 8004c4e:	07e1      	lsls	r1, r4, #31
 8004c50:	d422      	bmi.n	8004c98 <_dtoa_r+0x708>
 8004c52:	4628      	mov	r0, r5
 8004c54:	4651      	mov	r1, sl
 8004c56:	f000 faf1 	bl	800523c <_Bfree>
 8004c5a:	2300      	movs	r3, #0
 8004c5c:	703b      	strb	r3, [r7, #0]
 8004c5e:	9b24      	ldr	r3, [sp, #144]	; 0x90
 8004c60:	f109 0001 	add.w	r0, r9, #1
 8004c64:	6018      	str	r0, [r3, #0]
 8004c66:	9b26      	ldr	r3, [sp, #152]	; 0x98
 8004c68:	2b00      	cmp	r3, #0
 8004c6a:	f43f acdf 	beq.w	800462c <_dtoa_r+0x9c>
 8004c6e:	601f      	str	r7, [r3, #0]
 8004c70:	e4dc      	b.n	800462c <_dtoa_r+0x9c>
 8004c72:	4627      	mov	r7, r4
 8004c74:	463b      	mov	r3, r7
 8004c76:	461f      	mov	r7, r3
 8004c78:	f813 2d01 	ldrb.w	r2, [r3, #-1]!
 8004c7c:	2a39      	cmp	r2, #57	; 0x39
 8004c7e:	d107      	bne.n	8004c90 <_dtoa_r+0x700>
 8004c80:	9a08      	ldr	r2, [sp, #32]
 8004c82:	429a      	cmp	r2, r3
 8004c84:	d1f7      	bne.n	8004c76 <_dtoa_r+0x6e6>
 8004c86:	2230      	movs	r2, #48	; 0x30
 8004c88:	9908      	ldr	r1, [sp, #32]
 8004c8a:	f108 0801 	add.w	r8, r8, #1
 8004c8e:	700a      	strb	r2, [r1, #0]
 8004c90:	781a      	ldrb	r2, [r3, #0]
 8004c92:	3201      	adds	r2, #1
 8004c94:	701a      	strb	r2, [r3, #0]
 8004c96:	e79f      	b.n	8004bd8 <_dtoa_r+0x648>
 8004c98:	46c8      	mov	r8, r9
 8004c9a:	e7eb      	b.n	8004c74 <_dtoa_r+0x6e4>
 8004c9c:	2200      	movs	r2, #0
 8004c9e:	4b72      	ldr	r3, [pc, #456]	; (8004e68 <_dtoa_r+0x8d8>)
 8004ca0:	f7fb fc1a 	bl	80004d8 <__aeabi_dmul>
 8004ca4:	4602      	mov	r2, r0
 8004ca6:	460b      	mov	r3, r1
 8004ca8:	e9cd 2304 	strd	r2, r3, [sp, #16]
 8004cac:	2200      	movs	r2, #0
 8004cae:	2300      	movs	r3, #0
 8004cb0:	f7fb fe7a 	bl	80009a8 <__aeabi_dcmpeq>
 8004cb4:	2800      	cmp	r0, #0
 8004cb6:	d098      	beq.n	8004bea <_dtoa_r+0x65a>
 8004cb8:	e7cb      	b.n	8004c52 <_dtoa_r+0x6c2>
 8004cba:	9a0b      	ldr	r2, [sp, #44]	; 0x2c
 8004cbc:	2a00      	cmp	r2, #0
 8004cbe:	f000 80cd 	beq.w	8004e5c <_dtoa_r+0x8cc>
 8004cc2:	9a22      	ldr	r2, [sp, #136]	; 0x88
 8004cc4:	2a01      	cmp	r2, #1
 8004cc6:	f300 80af 	bgt.w	8004e28 <_dtoa_r+0x898>
 8004cca:	9a13      	ldr	r2, [sp, #76]	; 0x4c
 8004ccc:	2a00      	cmp	r2, #0
 8004cce:	f000 80a7 	beq.w	8004e20 <_dtoa_r+0x890>
 8004cd2:	f203 4333 	addw	r3, r3, #1075	; 0x433
 8004cd6:	9c0a      	ldr	r4, [sp, #40]	; 0x28
 8004cd8:	9f06      	ldr	r7, [sp, #24]
 8004cda:	9a06      	ldr	r2, [sp, #24]
 8004cdc:	2101      	movs	r1, #1
 8004cde:	441a      	add	r2, r3
 8004ce0:	9206      	str	r2, [sp, #24]
 8004ce2:	9a09      	ldr	r2, [sp, #36]	; 0x24
 8004ce4:	4628      	mov	r0, r5
 8004ce6:	441a      	add	r2, r3
 8004ce8:	9209      	str	r2, [sp, #36]	; 0x24
 8004cea:	f000 fb61 	bl	80053b0 <__i2b>
 8004cee:	4606      	mov	r6, r0
 8004cf0:	2f00      	cmp	r7, #0
 8004cf2:	dd0c      	ble.n	8004d0e <_dtoa_r+0x77e>
 8004cf4:	9b09      	ldr	r3, [sp, #36]	; 0x24
 8004cf6:	2b00      	cmp	r3, #0
 8004cf8:	dd09      	ble.n	8004d0e <_dtoa_r+0x77e>
 8004cfa:	42bb      	cmp	r3, r7
 8004cfc:	bfa8      	it	ge
 8004cfe:	463b      	movge	r3, r7
 8004d00:	9a06      	ldr	r2, [sp, #24]
 8004d02:	1aff      	subs	r7, r7, r3
 8004d04:	1ad2      	subs	r2, r2, r3
 8004d06:	9206      	str	r2, [sp, #24]
 8004d08:	9a09      	ldr	r2, [sp, #36]	; 0x24
 8004d0a:	1ad3      	subs	r3, r2, r3
 8004d0c:	9309      	str	r3, [sp, #36]	; 0x24
 8004d0e:	9b0a      	ldr	r3, [sp, #40]	; 0x28
 8004d10:	b1f3      	cbz	r3, 8004d50 <_dtoa_r+0x7c0>
 8004d12:	9b0b      	ldr	r3, [sp, #44]	; 0x2c
 8004d14:	2b00      	cmp	r3, #0
 8004d16:	f000 80a9 	beq.w	8004e6c <_dtoa_r+0x8dc>
 8004d1a:	2c00      	cmp	r4, #0
 8004d1c:	dd10      	ble.n	8004d40 <_dtoa_r+0x7b0>
 8004d1e:	4631      	mov	r1, r6
 8004d20:	4622      	mov	r2, r4
 8004d22:	4628      	mov	r0, r5
 8004d24:	f000 fbfe 	bl	8005524 <__pow5mult>
 8004d28:	4652      	mov	r2, sl
 8004d2a:	4601      	mov	r1, r0
 8004d2c:	4606      	mov	r6, r0
 8004d2e:	4628      	mov	r0, r5
 8004d30:	f000 fb54 	bl	80053dc <__multiply>
 8004d34:	4680      	mov	r8, r0
 8004d36:	4651      	mov	r1, sl
 8004d38:	4628      	mov	r0, r5
 8004d3a:	f000 fa7f 	bl	800523c <_Bfree>
 8004d3e:	46c2      	mov	sl, r8
 8004d40:	9b0a      	ldr	r3, [sp, #40]	; 0x28
 8004d42:	1b1a      	subs	r2, r3, r4
 8004d44:	d004      	beq.n	8004d50 <_dtoa_r+0x7c0>
 8004d46:	4651      	mov	r1, sl
 8004d48:	4628      	mov	r0, r5
 8004d4a:	f000 fbeb 	bl	8005524 <__pow5mult>
 8004d4e:	4682      	mov	sl, r0
 8004d50:	2101      	movs	r1, #1
 8004d52:	4628      	mov	r0, r5
 8004d54:	f000 fb2c 	bl	80053b0 <__i2b>
 8004d58:	9b0e      	ldr	r3, [sp, #56]	; 0x38
 8004d5a:	4604      	mov	r4, r0
 8004d5c:	2b00      	cmp	r3, #0
 8004d5e:	f340 8087 	ble.w	8004e70 <_dtoa_r+0x8e0>
 8004d62:	461a      	mov	r2, r3
 8004d64:	4601      	mov	r1, r0
 8004d66:	4628      	mov	r0, r5
 8004d68:	f000 fbdc 	bl	8005524 <__pow5mult>
 8004d6c:	9b22      	ldr	r3, [sp, #136]	; 0x88
 8004d6e:	4604      	mov	r4, r0
 8004d70:	2b01      	cmp	r3, #1
 8004d72:	f340 8080 	ble.w	8004e76 <_dtoa_r+0x8e6>
 8004d76:	f04f 0800 	mov.w	r8, #0
 8004d7a:	6923      	ldr	r3, [r4, #16]
 8004d7c:	eb04 0383 	add.w	r3, r4, r3, lsl #2
 8004d80:	6918      	ldr	r0, [r3, #16]
 8004d82:	f000 fac7 	bl	8005314 <__hi0bits>
 8004d86:	f1c0 0020 	rsb	r0, r0, #32
 8004d8a:	9b09      	ldr	r3, [sp, #36]	; 0x24
 8004d8c:	4418      	add	r0, r3
 8004d8e:	f010 001f 	ands.w	r0, r0, #31
 8004d92:	f000 8092 	beq.w	8004eba <_dtoa_r+0x92a>
 8004d96:	f1c0 0320 	rsb	r3, r0, #32
 8004d9a:	2b04      	cmp	r3, #4
 8004d9c:	f340 808a 	ble.w	8004eb4 <_dtoa_r+0x924>
 8004da0:	f1c0 001c 	rsb	r0, r0, #28
 8004da4:	9b06      	ldr	r3, [sp, #24]
 8004da6:	4407      	add	r7, r0
 8004da8:	4403      	add	r3, r0
 8004daa:	9306      	str	r3, [sp, #24]
 8004dac:	9b09      	ldr	r3, [sp, #36]	; 0x24
 8004dae:	4403      	add	r3, r0
 8004db0:	9309      	str	r3, [sp, #36]	; 0x24
 8004db2:	9b06      	ldr	r3, [sp, #24]
 8004db4:	2b00      	cmp	r3, #0
 8004db6:	dd05      	ble.n	8004dc4 <_dtoa_r+0x834>
 8004db8:	4651      	mov	r1, sl
 8004dba:	461a      	mov	r2, r3
 8004dbc:	4628      	mov	r0, r5
 8004dbe:	f000 fc0b 	bl	80055d8 <__lshift>
 8004dc2:	4682      	mov	sl, r0
 8004dc4:	9b09      	ldr	r3, [sp, #36]	; 0x24
 8004dc6:	2b00      	cmp	r3, #0
 8004dc8:	dd05      	ble.n	8004dd6 <_dtoa_r+0x846>
 8004dca:	4621      	mov	r1, r4
 8004dcc:	461a      	mov	r2, r3
 8004dce:	4628      	mov	r0, r5
 8004dd0:	f000 fc02 	bl	80055d8 <__lshift>
 8004dd4:	4604      	mov	r4, r0
 8004dd6:	9b0f      	ldr	r3, [sp, #60]	; 0x3c
 8004dd8:	2b00      	cmp	r3, #0
 8004dda:	d070      	beq.n	8004ebe <_dtoa_r+0x92e>
 8004ddc:	4621      	mov	r1, r4
 8004dde:	4650      	mov	r0, sl
 8004de0:	f000 fc66 	bl	80056b0 <__mcmp>
 8004de4:	2800      	cmp	r0, #0
 8004de6:	da6a      	bge.n	8004ebe <_dtoa_r+0x92e>
 8004de8:	2300      	movs	r3, #0
 8004dea:	4651      	mov	r1, sl
 8004dec:	220a      	movs	r2, #10
 8004dee:	4628      	mov	r0, r5
 8004df0:	f000 fa46 	bl	8005280 <__multadd>
 8004df4:	9b0b      	ldr	r3, [sp, #44]	; 0x2c
 8004df6:	4682      	mov	sl, r0
 8004df8:	f109 39ff 	add.w	r9, r9, #4294967295	; 0xffffffff
 8004dfc:	2b00      	cmp	r3, #0
 8004dfe:	f000 8193 	beq.w	8005128 <_dtoa_r+0xb98>
 8004e02:	4631      	mov	r1, r6
 8004e04:	2300      	movs	r3, #0
 8004e06:	220a      	movs	r2, #10
 8004e08:	4628      	mov	r0, r5
 8004e0a:	f000 fa39 	bl	8005280 <__multadd>
 8004e0e:	f1bb 0f00 	cmp.w	fp, #0
 8004e12:	4606      	mov	r6, r0
 8004e14:	f300 8093 	bgt.w	8004f3e <_dtoa_r+0x9ae>
 8004e18:	9b22      	ldr	r3, [sp, #136]	; 0x88
 8004e1a:	2b02      	cmp	r3, #2
 8004e1c:	dc57      	bgt.n	8004ece <_dtoa_r+0x93e>
 8004e1e:	e08e      	b.n	8004f3e <_dtoa_r+0x9ae>
 8004e20:	9b16      	ldr	r3, [sp, #88]	; 0x58
 8004e22:	f1c3 0336 	rsb	r3, r3, #54	; 0x36
 8004e26:	e756      	b.n	8004cd6 <_dtoa_r+0x746>
 8004e28:	9b02      	ldr	r3, [sp, #8]
 8004e2a:	1e5c      	subs	r4, r3, #1
 8004e2c:	9b0a      	ldr	r3, [sp, #40]	; 0x28
 8004e2e:	42a3      	cmp	r3, r4
 8004e30:	bfb7      	itett	lt
 8004e32:	9b0a      	ldrlt	r3, [sp, #40]	; 0x28
 8004e34:	1b1c      	subge	r4, r3, r4
 8004e36:	1ae2      	sublt	r2, r4, r3
 8004e38:	9b0e      	ldrlt	r3, [sp, #56]	; 0x38
 8004e3a:	bfbe      	ittt	lt
 8004e3c:	940a      	strlt	r4, [sp, #40]	; 0x28
 8004e3e:	189b      	addlt	r3, r3, r2
 8004e40:	930e      	strlt	r3, [sp, #56]	; 0x38
 8004e42:	9b02      	ldr	r3, [sp, #8]
 8004e44:	bfb8      	it	lt
 8004e46:	2400      	movlt	r4, #0
 8004e48:	2b00      	cmp	r3, #0
 8004e4a:	bfbb      	ittet	lt
 8004e4c:	9b06      	ldrlt	r3, [sp, #24]
 8004e4e:	9a02      	ldrlt	r2, [sp, #8]
 8004e50:	9f06      	ldrge	r7, [sp, #24]
 8004e52:	1a9f      	sublt	r7, r3, r2
 8004e54:	bfac      	ite	ge
 8004e56:	9b02      	ldrge	r3, [sp, #8]
 8004e58:	2300      	movlt	r3, #0
 8004e5a:	e73e      	b.n	8004cda <_dtoa_r+0x74a>
 8004e5c:	9c0a      	ldr	r4, [sp, #40]	; 0x28
 8004e5e:	9f06      	ldr	r7, [sp, #24]
 8004e60:	9e0b      	ldr	r6, [sp, #44]	; 0x2c
 8004e62:	e745      	b.n	8004cf0 <_dtoa_r+0x760>
 8004e64:	3fe00000 	.word	0x3fe00000
 8004e68:	40240000 	.word	0x40240000
 8004e6c:	9a0a      	ldr	r2, [sp, #40]	; 0x28
 8004e6e:	e76a      	b.n	8004d46 <_dtoa_r+0x7b6>
 8004e70:	9b22      	ldr	r3, [sp, #136]	; 0x88
 8004e72:	2b01      	cmp	r3, #1
 8004e74:	dc19      	bgt.n	8004eaa <_dtoa_r+0x91a>
 8004e76:	9b04      	ldr	r3, [sp, #16]
 8004e78:	b9bb      	cbnz	r3, 8004eaa <_dtoa_r+0x91a>
 8004e7a:	9b05      	ldr	r3, [sp, #20]
 8004e7c:	f3c3 0313 	ubfx	r3, r3, #0, #20
 8004e80:	b99b      	cbnz	r3, 8004eaa <_dtoa_r+0x91a>
 8004e82:	9b05      	ldr	r3, [sp, #20]
 8004e84:	f023 4300 	bic.w	r3, r3, #2147483648	; 0x80000000
 8004e88:	0d1b      	lsrs	r3, r3, #20
 8004e8a:	051b      	lsls	r3, r3, #20
 8004e8c:	b183      	cbz	r3, 8004eb0 <_dtoa_r+0x920>
 8004e8e:	f04f 0801 	mov.w	r8, #1
 8004e92:	9b06      	ldr	r3, [sp, #24]
 8004e94:	3301      	adds	r3, #1
 8004e96:	9306      	str	r3, [sp, #24]
 8004e98:	9b09      	ldr	r3, [sp, #36]	; 0x24
 8004e9a:	3301      	adds	r3, #1
 8004e9c:	9309      	str	r3, [sp, #36]	; 0x24
 8004e9e:	9b0e      	ldr	r3, [sp, #56]	; 0x38
 8004ea0:	2b00      	cmp	r3, #0
 8004ea2:	f47f af6a 	bne.w	8004d7a <_dtoa_r+0x7ea>
 8004ea6:	2001      	movs	r0, #1
 8004ea8:	e76f      	b.n	8004d8a <_dtoa_r+0x7fa>
 8004eaa:	f04f 0800 	mov.w	r8, #0
 8004eae:	e7f6      	b.n	8004e9e <_dtoa_r+0x90e>
 8004eb0:	4698      	mov	r8, r3
 8004eb2:	e7f4      	b.n	8004e9e <_dtoa_r+0x90e>
 8004eb4:	f43f af7d 	beq.w	8004db2 <_dtoa_r+0x822>
 8004eb8:	4618      	mov	r0, r3
 8004eba:	301c      	adds	r0, #28
 8004ebc:	e772      	b.n	8004da4 <_dtoa_r+0x814>
 8004ebe:	9b02      	ldr	r3, [sp, #8]
 8004ec0:	2b00      	cmp	r3, #0
 8004ec2:	dc36      	bgt.n	8004f32 <_dtoa_r+0x9a2>
 8004ec4:	9b22      	ldr	r3, [sp, #136]	; 0x88
 8004ec6:	2b02      	cmp	r3, #2
 8004ec8:	dd33      	ble.n	8004f32 <_dtoa_r+0x9a2>
 8004eca:	f8dd b008 	ldr.w	fp, [sp, #8]
 8004ece:	f1bb 0f00 	cmp.w	fp, #0
 8004ed2:	d10d      	bne.n	8004ef0 <_dtoa_r+0x960>
 8004ed4:	4621      	mov	r1, r4
 8004ed6:	465b      	mov	r3, fp
 8004ed8:	2205      	movs	r2, #5
 8004eda:	4628      	mov	r0, r5
 8004edc:	f000 f9d0 	bl	8005280 <__multadd>
 8004ee0:	4601      	mov	r1, r0
 8004ee2:	4604      	mov	r4, r0
 8004ee4:	4650      	mov	r0, sl
 8004ee6:	f000 fbe3 	bl	80056b0 <__mcmp>
 8004eea:	2800      	cmp	r0, #0
 8004eec:	f73f adb6 	bgt.w	8004a5c <_dtoa_r+0x4cc>
 8004ef0:	9b23      	ldr	r3, [sp, #140]	; 0x8c
 8004ef2:	9f08      	ldr	r7, [sp, #32]
 8004ef4:	ea6f 0903 	mvn.w	r9, r3
 8004ef8:	f04f 0800 	mov.w	r8, #0
 8004efc:	4621      	mov	r1, r4
 8004efe:	4628      	mov	r0, r5
 8004f00:	f000 f99c 	bl	800523c <_Bfree>
 8004f04:	2e00      	cmp	r6, #0
 8004f06:	f43f aea4 	beq.w	8004c52 <_dtoa_r+0x6c2>
 8004f0a:	f1b8 0f00 	cmp.w	r8, #0
 8004f0e:	d005      	beq.n	8004f1c <_dtoa_r+0x98c>
 8004f10:	45b0      	cmp	r8, r6
 8004f12:	d003      	beq.n	8004f1c <_dtoa_r+0x98c>
 8004f14:	4641      	mov	r1, r8
 8004f16:	4628      	mov	r0, r5
 8004f18:	f000 f990 	bl	800523c <_Bfree>
 8004f1c:	4631      	mov	r1, r6
 8004f1e:	4628      	mov	r0, r5
 8004f20:	f000 f98c 	bl	800523c <_Bfree>
 8004f24:	e695      	b.n	8004c52 <_dtoa_r+0x6c2>
 8004f26:	2400      	movs	r4, #0
 8004f28:	4626      	mov	r6, r4
 8004f2a:	e7e1      	b.n	8004ef0 <_dtoa_r+0x960>
 8004f2c:	46c1      	mov	r9, r8
 8004f2e:	4626      	mov	r6, r4
 8004f30:	e594      	b.n	8004a5c <_dtoa_r+0x4cc>
 8004f32:	9b0b      	ldr	r3, [sp, #44]	; 0x2c
 8004f34:	f8dd b008 	ldr.w	fp, [sp, #8]
 8004f38:	2b00      	cmp	r3, #0
 8004f3a:	f000 80fc 	beq.w	8005136 <_dtoa_r+0xba6>
 8004f3e:	2f00      	cmp	r7, #0
 8004f40:	dd05      	ble.n	8004f4e <_dtoa_r+0x9be>
 8004f42:	4631      	mov	r1, r6
 8004f44:	463a      	mov	r2, r7
 8004f46:	4628      	mov	r0, r5
 8004f48:	f000 fb46 	bl	80055d8 <__lshift>
 8004f4c:	4606      	mov	r6, r0
 8004f4e:	f1b8 0f00 	cmp.w	r8, #0
 8004f52:	d05c      	beq.n	800500e <_dtoa_r+0xa7e>
 8004f54:	4628      	mov	r0, r5
 8004f56:	6871      	ldr	r1, [r6, #4]
 8004f58:	f000 f930 	bl	80051bc <_Balloc>
 8004f5c:	4607      	mov	r7, r0
 8004f5e:	b928      	cbnz	r0, 8004f6c <_dtoa_r+0x9dc>
 8004f60:	4602      	mov	r2, r0
 8004f62:	f240 21ea 	movw	r1, #746	; 0x2ea
 8004f66:	4b7e      	ldr	r3, [pc, #504]	; (8005160 <_dtoa_r+0xbd0>)
 8004f68:	f7ff bb26 	b.w	80045b8 <_dtoa_r+0x28>
 8004f6c:	6932      	ldr	r2, [r6, #16]
 8004f6e:	f106 010c 	add.w	r1, r6, #12
 8004f72:	3202      	adds	r2, #2
 8004f74:	0092      	lsls	r2, r2, #2
 8004f76:	300c      	adds	r0, #12
 8004f78:	f000 f912 	bl	80051a0 <memcpy>
 8004f7c:	2201      	movs	r2, #1
 8004f7e:	4639      	mov	r1, r7
 8004f80:	4628      	mov	r0, r5
 8004f82:	f000 fb29 	bl	80055d8 <__lshift>
 8004f86:	46b0      	mov	r8, r6
 8004f88:	4606      	mov	r6, r0
 8004f8a:	9b08      	ldr	r3, [sp, #32]
 8004f8c:	3301      	adds	r3, #1
 8004f8e:	9302      	str	r3, [sp, #8]
 8004f90:	9b08      	ldr	r3, [sp, #32]
 8004f92:	445b      	add	r3, fp
 8004f94:	930a      	str	r3, [sp, #40]	; 0x28
 8004f96:	9b04      	ldr	r3, [sp, #16]
 8004f98:	f003 0301 	and.w	r3, r3, #1
 8004f9c:	9309      	str	r3, [sp, #36]	; 0x24
 8004f9e:	9b02      	ldr	r3, [sp, #8]
 8004fa0:	4621      	mov	r1, r4
 8004fa2:	4650      	mov	r0, sl
 8004fa4:	f103 3bff 	add.w	fp, r3, #4294967295	; 0xffffffff
 8004fa8:	f7ff fa62 	bl	8004470 <quorem>
 8004fac:	4603      	mov	r3, r0
 8004fae:	4641      	mov	r1, r8
 8004fb0:	3330      	adds	r3, #48	; 0x30
 8004fb2:	9004      	str	r0, [sp, #16]
 8004fb4:	4650      	mov	r0, sl
 8004fb6:	930b      	str	r3, [sp, #44]	; 0x2c
 8004fb8:	f000 fb7a 	bl	80056b0 <__mcmp>
 8004fbc:	4632      	mov	r2, r6
 8004fbe:	9006      	str	r0, [sp, #24]
 8004fc0:	4621      	mov	r1, r4
 8004fc2:	4628      	mov	r0, r5
 8004fc4:	f000 fb90 	bl	80056e8 <__mdiff>
 8004fc8:	68c2      	ldr	r2, [r0, #12]
 8004fca:	4607      	mov	r7, r0
 8004fcc:	9b0b      	ldr	r3, [sp, #44]	; 0x2c
 8004fce:	bb02      	cbnz	r2, 8005012 <_dtoa_r+0xa82>
 8004fd0:	4601      	mov	r1, r0
 8004fd2:	4650      	mov	r0, sl
 8004fd4:	f000 fb6c 	bl	80056b0 <__mcmp>
 8004fd8:	4602      	mov	r2, r0
 8004fda:	9b0b      	ldr	r3, [sp, #44]	; 0x2c
 8004fdc:	4639      	mov	r1, r7
 8004fde:	4628      	mov	r0, r5
 8004fe0:	e9cd 320b 	strd	r3, r2, [sp, #44]	; 0x2c
 8004fe4:	f000 f92a 	bl	800523c <_Bfree>
 8004fe8:	9b22      	ldr	r3, [sp, #136]	; 0x88
 8004fea:	9a0c      	ldr	r2, [sp, #48]	; 0x30
 8004fec:	9f02      	ldr	r7, [sp, #8]
 8004fee:	ea43 0102 	orr.w	r1, r3, r2
 8004ff2:	9b09      	ldr	r3, [sp, #36]	; 0x24
 8004ff4:	430b      	orrs	r3, r1
 8004ff6:	9b0b      	ldr	r3, [sp, #44]	; 0x2c
 8004ff8:	d10d      	bne.n	8005016 <_dtoa_r+0xa86>
 8004ffa:	2b39      	cmp	r3, #57	; 0x39
 8004ffc:	d027      	beq.n	800504e <_dtoa_r+0xabe>
 8004ffe:	9a06      	ldr	r2, [sp, #24]
 8005000:	2a00      	cmp	r2, #0
 8005002:	dd01      	ble.n	8005008 <_dtoa_r+0xa78>
 8005004:	9b04      	ldr	r3, [sp, #16]
 8005006:	3331      	adds	r3, #49	; 0x31
 8005008:	f88b 3000 	strb.w	r3, [fp]
 800500c:	e776      	b.n	8004efc <_dtoa_r+0x96c>
 800500e:	4630      	mov	r0, r6
 8005010:	e7b9      	b.n	8004f86 <_dtoa_r+0x9f6>
 8005012:	2201      	movs	r2, #1
 8005014:	e7e2      	b.n	8004fdc <_dtoa_r+0xa4c>
 8005016:	9906      	ldr	r1, [sp, #24]
 8005018:	2900      	cmp	r1, #0
 800501a:	db04      	blt.n	8005026 <_dtoa_r+0xa96>
 800501c:	9822      	ldr	r0, [sp, #136]	; 0x88
 800501e:	4301      	orrs	r1, r0
 8005020:	9809      	ldr	r0, [sp, #36]	; 0x24
 8005022:	4301      	orrs	r1, r0
 8005024:	d120      	bne.n	8005068 <_dtoa_r+0xad8>
 8005026:	2a00      	cmp	r2, #0
 8005028:	ddee      	ble.n	8005008 <_dtoa_r+0xa78>
 800502a:	4651      	mov	r1, sl
 800502c:	2201      	movs	r2, #1
 800502e:	4628      	mov	r0, r5
 8005030:	9302      	str	r3, [sp, #8]
 8005032:	f000 fad1 	bl	80055d8 <__lshift>
 8005036:	4621      	mov	r1, r4
 8005038:	4682      	mov	sl, r0
 800503a:	f000 fb39 	bl	80056b0 <__mcmp>
 800503e:	2800      	cmp	r0, #0
 8005040:	9b02      	ldr	r3, [sp, #8]
 8005042:	dc02      	bgt.n	800504a <_dtoa_r+0xaba>
 8005044:	d1e0      	bne.n	8005008 <_dtoa_r+0xa78>
 8005046:	07da      	lsls	r2, r3, #31
 8005048:	d5de      	bpl.n	8005008 <_dtoa_r+0xa78>
 800504a:	2b39      	cmp	r3, #57	; 0x39
 800504c:	d1da      	bne.n	8005004 <_dtoa_r+0xa74>
 800504e:	2339      	movs	r3, #57	; 0x39
 8005050:	f88b 3000 	strb.w	r3, [fp]
 8005054:	463b      	mov	r3, r7
 8005056:	461f      	mov	r7, r3
 8005058:	f817 2c01 	ldrb.w	r2, [r7, #-1]
 800505c:	3b01      	subs	r3, #1
 800505e:	2a39      	cmp	r2, #57	; 0x39
 8005060:	d050      	beq.n	8005104 <_dtoa_r+0xb74>
 8005062:	3201      	adds	r2, #1
 8005064:	701a      	strb	r2, [r3, #0]
 8005066:	e749      	b.n	8004efc <_dtoa_r+0x96c>
 8005068:	2a00      	cmp	r2, #0
 800506a:	dd03      	ble.n	8005074 <_dtoa_r+0xae4>
 800506c:	2b39      	cmp	r3, #57	; 0x39
 800506e:	d0ee      	beq.n	800504e <_dtoa_r+0xabe>
 8005070:	3301      	adds	r3, #1
 8005072:	e7c9      	b.n	8005008 <_dtoa_r+0xa78>
 8005074:	9a02      	ldr	r2, [sp, #8]
 8005076:	990a      	ldr	r1, [sp, #40]	; 0x28
 8005078:	f802 3c01 	strb.w	r3, [r2, #-1]
 800507c:	428a      	cmp	r2, r1
 800507e:	d02a      	beq.n	80050d6 <_dtoa_r+0xb46>
 8005080:	4651      	mov	r1, sl
 8005082:	2300      	movs	r3, #0
 8005084:	220a      	movs	r2, #10
 8005086:	4628      	mov	r0, r5
 8005088:	f000 f8fa 	bl	8005280 <__multadd>
 800508c:	45b0      	cmp	r8, r6
 800508e:	4682      	mov	sl, r0
 8005090:	f04f 0300 	mov.w	r3, #0
 8005094:	f04f 020a 	mov.w	r2, #10
 8005098:	4641      	mov	r1, r8
 800509a:	4628      	mov	r0, r5
 800509c:	d107      	bne.n	80050ae <_dtoa_r+0xb1e>
 800509e:	f000 f8ef 	bl	8005280 <__multadd>
 80050a2:	4680      	mov	r8, r0
 80050a4:	4606      	mov	r6, r0
 80050a6:	9b02      	ldr	r3, [sp, #8]
 80050a8:	3301      	adds	r3, #1
 80050aa:	9302      	str	r3, [sp, #8]
 80050ac:	e777      	b.n	8004f9e <_dtoa_r+0xa0e>
 80050ae:	f000 f8e7 	bl	8005280 <__multadd>
 80050b2:	4631      	mov	r1, r6
 80050b4:	4680      	mov	r8, r0
 80050b6:	2300      	movs	r3, #0
 80050b8:	220a      	movs	r2, #10
 80050ba:	4628      	mov	r0, r5
 80050bc:	f000 f8e0 	bl	8005280 <__multadd>
 80050c0:	4606      	mov	r6, r0
 80050c2:	e7f0      	b.n	80050a6 <_dtoa_r+0xb16>
 80050c4:	f1bb 0f00 	cmp.w	fp, #0
 80050c8:	bfcc      	ite	gt
 80050ca:	465f      	movgt	r7, fp
 80050cc:	2701      	movle	r7, #1
 80050ce:	f04f 0800 	mov.w	r8, #0
 80050d2:	9a08      	ldr	r2, [sp, #32]
 80050d4:	4417      	add	r7, r2
 80050d6:	4651      	mov	r1, sl
 80050d8:	2201      	movs	r2, #1
 80050da:	4628      	mov	r0, r5
 80050dc:	9302      	str	r3, [sp, #8]
 80050de:	f000 fa7b 	bl	80055d8 <__lshift>
 80050e2:	4621      	mov	r1, r4
 80050e4:	4682      	mov	sl, r0
 80050e6:	f000 fae3 	bl	80056b0 <__mcmp>
 80050ea:	2800      	cmp	r0, #0
 80050ec:	dcb2      	bgt.n	8005054 <_dtoa_r+0xac4>
 80050ee:	d102      	bne.n	80050f6 <_dtoa_r+0xb66>
 80050f0:	9b02      	ldr	r3, [sp, #8]
 80050f2:	07db      	lsls	r3, r3, #31
 80050f4:	d4ae      	bmi.n	8005054 <_dtoa_r+0xac4>
 80050f6:	463b      	mov	r3, r7
 80050f8:	461f      	mov	r7, r3
 80050fa:	f813 2d01 	ldrb.w	r2, [r3, #-1]!
 80050fe:	2a30      	cmp	r2, #48	; 0x30
 8005100:	d0fa      	beq.n	80050f8 <_dtoa_r+0xb68>
 8005102:	e6fb      	b.n	8004efc <_dtoa_r+0x96c>
 8005104:	9a08      	ldr	r2, [sp, #32]
 8005106:	429a      	cmp	r2, r3
 8005108:	d1a5      	bne.n	8005056 <_dtoa_r+0xac6>
 800510a:	2331      	movs	r3, #49	; 0x31
 800510c:	f109 0901 	add.w	r9, r9, #1
 8005110:	7013      	strb	r3, [r2, #0]
 8005112:	e6f3      	b.n	8004efc <_dtoa_r+0x96c>
 8005114:	4b13      	ldr	r3, [pc, #76]	; (8005164 <_dtoa_r+0xbd4>)
 8005116:	f7ff baa7 	b.w	8004668 <_dtoa_r+0xd8>
 800511a:	9b26      	ldr	r3, [sp, #152]	; 0x98
 800511c:	2b00      	cmp	r3, #0
 800511e:	f47f aa80 	bne.w	8004622 <_dtoa_r+0x92>
 8005122:	4b11      	ldr	r3, [pc, #68]	; (8005168 <_dtoa_r+0xbd8>)
 8005124:	f7ff baa0 	b.w	8004668 <_dtoa_r+0xd8>
 8005128:	f1bb 0f00 	cmp.w	fp, #0
 800512c:	dc03      	bgt.n	8005136 <_dtoa_r+0xba6>
 800512e:	9b22      	ldr	r3, [sp, #136]	; 0x88
 8005130:	2b02      	cmp	r3, #2
 8005132:	f73f aecc 	bgt.w	8004ece <_dtoa_r+0x93e>
 8005136:	9f08      	ldr	r7, [sp, #32]
 8005138:	4621      	mov	r1, r4
 800513a:	4650      	mov	r0, sl
 800513c:	f7ff f998 	bl	8004470 <quorem>
 8005140:	9a08      	ldr	r2, [sp, #32]
 8005142:	f100 0330 	add.w	r3, r0, #48	; 0x30
 8005146:	f807 3b01 	strb.w	r3, [r7], #1
 800514a:	1aba      	subs	r2, r7, r2
 800514c:	4593      	cmp	fp, r2
 800514e:	ddb9      	ble.n	80050c4 <_dtoa_r+0xb34>
 8005150:	4651      	mov	r1, sl
 8005152:	2300      	movs	r3, #0
 8005154:	220a      	movs	r2, #10
 8005156:	4628      	mov	r0, r5
 8005158:	f000 f892 	bl	8005280 <__multadd>
 800515c:	4682      	mov	sl, r0
 800515e:	e7eb      	b.n	8005138 <_dtoa_r+0xba8>
 8005160:	080069df 	.word	0x080069df
 8005164:	08006938 	.word	0x08006938
 8005168:	0800695c 	.word	0x0800695c

0800516c <_localeconv_r>:
 800516c:	4800      	ldr	r0, [pc, #0]	; (8005170 <_localeconv_r+0x4>)
 800516e:	4770      	bx	lr
 8005170:	20000164 	.word	0x20000164

08005174 <malloc>:
 8005174:	4b02      	ldr	r3, [pc, #8]	; (8005180 <malloc+0xc>)
 8005176:	4601      	mov	r1, r0
 8005178:	6818      	ldr	r0, [r3, #0]
 800517a:	f000 bbfb 	b.w	8005974 <_malloc_r>
 800517e:	bf00      	nop
 8005180:	20000010 	.word	0x20000010

08005184 <memchr>:
 8005184:	4603      	mov	r3, r0
 8005186:	b510      	push	{r4, lr}
 8005188:	b2c9      	uxtb	r1, r1
 800518a:	4402      	add	r2, r0
 800518c:	4293      	cmp	r3, r2
 800518e:	4618      	mov	r0, r3
 8005190:	d101      	bne.n	8005196 <memchr+0x12>
 8005192:	2000      	movs	r0, #0
 8005194:	e003      	b.n	800519e <memchr+0x1a>
 8005196:	7804      	ldrb	r4, [r0, #0]
 8005198:	3301      	adds	r3, #1
 800519a:	428c      	cmp	r4, r1
 800519c:	d1f6      	bne.n	800518c <memchr+0x8>
 800519e:	bd10      	pop	{r4, pc}

080051a0 <memcpy>:
 80051a0:	440a      	add	r2, r1
 80051a2:	4291      	cmp	r1, r2
 80051a4:	f100 33ff 	add.w	r3, r0, #4294967295	; 0xffffffff
 80051a8:	d100      	bne.n	80051ac <memcpy+0xc>
 80051aa:	4770      	bx	lr
 80051ac:	b510      	push	{r4, lr}
 80051ae:	f811 4b01 	ldrb.w	r4, [r1], #1
 80051b2:	4291      	cmp	r1, r2
 80051b4:	f803 4f01 	strb.w	r4, [r3, #1]!
 80051b8:	d1f9      	bne.n	80051ae <memcpy+0xe>
 80051ba:	bd10      	pop	{r4, pc}

080051bc <_Balloc>:
 80051bc:	b570      	push	{r4, r5, r6, lr}
 80051be:	6a46      	ldr	r6, [r0, #36]	; 0x24
 80051c0:	4604      	mov	r4, r0
 80051c2:	460d      	mov	r5, r1
 80051c4:	b976      	cbnz	r6, 80051e4 <_Balloc+0x28>
 80051c6:	2010      	movs	r0, #16
 80051c8:	f7ff ffd4 	bl	8005174 <malloc>
 80051cc:	4602      	mov	r2, r0
 80051ce:	6260      	str	r0, [r4, #36]	; 0x24
 80051d0:	b920      	cbnz	r0, 80051dc <_Balloc+0x20>
 80051d2:	2166      	movs	r1, #102	; 0x66
 80051d4:	4b17      	ldr	r3, [pc, #92]	; (8005234 <_Balloc+0x78>)
 80051d6:	4818      	ldr	r0, [pc, #96]	; (8005238 <_Balloc+0x7c>)
 80051d8:	f000 fd92 	bl	8005d00 <__assert_func>
 80051dc:	e9c0 6601 	strd	r6, r6, [r0, #4]
 80051e0:	6006      	str	r6, [r0, #0]
 80051e2:	60c6      	str	r6, [r0, #12]
 80051e4:	6a66      	ldr	r6, [r4, #36]	; 0x24
 80051e6:	68f3      	ldr	r3, [r6, #12]
 80051e8:	b183      	cbz	r3, 800520c <_Balloc+0x50>
 80051ea:	6a63      	ldr	r3, [r4, #36]	; 0x24
 80051ec:	68db      	ldr	r3, [r3, #12]
 80051ee:	f853 0025 	ldr.w	r0, [r3, r5, lsl #2]
 80051f2:	b9b8      	cbnz	r0, 8005224 <_Balloc+0x68>
 80051f4:	2101      	movs	r1, #1
 80051f6:	fa01 f605 	lsl.w	r6, r1, r5
 80051fa:	1d72      	adds	r2, r6, #5
 80051fc:	4620      	mov	r0, r4
 80051fe:	0092      	lsls	r2, r2, #2
 8005200:	f000 fb5e 	bl	80058c0 <_calloc_r>
 8005204:	b160      	cbz	r0, 8005220 <_Balloc+0x64>
 8005206:	e9c0 5601 	strd	r5, r6, [r0, #4]
 800520a:	e00e      	b.n	800522a <_Balloc+0x6e>
 800520c:	2221      	movs	r2, #33	; 0x21
 800520e:	2104      	movs	r1, #4
 8005210:	4620      	mov	r0, r4
 8005212:	f000 fb55 	bl	80058c0 <_calloc_r>
 8005216:	6a63      	ldr	r3, [r4, #36]	; 0x24
 8005218:	60f0      	str	r0, [r6, #12]
 800521a:	68db      	ldr	r3, [r3, #12]
 800521c:	2b00      	cmp	r3, #0
 800521e:	d1e4      	bne.n	80051ea <_Balloc+0x2e>
 8005220:	2000      	movs	r0, #0
 8005222:	bd70      	pop	{r4, r5, r6, pc}
 8005224:	6802      	ldr	r2, [r0, #0]
 8005226:	f843 2025 	str.w	r2, [r3, r5, lsl #2]
 800522a:	2300      	movs	r3, #0
 800522c:	e9c0 3303 	strd	r3, r3, [r0, #12]
 8005230:	e7f7      	b.n	8005222 <_Balloc+0x66>
 8005232:	bf00      	nop
 8005234:	08006969 	.word	0x08006969
 8005238:	080069f0 	.word	0x080069f0

0800523c <_Bfree>:
 800523c:	b570      	push	{r4, r5, r6, lr}
 800523e:	6a46      	ldr	r6, [r0, #36]	; 0x24
 8005240:	4605      	mov	r5, r0
 8005242:	460c      	mov	r4, r1
 8005244:	b976      	cbnz	r6, 8005264 <_Bfree+0x28>
 8005246:	2010      	movs	r0, #16
 8005248:	f7ff ff94 	bl	8005174 <malloc>
 800524c:	4602      	mov	r2, r0
 800524e:	6268      	str	r0, [r5, #36]	; 0x24
 8005250:	b920      	cbnz	r0, 800525c <_Bfree+0x20>
 8005252:	218a      	movs	r1, #138	; 0x8a
 8005254:	4b08      	ldr	r3, [pc, #32]	; (8005278 <_Bfree+0x3c>)
 8005256:	4809      	ldr	r0, [pc, #36]	; (800527c <_Bfree+0x40>)
 8005258:	f000 fd52 	bl	8005d00 <__assert_func>
 800525c:	e9c0 6601 	strd	r6, r6, [r0, #4]
 8005260:	6006      	str	r6, [r0, #0]
 8005262:	60c6      	str	r6, [r0, #12]
 8005264:	b13c      	cbz	r4, 8005276 <_Bfree+0x3a>
 8005266:	6a6b      	ldr	r3, [r5, #36]	; 0x24
 8005268:	6862      	ldr	r2, [r4, #4]
 800526a:	68db      	ldr	r3, [r3, #12]
 800526c:	f853 1022 	ldr.w	r1, [r3, r2, lsl #2]
 8005270:	6021      	str	r1, [r4, #0]
 8005272:	f843 4022 	str.w	r4, [r3, r2, lsl #2]
 8005276:	bd70      	pop	{r4, r5, r6, pc}
 8005278:	08006969 	.word	0x08006969
 800527c:	080069f0 	.word	0x080069f0

08005280 <__multadd>:
 8005280:	e92d 41f0 	stmdb	sp!, {r4, r5, r6, r7, r8, lr}
 8005284:	4698      	mov	r8, r3
 8005286:	460c      	mov	r4, r1
 8005288:	2300      	movs	r3, #0
 800528a:	690e      	ldr	r6, [r1, #16]
 800528c:	4607      	mov	r7, r0
 800528e:	f101 0014 	add.w	r0, r1, #20
 8005292:	6805      	ldr	r5, [r0, #0]
 8005294:	3301      	adds	r3, #1
 8005296:	b2a9      	uxth	r1, r5
 8005298:	fb02 8101 	mla	r1, r2, r1, r8
 800529c:	0c2d      	lsrs	r5, r5, #16
 800529e:	ea4f 4c11 	mov.w	ip, r1, lsr #16
 80052a2:	fb02 c505 	mla	r5, r2, r5, ip
 80052a6:	b289      	uxth	r1, r1
 80052a8:	eb01 4105 	add.w	r1, r1, r5, lsl #16
 80052ac:	429e      	cmp	r6, r3
 80052ae:	ea4f 4815 	mov.w	r8, r5, lsr #16
 80052b2:	f840 1b04 	str.w	r1, [r0], #4
 80052b6:	dcec      	bgt.n	8005292 <__multadd+0x12>
 80052b8:	f1b8 0f00 	cmp.w	r8, #0
 80052bc:	d022      	beq.n	8005304 <__multadd+0x84>
 80052be:	68a3      	ldr	r3, [r4, #8]
 80052c0:	42b3      	cmp	r3, r6
 80052c2:	dc19      	bgt.n	80052f8 <__multadd+0x78>
 80052c4:	6861      	ldr	r1, [r4, #4]
 80052c6:	4638      	mov	r0, r7
 80052c8:	3101      	adds	r1, #1
 80052ca:	f7ff ff77 	bl	80051bc <_Balloc>
 80052ce:	4605      	mov	r5, r0
 80052d0:	b928      	cbnz	r0, 80052de <__multadd+0x5e>
 80052d2:	4602      	mov	r2, r0
 80052d4:	21b5      	movs	r1, #181	; 0xb5
 80052d6:	4b0d      	ldr	r3, [pc, #52]	; (800530c <__multadd+0x8c>)
 80052d8:	480d      	ldr	r0, [pc, #52]	; (8005310 <__multadd+0x90>)
 80052da:	f000 fd11 	bl	8005d00 <__assert_func>
 80052de:	6922      	ldr	r2, [r4, #16]
 80052e0:	f104 010c 	add.w	r1, r4, #12
 80052e4:	3202      	adds	r2, #2
 80052e6:	0092      	lsls	r2, r2, #2
 80052e8:	300c      	adds	r0, #12
 80052ea:	f7ff ff59 	bl	80051a0 <memcpy>
 80052ee:	4621      	mov	r1, r4
 80052f0:	4638      	mov	r0, r7
 80052f2:	f7ff ffa3 	bl	800523c <_Bfree>
 80052f6:	462c      	mov	r4, r5
 80052f8:	eb04 0386 	add.w	r3, r4, r6, lsl #2
 80052fc:	3601      	adds	r6, #1
 80052fe:	f8c3 8014 	str.w	r8, [r3, #20]
 8005302:	6126      	str	r6, [r4, #16]
 8005304:	4620      	mov	r0, r4
 8005306:	e8bd 81f0 	ldmia.w	sp!, {r4, r5, r6, r7, r8, pc}
 800530a:	bf00      	nop
 800530c:	080069df 	.word	0x080069df
 8005310:	080069f0 	.word	0x080069f0

08005314 <__hi0bits>:
 8005314:	0c02      	lsrs	r2, r0, #16
 8005316:	0412      	lsls	r2, r2, #16
 8005318:	4603      	mov	r3, r0
 800531a:	b9ca      	cbnz	r2, 8005350 <__hi0bits+0x3c>
 800531c:	0403      	lsls	r3, r0, #16
 800531e:	2010      	movs	r0, #16
 8005320:	f013 4f7f 	tst.w	r3, #4278190080	; 0xff000000
 8005324:	bf04      	itt	eq
 8005326:	021b      	lsleq	r3, r3, #8
 8005328:	3008      	addeq	r0, #8
 800532a:	f013 4f70 	tst.w	r3, #4026531840	; 0xf0000000
 800532e:	bf04      	itt	eq
 8005330:	011b      	lsleq	r3, r3, #4
 8005332:	3004      	addeq	r0, #4
 8005334:	f013 4f40 	tst.w	r3, #3221225472	; 0xc0000000
 8005338:	bf04      	itt	eq
 800533a:	009b      	lsleq	r3, r3, #2
 800533c:	3002      	addeq	r0, #2
 800533e:	2b00      	cmp	r3, #0
 8005340:	db05      	blt.n	800534e <__hi0bits+0x3a>
 8005342:	f013 4f80 	tst.w	r3, #1073741824	; 0x40000000
 8005346:	f100 0001 	add.w	r0, r0, #1
 800534a:	bf08      	it	eq
 800534c:	2020      	moveq	r0, #32
 800534e:	4770      	bx	lr
 8005350:	2000      	movs	r0, #0
 8005352:	e7e5      	b.n	8005320 <__hi0bits+0xc>

08005354 <__lo0bits>:
 8005354:	6803      	ldr	r3, [r0, #0]
 8005356:	4602      	mov	r2, r0
 8005358:	f013 0007 	ands.w	r0, r3, #7
 800535c:	d00b      	beq.n	8005376 <__lo0bits+0x22>
 800535e:	07d9      	lsls	r1, r3, #31
 8005360:	d422      	bmi.n	80053a8 <__lo0bits+0x54>
 8005362:	0798      	lsls	r0, r3, #30
 8005364:	bf49      	itett	mi
 8005366:	085b      	lsrmi	r3, r3, #1
 8005368:	089b      	lsrpl	r3, r3, #2
 800536a:	2001      	movmi	r0, #1
 800536c:	6013      	strmi	r3, [r2, #0]
 800536e:	bf5c      	itt	pl
 8005370:	2002      	movpl	r0, #2
 8005372:	6013      	strpl	r3, [r2, #0]
 8005374:	4770      	bx	lr
 8005376:	b299      	uxth	r1, r3
 8005378:	b909      	cbnz	r1, 800537e <__lo0bits+0x2a>
 800537a:	2010      	movs	r0, #16
 800537c:	0c1b      	lsrs	r3, r3, #16
 800537e:	f013 0fff 	tst.w	r3, #255	; 0xff
 8005382:	bf04      	itt	eq
 8005384:	0a1b      	lsreq	r3, r3, #8
 8005386:	3008      	addeq	r0, #8
 8005388:	0719      	lsls	r1, r3, #28
 800538a:	bf04      	itt	eq
 800538c:	091b      	lsreq	r3, r3, #4
 800538e:	3004      	addeq	r0, #4
 8005390:	0799      	lsls	r1, r3, #30
 8005392:	bf04      	itt	eq
 8005394:	089b      	lsreq	r3, r3, #2
 8005396:	3002      	addeq	r0, #2
 8005398:	07d9      	lsls	r1, r3, #31
 800539a:	d403      	bmi.n	80053a4 <__lo0bits+0x50>
 800539c:	085b      	lsrs	r3, r3, #1
 800539e:	f100 0001 	add.w	r0, r0, #1
 80053a2:	d003      	beq.n	80053ac <__lo0bits+0x58>
 80053a4:	6013      	str	r3, [r2, #0]
 80053a6:	4770      	bx	lr
 80053a8:	2000      	movs	r0, #0
 80053aa:	4770      	bx	lr
 80053ac:	2020      	movs	r0, #32
 80053ae:	4770      	bx	lr

080053b0 <__i2b>:
 80053b0:	b510      	push	{r4, lr}
 80053b2:	460c      	mov	r4, r1
 80053b4:	2101      	movs	r1, #1
 80053b6:	f7ff ff01 	bl	80051bc <_Balloc>
 80053ba:	4602      	mov	r2, r0
 80053bc:	b928      	cbnz	r0, 80053ca <__i2b+0x1a>
 80053be:	f44f 71a0 	mov.w	r1, #320	; 0x140
 80053c2:	4b04      	ldr	r3, [pc, #16]	; (80053d4 <__i2b+0x24>)
 80053c4:	4804      	ldr	r0, [pc, #16]	; (80053d8 <__i2b+0x28>)
 80053c6:	f000 fc9b 	bl	8005d00 <__assert_func>
 80053ca:	2301      	movs	r3, #1
 80053cc:	6144      	str	r4, [r0, #20]
 80053ce:	6103      	str	r3, [r0, #16]
 80053d0:	bd10      	pop	{r4, pc}
 80053d2:	bf00      	nop
 80053d4:	080069df 	.word	0x080069df
 80053d8:	080069f0 	.word	0x080069f0

080053dc <__multiply>:
 80053dc:	e92d 4ff0 	stmdb	sp!, {r4, r5, r6, r7, r8, r9, sl, fp, lr}
 80053e0:	4614      	mov	r4, r2
 80053e2:	690a      	ldr	r2, [r1, #16]
 80053e4:	6923      	ldr	r3, [r4, #16]
 80053e6:	460d      	mov	r5, r1
 80053e8:	429a      	cmp	r2, r3
 80053ea:	bfbe      	ittt	lt
 80053ec:	460b      	movlt	r3, r1
 80053ee:	4625      	movlt	r5, r4
 80053f0:	461c      	movlt	r4, r3
 80053f2:	f8d5 a010 	ldr.w	sl, [r5, #16]
 80053f6:	f8d4 9010 	ldr.w	r9, [r4, #16]
 80053fa:	68ab      	ldr	r3, [r5, #8]
 80053fc:	6869      	ldr	r1, [r5, #4]
 80053fe:	eb0a 0709 	add.w	r7, sl, r9
 8005402:	42bb      	cmp	r3, r7
 8005404:	b085      	sub	sp, #20
 8005406:	bfb8      	it	lt
 8005408:	3101      	addlt	r1, #1
 800540a:	f7ff fed7 	bl	80051bc <_Balloc>
 800540e:	b930      	cbnz	r0, 800541e <__multiply+0x42>
 8005410:	4602      	mov	r2, r0
 8005412:	f240 115d 	movw	r1, #349	; 0x15d
 8005416:	4b41      	ldr	r3, [pc, #260]	; (800551c <__multiply+0x140>)
 8005418:	4841      	ldr	r0, [pc, #260]	; (8005520 <__multiply+0x144>)
 800541a:	f000 fc71 	bl	8005d00 <__assert_func>
 800541e:	f100 0614 	add.w	r6, r0, #20
 8005422:	4633      	mov	r3, r6
 8005424:	2200      	movs	r2, #0
 8005426:	eb06 0887 	add.w	r8, r6, r7, lsl #2
 800542a:	4543      	cmp	r3, r8
 800542c:	d31e      	bcc.n	800546c <__multiply+0x90>
 800542e:	f105 0c14 	add.w	ip, r5, #20
 8005432:	f104 0314 	add.w	r3, r4, #20
 8005436:	eb0c 0c8a 	add.w	ip, ip, sl, lsl #2
 800543a:	eb03 0289 	add.w	r2, r3, r9, lsl #2
 800543e:	9202      	str	r2, [sp, #8]
 8005440:	ebac 0205 	sub.w	r2, ip, r5
 8005444:	3a15      	subs	r2, #21
 8005446:	f022 0203 	bic.w	r2, r2, #3
 800544a:	3204      	adds	r2, #4
 800544c:	f105 0115 	add.w	r1, r5, #21
 8005450:	458c      	cmp	ip, r1
 8005452:	bf38      	it	cc
 8005454:	2204      	movcc	r2, #4
 8005456:	9201      	str	r2, [sp, #4]
 8005458:	9a02      	ldr	r2, [sp, #8]
 800545a:	9303      	str	r3, [sp, #12]
 800545c:	429a      	cmp	r2, r3
 800545e:	d808      	bhi.n	8005472 <__multiply+0x96>
 8005460:	2f00      	cmp	r7, #0
 8005462:	dc55      	bgt.n	8005510 <__multiply+0x134>
 8005464:	6107      	str	r7, [r0, #16]
 8005466:	b005      	add	sp, #20
 8005468:	e8bd 8ff0 	ldmia.w	sp!, {r4, r5, r6, r7, r8, r9, sl, fp, pc}
 800546c:	f843 2b04 	str.w	r2, [r3], #4
 8005470:	e7db      	b.n	800542a <__multiply+0x4e>
 8005472:	f8b3 a000 	ldrh.w	sl, [r3]
 8005476:	f1ba 0f00 	cmp.w	sl, #0
 800547a:	d020      	beq.n	80054be <__multiply+0xe2>
 800547c:	46b1      	mov	r9, r6
 800547e:	2200      	movs	r2, #0
 8005480:	f105 0e14 	add.w	lr, r5, #20
 8005484:	f85e 4b04 	ldr.w	r4, [lr], #4
 8005488:	f8d9 b000 	ldr.w	fp, [r9]
 800548c:	b2a1      	uxth	r1, r4
 800548e:	fa1f fb8b 	uxth.w	fp, fp
 8005492:	fb0a b101 	mla	r1, sl, r1, fp
 8005496:	4411      	add	r1, r2
 8005498:	f8d9 2000 	ldr.w	r2, [r9]
 800549c:	0c24      	lsrs	r4, r4, #16
 800549e:	0c12      	lsrs	r2, r2, #16
 80054a0:	fb0a 2404 	mla	r4, sl, r4, r2
 80054a4:	eb04 4411 	add.w	r4, r4, r1, lsr #16
 80054a8:	b289      	uxth	r1, r1
 80054aa:	ea41 4104 	orr.w	r1, r1, r4, lsl #16
 80054ae:	45f4      	cmp	ip, lr
 80054b0:	ea4f 4214 	mov.w	r2, r4, lsr #16
 80054b4:	f849 1b04 	str.w	r1, [r9], #4
 80054b8:	d8e4      	bhi.n	8005484 <__multiply+0xa8>
 80054ba:	9901      	ldr	r1, [sp, #4]
 80054bc:	5072      	str	r2, [r6, r1]
 80054be:	9a03      	ldr	r2, [sp, #12]
 80054c0:	3304      	adds	r3, #4
 80054c2:	f8b2 9002 	ldrh.w	r9, [r2, #2]
 80054c6:	f1b9 0f00 	cmp.w	r9, #0
 80054ca:	d01f      	beq.n	800550c <__multiply+0x130>
 80054cc:	46b6      	mov	lr, r6
 80054ce:	f04f 0a00 	mov.w	sl, #0
 80054d2:	6834      	ldr	r4, [r6, #0]
 80054d4:	f105 0114 	add.w	r1, r5, #20
 80054d8:	880a      	ldrh	r2, [r1, #0]
 80054da:	f8be b002 	ldrh.w	fp, [lr, #2]
 80054de:	b2a4      	uxth	r4, r4
 80054e0:	fb09 b202 	mla	r2, r9, r2, fp
 80054e4:	4492      	add	sl, r2
 80054e6:	ea44 440a 	orr.w	r4, r4, sl, lsl #16
 80054ea:	f84e 4b04 	str.w	r4, [lr], #4
 80054ee:	f851 4b04 	ldr.w	r4, [r1], #4
 80054f2:	f8be 2000 	ldrh.w	r2, [lr]
 80054f6:	0c24      	lsrs	r4, r4, #16
 80054f8:	fb09 2404 	mla	r4, r9, r4, r2
 80054fc:	458c      	cmp	ip, r1
 80054fe:	eb04 441a 	add.w	r4, r4, sl, lsr #16
 8005502:	ea4f 4a14 	mov.w	sl, r4, lsr #16
 8005506:	d8e7      	bhi.n	80054d8 <__multiply+0xfc>
 8005508:	9a01      	ldr	r2, [sp, #4]
 800550a:	50b4      	str	r4, [r6, r2]
 800550c:	3604      	adds	r6, #4
 800550e:	e7a3      	b.n	8005458 <__multiply+0x7c>
 8005510:	f858 3d04 	ldr.w	r3, [r8, #-4]!
 8005514:	2b00      	cmp	r3, #0
 8005516:	d1a5      	bne.n	8005464 <__multiply+0x88>
 8005518:	3f01      	subs	r7, #1
 800551a:	e7a1      	b.n	8005460 <__multiply+0x84>
 800551c:	080069df 	.word	0x080069df
 8005520:	080069f0 	.word	0x080069f0

08005524 <__pow5mult>:
 8005524:	e92d 43f8 	stmdb	sp!, {r3, r4, r5, r6, r7, r8, r9, lr}
 8005528:	4615      	mov	r5, r2
 800552a:	f012 0203 	ands.w	r2, r2, #3
 800552e:	4606      	mov	r6, r0
 8005530:	460f      	mov	r7, r1
 8005532:	d007      	beq.n	8005544 <__pow5mult+0x20>
 8005534:	4c25      	ldr	r4, [pc, #148]	; (80055cc <__pow5mult+0xa8>)
 8005536:	3a01      	subs	r2, #1
 8005538:	2300      	movs	r3, #0
 800553a:	f854 2022 	ldr.w	r2, [r4, r2, lsl #2]
 800553e:	f7ff fe9f 	bl	8005280 <__multadd>
 8005542:	4607      	mov	r7, r0
 8005544:	10ad      	asrs	r5, r5, #2
 8005546:	d03d      	beq.n	80055c4 <__pow5mult+0xa0>
 8005548:	6a74      	ldr	r4, [r6, #36]	; 0x24
 800554a:	b97c      	cbnz	r4, 800556c <__pow5mult+0x48>
 800554c:	2010      	movs	r0, #16
 800554e:	f7ff fe11 	bl	8005174 <malloc>
 8005552:	4602      	mov	r2, r0
 8005554:	6270      	str	r0, [r6, #36]	; 0x24
 8005556:	b928      	cbnz	r0, 8005564 <__pow5mult+0x40>
 8005558:	f44f 71d7 	mov.w	r1, #430	; 0x1ae
 800555c:	4b1c      	ldr	r3, [pc, #112]	; (80055d0 <__pow5mult+0xac>)
 800555e:	481d      	ldr	r0, [pc, #116]	; (80055d4 <__pow5mult+0xb0>)
 8005560:	f000 fbce 	bl	8005d00 <__assert_func>
 8005564:	e9c0 4401 	strd	r4, r4, [r0, #4]
 8005568:	6004      	str	r4, [r0, #0]
 800556a:	60c4      	str	r4, [r0, #12]
 800556c:	f8d6 8024 	ldr.w	r8, [r6, #36]	; 0x24
 8005570:	f8d8 4008 	ldr.w	r4, [r8, #8]
 8005574:	b94c      	cbnz	r4, 800558a <__pow5mult+0x66>
 8005576:	f240 2171 	movw	r1, #625	; 0x271
 800557a:	4630      	mov	r0, r6
 800557c:	f7ff ff18 	bl	80053b0 <__i2b>
 8005580:	2300      	movs	r3, #0
 8005582:	4604      	mov	r4, r0
 8005584:	f8c8 0008 	str.w	r0, [r8, #8]
 8005588:	6003      	str	r3, [r0, #0]
 800558a:	f04f 0900 	mov.w	r9, #0
 800558e:	07eb      	lsls	r3, r5, #31
 8005590:	d50a      	bpl.n	80055a8 <__pow5mult+0x84>
 8005592:	4639      	mov	r1, r7
 8005594:	4622      	mov	r2, r4
 8005596:	4630      	mov	r0, r6
 8005598:	f7ff ff20 	bl	80053dc <__multiply>
 800559c:	4680      	mov	r8, r0
 800559e:	4639      	mov	r1, r7
 80055a0:	4630      	mov	r0, r6
 80055a2:	f7ff fe4b 	bl	800523c <_Bfree>
 80055a6:	4647      	mov	r7, r8
 80055a8:	106d      	asrs	r5, r5, #1
 80055aa:	d00b      	beq.n	80055c4 <__pow5mult+0xa0>
 80055ac:	6820      	ldr	r0, [r4, #0]
 80055ae:	b938      	cbnz	r0, 80055c0 <__pow5mult+0x9c>
 80055b0:	4622      	mov	r2, r4
 80055b2:	4621      	mov	r1, r4
 80055b4:	4630      	mov	r0, r6
 80055b6:	f7ff ff11 	bl	80053dc <__multiply>
 80055ba:	6020      	str	r0, [r4, #0]
 80055bc:	f8c0 9000 	str.w	r9, [r0]
 80055c0:	4604      	mov	r4, r0
 80055c2:	e7e4      	b.n	800558e <__pow5mult+0x6a>
 80055c4:	4638      	mov	r0, r7
 80055c6:	e8bd 83f8 	ldmia.w	sp!, {r3, r4, r5, r6, r7, r8, r9, pc}
 80055ca:	bf00      	nop
 80055cc:	08006b40 	.word	0x08006b40
 80055d0:	08006969 	.word	0x08006969
 80055d4:	080069f0 	.word	0x080069f0

080055d8 <__lshift>:
 80055d8:	e92d 47f0 	stmdb	sp!, {r4, r5, r6, r7, r8, r9, sl, lr}
 80055dc:	460c      	mov	r4, r1
 80055de:	4607      	mov	r7, r0
 80055e0:	4691      	mov	r9, r2
 80055e2:	6923      	ldr	r3, [r4, #16]
 80055e4:	6849      	ldr	r1, [r1, #4]
 80055e6:	eb03 1862 	add.w	r8, r3, r2, asr #5
 80055ea:	68a3      	ldr	r3, [r4, #8]
 80055ec:	ea4f 1a62 	mov.w	sl, r2, asr #5
 80055f0:	f108 0601 	add.w	r6, r8, #1
 80055f4:	42b3      	cmp	r3, r6
 80055f6:	db0b      	blt.n	8005610 <__lshift+0x38>
 80055f8:	4638      	mov	r0, r7
 80055fa:	f7ff fddf 	bl	80051bc <_Balloc>
 80055fe:	4605      	mov	r5, r0
 8005600:	b948      	cbnz	r0, 8005616 <__lshift+0x3e>
 8005602:	4602      	mov	r2, r0
 8005604:	f240 11d9 	movw	r1, #473	; 0x1d9
 8005608:	4b27      	ldr	r3, [pc, #156]	; (80056a8 <__lshift+0xd0>)
 800560a:	4828      	ldr	r0, [pc, #160]	; (80056ac <__lshift+0xd4>)
 800560c:	f000 fb78 	bl	8005d00 <__assert_func>
 8005610:	3101      	adds	r1, #1
 8005612:	005b      	lsls	r3, r3, #1
 8005614:	e7ee      	b.n	80055f4 <__lshift+0x1c>
 8005616:	2300      	movs	r3, #0
 8005618:	f100 0114 	add.w	r1, r0, #20
 800561c:	f100 0210 	add.w	r2, r0, #16
 8005620:	4618      	mov	r0, r3
 8005622:	4553      	cmp	r3, sl
 8005624:	db33      	blt.n	800568e <__lshift+0xb6>
 8005626:	6920      	ldr	r0, [r4, #16]
 8005628:	ea2a 7aea 	bic.w	sl, sl, sl, asr #31
 800562c:	f104 0314 	add.w	r3, r4, #20
 8005630:	f019 091f 	ands.w	r9, r9, #31
 8005634:	eb01 018a 	add.w	r1, r1, sl, lsl #2
 8005638:	eb03 0c80 	add.w	ip, r3, r0, lsl #2
 800563c:	d02b      	beq.n	8005696 <__lshift+0xbe>
 800563e:	468a      	mov	sl, r1
 8005640:	2200      	movs	r2, #0
 8005642:	f1c9 0e20 	rsb	lr, r9, #32
 8005646:	6818      	ldr	r0, [r3, #0]
 8005648:	fa00 f009 	lsl.w	r0, r0, r9
 800564c:	4302      	orrs	r2, r0
 800564e:	f84a 2b04 	str.w	r2, [sl], #4
 8005652:	f853 2b04 	ldr.w	r2, [r3], #4
 8005656:	459c      	cmp	ip, r3
 8005658:	fa22 f20e 	lsr.w	r2, r2, lr
 800565c:	d8f3      	bhi.n	8005646 <__lshift+0x6e>
 800565e:	ebac 0304 	sub.w	r3, ip, r4
 8005662:	3b15      	subs	r3, #21
 8005664:	f023 0303 	bic.w	r3, r3, #3
 8005668:	3304      	adds	r3, #4
 800566a:	f104 0015 	add.w	r0, r4, #21
 800566e:	4584      	cmp	ip, r0
 8005670:	bf38      	it	cc
 8005672:	2304      	movcc	r3, #4
 8005674:	50ca      	str	r2, [r1, r3]
 8005676:	b10a      	cbz	r2, 800567c <__lshift+0xa4>
 8005678:	f108 0602 	add.w	r6, r8, #2
 800567c:	3e01      	subs	r6, #1
 800567e:	4638      	mov	r0, r7
 8005680:	4621      	mov	r1, r4
 8005682:	612e      	str	r6, [r5, #16]
 8005684:	f7ff fdda 	bl	800523c <_Bfree>
 8005688:	4628      	mov	r0, r5
 800568a:	e8bd 87f0 	ldmia.w	sp!, {r4, r5, r6, r7, r8, r9, sl, pc}
 800568e:	f842 0f04 	str.w	r0, [r2, #4]!
 8005692:	3301      	adds	r3, #1
 8005694:	e7c5      	b.n	8005622 <__lshift+0x4a>
 8005696:	3904      	subs	r1, #4
 8005698:	f853 2b04 	ldr.w	r2, [r3], #4
 800569c:	459c      	cmp	ip, r3
 800569e:	f841 2f04 	str.w	r2, [r1, #4]!
 80056a2:	d8f9      	bhi.n	8005698 <__lshift+0xc0>
 80056a4:	e7ea      	b.n	800567c <__lshift+0xa4>
 80056a6:	bf00      	nop
 80056a8:	080069df 	.word	0x080069df
 80056ac:	080069f0 	.word	0x080069f0

080056b0 <__mcmp>:
 80056b0:	4603      	mov	r3, r0
 80056b2:	690a      	ldr	r2, [r1, #16]
 80056b4:	6900      	ldr	r0, [r0, #16]
 80056b6:	b530      	push	{r4, r5, lr}
 80056b8:	1a80      	subs	r0, r0, r2
 80056ba:	d10d      	bne.n	80056d8 <__mcmp+0x28>
 80056bc:	3314      	adds	r3, #20
 80056be:	3114      	adds	r1, #20
 80056c0:	eb03 0482 	add.w	r4, r3, r2, lsl #2
 80056c4:	eb01 0182 	add.w	r1, r1, r2, lsl #2
 80056c8:	f854 5d04 	ldr.w	r5, [r4, #-4]!
 80056cc:	f851 2d04 	ldr.w	r2, [r1, #-4]!
 80056d0:	4295      	cmp	r5, r2
 80056d2:	d002      	beq.n	80056da <__mcmp+0x2a>
 80056d4:	d304      	bcc.n	80056e0 <__mcmp+0x30>
 80056d6:	2001      	movs	r0, #1
 80056d8:	bd30      	pop	{r4, r5, pc}
 80056da:	42a3      	cmp	r3, r4
 80056dc:	d3f4      	bcc.n	80056c8 <__mcmp+0x18>
 80056de:	e7fb      	b.n	80056d8 <__mcmp+0x28>
 80056e0:	f04f 30ff 	mov.w	r0, #4294967295	; 0xffffffff
 80056e4:	e7f8      	b.n	80056d8 <__mcmp+0x28>
	...

080056e8 <__mdiff>:
 80056e8:	e92d 4ff8 	stmdb	sp!, {r3, r4, r5, r6, r7, r8, r9, sl, fp, lr}
 80056ec:	460c      	mov	r4, r1
 80056ee:	4606      	mov	r6, r0
 80056f0:	4611      	mov	r1, r2
 80056f2:	4620      	mov	r0, r4
 80056f4:	4692      	mov	sl, r2
 80056f6:	f7ff ffdb 	bl	80056b0 <__mcmp>
 80056fa:	1e05      	subs	r5, r0, #0
 80056fc:	d111      	bne.n	8005722 <__mdiff+0x3a>
 80056fe:	4629      	mov	r1, r5
 8005700:	4630      	mov	r0, r6
 8005702:	f7ff fd5b 	bl	80051bc <_Balloc>
 8005706:	4602      	mov	r2, r0
 8005708:	b928      	cbnz	r0, 8005716 <__mdiff+0x2e>
 800570a:	f240 2132 	movw	r1, #562	; 0x232
 800570e:	4b3c      	ldr	r3, [pc, #240]	; (8005800 <__mdiff+0x118>)
 8005710:	483c      	ldr	r0, [pc, #240]	; (8005804 <__mdiff+0x11c>)
 8005712:	f000 faf5 	bl	8005d00 <__assert_func>
 8005716:	2301      	movs	r3, #1
 8005718:	e9c0 3504 	strd	r3, r5, [r0, #16]
 800571c:	4610      	mov	r0, r2
 800571e:	e8bd 8ff8 	ldmia.w	sp!, {r3, r4, r5, r6, r7, r8, r9, sl, fp, pc}
 8005722:	bfa4      	itt	ge
 8005724:	4653      	movge	r3, sl
 8005726:	46a2      	movge	sl, r4
 8005728:	4630      	mov	r0, r6
 800572a:	f8da 1004 	ldr.w	r1, [sl, #4]
 800572e:	bfa6      	itte	ge
 8005730:	461c      	movge	r4, r3
 8005732:	2500      	movge	r5, #0
 8005734:	2501      	movlt	r5, #1
 8005736:	f7ff fd41 	bl	80051bc <_Balloc>
 800573a:	4602      	mov	r2, r0
 800573c:	b918      	cbnz	r0, 8005746 <__mdiff+0x5e>
 800573e:	f44f 7110 	mov.w	r1, #576	; 0x240
 8005742:	4b2f      	ldr	r3, [pc, #188]	; (8005800 <__mdiff+0x118>)
 8005744:	e7e4      	b.n	8005710 <__mdiff+0x28>
 8005746:	f100 0814 	add.w	r8, r0, #20
 800574a:	f8da 7010 	ldr.w	r7, [sl, #16]
 800574e:	60c5      	str	r5, [r0, #12]
 8005750:	f04f 0c00 	mov.w	ip, #0
 8005754:	f10a 0514 	add.w	r5, sl, #20
 8005758:	f10a 0010 	add.w	r0, sl, #16
 800575c:	46c2      	mov	sl, r8
 800575e:	6926      	ldr	r6, [r4, #16]
 8005760:	f104 0914 	add.w	r9, r4, #20
 8005764:	eb05 0e87 	add.w	lr, r5, r7, lsl #2
 8005768:	eb09 0686 	add.w	r6, r9, r6, lsl #2
 800576c:	f850 bf04 	ldr.w	fp, [r0, #4]!
 8005770:	f859 3b04 	ldr.w	r3, [r9], #4
 8005774:	fa1f f18b 	uxth.w	r1, fp
 8005778:	4461      	add	r1, ip
 800577a:	fa1f fc83 	uxth.w	ip, r3
 800577e:	0c1b      	lsrs	r3, r3, #16
 8005780:	eba1 010c 	sub.w	r1, r1, ip
 8005784:	ebc3 431b 	rsb	r3, r3, fp, lsr #16
 8005788:	eb03 4321 	add.w	r3, r3, r1, asr #16
 800578c:	b289      	uxth	r1, r1
 800578e:	ea4f 4c23 	mov.w	ip, r3, asr #16
 8005792:	454e      	cmp	r6, r9
 8005794:	ea41 4303 	orr.w	r3, r1, r3, lsl #16
 8005798:	f84a 3b04 	str.w	r3, [sl], #4
 800579c:	d8e6      	bhi.n	800576c <__mdiff+0x84>
 800579e:	1b33      	subs	r3, r6, r4
 80057a0:	3b15      	subs	r3, #21
 80057a2:	f023 0303 	bic.w	r3, r3, #3
 80057a6:	3415      	adds	r4, #21
 80057a8:	3304      	adds	r3, #4
 80057aa:	42a6      	cmp	r6, r4
 80057ac:	bf38      	it	cc
 80057ae:	2304      	movcc	r3, #4
 80057b0:	441d      	add	r5, r3
 80057b2:	4443      	add	r3, r8
 80057b4:	461e      	mov	r6, r3
 80057b6:	462c      	mov	r4, r5
 80057b8:	4574      	cmp	r4, lr
 80057ba:	d30e      	bcc.n	80057da <__mdiff+0xf2>
 80057bc:	f10e 0103 	add.w	r1, lr, #3
 80057c0:	1b49      	subs	r1, r1, r5
 80057c2:	f021 0103 	bic.w	r1, r1, #3
 80057c6:	3d03      	subs	r5, #3
 80057c8:	45ae      	cmp	lr, r5
 80057ca:	bf38      	it	cc
 80057cc:	2100      	movcc	r1, #0
 80057ce:	4419      	add	r1, r3
 80057d0:	f851 3d04 	ldr.w	r3, [r1, #-4]!
 80057d4:	b18b      	cbz	r3, 80057fa <__mdiff+0x112>
 80057d6:	6117      	str	r7, [r2, #16]
 80057d8:	e7a0      	b.n	800571c <__mdiff+0x34>
 80057da:	f854 8b04 	ldr.w	r8, [r4], #4
 80057de:	fa1f f188 	uxth.w	r1, r8
 80057e2:	4461      	add	r1, ip
 80057e4:	1408      	asrs	r0, r1, #16
 80057e6:	eb00 4018 	add.w	r0, r0, r8, lsr #16
 80057ea:	b289      	uxth	r1, r1
 80057ec:	ea41 4100 	orr.w	r1, r1, r0, lsl #16
 80057f0:	ea4f 4c20 	mov.w	ip, r0, asr #16
 80057f4:	f846 1b04 	str.w	r1, [r6], #4
 80057f8:	e7de      	b.n	80057b8 <__mdiff+0xd0>
 80057fa:	3f01      	subs	r7, #1
 80057fc:	e7e8      	b.n	80057d0 <__mdiff+0xe8>
 80057fe:	bf00      	nop
 8005800:	080069df 	.word	0x080069df
 8005804:	080069f0 	.word	0x080069f0

08005808 <__d2b>:
 8005808:	e92d 41f3 	stmdb	sp!, {r0, r1, r4, r5, r6, r7, r8, lr}
 800580c:	2101      	movs	r1, #1
 800580e:	e9dd 7608 	ldrd	r7, r6, [sp, #32]
 8005812:	4690      	mov	r8, r2
 8005814:	461d      	mov	r5, r3
 8005816:	f7ff fcd1 	bl	80051bc <_Balloc>
 800581a:	4604      	mov	r4, r0
 800581c:	b930      	cbnz	r0, 800582c <__d2b+0x24>
 800581e:	4602      	mov	r2, r0
 8005820:	f240 310a 	movw	r1, #778	; 0x30a
 8005824:	4b24      	ldr	r3, [pc, #144]	; (80058b8 <__d2b+0xb0>)
 8005826:	4825      	ldr	r0, [pc, #148]	; (80058bc <__d2b+0xb4>)
 8005828:	f000 fa6a 	bl	8005d00 <__assert_func>
 800582c:	f3c5 0313 	ubfx	r3, r5, #0, #20
 8005830:	f3c5 550a 	ubfx	r5, r5, #20, #11
 8005834:	bb2d      	cbnz	r5, 8005882 <__d2b+0x7a>
 8005836:	9301      	str	r3, [sp, #4]
 8005838:	f1b8 0300 	subs.w	r3, r8, #0
 800583c:	d026      	beq.n	800588c <__d2b+0x84>
 800583e:	4668      	mov	r0, sp
 8005840:	9300      	str	r3, [sp, #0]
 8005842:	f7ff fd87 	bl	8005354 <__lo0bits>
 8005846:	9900      	ldr	r1, [sp, #0]
 8005848:	b1f0      	cbz	r0, 8005888 <__d2b+0x80>
 800584a:	9a01      	ldr	r2, [sp, #4]
 800584c:	f1c0 0320 	rsb	r3, r0, #32
 8005850:	fa02 f303 	lsl.w	r3, r2, r3
 8005854:	430b      	orrs	r3, r1
 8005856:	40c2      	lsrs	r2, r0
 8005858:	6163      	str	r3, [r4, #20]
 800585a:	9201      	str	r2, [sp, #4]
 800585c:	9b01      	ldr	r3, [sp, #4]
 800585e:	2b00      	cmp	r3, #0
 8005860:	bf14      	ite	ne
 8005862:	2102      	movne	r1, #2
 8005864:	2101      	moveq	r1, #1
 8005866:	61a3      	str	r3, [r4, #24]
 8005868:	6121      	str	r1, [r4, #16]
 800586a:	b1c5      	cbz	r5, 800589e <__d2b+0x96>
 800586c:	f2a5 4533 	subw	r5, r5, #1075	; 0x433
 8005870:	4405      	add	r5, r0
 8005872:	f1c0 0035 	rsb	r0, r0, #53	; 0x35
 8005876:	603d      	str	r5, [r7, #0]
 8005878:	6030      	str	r0, [r6, #0]
 800587a:	4620      	mov	r0, r4
 800587c:	b002      	add	sp, #8
 800587e:	e8bd 81f0 	ldmia.w	sp!, {r4, r5, r6, r7, r8, pc}
 8005882:	f443 1380 	orr.w	r3, r3, #1048576	; 0x100000
 8005886:	e7d6      	b.n	8005836 <__d2b+0x2e>
 8005888:	6161      	str	r1, [r4, #20]
 800588a:	e7e7      	b.n	800585c <__d2b+0x54>
 800588c:	a801      	add	r0, sp, #4
 800588e:	f7ff fd61 	bl	8005354 <__lo0bits>
 8005892:	2101      	movs	r1, #1
 8005894:	9b01      	ldr	r3, [sp, #4]
 8005896:	6121      	str	r1, [r4, #16]
 8005898:	6163      	str	r3, [r4, #20]
 800589a:	3020      	adds	r0, #32
 800589c:	e7e5      	b.n	800586a <__d2b+0x62>
 800589e:	eb04 0381 	add.w	r3, r4, r1, lsl #2
 80058a2:	f2a0 4032 	subw	r0, r0, #1074	; 0x432
 80058a6:	6038      	str	r0, [r7, #0]
 80058a8:	6918      	ldr	r0, [r3, #16]
 80058aa:	f7ff fd33 	bl	8005314 <__hi0bits>
 80058ae:	ebc0 1141 	rsb	r1, r0, r1, lsl #5
 80058b2:	6031      	str	r1, [r6, #0]
 80058b4:	e7e1      	b.n	800587a <__d2b+0x72>
 80058b6:	bf00      	nop
 80058b8:	080069df 	.word	0x080069df
 80058bc:	080069f0 	.word	0x080069f0

080058c0 <_calloc_r>:
 80058c0:	b538      	push	{r3, r4, r5, lr}
 80058c2:	fb02 f501 	mul.w	r5, r2, r1
 80058c6:	4629      	mov	r1, r5
 80058c8:	f000 f854 	bl	8005974 <_malloc_r>
 80058cc:	4604      	mov	r4, r0
 80058ce:	b118      	cbz	r0, 80058d8 <_calloc_r+0x18>
 80058d0:	462a      	mov	r2, r5
 80058d2:	2100      	movs	r1, #0
 80058d4:	f7fe f93c 	bl	8003b50 <memset>
 80058d8:	4620      	mov	r0, r4
 80058da:	bd38      	pop	{r3, r4, r5, pc}

080058dc <_free_r>:
 80058dc:	b538      	push	{r3, r4, r5, lr}
 80058de:	4605      	mov	r5, r0
 80058e0:	2900      	cmp	r1, #0
 80058e2:	d043      	beq.n	800596c <_free_r+0x90>
 80058e4:	f851 3c04 	ldr.w	r3, [r1, #-4]
 80058e8:	1f0c      	subs	r4, r1, #4
 80058ea:	2b00      	cmp	r3, #0
 80058ec:	bfb8      	it	lt
 80058ee:	18e4      	addlt	r4, r4, r3
 80058f0:	f000 fa62 	bl	8005db8 <__malloc_lock>
 80058f4:	4a1e      	ldr	r2, [pc, #120]	; (8005970 <_free_r+0x94>)
 80058f6:	6813      	ldr	r3, [r2, #0]
 80058f8:	4610      	mov	r0, r2
 80058fa:	b933      	cbnz	r3, 800590a <_free_r+0x2e>
 80058fc:	6063      	str	r3, [r4, #4]
 80058fe:	6014      	str	r4, [r2, #0]
 8005900:	4628      	mov	r0, r5
 8005902:	e8bd 4038 	ldmia.w	sp!, {r3, r4, r5, lr}
 8005906:	f000 ba5d 	b.w	8005dc4 <__malloc_unlock>
 800590a:	42a3      	cmp	r3, r4
 800590c:	d90a      	bls.n	8005924 <_free_r+0x48>
 800590e:	6821      	ldr	r1, [r4, #0]
 8005910:	1862      	adds	r2, r4, r1
 8005912:	4293      	cmp	r3, r2
 8005914:	bf01      	itttt	eq
 8005916:	681a      	ldreq	r2, [r3, #0]
 8005918:	685b      	ldreq	r3, [r3, #4]
 800591a:	1852      	addeq	r2, r2, r1
 800591c:	6022      	streq	r2, [r4, #0]
 800591e:	6063      	str	r3, [r4, #4]
 8005920:	6004      	str	r4, [r0, #0]
 8005922:	e7ed      	b.n	8005900 <_free_r+0x24>
 8005924:	461a      	mov	r2, r3
 8005926:	685b      	ldr	r3, [r3, #4]
 8005928:	b10b      	cbz	r3, 800592e <_free_r+0x52>
 800592a:	42a3      	cmp	r3, r4
 800592c:	d9fa      	bls.n	8005924 <_free_r+0x48>
 800592e:	6811      	ldr	r1, [r2, #0]
 8005930:	1850      	adds	r0, r2, r1
 8005932:	42a0      	cmp	r0, r4
 8005934:	d10b      	bne.n	800594e <_free_r+0x72>
 8005936:	6820      	ldr	r0, [r4, #0]
 8005938:	4401      	add	r1, r0
 800593a:	1850      	adds	r0, r2, r1
 800593c:	4283      	cmp	r3, r0
 800593e:	6011      	str	r1, [r2, #0]
 8005940:	d1de      	bne.n	8005900 <_free_r+0x24>
 8005942:	6818      	ldr	r0, [r3, #0]
 8005944:	685b      	ldr	r3, [r3, #4]
 8005946:	4401      	add	r1, r0
 8005948:	6011      	str	r1, [r2, #0]
 800594a:	6053      	str	r3, [r2, #4]
 800594c:	e7d8      	b.n	8005900 <_free_r+0x24>
 800594e:	d902      	bls.n	8005956 <_free_r+0x7a>
 8005950:	230c      	movs	r3, #12
 8005952:	602b      	str	r3, [r5, #0]
 8005954:	e7d4      	b.n	8005900 <_free_r+0x24>
 8005956:	6820      	ldr	r0, [r4, #0]
 8005958:	1821      	adds	r1, r4, r0
 800595a:	428b      	cmp	r3, r1
 800595c:	bf01      	itttt	eq
 800595e:	6819      	ldreq	r1, [r3, #0]
 8005960:	685b      	ldreq	r3, [r3, #4]
 8005962:	1809      	addeq	r1, r1, r0
 8005964:	6021      	streq	r1, [r4, #0]
 8005966:	6063      	str	r3, [r4, #4]
 8005968:	6054      	str	r4, [r2, #4]
 800596a:	e7c9      	b.n	8005900 <_free_r+0x24>
 800596c:	bd38      	pop	{r3, r4, r5, pc}
 800596e:	bf00      	nop
 8005970:	20000264 	.word	0x20000264

08005974 <_malloc_r>:
 8005974:	b5f8      	push	{r3, r4, r5, r6, r7, lr}
 8005976:	1ccd      	adds	r5, r1, #3
 8005978:	f025 0503 	bic.w	r5, r5, #3
 800597c:	3508      	adds	r5, #8
 800597e:	2d0c      	cmp	r5, #12
 8005980:	bf38      	it	cc
 8005982:	250c      	movcc	r5, #12
 8005984:	2d00      	cmp	r5, #0
 8005986:	4606      	mov	r6, r0
 8005988:	db01      	blt.n	800598e <_malloc_r+0x1a>
 800598a:	42a9      	cmp	r1, r5
 800598c:	d903      	bls.n	8005996 <_malloc_r+0x22>
 800598e:	230c      	movs	r3, #12
 8005990:	6033      	str	r3, [r6, #0]
 8005992:	2000      	movs	r0, #0
 8005994:	bdf8      	pop	{r3, r4, r5, r6, r7, pc}
 8005996:	f000 fa0f 	bl	8005db8 <__malloc_lock>
 800599a:	4921      	ldr	r1, [pc, #132]	; (8005a20 <_malloc_r+0xac>)
 800599c:	680a      	ldr	r2, [r1, #0]
 800599e:	4614      	mov	r4, r2
 80059a0:	b99c      	cbnz	r4, 80059ca <_malloc_r+0x56>
 80059a2:	4f20      	ldr	r7, [pc, #128]	; (8005a24 <_malloc_r+0xb0>)
 80059a4:	683b      	ldr	r3, [r7, #0]
 80059a6:	b923      	cbnz	r3, 80059b2 <_malloc_r+0x3e>
 80059a8:	4621      	mov	r1, r4
 80059aa:	4630      	mov	r0, r6
 80059ac:	f000 f998 	bl	8005ce0 <_sbrk_r>
 80059b0:	6038      	str	r0, [r7, #0]
 80059b2:	4629      	mov	r1, r5
 80059b4:	4630      	mov	r0, r6
 80059b6:	f000 f993 	bl	8005ce0 <_sbrk_r>
 80059ba:	1c43      	adds	r3, r0, #1
 80059bc:	d123      	bne.n	8005a06 <_malloc_r+0x92>
 80059be:	230c      	movs	r3, #12
 80059c0:	4630      	mov	r0, r6
 80059c2:	6033      	str	r3, [r6, #0]
 80059c4:	f000 f9fe 	bl	8005dc4 <__malloc_unlock>
 80059c8:	e7e3      	b.n	8005992 <_malloc_r+0x1e>
 80059ca:	6823      	ldr	r3, [r4, #0]
 80059cc:	1b5b      	subs	r3, r3, r5
 80059ce:	d417      	bmi.n	8005a00 <_malloc_r+0x8c>
 80059d0:	2b0b      	cmp	r3, #11
 80059d2:	d903      	bls.n	80059dc <_malloc_r+0x68>
 80059d4:	6023      	str	r3, [r4, #0]
 80059d6:	441c      	add	r4, r3
 80059d8:	6025      	str	r5, [r4, #0]
 80059da:	e004      	b.n	80059e6 <_malloc_r+0x72>
 80059dc:	6863      	ldr	r3, [r4, #4]
 80059de:	42a2      	cmp	r2, r4
 80059e0:	bf0c      	ite	eq
 80059e2:	600b      	streq	r3, [r1, #0]
 80059e4:	6053      	strne	r3, [r2, #4]
 80059e6:	4630      	mov	r0, r6
 80059e8:	f000 f9ec 	bl	8005dc4 <__malloc_unlock>
 80059ec:	f104 000b 	add.w	r0, r4, #11
 80059f0:	1d23      	adds	r3, r4, #4
 80059f2:	f020 0007 	bic.w	r0, r0, #7
 80059f6:	1ac2      	subs	r2, r0, r3
 80059f8:	d0cc      	beq.n	8005994 <_malloc_r+0x20>
 80059fa:	1a1b      	subs	r3, r3, r0
 80059fc:	50a3      	str	r3, [r4, r2]
 80059fe:	e7c9      	b.n	8005994 <_malloc_r+0x20>
 8005a00:	4622      	mov	r2, r4
 8005a02:	6864      	ldr	r4, [r4, #4]
 8005a04:	e7cc      	b.n	80059a0 <_malloc_r+0x2c>
 8005a06:	1cc4      	adds	r4, r0, #3
 8005a08:	f024 0403 	bic.w	r4, r4, #3
 8005a0c:	42a0      	cmp	r0, r4
 8005a0e:	d0e3      	beq.n	80059d8 <_malloc_r+0x64>
 8005a10:	1a21      	subs	r1, r4, r0
 8005a12:	4630      	mov	r0, r6
 8005a14:	f000 f964 	bl	8005ce0 <_sbrk_r>
 8005a18:	3001      	adds	r0, #1
 8005a1a:	d1dd      	bne.n	80059d8 <_malloc_r+0x64>
 8005a1c:	e7cf      	b.n	80059be <_malloc_r+0x4a>
 8005a1e:	bf00      	nop
 8005a20:	20000264 	.word	0x20000264
 8005a24:	20000268 	.word	0x20000268

08005a28 <__ssputs_r>:
 8005a28:	e92d 47f0 	stmdb	sp!, {r4, r5, r6, r7, r8, r9, sl, lr}
 8005a2c:	688e      	ldr	r6, [r1, #8]
 8005a2e:	4682      	mov	sl, r0
 8005a30:	429e      	cmp	r6, r3
 8005a32:	460c      	mov	r4, r1
 8005a34:	4690      	mov	r8, r2
 8005a36:	461f      	mov	r7, r3
 8005a38:	d838      	bhi.n	8005aac <__ssputs_r+0x84>
 8005a3a:	898a      	ldrh	r2, [r1, #12]
 8005a3c:	f412 6f90 	tst.w	r2, #1152	; 0x480
 8005a40:	d032      	beq.n	8005aa8 <__ssputs_r+0x80>
 8005a42:	6825      	ldr	r5, [r4, #0]
 8005a44:	6909      	ldr	r1, [r1, #16]
 8005a46:	3301      	adds	r3, #1
 8005a48:	eba5 0901 	sub.w	r9, r5, r1
 8005a4c:	6965      	ldr	r5, [r4, #20]
 8005a4e:	444b      	add	r3, r9
 8005a50:	eb05 0545 	add.w	r5, r5, r5, lsl #1
 8005a54:	eb05 75d5 	add.w	r5, r5, r5, lsr #31
 8005a58:	106d      	asrs	r5, r5, #1
 8005a5a:	429d      	cmp	r5, r3
 8005a5c:	bf38      	it	cc
 8005a5e:	461d      	movcc	r5, r3
 8005a60:	0553      	lsls	r3, r2, #21
 8005a62:	d531      	bpl.n	8005ac8 <__ssputs_r+0xa0>
 8005a64:	4629      	mov	r1, r5
 8005a66:	f7ff ff85 	bl	8005974 <_malloc_r>
 8005a6a:	4606      	mov	r6, r0
 8005a6c:	b950      	cbnz	r0, 8005a84 <__ssputs_r+0x5c>
 8005a6e:	230c      	movs	r3, #12
 8005a70:	f04f 30ff 	mov.w	r0, #4294967295	; 0xffffffff
 8005a74:	f8ca 3000 	str.w	r3, [sl]
 8005a78:	89a3      	ldrh	r3, [r4, #12]
 8005a7a:	f043 0340 	orr.w	r3, r3, #64	; 0x40
 8005a7e:	81a3      	strh	r3, [r4, #12]
 8005a80:	e8bd 87f0 	ldmia.w	sp!, {r4, r5, r6, r7, r8, r9, sl, pc}
 8005a84:	464a      	mov	r2, r9
 8005a86:	6921      	ldr	r1, [r4, #16]
 8005a88:	f7ff fb8a 	bl	80051a0 <memcpy>
 8005a8c:	89a3      	ldrh	r3, [r4, #12]
 8005a8e:	f423 6390 	bic.w	r3, r3, #1152	; 0x480
 8005a92:	f043 0380 	orr.w	r3, r3, #128	; 0x80
 8005a96:	81a3      	strh	r3, [r4, #12]
 8005a98:	6126      	str	r6, [r4, #16]
 8005a9a:	444e      	add	r6, r9
 8005a9c:	6026      	str	r6, [r4, #0]
 8005a9e:	463e      	mov	r6, r7
 8005aa0:	6165      	str	r5, [r4, #20]
 8005aa2:	eba5 0509 	sub.w	r5, r5, r9
 8005aa6:	60a5      	str	r5, [r4, #8]
 8005aa8:	42be      	cmp	r6, r7
 8005aaa:	d900      	bls.n	8005aae <__ssputs_r+0x86>
 8005aac:	463e      	mov	r6, r7
 8005aae:	4632      	mov	r2, r6
 8005ab0:	4641      	mov	r1, r8
 8005ab2:	6820      	ldr	r0, [r4, #0]
 8005ab4:	f000 f966 	bl	8005d84 <memmove>
 8005ab8:	68a3      	ldr	r3, [r4, #8]
 8005aba:	6822      	ldr	r2, [r4, #0]
 8005abc:	1b9b      	subs	r3, r3, r6
 8005abe:	4432      	add	r2, r6
 8005ac0:	2000      	movs	r0, #0
 8005ac2:	60a3      	str	r3, [r4, #8]
 8005ac4:	6022      	str	r2, [r4, #0]
 8005ac6:	e7db      	b.n	8005a80 <__ssputs_r+0x58>
 8005ac8:	462a      	mov	r2, r5
 8005aca:	f000 f981 	bl	8005dd0 <_realloc_r>
 8005ace:	4606      	mov	r6, r0
 8005ad0:	2800      	cmp	r0, #0
 8005ad2:	d1e1      	bne.n	8005a98 <__ssputs_r+0x70>
 8005ad4:	4650      	mov	r0, sl
 8005ad6:	6921      	ldr	r1, [r4, #16]
 8005ad8:	f7ff ff00 	bl	80058dc <_free_r>
 8005adc:	e7c7      	b.n	8005a6e <__ssputs_r+0x46>
	...

08005ae0 <_svfiprintf_r>:
 8005ae0:	e92d 4ff0 	stmdb	sp!, {r4, r5, r6, r7, r8, r9, sl, fp, lr}
 8005ae4:	4698      	mov	r8, r3
 8005ae6:	898b      	ldrh	r3, [r1, #12]
 8005ae8:	4607      	mov	r7, r0
 8005aea:	061b      	lsls	r3, r3, #24
 8005aec:	460d      	mov	r5, r1
 8005aee:	4614      	mov	r4, r2
 8005af0:	b09d      	sub	sp, #116	; 0x74
 8005af2:	d50e      	bpl.n	8005b12 <_svfiprintf_r+0x32>
 8005af4:	690b      	ldr	r3, [r1, #16]
 8005af6:	b963      	cbnz	r3, 8005b12 <_svfiprintf_r+0x32>
 8005af8:	2140      	movs	r1, #64	; 0x40
 8005afa:	f7ff ff3b 	bl	8005974 <_malloc_r>
 8005afe:	6028      	str	r0, [r5, #0]
 8005b00:	6128      	str	r0, [r5, #16]
 8005b02:	b920      	cbnz	r0, 8005b0e <_svfiprintf_r+0x2e>
 8005b04:	230c      	movs	r3, #12
 8005b06:	603b      	str	r3, [r7, #0]
 8005b08:	f04f 30ff 	mov.w	r0, #4294967295	; 0xffffffff
 8005b0c:	e0d1      	b.n	8005cb2 <_svfiprintf_r+0x1d2>
 8005b0e:	2340      	movs	r3, #64	; 0x40
 8005b10:	616b      	str	r3, [r5, #20]
 8005b12:	2300      	movs	r3, #0
 8005b14:	9309      	str	r3, [sp, #36]	; 0x24
 8005b16:	2320      	movs	r3, #32
 8005b18:	f88d 3029 	strb.w	r3, [sp, #41]	; 0x29
 8005b1c:	2330      	movs	r3, #48	; 0x30
 8005b1e:	f04f 0901 	mov.w	r9, #1
 8005b22:	f8cd 800c 	str.w	r8, [sp, #12]
 8005b26:	f8df 81a4 	ldr.w	r8, [pc, #420]	; 8005ccc <_svfiprintf_r+0x1ec>
 8005b2a:	f88d 302a 	strb.w	r3, [sp, #42]	; 0x2a
 8005b2e:	4623      	mov	r3, r4
 8005b30:	469a      	mov	sl, r3
 8005b32:	f813 2b01 	ldrb.w	r2, [r3], #1
 8005b36:	b10a      	cbz	r2, 8005b3c <_svfiprintf_r+0x5c>
 8005b38:	2a25      	cmp	r2, #37	; 0x25
 8005b3a:	d1f9      	bne.n	8005b30 <_svfiprintf_r+0x50>
 8005b3c:	ebba 0b04 	subs.w	fp, sl, r4
 8005b40:	d00b      	beq.n	8005b5a <_svfiprintf_r+0x7a>
 8005b42:	465b      	mov	r3, fp
 8005b44:	4622      	mov	r2, r4
 8005b46:	4629      	mov	r1, r5
 8005b48:	4638      	mov	r0, r7
 8005b4a:	f7ff ff6d 	bl	8005a28 <__ssputs_r>
 8005b4e:	3001      	adds	r0, #1
 8005b50:	f000 80aa 	beq.w	8005ca8 <_svfiprintf_r+0x1c8>
 8005b54:	9a09      	ldr	r2, [sp, #36]	; 0x24
 8005b56:	445a      	add	r2, fp
 8005b58:	9209      	str	r2, [sp, #36]	; 0x24
 8005b5a:	f89a 3000 	ldrb.w	r3, [sl]
 8005b5e:	2b00      	cmp	r3, #0
 8005b60:	f000 80a2 	beq.w	8005ca8 <_svfiprintf_r+0x1c8>
 8005b64:	2300      	movs	r3, #0
 8005b66:	f04f 32ff 	mov.w	r2, #4294967295	; 0xffffffff
 8005b6a:	e9cd 2305 	strd	r2, r3, [sp, #20]
 8005b6e:	f10a 0a01 	add.w	sl, sl, #1
 8005b72:	9304      	str	r3, [sp, #16]
 8005b74:	9307      	str	r3, [sp, #28]
 8005b76:	f88d 3053 	strb.w	r3, [sp, #83]	; 0x53
 8005b7a:	931a      	str	r3, [sp, #104]	; 0x68
 8005b7c:	4654      	mov	r4, sl
 8005b7e:	2205      	movs	r2, #5
 8005b80:	f814 1b01 	ldrb.w	r1, [r4], #1
 8005b84:	4851      	ldr	r0, [pc, #324]	; (8005ccc <_svfiprintf_r+0x1ec>)
 8005b86:	f7ff fafd 	bl	8005184 <memchr>
 8005b8a:	9a04      	ldr	r2, [sp, #16]
 8005b8c:	b9d8      	cbnz	r0, 8005bc6 <_svfiprintf_r+0xe6>
 8005b8e:	06d0      	lsls	r0, r2, #27
 8005b90:	bf44      	itt	mi
 8005b92:	2320      	movmi	r3, #32
 8005b94:	f88d 3053 	strbmi.w	r3, [sp, #83]	; 0x53
 8005b98:	0711      	lsls	r1, r2, #28
 8005b9a:	bf44      	itt	mi
 8005b9c:	232b      	movmi	r3, #43	; 0x2b
 8005b9e:	f88d 3053 	strbmi.w	r3, [sp, #83]	; 0x53
 8005ba2:	f89a 3000 	ldrb.w	r3, [sl]
 8005ba6:	2b2a      	cmp	r3, #42	; 0x2a
 8005ba8:	d015      	beq.n	8005bd6 <_svfiprintf_r+0xf6>
 8005baa:	4654      	mov	r4, sl
 8005bac:	2000      	movs	r0, #0
 8005bae:	f04f 0c0a 	mov.w	ip, #10
 8005bb2:	9a07      	ldr	r2, [sp, #28]
 8005bb4:	4621      	mov	r1, r4
 8005bb6:	f811 3b01 	ldrb.w	r3, [r1], #1
 8005bba:	3b30      	subs	r3, #48	; 0x30
 8005bbc:	2b09      	cmp	r3, #9
 8005bbe:	d94e      	bls.n	8005c5e <_svfiprintf_r+0x17e>
 8005bc0:	b1b0      	cbz	r0, 8005bf0 <_svfiprintf_r+0x110>
 8005bc2:	9207      	str	r2, [sp, #28]
 8005bc4:	e014      	b.n	8005bf0 <_svfiprintf_r+0x110>
 8005bc6:	eba0 0308 	sub.w	r3, r0, r8
 8005bca:	fa09 f303 	lsl.w	r3, r9, r3
 8005bce:	4313      	orrs	r3, r2
 8005bd0:	46a2      	mov	sl, r4
 8005bd2:	9304      	str	r3, [sp, #16]
 8005bd4:	e7d2      	b.n	8005b7c <_svfiprintf_r+0x9c>
 8005bd6:	9b03      	ldr	r3, [sp, #12]
 8005bd8:	1d19      	adds	r1, r3, #4
 8005bda:	681b      	ldr	r3, [r3, #0]
 8005bdc:	9103      	str	r1, [sp, #12]
 8005bde:	2b00      	cmp	r3, #0
 8005be0:	bfbb      	ittet	lt
 8005be2:	425b      	neglt	r3, r3
 8005be4:	f042 0202 	orrlt.w	r2, r2, #2
 8005be8:	9307      	strge	r3, [sp, #28]
 8005bea:	9307      	strlt	r3, [sp, #28]
 8005bec:	bfb8      	it	lt
 8005bee:	9204      	strlt	r2, [sp, #16]
 8005bf0:	7823      	ldrb	r3, [r4, #0]
 8005bf2:	2b2e      	cmp	r3, #46	; 0x2e
 8005bf4:	d10c      	bne.n	8005c10 <_svfiprintf_r+0x130>
 8005bf6:	7863      	ldrb	r3, [r4, #1]
 8005bf8:	2b2a      	cmp	r3, #42	; 0x2a
 8005bfa:	d135      	bne.n	8005c68 <_svfiprintf_r+0x188>
 8005bfc:	9b03      	ldr	r3, [sp, #12]
 8005bfe:	3402      	adds	r4, #2
 8005c00:	1d1a      	adds	r2, r3, #4
 8005c02:	681b      	ldr	r3, [r3, #0]
 8005c04:	9203      	str	r2, [sp, #12]
 8005c06:	2b00      	cmp	r3, #0
 8005c08:	bfb8      	it	lt
 8005c0a:	f04f 33ff 	movlt.w	r3, #4294967295	; 0xffffffff
 8005c0e:	9305      	str	r3, [sp, #20]
 8005c10:	f8df a0c8 	ldr.w	sl, [pc, #200]	; 8005cdc <_svfiprintf_r+0x1fc>
 8005c14:	2203      	movs	r2, #3
 8005c16:	4650      	mov	r0, sl
 8005c18:	7821      	ldrb	r1, [r4, #0]
 8005c1a:	f7ff fab3 	bl	8005184 <memchr>
 8005c1e:	b140      	cbz	r0, 8005c32 <_svfiprintf_r+0x152>
 8005c20:	2340      	movs	r3, #64	; 0x40
 8005c22:	eba0 000a 	sub.w	r0, r0, sl
 8005c26:	fa03 f000 	lsl.w	r0, r3, r0
 8005c2a:	9b04      	ldr	r3, [sp, #16]
 8005c2c:	3401      	adds	r4, #1
 8005c2e:	4303      	orrs	r3, r0
 8005c30:	9304      	str	r3, [sp, #16]
 8005c32:	f814 1b01 	ldrb.w	r1, [r4], #1
 8005c36:	2206      	movs	r2, #6
 8005c38:	4825      	ldr	r0, [pc, #148]	; (8005cd0 <_svfiprintf_r+0x1f0>)
 8005c3a:	f88d 1028 	strb.w	r1, [sp, #40]	; 0x28
 8005c3e:	f7ff faa1 	bl	8005184 <memchr>
 8005c42:	2800      	cmp	r0, #0
 8005c44:	d038      	beq.n	8005cb8 <_svfiprintf_r+0x1d8>
 8005c46:	4b23      	ldr	r3, [pc, #140]	; (8005cd4 <_svfiprintf_r+0x1f4>)
 8005c48:	bb1b      	cbnz	r3, 8005c92 <_svfiprintf_r+0x1b2>
 8005c4a:	9b03      	ldr	r3, [sp, #12]
 8005c4c:	3307      	adds	r3, #7
 8005c4e:	f023 0307 	bic.w	r3, r3, #7
 8005c52:	3308      	adds	r3, #8
 8005c54:	9303      	str	r3, [sp, #12]
 8005c56:	9b09      	ldr	r3, [sp, #36]	; 0x24
 8005c58:	4433      	add	r3, r6
 8005c5a:	9309      	str	r3, [sp, #36]	; 0x24
 8005c5c:	e767      	b.n	8005b2e <_svfiprintf_r+0x4e>
 8005c5e:	460c      	mov	r4, r1
 8005c60:	2001      	movs	r0, #1
 8005c62:	fb0c 3202 	mla	r2, ip, r2, r3
 8005c66:	e7a5      	b.n	8005bb4 <_svfiprintf_r+0xd4>
 8005c68:	2300      	movs	r3, #0
 8005c6a:	f04f 0c0a 	mov.w	ip, #10
 8005c6e:	4619      	mov	r1, r3
 8005c70:	3401      	adds	r4, #1
 8005c72:	9305      	str	r3, [sp, #20]
 8005c74:	4620      	mov	r0, r4
 8005c76:	f810 2b01 	ldrb.w	r2, [r0], #1
 8005c7a:	3a30      	subs	r2, #48	; 0x30
 8005c7c:	2a09      	cmp	r2, #9
 8005c7e:	d903      	bls.n	8005c88 <_svfiprintf_r+0x1a8>
 8005c80:	2b00      	cmp	r3, #0
 8005c82:	d0c5      	beq.n	8005c10 <_svfiprintf_r+0x130>
 8005c84:	9105      	str	r1, [sp, #20]
 8005c86:	e7c3      	b.n	8005c10 <_svfiprintf_r+0x130>
 8005c88:	4604      	mov	r4, r0
 8005c8a:	2301      	movs	r3, #1
 8005c8c:	fb0c 2101 	mla	r1, ip, r1, r2
 8005c90:	e7f0      	b.n	8005c74 <_svfiprintf_r+0x194>
 8005c92:	ab03      	add	r3, sp, #12
 8005c94:	9300      	str	r3, [sp, #0]
 8005c96:	462a      	mov	r2, r5
 8005c98:	4638      	mov	r0, r7
 8005c9a:	4b0f      	ldr	r3, [pc, #60]	; (8005cd8 <_svfiprintf_r+0x1f8>)
 8005c9c:	a904      	add	r1, sp, #16
 8005c9e:	f7fd fffd 	bl	8003c9c <_printf_float>
 8005ca2:	1c42      	adds	r2, r0, #1
 8005ca4:	4606      	mov	r6, r0
 8005ca6:	d1d6      	bne.n	8005c56 <_svfiprintf_r+0x176>
 8005ca8:	89ab      	ldrh	r3, [r5, #12]
 8005caa:	065b      	lsls	r3, r3, #25
 8005cac:	f53f af2c 	bmi.w	8005b08 <_svfiprintf_r+0x28>
 8005cb0:	9809      	ldr	r0, [sp, #36]	; 0x24
 8005cb2:	b01d      	add	sp, #116	; 0x74
 8005cb4:	e8bd 8ff0 	ldmia.w	sp!, {r4, r5, r6, r7, r8, r9, sl, fp, pc}
 8005cb8:	ab03      	add	r3, sp, #12
 8005cba:	9300      	str	r3, [sp, #0]
 8005cbc:	462a      	mov	r2, r5
 8005cbe:	4638      	mov	r0, r7
 8005cc0:	4b05      	ldr	r3, [pc, #20]	; (8005cd8 <_svfiprintf_r+0x1f8>)
 8005cc2:	a904      	add	r1, sp, #16
 8005cc4:	f7fe fa86 	bl	80041d4 <_printf_i>
 8005cc8:	e7eb      	b.n	8005ca2 <_svfiprintf_r+0x1c2>
 8005cca:	bf00      	nop
 8005ccc:	08006b4c 	.word	0x08006b4c
 8005cd0:	08006b56 	.word	0x08006b56
 8005cd4:	08003c9d 	.word	0x08003c9d
 8005cd8:	08005a29 	.word	0x08005a29
 8005cdc:	08006b52 	.word	0x08006b52

08005ce0 <_sbrk_r>:
 8005ce0:	b538      	push	{r3, r4, r5, lr}
 8005ce2:	2300      	movs	r3, #0
 8005ce4:	4d05      	ldr	r5, [pc, #20]	; (8005cfc <_sbrk_r+0x1c>)
 8005ce6:	4604      	mov	r4, r0
 8005ce8:	4608      	mov	r0, r1
 8005cea:	602b      	str	r3, [r5, #0]
 8005cec:	f7fb fd1a 	bl	8001724 <_sbrk>
 8005cf0:	1c43      	adds	r3, r0, #1
 8005cf2:	d102      	bne.n	8005cfa <_sbrk_r+0x1a>
 8005cf4:	682b      	ldr	r3, [r5, #0]
 8005cf6:	b103      	cbz	r3, 8005cfa <_sbrk_r+0x1a>
 8005cf8:	6023      	str	r3, [r4, #0]
 8005cfa:	bd38      	pop	{r3, r4, r5, pc}
 8005cfc:	2000050c 	.word	0x2000050c

08005d00 <__assert_func>:
 8005d00:	b51f      	push	{r0, r1, r2, r3, r4, lr}
 8005d02:	4614      	mov	r4, r2
 8005d04:	461a      	mov	r2, r3
 8005d06:	4b09      	ldr	r3, [pc, #36]	; (8005d2c <__assert_func+0x2c>)
 8005d08:	4605      	mov	r5, r0
 8005d0a:	681b      	ldr	r3, [r3, #0]
 8005d0c:	68d8      	ldr	r0, [r3, #12]
 8005d0e:	b14c      	cbz	r4, 8005d24 <__assert_func+0x24>
 8005d10:	4b07      	ldr	r3, [pc, #28]	; (8005d30 <__assert_func+0x30>)
 8005d12:	e9cd 3401 	strd	r3, r4, [sp, #4]
 8005d16:	9100      	str	r1, [sp, #0]
 8005d18:	462b      	mov	r3, r5
 8005d1a:	4906      	ldr	r1, [pc, #24]	; (8005d34 <__assert_func+0x34>)
 8005d1c:	f000 f80e 	bl	8005d3c <fiprintf>
 8005d20:	f000 faa2 	bl	8006268 <abort>
 8005d24:	4b04      	ldr	r3, [pc, #16]	; (8005d38 <__assert_func+0x38>)
 8005d26:	461c      	mov	r4, r3
 8005d28:	e7f3      	b.n	8005d12 <__assert_func+0x12>
 8005d2a:	bf00      	nop
 8005d2c:	20000010 	.word	0x20000010
 8005d30:	08006b5d 	.word	0x08006b5d
 8005d34:	08006b6a 	.word	0x08006b6a
 8005d38:	080068d4 	.word	0x080068d4

08005d3c <fiprintf>:
 8005d3c:	b40e      	push	{r1, r2, r3}
 8005d3e:	b503      	push	{r0, r1, lr}
 8005d40:	4601      	mov	r1, r0
 8005d42:	ab03      	add	r3, sp, #12
 8005d44:	4805      	ldr	r0, [pc, #20]	; (8005d5c <fiprintf+0x20>)
 8005d46:	f853 2b04 	ldr.w	r2, [r3], #4
 8005d4a:	6800      	ldr	r0, [r0, #0]
 8005d4c:	9301      	str	r3, [sp, #4]
 8005d4e:	f000 f88d 	bl	8005e6c <_vfiprintf_r>
 8005d52:	b002      	add	sp, #8
 8005d54:	f85d eb04 	ldr.w	lr, [sp], #4
 8005d58:	b003      	add	sp, #12
 8005d5a:	4770      	bx	lr
 8005d5c:	20000010 	.word	0x20000010

08005d60 <__ascii_mbtowc>:
 8005d60:	b082      	sub	sp, #8
 8005d62:	b901      	cbnz	r1, 8005d66 <__ascii_mbtowc+0x6>
 8005d64:	a901      	add	r1, sp, #4
 8005d66:	b142      	cbz	r2, 8005d7a <__ascii_mbtowc+0x1a>
 8005d68:	b14b      	cbz	r3, 8005d7e <__ascii_mbtowc+0x1e>
 8005d6a:	7813      	ldrb	r3, [r2, #0]
 8005d6c:	600b      	str	r3, [r1, #0]
 8005d6e:	7812      	ldrb	r2, [r2, #0]
 8005d70:	1e10      	subs	r0, r2, #0
 8005d72:	bf18      	it	ne
 8005d74:	2001      	movne	r0, #1
 8005d76:	b002      	add	sp, #8
 8005d78:	4770      	bx	lr
 8005d7a:	4610      	mov	r0, r2
 8005d7c:	e7fb      	b.n	8005d76 <__ascii_mbtowc+0x16>
 8005d7e:	f06f 0001 	mvn.w	r0, #1
 8005d82:	e7f8      	b.n	8005d76 <__ascii_mbtowc+0x16>

08005d84 <memmove>:
 8005d84:	4288      	cmp	r0, r1
 8005d86:	b510      	push	{r4, lr}
 8005d88:	eb01 0402 	add.w	r4, r1, r2
 8005d8c:	d902      	bls.n	8005d94 <memmove+0x10>
 8005d8e:	4284      	cmp	r4, r0
 8005d90:	4623      	mov	r3, r4
 8005d92:	d807      	bhi.n	8005da4 <memmove+0x20>
 8005d94:	1e43      	subs	r3, r0, #1
 8005d96:	42a1      	cmp	r1, r4
 8005d98:	d008      	beq.n	8005dac <memmove+0x28>
 8005d9a:	f811 2b01 	ldrb.w	r2, [r1], #1
 8005d9e:	f803 2f01 	strb.w	r2, [r3, #1]!
 8005da2:	e7f8      	b.n	8005d96 <memmove+0x12>
 8005da4:	4601      	mov	r1, r0
 8005da6:	4402      	add	r2, r0
 8005da8:	428a      	cmp	r2, r1
 8005daa:	d100      	bne.n	8005dae <memmove+0x2a>
 8005dac:	bd10      	pop	{r4, pc}
 8005dae:	f813 4d01 	ldrb.w	r4, [r3, #-1]!
 8005db2:	f802 4d01 	strb.w	r4, [r2, #-1]!
 8005db6:	e7f7      	b.n	8005da8 <memmove+0x24>

08005db8 <__malloc_lock>:
 8005db8:	4801      	ldr	r0, [pc, #4]	; (8005dc0 <__malloc_lock+0x8>)
 8005dba:	f000 bc15 	b.w	80065e8 <__retarget_lock_acquire_recursive>
 8005dbe:	bf00      	nop
 8005dc0:	20000514 	.word	0x20000514

08005dc4 <__malloc_unlock>:
 8005dc4:	4801      	ldr	r0, [pc, #4]	; (8005dcc <__malloc_unlock+0x8>)
 8005dc6:	f000 bc10 	b.w	80065ea <__retarget_lock_release_recursive>
 8005dca:	bf00      	nop
 8005dcc:	20000514 	.word	0x20000514

08005dd0 <_realloc_r>:
 8005dd0:	b5f8      	push	{r3, r4, r5, r6, r7, lr}
 8005dd2:	4607      	mov	r7, r0
 8005dd4:	4614      	mov	r4, r2
 8005dd6:	460e      	mov	r6, r1
 8005dd8:	b921      	cbnz	r1, 8005de4 <_realloc_r+0x14>
 8005dda:	4611      	mov	r1, r2
 8005ddc:	e8bd 40f8 	ldmia.w	sp!, {r3, r4, r5, r6, r7, lr}
 8005de0:	f7ff bdc8 	b.w	8005974 <_malloc_r>
 8005de4:	b922      	cbnz	r2, 8005df0 <_realloc_r+0x20>
 8005de6:	f7ff fd79 	bl	80058dc <_free_r>
 8005dea:	4625      	mov	r5, r4
 8005dec:	4628      	mov	r0, r5
 8005dee:	bdf8      	pop	{r3, r4, r5, r6, r7, pc}
 8005df0:	f000 fc60 	bl	80066b4 <_malloc_usable_size_r>
 8005df4:	42a0      	cmp	r0, r4
 8005df6:	d20f      	bcs.n	8005e18 <_realloc_r+0x48>
 8005df8:	4621      	mov	r1, r4
 8005dfa:	4638      	mov	r0, r7
 8005dfc:	f7ff fdba 	bl	8005974 <_malloc_r>
 8005e00:	4605      	mov	r5, r0
 8005e02:	2800      	cmp	r0, #0
 8005e04:	d0f2      	beq.n	8005dec <_realloc_r+0x1c>
 8005e06:	4631      	mov	r1, r6
 8005e08:	4622      	mov	r2, r4
 8005e0a:	f7ff f9c9 	bl	80051a0 <memcpy>
 8005e0e:	4631      	mov	r1, r6
 8005e10:	4638      	mov	r0, r7
 8005e12:	f7ff fd63 	bl	80058dc <_free_r>
 8005e16:	e7e9      	b.n	8005dec <_realloc_r+0x1c>
 8005e18:	4635      	mov	r5, r6
 8005e1a:	e7e7      	b.n	8005dec <_realloc_r+0x1c>

08005e1c <__sfputc_r>:
 8005e1c:	6893      	ldr	r3, [r2, #8]
 8005e1e:	b410      	push	{r4}
 8005e20:	3b01      	subs	r3, #1
 8005e22:	2b00      	cmp	r3, #0
 8005e24:	6093      	str	r3, [r2, #8]
 8005e26:	da07      	bge.n	8005e38 <__sfputc_r+0x1c>
 8005e28:	6994      	ldr	r4, [r2, #24]
 8005e2a:	42a3      	cmp	r3, r4
 8005e2c:	db01      	blt.n	8005e32 <__sfputc_r+0x16>
 8005e2e:	290a      	cmp	r1, #10
 8005e30:	d102      	bne.n	8005e38 <__sfputc_r+0x1c>
 8005e32:	bc10      	pop	{r4}
 8005e34:	f000 b94a 	b.w	80060cc <__swbuf_r>
 8005e38:	6813      	ldr	r3, [r2, #0]
 8005e3a:	1c58      	adds	r0, r3, #1
 8005e3c:	6010      	str	r0, [r2, #0]
 8005e3e:	7019      	strb	r1, [r3, #0]
 8005e40:	4608      	mov	r0, r1
 8005e42:	bc10      	pop	{r4}
 8005e44:	4770      	bx	lr

08005e46 <__sfputs_r>:
 8005e46:	b5f8      	push	{r3, r4, r5, r6, r7, lr}
 8005e48:	4606      	mov	r6, r0
 8005e4a:	460f      	mov	r7, r1
 8005e4c:	4614      	mov	r4, r2
 8005e4e:	18d5      	adds	r5, r2, r3
 8005e50:	42ac      	cmp	r4, r5
 8005e52:	d101      	bne.n	8005e58 <__sfputs_r+0x12>
 8005e54:	2000      	movs	r0, #0
 8005e56:	e007      	b.n	8005e68 <__sfputs_r+0x22>
 8005e58:	463a      	mov	r2, r7
 8005e5a:	4630      	mov	r0, r6
 8005e5c:	f814 1b01 	ldrb.w	r1, [r4], #1
 8005e60:	f7ff ffdc 	bl	8005e1c <__sfputc_r>
 8005e64:	1c43      	adds	r3, r0, #1
 8005e66:	d1f3      	bne.n	8005e50 <__sfputs_r+0xa>
 8005e68:	bdf8      	pop	{r3, r4, r5, r6, r7, pc}
	...

08005e6c <_vfiprintf_r>:
 8005e6c:	e92d 4ff0 	stmdb	sp!, {r4, r5, r6, r7, r8, r9, sl, fp, lr}
 8005e70:	460d      	mov	r5, r1
 8005e72:	4614      	mov	r4, r2
 8005e74:	4698      	mov	r8, r3
 8005e76:	4606      	mov	r6, r0
 8005e78:	b09d      	sub	sp, #116	; 0x74
 8005e7a:	b118      	cbz	r0, 8005e84 <_vfiprintf_r+0x18>
 8005e7c:	6983      	ldr	r3, [r0, #24]
 8005e7e:	b90b      	cbnz	r3, 8005e84 <_vfiprintf_r+0x18>
 8005e80:	f000 fb14 	bl	80064ac <__sinit>
 8005e84:	4b89      	ldr	r3, [pc, #548]	; (80060ac <_vfiprintf_r+0x240>)
 8005e86:	429d      	cmp	r5, r3
 8005e88:	d11b      	bne.n	8005ec2 <_vfiprintf_r+0x56>
 8005e8a:	6875      	ldr	r5, [r6, #4]
 8005e8c:	6e6b      	ldr	r3, [r5, #100]	; 0x64
 8005e8e:	07d9      	lsls	r1, r3, #31
 8005e90:	d405      	bmi.n	8005e9e <_vfiprintf_r+0x32>
 8005e92:	89ab      	ldrh	r3, [r5, #12]
 8005e94:	059a      	lsls	r2, r3, #22
 8005e96:	d402      	bmi.n	8005e9e <_vfiprintf_r+0x32>
 8005e98:	6da8      	ldr	r0, [r5, #88]	; 0x58
 8005e9a:	f000 fba5 	bl	80065e8 <__retarget_lock_acquire_recursive>
 8005e9e:	89ab      	ldrh	r3, [r5, #12]
 8005ea0:	071b      	lsls	r3, r3, #28
 8005ea2:	d501      	bpl.n	8005ea8 <_vfiprintf_r+0x3c>
 8005ea4:	692b      	ldr	r3, [r5, #16]
 8005ea6:	b9eb      	cbnz	r3, 8005ee4 <_vfiprintf_r+0x78>
 8005ea8:	4629      	mov	r1, r5
 8005eaa:	4630      	mov	r0, r6
 8005eac:	f000 f96e 	bl	800618c <__swsetup_r>
 8005eb0:	b1c0      	cbz	r0, 8005ee4 <_vfiprintf_r+0x78>
 8005eb2:	6e6b      	ldr	r3, [r5, #100]	; 0x64
 8005eb4:	07dc      	lsls	r4, r3, #31
 8005eb6:	d50e      	bpl.n	8005ed6 <_vfiprintf_r+0x6a>
 8005eb8:	f04f 30ff 	mov.w	r0, #4294967295	; 0xffffffff
 8005ebc:	b01d      	add	sp, #116	; 0x74
 8005ebe:	e8bd 8ff0 	ldmia.w	sp!, {r4, r5, r6, r7, r8, r9, sl, fp, pc}
 8005ec2:	4b7b      	ldr	r3, [pc, #492]	; (80060b0 <_vfiprintf_r+0x244>)
 8005ec4:	429d      	cmp	r5, r3
 8005ec6:	d101      	bne.n	8005ecc <_vfiprintf_r+0x60>
 8005ec8:	68b5      	ldr	r5, [r6, #8]
 8005eca:	e7df      	b.n	8005e8c <_vfiprintf_r+0x20>
 8005ecc:	4b79      	ldr	r3, [pc, #484]	; (80060b4 <_vfiprintf_r+0x248>)
 8005ece:	429d      	cmp	r5, r3
 8005ed0:	bf08      	it	eq
 8005ed2:	68f5      	ldreq	r5, [r6, #12]
 8005ed4:	e7da      	b.n	8005e8c <_vfiprintf_r+0x20>
 8005ed6:	89ab      	ldrh	r3, [r5, #12]
 8005ed8:	0598      	lsls	r0, r3, #22
 8005eda:	d4ed      	bmi.n	8005eb8 <_vfiprintf_r+0x4c>
 8005edc:	6da8      	ldr	r0, [r5, #88]	; 0x58
 8005ede:	f000 fb84 	bl	80065ea <__retarget_lock_release_recursive>
 8005ee2:	e7e9      	b.n	8005eb8 <_vfiprintf_r+0x4c>
 8005ee4:	2300      	movs	r3, #0
 8005ee6:	9309      	str	r3, [sp, #36]	; 0x24
 8005ee8:	2320      	movs	r3, #32
 8005eea:	f88d 3029 	strb.w	r3, [sp, #41]	; 0x29
 8005eee:	2330      	movs	r3, #48	; 0x30
 8005ef0:	f04f 0901 	mov.w	r9, #1
 8005ef4:	f8cd 800c 	str.w	r8, [sp, #12]
 8005ef8:	f8df 81bc 	ldr.w	r8, [pc, #444]	; 80060b8 <_vfiprintf_r+0x24c>
 8005efc:	f88d 302a 	strb.w	r3, [sp, #42]	; 0x2a
 8005f00:	4623      	mov	r3, r4
 8005f02:	469a      	mov	sl, r3
 8005f04:	f813 2b01 	ldrb.w	r2, [r3], #1
 8005f08:	b10a      	cbz	r2, 8005f0e <_vfiprintf_r+0xa2>
 8005f0a:	2a25      	cmp	r2, #37	; 0x25
 8005f0c:	d1f9      	bne.n	8005f02 <_vfiprintf_r+0x96>
 8005f0e:	ebba 0b04 	subs.w	fp, sl, r4
 8005f12:	d00b      	beq.n	8005f2c <_vfiprintf_r+0xc0>
 8005f14:	465b      	mov	r3, fp
 8005f16:	4622      	mov	r2, r4
 8005f18:	4629      	mov	r1, r5
 8005f1a:	4630      	mov	r0, r6
 8005f1c:	f7ff ff93 	bl	8005e46 <__sfputs_r>
 8005f20:	3001      	adds	r0, #1
 8005f22:	f000 80aa 	beq.w	800607a <_vfiprintf_r+0x20e>
 8005f26:	9a09      	ldr	r2, [sp, #36]	; 0x24
 8005f28:	445a      	add	r2, fp
 8005f2a:	9209      	str	r2, [sp, #36]	; 0x24
 8005f2c:	f89a 3000 	ldrb.w	r3, [sl]
 8005f30:	2b00      	cmp	r3, #0
 8005f32:	f000 80a2 	beq.w	800607a <_vfiprintf_r+0x20e>
 8005f36:	2300      	movs	r3, #0
 8005f38:	f04f 32ff 	mov.w	r2, #4294967295	; 0xffffffff
 8005f3c:	e9cd 2305 	strd	r2, r3, [sp, #20]
 8005f40:	f10a 0a01 	add.w	sl, sl, #1
 8005f44:	9304      	str	r3, [sp, #16]
 8005f46:	9307      	str	r3, [sp, #28]
 8005f48:	f88d 3053 	strb.w	r3, [sp, #83]	; 0x53
 8005f4c:	931a      	str	r3, [sp, #104]	; 0x68
 8005f4e:	4654      	mov	r4, sl
 8005f50:	2205      	movs	r2, #5
 8005f52:	f814 1b01 	ldrb.w	r1, [r4], #1
 8005f56:	4858      	ldr	r0, [pc, #352]	; (80060b8 <_vfiprintf_r+0x24c>)
 8005f58:	f7ff f914 	bl	8005184 <memchr>
 8005f5c:	9a04      	ldr	r2, [sp, #16]
 8005f5e:	b9d8      	cbnz	r0, 8005f98 <_vfiprintf_r+0x12c>
 8005f60:	06d1      	lsls	r1, r2, #27
 8005f62:	bf44      	itt	mi
 8005f64:	2320      	movmi	r3, #32
 8005f66:	f88d 3053 	strbmi.w	r3, [sp, #83]	; 0x53
 8005f6a:	0713      	lsls	r3, r2, #28
 8005f6c:	bf44      	itt	mi
 8005f6e:	232b      	movmi	r3, #43	; 0x2b
 8005f70:	f88d 3053 	strbmi.w	r3, [sp, #83]	; 0x53
 8005f74:	f89a 3000 	ldrb.w	r3, [sl]
 8005f78:	2b2a      	cmp	r3, #42	; 0x2a
 8005f7a:	d015      	beq.n	8005fa8 <_vfiprintf_r+0x13c>
 8005f7c:	4654      	mov	r4, sl
 8005f7e:	2000      	movs	r0, #0
 8005f80:	f04f 0c0a 	mov.w	ip, #10
 8005f84:	9a07      	ldr	r2, [sp, #28]
 8005f86:	4621      	mov	r1, r4
 8005f88:	f811 3b01 	ldrb.w	r3, [r1], #1
 8005f8c:	3b30      	subs	r3, #48	; 0x30
 8005f8e:	2b09      	cmp	r3, #9
 8005f90:	d94e      	bls.n	8006030 <_vfiprintf_r+0x1c4>
 8005f92:	b1b0      	cbz	r0, 8005fc2 <_vfiprintf_r+0x156>
 8005f94:	9207      	str	r2, [sp, #28]
 8005f96:	e014      	b.n	8005fc2 <_vfiprintf_r+0x156>
 8005f98:	eba0 0308 	sub.w	r3, r0, r8
 8005f9c:	fa09 f303 	lsl.w	r3, r9, r3
 8005fa0:	4313      	orrs	r3, r2
 8005fa2:	46a2      	mov	sl, r4
 8005fa4:	9304      	str	r3, [sp, #16]
 8005fa6:	e7d2      	b.n	8005f4e <_vfiprintf_r+0xe2>
 8005fa8:	9b03      	ldr	r3, [sp, #12]
 8005faa:	1d19      	adds	r1, r3, #4
 8005fac:	681b      	ldr	r3, [r3, #0]
 8005fae:	9103      	str	r1, [sp, #12]
 8005fb0:	2b00      	cmp	r3, #0
 8005fb2:	bfbb      	ittet	lt
 8005fb4:	425b      	neglt	r3, r3
 8005fb6:	f042 0202 	orrlt.w	r2, r2, #2
 8005fba:	9307      	strge	r3, [sp, #28]
 8005fbc:	9307      	strlt	r3, [sp, #28]
 8005fbe:	bfb8      	it	lt
 8005fc0:	9204      	strlt	r2, [sp, #16]
 8005fc2:	7823      	ldrb	r3, [r4, #0]
 8005fc4:	2b2e      	cmp	r3, #46	; 0x2e
 8005fc6:	d10c      	bne.n	8005fe2 <_vfiprintf_r+0x176>
 8005fc8:	7863      	ldrb	r3, [r4, #1]
 8005fca:	2b2a      	cmp	r3, #42	; 0x2a
 8005fcc:	d135      	bne.n	800603a <_vfiprintf_r+0x1ce>
 8005fce:	9b03      	ldr	r3, [sp, #12]
 8005fd0:	3402      	adds	r4, #2
 8005fd2:	1d1a      	adds	r2, r3, #4
 8005fd4:	681b      	ldr	r3, [r3, #0]
 8005fd6:	9203      	str	r2, [sp, #12]
 8005fd8:	2b00      	cmp	r3, #0
 8005fda:	bfb8      	it	lt
 8005fdc:	f04f 33ff 	movlt.w	r3, #4294967295	; 0xffffffff
 8005fe0:	9305      	str	r3, [sp, #20]
 8005fe2:	f8df a0e4 	ldr.w	sl, [pc, #228]	; 80060c8 <_vfiprintf_r+0x25c>
 8005fe6:	2203      	movs	r2, #3
 8005fe8:	4650      	mov	r0, sl
 8005fea:	7821      	ldrb	r1, [r4, #0]
 8005fec:	f7ff f8ca 	bl	8005184 <memchr>
 8005ff0:	b140      	cbz	r0, 8006004 <_vfiprintf_r+0x198>
 8005ff2:	2340      	movs	r3, #64	; 0x40
 8005ff4:	eba0 000a 	sub.w	r0, r0, sl
 8005ff8:	fa03 f000 	lsl.w	r0, r3, r0
 8005ffc:	9b04      	ldr	r3, [sp, #16]
 8005ffe:	3401      	adds	r4, #1
 8006000:	4303      	orrs	r3, r0
 8006002:	9304      	str	r3, [sp, #16]
 8006004:	f814 1b01 	ldrb.w	r1, [r4], #1
 8006008:	2206      	movs	r2, #6
 800600a:	482c      	ldr	r0, [pc, #176]	; (80060bc <_vfiprintf_r+0x250>)
 800600c:	f88d 1028 	strb.w	r1, [sp, #40]	; 0x28
 8006010:	f7ff f8b8 	bl	8005184 <memchr>
 8006014:	2800      	cmp	r0, #0
 8006016:	d03f      	beq.n	8006098 <_vfiprintf_r+0x22c>
 8006018:	4b29      	ldr	r3, [pc, #164]	; (80060c0 <_vfiprintf_r+0x254>)
 800601a:	bb1b      	cbnz	r3, 8006064 <_vfiprintf_r+0x1f8>
 800601c:	9b03      	ldr	r3, [sp, #12]
 800601e:	3307      	adds	r3, #7
 8006020:	f023 0307 	bic.w	r3, r3, #7
 8006024:	3308      	adds	r3, #8
 8006026:	9303      	str	r3, [sp, #12]
 8006028:	9b09      	ldr	r3, [sp, #36]	; 0x24
 800602a:	443b      	add	r3, r7
 800602c:	9309      	str	r3, [sp, #36]	; 0x24
 800602e:	e767      	b.n	8005f00 <_vfiprintf_r+0x94>
 8006030:	460c      	mov	r4, r1
 8006032:	2001      	movs	r0, #1
 8006034:	fb0c 3202 	mla	r2, ip, r2, r3
 8006038:	e7a5      	b.n	8005f86 <_vfiprintf_r+0x11a>
 800603a:	2300      	movs	r3, #0
 800603c:	f04f 0c0a 	mov.w	ip, #10
 8006040:	4619      	mov	r1, r3
 8006042:	3401      	adds	r4, #1
 8006044:	9305      	str	r3, [sp, #20]
 8006046:	4620      	mov	r0, r4
 8006048:	f810 2b01 	ldrb.w	r2, [r0], #1
 800604c:	3a30      	subs	r2, #48	; 0x30
 800604e:	2a09      	cmp	r2, #9
 8006050:	d903      	bls.n	800605a <_vfiprintf_r+0x1ee>
 8006052:	2b00      	cmp	r3, #0
 8006054:	d0c5      	beq.n	8005fe2 <_vfiprintf_r+0x176>
 8006056:	9105      	str	r1, [sp, #20]
 8006058:	e7c3      	b.n	8005fe2 <_vfiprintf_r+0x176>
 800605a:	4604      	mov	r4, r0
 800605c:	2301      	movs	r3, #1
 800605e:	fb0c 2101 	mla	r1, ip, r1, r2
 8006062:	e7f0      	b.n	8006046 <_vfiprintf_r+0x1da>
 8006064:	ab03      	add	r3, sp, #12
 8006066:	9300      	str	r3, [sp, #0]
 8006068:	462a      	mov	r2, r5
 800606a:	4630      	mov	r0, r6
 800606c:	4b15      	ldr	r3, [pc, #84]	; (80060c4 <_vfiprintf_r+0x258>)
 800606e:	a904      	add	r1, sp, #16
 8006070:	f7fd fe14 	bl	8003c9c <_printf_float>
 8006074:	4607      	mov	r7, r0
 8006076:	1c78      	adds	r0, r7, #1
 8006078:	d1d6      	bne.n	8006028 <_vfiprintf_r+0x1bc>
 800607a:	6e6b      	ldr	r3, [r5, #100]	; 0x64
 800607c:	07d9      	lsls	r1, r3, #31
 800607e:	d405      	bmi.n	800608c <_vfiprintf_r+0x220>
 8006080:	89ab      	ldrh	r3, [r5, #12]
 8006082:	059a      	lsls	r2, r3, #22
 8006084:	d402      	bmi.n	800608c <_vfiprintf_r+0x220>
 8006086:	6da8      	ldr	r0, [r5, #88]	; 0x58
 8006088:	f000 faaf 	bl	80065ea <__retarget_lock_release_recursive>
 800608c:	89ab      	ldrh	r3, [r5, #12]
 800608e:	065b      	lsls	r3, r3, #25
 8006090:	f53f af12 	bmi.w	8005eb8 <_vfiprintf_r+0x4c>
 8006094:	9809      	ldr	r0, [sp, #36]	; 0x24
 8006096:	e711      	b.n	8005ebc <_vfiprintf_r+0x50>
 8006098:	ab03      	add	r3, sp, #12
 800609a:	9300      	str	r3, [sp, #0]
 800609c:	462a      	mov	r2, r5
 800609e:	4630      	mov	r0, r6
 80060a0:	4b08      	ldr	r3, [pc, #32]	; (80060c4 <_vfiprintf_r+0x258>)
 80060a2:	a904      	add	r1, sp, #16
 80060a4:	f7fe f896 	bl	80041d4 <_printf_i>
 80060a8:	e7e4      	b.n	8006074 <_vfiprintf_r+0x208>
 80060aa:	bf00      	nop
 80060ac:	08006cc4 	.word	0x08006cc4
 80060b0:	08006ce4 	.word	0x08006ce4
 80060b4:	08006ca4 	.word	0x08006ca4
 80060b8:	08006b4c 	.word	0x08006b4c
 80060bc:	08006b56 	.word	0x08006b56
 80060c0:	08003c9d 	.word	0x08003c9d
 80060c4:	08005e47 	.word	0x08005e47
 80060c8:	08006b52 	.word	0x08006b52

080060cc <__swbuf_r>:
 80060cc:	b5f8      	push	{r3, r4, r5, r6, r7, lr}
 80060ce:	460e      	mov	r6, r1
 80060d0:	4614      	mov	r4, r2
 80060d2:	4605      	mov	r5, r0
 80060d4:	b118      	cbz	r0, 80060de <__swbuf_r+0x12>
 80060d6:	6983      	ldr	r3, [r0, #24]
 80060d8:	b90b      	cbnz	r3, 80060de <__swbuf_r+0x12>
 80060da:	f000 f9e7 	bl	80064ac <__sinit>
 80060de:	4b21      	ldr	r3, [pc, #132]	; (8006164 <__swbuf_r+0x98>)
 80060e0:	429c      	cmp	r4, r3
 80060e2:	d12b      	bne.n	800613c <__swbuf_r+0x70>
 80060e4:	686c      	ldr	r4, [r5, #4]
 80060e6:	69a3      	ldr	r3, [r4, #24]
 80060e8:	60a3      	str	r3, [r4, #8]
 80060ea:	89a3      	ldrh	r3, [r4, #12]
 80060ec:	071a      	lsls	r2, r3, #28
 80060ee:	d52f      	bpl.n	8006150 <__swbuf_r+0x84>
 80060f0:	6923      	ldr	r3, [r4, #16]
 80060f2:	b36b      	cbz	r3, 8006150 <__swbuf_r+0x84>
 80060f4:	6923      	ldr	r3, [r4, #16]
 80060f6:	6820      	ldr	r0, [r4, #0]
 80060f8:	b2f6      	uxtb	r6, r6
 80060fa:	1ac0      	subs	r0, r0, r3
 80060fc:	6963      	ldr	r3, [r4, #20]
 80060fe:	4637      	mov	r7, r6
 8006100:	4283      	cmp	r3, r0
 8006102:	dc04      	bgt.n	800610e <__swbuf_r+0x42>
 8006104:	4621      	mov	r1, r4
 8006106:	4628      	mov	r0, r5
 8006108:	f000 f93c 	bl	8006384 <_fflush_r>
 800610c:	bb30      	cbnz	r0, 800615c <__swbuf_r+0x90>
 800610e:	68a3      	ldr	r3, [r4, #8]
 8006110:	3001      	adds	r0, #1
 8006112:	3b01      	subs	r3, #1
 8006114:	60a3      	str	r3, [r4, #8]
 8006116:	6823      	ldr	r3, [r4, #0]
 8006118:	1c5a      	adds	r2, r3, #1
 800611a:	6022      	str	r2, [r4, #0]
 800611c:	701e      	strb	r6, [r3, #0]
 800611e:	6963      	ldr	r3, [r4, #20]
 8006120:	4283      	cmp	r3, r0
 8006122:	d004      	beq.n	800612e <__swbuf_r+0x62>
 8006124:	89a3      	ldrh	r3, [r4, #12]
 8006126:	07db      	lsls	r3, r3, #31
 8006128:	d506      	bpl.n	8006138 <__swbuf_r+0x6c>
 800612a:	2e0a      	cmp	r6, #10
 800612c:	d104      	bne.n	8006138 <__swbuf_r+0x6c>
 800612e:	4621      	mov	r1, r4
 8006130:	4628      	mov	r0, r5
 8006132:	f000 f927 	bl	8006384 <_fflush_r>
 8006136:	b988      	cbnz	r0, 800615c <__swbuf_r+0x90>
 8006138:	4638      	mov	r0, r7
 800613a:	bdf8      	pop	{r3, r4, r5, r6, r7, pc}
 800613c:	4b0a      	ldr	r3, [pc, #40]	; (8006168 <__swbuf_r+0x9c>)
 800613e:	429c      	cmp	r4, r3
 8006140:	d101      	bne.n	8006146 <__swbuf_r+0x7a>
 8006142:	68ac      	ldr	r4, [r5, #8]
 8006144:	e7cf      	b.n	80060e6 <__swbuf_r+0x1a>
 8006146:	4b09      	ldr	r3, [pc, #36]	; (800616c <__swbuf_r+0xa0>)
 8006148:	429c      	cmp	r4, r3
 800614a:	bf08      	it	eq
 800614c:	68ec      	ldreq	r4, [r5, #12]
 800614e:	e7ca      	b.n	80060e6 <__swbuf_r+0x1a>
 8006150:	4621      	mov	r1, r4
 8006152:	4628      	mov	r0, r5
 8006154:	f000 f81a 	bl	800618c <__swsetup_r>
 8006158:	2800      	cmp	r0, #0
 800615a:	d0cb      	beq.n	80060f4 <__swbuf_r+0x28>
 800615c:	f04f 37ff 	mov.w	r7, #4294967295	; 0xffffffff
 8006160:	e7ea      	b.n	8006138 <__swbuf_r+0x6c>
 8006162:	bf00      	nop
 8006164:	08006cc4 	.word	0x08006cc4
 8006168:	08006ce4 	.word	0x08006ce4
 800616c:	08006ca4 	.word	0x08006ca4

08006170 <__ascii_wctomb>:
 8006170:	4603      	mov	r3, r0
 8006172:	4608      	mov	r0, r1
 8006174:	b141      	cbz	r1, 8006188 <__ascii_wctomb+0x18>
 8006176:	2aff      	cmp	r2, #255	; 0xff
 8006178:	d904      	bls.n	8006184 <__ascii_wctomb+0x14>
 800617a:	228a      	movs	r2, #138	; 0x8a
 800617c:	f04f 30ff 	mov.w	r0, #4294967295	; 0xffffffff
 8006180:	601a      	str	r2, [r3, #0]
 8006182:	4770      	bx	lr
 8006184:	2001      	movs	r0, #1
 8006186:	700a      	strb	r2, [r1, #0]
 8006188:	4770      	bx	lr
	...

0800618c <__swsetup_r>:
 800618c:	4b32      	ldr	r3, [pc, #200]	; (8006258 <__swsetup_r+0xcc>)
 800618e:	b570      	push	{r4, r5, r6, lr}
 8006190:	681d      	ldr	r5, [r3, #0]
 8006192:	4606      	mov	r6, r0
 8006194:	460c      	mov	r4, r1
 8006196:	b125      	cbz	r5, 80061a2 <__swsetup_r+0x16>
 8006198:	69ab      	ldr	r3, [r5, #24]
 800619a:	b913      	cbnz	r3, 80061a2 <__swsetup_r+0x16>
 800619c:	4628      	mov	r0, r5
 800619e:	f000 f985 	bl	80064ac <__sinit>
 80061a2:	4b2e      	ldr	r3, [pc, #184]	; (800625c <__swsetup_r+0xd0>)
 80061a4:	429c      	cmp	r4, r3
 80061a6:	d10f      	bne.n	80061c8 <__swsetup_r+0x3c>
 80061a8:	686c      	ldr	r4, [r5, #4]
 80061aa:	89a3      	ldrh	r3, [r4, #12]
 80061ac:	f9b4 200c 	ldrsh.w	r2, [r4, #12]
 80061b0:	0719      	lsls	r1, r3, #28
 80061b2:	d42c      	bmi.n	800620e <__swsetup_r+0x82>
 80061b4:	06dd      	lsls	r5, r3, #27
 80061b6:	d411      	bmi.n	80061dc <__swsetup_r+0x50>
 80061b8:	2309      	movs	r3, #9
 80061ba:	6033      	str	r3, [r6, #0]
 80061bc:	f042 0340 	orr.w	r3, r2, #64	; 0x40
 80061c0:	f04f 30ff 	mov.w	r0, #4294967295	; 0xffffffff
 80061c4:	81a3      	strh	r3, [r4, #12]
 80061c6:	e03e      	b.n	8006246 <__swsetup_r+0xba>
 80061c8:	4b25      	ldr	r3, [pc, #148]	; (8006260 <__swsetup_r+0xd4>)
 80061ca:	429c      	cmp	r4, r3
 80061cc:	d101      	bne.n	80061d2 <__swsetup_r+0x46>
 80061ce:	68ac      	ldr	r4, [r5, #8]
 80061d0:	e7eb      	b.n	80061aa <__swsetup_r+0x1e>
 80061d2:	4b24      	ldr	r3, [pc, #144]	; (8006264 <__swsetup_r+0xd8>)
 80061d4:	429c      	cmp	r4, r3
 80061d6:	bf08      	it	eq
 80061d8:	68ec      	ldreq	r4, [r5, #12]
 80061da:	e7e6      	b.n	80061aa <__swsetup_r+0x1e>
 80061dc:	0758      	lsls	r0, r3, #29
 80061de:	d512      	bpl.n	8006206 <__swsetup_r+0x7a>
 80061e0:	6b61      	ldr	r1, [r4, #52]	; 0x34
 80061e2:	b141      	cbz	r1, 80061f6 <__swsetup_r+0x6a>
 80061e4:	f104 0344 	add.w	r3, r4, #68	; 0x44
 80061e8:	4299      	cmp	r1, r3
 80061ea:	d002      	beq.n	80061f2 <__swsetup_r+0x66>
 80061ec:	4630      	mov	r0, r6
 80061ee:	f7ff fb75 	bl	80058dc <_free_r>
 80061f2:	2300      	movs	r3, #0
 80061f4:	6363      	str	r3, [r4, #52]	; 0x34
 80061f6:	89a3      	ldrh	r3, [r4, #12]
 80061f8:	f023 0324 	bic.w	r3, r3, #36	; 0x24
 80061fc:	81a3      	strh	r3, [r4, #12]
 80061fe:	2300      	movs	r3, #0
 8006200:	6063      	str	r3, [r4, #4]
 8006202:	6923      	ldr	r3, [r4, #16]
 8006204:	6023      	str	r3, [r4, #0]
 8006206:	89a3      	ldrh	r3, [r4, #12]
 8006208:	f043 0308 	orr.w	r3, r3, #8
 800620c:	81a3      	strh	r3, [r4, #12]
 800620e:	6923      	ldr	r3, [r4, #16]
 8006210:	b94b      	cbnz	r3, 8006226 <__swsetup_r+0x9a>
 8006212:	89a3      	ldrh	r3, [r4, #12]
 8006214:	f403 7320 	and.w	r3, r3, #640	; 0x280
 8006218:	f5b3 7f00 	cmp.w	r3, #512	; 0x200
 800621c:	d003      	beq.n	8006226 <__swsetup_r+0x9a>
 800621e:	4621      	mov	r1, r4
 8006220:	4630      	mov	r0, r6
 8006222:	f000 fa07 	bl	8006634 <__smakebuf_r>
 8006226:	89a0      	ldrh	r0, [r4, #12]
 8006228:	f9b4 200c 	ldrsh.w	r2, [r4, #12]
 800622c:	f010 0301 	ands.w	r3, r0, #1
 8006230:	d00a      	beq.n	8006248 <__swsetup_r+0xbc>
 8006232:	2300      	movs	r3, #0
 8006234:	60a3      	str	r3, [r4, #8]
 8006236:	6963      	ldr	r3, [r4, #20]
 8006238:	425b      	negs	r3, r3
 800623a:	61a3      	str	r3, [r4, #24]
 800623c:	6923      	ldr	r3, [r4, #16]
 800623e:	b943      	cbnz	r3, 8006252 <__swsetup_r+0xc6>
 8006240:	f010 0080 	ands.w	r0, r0, #128	; 0x80
 8006244:	d1ba      	bne.n	80061bc <__swsetup_r+0x30>
 8006246:	bd70      	pop	{r4, r5, r6, pc}
 8006248:	0781      	lsls	r1, r0, #30
 800624a:	bf58      	it	pl
 800624c:	6963      	ldrpl	r3, [r4, #20]
 800624e:	60a3      	str	r3, [r4, #8]
 8006250:	e7f4      	b.n	800623c <__swsetup_r+0xb0>
 8006252:	2000      	movs	r0, #0
 8006254:	e7f7      	b.n	8006246 <__swsetup_r+0xba>
 8006256:	bf00      	nop
 8006258:	20000010 	.word	0x20000010
 800625c:	08006cc4 	.word	0x08006cc4
 8006260:	08006ce4 	.word	0x08006ce4
 8006264:	08006ca4 	.word	0x08006ca4

08006268 <abort>:
 8006268:	2006      	movs	r0, #6
 800626a:	b508      	push	{r3, lr}
 800626c:	f000 fa52 	bl	8006714 <raise>
 8006270:	2001      	movs	r0, #1
 8006272:	f7fb fa2b 	bl	80016cc <_exit>
	...

08006278 <__sflush_r>:
 8006278:	898a      	ldrh	r2, [r1, #12]
 800627a:	e92d 41f0 	stmdb	sp!, {r4, r5, r6, r7, r8, lr}
 800627e:	4605      	mov	r5, r0
 8006280:	0710      	lsls	r0, r2, #28
 8006282:	460c      	mov	r4, r1
 8006284:	d458      	bmi.n	8006338 <__sflush_r+0xc0>
 8006286:	684b      	ldr	r3, [r1, #4]
 8006288:	2b00      	cmp	r3, #0
 800628a:	dc05      	bgt.n	8006298 <__sflush_r+0x20>
 800628c:	6c0b      	ldr	r3, [r1, #64]	; 0x40
 800628e:	2b00      	cmp	r3, #0
 8006290:	dc02      	bgt.n	8006298 <__sflush_r+0x20>
 8006292:	2000      	movs	r0, #0
 8006294:	e8bd 81f0 	ldmia.w	sp!, {r4, r5, r6, r7, r8, pc}
 8006298:	6ae6      	ldr	r6, [r4, #44]	; 0x2c
 800629a:	2e00      	cmp	r6, #0
 800629c:	d0f9      	beq.n	8006292 <__sflush_r+0x1a>
 800629e:	2300      	movs	r3, #0
 80062a0:	f412 5280 	ands.w	r2, r2, #4096	; 0x1000
 80062a4:	682f      	ldr	r7, [r5, #0]
 80062a6:	602b      	str	r3, [r5, #0]
 80062a8:	d032      	beq.n	8006310 <__sflush_r+0x98>
 80062aa:	6d60      	ldr	r0, [r4, #84]	; 0x54
 80062ac:	89a3      	ldrh	r3, [r4, #12]
 80062ae:	075a      	lsls	r2, r3, #29
 80062b0:	d505      	bpl.n	80062be <__sflush_r+0x46>
 80062b2:	6863      	ldr	r3, [r4, #4]
 80062b4:	1ac0      	subs	r0, r0, r3
 80062b6:	6b63      	ldr	r3, [r4, #52]	; 0x34
 80062b8:	b10b      	cbz	r3, 80062be <__sflush_r+0x46>
 80062ba:	6c23      	ldr	r3, [r4, #64]	; 0x40
 80062bc:	1ac0      	subs	r0, r0, r3
 80062be:	2300      	movs	r3, #0
 80062c0:	4602      	mov	r2, r0
 80062c2:	6ae6      	ldr	r6, [r4, #44]	; 0x2c
 80062c4:	4628      	mov	r0, r5
 80062c6:	6a21      	ldr	r1, [r4, #32]
 80062c8:	47b0      	blx	r6
 80062ca:	1c43      	adds	r3, r0, #1
 80062cc:	89a3      	ldrh	r3, [r4, #12]
 80062ce:	d106      	bne.n	80062de <__sflush_r+0x66>
 80062d0:	6829      	ldr	r1, [r5, #0]
 80062d2:	291d      	cmp	r1, #29
 80062d4:	d82c      	bhi.n	8006330 <__sflush_r+0xb8>
 80062d6:	4a2a      	ldr	r2, [pc, #168]	; (8006380 <__sflush_r+0x108>)
 80062d8:	40ca      	lsrs	r2, r1
 80062da:	07d6      	lsls	r6, r2, #31
 80062dc:	d528      	bpl.n	8006330 <__sflush_r+0xb8>
 80062de:	2200      	movs	r2, #0
 80062e0:	6062      	str	r2, [r4, #4]
 80062e2:	6922      	ldr	r2, [r4, #16]
 80062e4:	04d9      	lsls	r1, r3, #19
 80062e6:	6022      	str	r2, [r4, #0]
 80062e8:	d504      	bpl.n	80062f4 <__sflush_r+0x7c>
 80062ea:	1c42      	adds	r2, r0, #1
 80062ec:	d101      	bne.n	80062f2 <__sflush_r+0x7a>
 80062ee:	682b      	ldr	r3, [r5, #0]
 80062f0:	b903      	cbnz	r3, 80062f4 <__sflush_r+0x7c>
 80062f2:	6560      	str	r0, [r4, #84]	; 0x54
 80062f4:	6b61      	ldr	r1, [r4, #52]	; 0x34
 80062f6:	602f      	str	r7, [r5, #0]
 80062f8:	2900      	cmp	r1, #0
 80062fa:	d0ca      	beq.n	8006292 <__sflush_r+0x1a>
 80062fc:	f104 0344 	add.w	r3, r4, #68	; 0x44
 8006300:	4299      	cmp	r1, r3
 8006302:	d002      	beq.n	800630a <__sflush_r+0x92>
 8006304:	4628      	mov	r0, r5
 8006306:	f7ff fae9 	bl	80058dc <_free_r>
 800630a:	2000      	movs	r0, #0
 800630c:	6360      	str	r0, [r4, #52]	; 0x34
 800630e:	e7c1      	b.n	8006294 <__sflush_r+0x1c>
 8006310:	6a21      	ldr	r1, [r4, #32]
 8006312:	2301      	movs	r3, #1
 8006314:	4628      	mov	r0, r5
 8006316:	47b0      	blx	r6
 8006318:	1c41      	adds	r1, r0, #1
 800631a:	d1c7      	bne.n	80062ac <__sflush_r+0x34>
 800631c:	682b      	ldr	r3, [r5, #0]
 800631e:	2b00      	cmp	r3, #0
 8006320:	d0c4      	beq.n	80062ac <__sflush_r+0x34>
 8006322:	2b1d      	cmp	r3, #29
 8006324:	d001      	beq.n	800632a <__sflush_r+0xb2>
 8006326:	2b16      	cmp	r3, #22
 8006328:	d101      	bne.n	800632e <__sflush_r+0xb6>
 800632a:	602f      	str	r7, [r5, #0]
 800632c:	e7b1      	b.n	8006292 <__sflush_r+0x1a>
 800632e:	89a3      	ldrh	r3, [r4, #12]
 8006330:	f043 0340 	orr.w	r3, r3, #64	; 0x40
 8006334:	81a3      	strh	r3, [r4, #12]
 8006336:	e7ad      	b.n	8006294 <__sflush_r+0x1c>
 8006338:	690f      	ldr	r7, [r1, #16]
 800633a:	2f00      	cmp	r7, #0
 800633c:	d0a9      	beq.n	8006292 <__sflush_r+0x1a>
 800633e:	0793      	lsls	r3, r2, #30
 8006340:	bf18      	it	ne
 8006342:	2300      	movne	r3, #0
 8006344:	680e      	ldr	r6, [r1, #0]
 8006346:	bf08      	it	eq
 8006348:	694b      	ldreq	r3, [r1, #20]
 800634a:	eba6 0807 	sub.w	r8, r6, r7
 800634e:	600f      	str	r7, [r1, #0]
 8006350:	608b      	str	r3, [r1, #8]
 8006352:	f1b8 0f00 	cmp.w	r8, #0
 8006356:	dd9c      	ble.n	8006292 <__sflush_r+0x1a>
 8006358:	4643      	mov	r3, r8
 800635a:	463a      	mov	r2, r7
 800635c:	4628      	mov	r0, r5
 800635e:	6a21      	ldr	r1, [r4, #32]
 8006360:	6aa6      	ldr	r6, [r4, #40]	; 0x28
 8006362:	47b0      	blx	r6
 8006364:	2800      	cmp	r0, #0
 8006366:	dc06      	bgt.n	8006376 <__sflush_r+0xfe>
 8006368:	89a3      	ldrh	r3, [r4, #12]
 800636a:	f04f 30ff 	mov.w	r0, #4294967295	; 0xffffffff
 800636e:	f043 0340 	orr.w	r3, r3, #64	; 0x40
 8006372:	81a3      	strh	r3, [r4, #12]
 8006374:	e78e      	b.n	8006294 <__sflush_r+0x1c>
 8006376:	4407      	add	r7, r0
 8006378:	eba8 0800 	sub.w	r8, r8, r0
 800637c:	e7e9      	b.n	8006352 <__sflush_r+0xda>
 800637e:	bf00      	nop
 8006380:	20400001 	.word	0x20400001

08006384 <_fflush_r>:
 8006384:	b538      	push	{r3, r4, r5, lr}
 8006386:	690b      	ldr	r3, [r1, #16]
 8006388:	4605      	mov	r5, r0
 800638a:	460c      	mov	r4, r1
 800638c:	b913      	cbnz	r3, 8006394 <_fflush_r+0x10>
 800638e:	2500      	movs	r5, #0
 8006390:	4628      	mov	r0, r5
 8006392:	bd38      	pop	{r3, r4, r5, pc}
 8006394:	b118      	cbz	r0, 800639e <_fflush_r+0x1a>
 8006396:	6983      	ldr	r3, [r0, #24]
 8006398:	b90b      	cbnz	r3, 800639e <_fflush_r+0x1a>
 800639a:	f000 f887 	bl	80064ac <__sinit>
 800639e:	4b14      	ldr	r3, [pc, #80]	; (80063f0 <_fflush_r+0x6c>)
 80063a0:	429c      	cmp	r4, r3
 80063a2:	d11b      	bne.n	80063dc <_fflush_r+0x58>
 80063a4:	686c      	ldr	r4, [r5, #4]
 80063a6:	f9b4 300c 	ldrsh.w	r3, [r4, #12]
 80063aa:	2b00      	cmp	r3, #0
 80063ac:	d0ef      	beq.n	800638e <_fflush_r+0xa>
 80063ae:	6e62      	ldr	r2, [r4, #100]	; 0x64
 80063b0:	07d0      	lsls	r0, r2, #31
 80063b2:	d404      	bmi.n	80063be <_fflush_r+0x3a>
 80063b4:	0599      	lsls	r1, r3, #22
 80063b6:	d402      	bmi.n	80063be <_fflush_r+0x3a>
 80063b8:	6da0      	ldr	r0, [r4, #88]	; 0x58
 80063ba:	f000 f915 	bl	80065e8 <__retarget_lock_acquire_recursive>
 80063be:	4628      	mov	r0, r5
 80063c0:	4621      	mov	r1, r4
 80063c2:	f7ff ff59 	bl	8006278 <__sflush_r>
 80063c6:	6e63      	ldr	r3, [r4, #100]	; 0x64
 80063c8:	4605      	mov	r5, r0
 80063ca:	07da      	lsls	r2, r3, #31
 80063cc:	d4e0      	bmi.n	8006390 <_fflush_r+0xc>
 80063ce:	89a3      	ldrh	r3, [r4, #12]
 80063d0:	059b      	lsls	r3, r3, #22
 80063d2:	d4dd      	bmi.n	8006390 <_fflush_r+0xc>
 80063d4:	6da0      	ldr	r0, [r4, #88]	; 0x58
 80063d6:	f000 f908 	bl	80065ea <__retarget_lock_release_recursive>
 80063da:	e7d9      	b.n	8006390 <_fflush_r+0xc>
 80063dc:	4b05      	ldr	r3, [pc, #20]	; (80063f4 <_fflush_r+0x70>)
 80063de:	429c      	cmp	r4, r3
 80063e0:	d101      	bne.n	80063e6 <_fflush_r+0x62>
 80063e2:	68ac      	ldr	r4, [r5, #8]
 80063e4:	e7df      	b.n	80063a6 <_fflush_r+0x22>
 80063e6:	4b04      	ldr	r3, [pc, #16]	; (80063f8 <_fflush_r+0x74>)
 80063e8:	429c      	cmp	r4, r3
 80063ea:	bf08      	it	eq
 80063ec:	68ec      	ldreq	r4, [r5, #12]
 80063ee:	e7da      	b.n	80063a6 <_fflush_r+0x22>
 80063f0:	08006cc4 	.word	0x08006cc4
 80063f4:	08006ce4 	.word	0x08006ce4
 80063f8:	08006ca4 	.word	0x08006ca4

080063fc <std>:
 80063fc:	2300      	movs	r3, #0
 80063fe:	b510      	push	{r4, lr}
 8006400:	4604      	mov	r4, r0
 8006402:	e9c0 3300 	strd	r3, r3, [r0]
 8006406:	e9c0 3304 	strd	r3, r3, [r0, #16]
 800640a:	6083      	str	r3, [r0, #8]
 800640c:	8181      	strh	r1, [r0, #12]
 800640e:	6643      	str	r3, [r0, #100]	; 0x64
 8006410:	81c2      	strh	r2, [r0, #14]
 8006412:	6183      	str	r3, [r0, #24]
 8006414:	4619      	mov	r1, r3
 8006416:	2208      	movs	r2, #8
 8006418:	305c      	adds	r0, #92	; 0x5c
 800641a:	f7fd fb99 	bl	8003b50 <memset>
 800641e:	4b05      	ldr	r3, [pc, #20]	; (8006434 <std+0x38>)
 8006420:	6224      	str	r4, [r4, #32]
 8006422:	6263      	str	r3, [r4, #36]	; 0x24
 8006424:	4b04      	ldr	r3, [pc, #16]	; (8006438 <std+0x3c>)
 8006426:	62a3      	str	r3, [r4, #40]	; 0x28
 8006428:	4b04      	ldr	r3, [pc, #16]	; (800643c <std+0x40>)
 800642a:	62e3      	str	r3, [r4, #44]	; 0x2c
 800642c:	4b04      	ldr	r3, [pc, #16]	; (8006440 <std+0x44>)
 800642e:	6323      	str	r3, [r4, #48]	; 0x30
 8006430:	bd10      	pop	{r4, pc}
 8006432:	bf00      	nop
 8006434:	0800674d 	.word	0x0800674d
 8006438:	0800676f 	.word	0x0800676f
 800643c:	080067a7 	.word	0x080067a7
 8006440:	080067cb 	.word	0x080067cb

08006444 <_cleanup_r>:
 8006444:	4901      	ldr	r1, [pc, #4]	; (800644c <_cleanup_r+0x8>)
 8006446:	f000 b8af 	b.w	80065a8 <_fwalk_reent>
 800644a:	bf00      	nop
 800644c:	08006385 	.word	0x08006385

08006450 <__sfmoreglue>:
 8006450:	b570      	push	{r4, r5, r6, lr}
 8006452:	2568      	movs	r5, #104	; 0x68
 8006454:	1e4a      	subs	r2, r1, #1
 8006456:	4355      	muls	r5, r2
 8006458:	460e      	mov	r6, r1
 800645a:	f105 0174 	add.w	r1, r5, #116	; 0x74
 800645e:	f7ff fa89 	bl	8005974 <_malloc_r>
 8006462:	4604      	mov	r4, r0
 8006464:	b140      	cbz	r0, 8006478 <__sfmoreglue+0x28>
 8006466:	2100      	movs	r1, #0
 8006468:	e9c0 1600 	strd	r1, r6, [r0]
 800646c:	300c      	adds	r0, #12
 800646e:	60a0      	str	r0, [r4, #8]
 8006470:	f105 0268 	add.w	r2, r5, #104	; 0x68
 8006474:	f7fd fb6c 	bl	8003b50 <memset>
 8006478:	4620      	mov	r0, r4
 800647a:	bd70      	pop	{r4, r5, r6, pc}

0800647c <__sfp_lock_acquire>:
 800647c:	4801      	ldr	r0, [pc, #4]	; (8006484 <__sfp_lock_acquire+0x8>)
 800647e:	f000 b8b3 	b.w	80065e8 <__retarget_lock_acquire_recursive>
 8006482:	bf00      	nop
 8006484:	20000518 	.word	0x20000518

08006488 <__sfp_lock_release>:
 8006488:	4801      	ldr	r0, [pc, #4]	; (8006490 <__sfp_lock_release+0x8>)
 800648a:	f000 b8ae 	b.w	80065ea <__retarget_lock_release_recursive>
 800648e:	bf00      	nop
 8006490:	20000518 	.word	0x20000518

08006494 <__sinit_lock_acquire>:
 8006494:	4801      	ldr	r0, [pc, #4]	; (800649c <__sinit_lock_acquire+0x8>)
 8006496:	f000 b8a7 	b.w	80065e8 <__retarget_lock_acquire_recursive>
 800649a:	bf00      	nop
 800649c:	20000513 	.word	0x20000513

080064a0 <__sinit_lock_release>:
 80064a0:	4801      	ldr	r0, [pc, #4]	; (80064a8 <__sinit_lock_release+0x8>)
 80064a2:	f000 b8a2 	b.w	80065ea <__retarget_lock_release_recursive>
 80064a6:	bf00      	nop
 80064a8:	20000513 	.word	0x20000513

080064ac <__sinit>:
 80064ac:	b510      	push	{r4, lr}
 80064ae:	4604      	mov	r4, r0
 80064b0:	f7ff fff0 	bl	8006494 <__sinit_lock_acquire>
 80064b4:	69a3      	ldr	r3, [r4, #24]
 80064b6:	b11b      	cbz	r3, 80064c0 <__sinit+0x14>
 80064b8:	e8bd 4010 	ldmia.w	sp!, {r4, lr}
 80064bc:	f7ff bff0 	b.w	80064a0 <__sinit_lock_release>
 80064c0:	e9c4 3312 	strd	r3, r3, [r4, #72]	; 0x48
 80064c4:	6523      	str	r3, [r4, #80]	; 0x50
 80064c6:	4b13      	ldr	r3, [pc, #76]	; (8006514 <__sinit+0x68>)
 80064c8:	4a13      	ldr	r2, [pc, #76]	; (8006518 <__sinit+0x6c>)
 80064ca:	681b      	ldr	r3, [r3, #0]
 80064cc:	62a2      	str	r2, [r4, #40]	; 0x28
 80064ce:	42a3      	cmp	r3, r4
 80064d0:	bf08      	it	eq
 80064d2:	2301      	moveq	r3, #1
 80064d4:	4620      	mov	r0, r4
 80064d6:	bf08      	it	eq
 80064d8:	61a3      	streq	r3, [r4, #24]
 80064da:	f000 f81f 	bl	800651c <__sfp>
 80064de:	6060      	str	r0, [r4, #4]
 80064e0:	4620      	mov	r0, r4
 80064e2:	f000 f81b 	bl	800651c <__sfp>
 80064e6:	60a0      	str	r0, [r4, #8]
 80064e8:	4620      	mov	r0, r4
 80064ea:	f000 f817 	bl	800651c <__sfp>
 80064ee:	2200      	movs	r2, #0
 80064f0:	2104      	movs	r1, #4
 80064f2:	60e0      	str	r0, [r4, #12]
 80064f4:	6860      	ldr	r0, [r4, #4]
 80064f6:	f7ff ff81 	bl	80063fc <std>
 80064fa:	2201      	movs	r2, #1
 80064fc:	2109      	movs	r1, #9
 80064fe:	68a0      	ldr	r0, [r4, #8]
 8006500:	f7ff ff7c 	bl	80063fc <std>
 8006504:	2202      	movs	r2, #2
 8006506:	2112      	movs	r1, #18
 8006508:	68e0      	ldr	r0, [r4, #12]
 800650a:	f7ff ff77 	bl	80063fc <std>
 800650e:	2301      	movs	r3, #1
 8006510:	61a3      	str	r3, [r4, #24]
 8006512:	e7d1      	b.n	80064b8 <__sinit+0xc>
 8006514:	08006924 	.word	0x08006924
 8006518:	08006445 	.word	0x08006445

0800651c <__sfp>:
 800651c:	b5f8      	push	{r3, r4, r5, r6, r7, lr}
 800651e:	4607      	mov	r7, r0
 8006520:	f7ff ffac 	bl	800647c <__sfp_lock_acquire>
 8006524:	4b1e      	ldr	r3, [pc, #120]	; (80065a0 <__sfp+0x84>)
 8006526:	681e      	ldr	r6, [r3, #0]
 8006528:	69b3      	ldr	r3, [r6, #24]
 800652a:	b913      	cbnz	r3, 8006532 <__sfp+0x16>
 800652c:	4630      	mov	r0, r6
 800652e:	f7ff ffbd 	bl	80064ac <__sinit>
 8006532:	3648      	adds	r6, #72	; 0x48
 8006534:	e9d6 3401 	ldrd	r3, r4, [r6, #4]
 8006538:	3b01      	subs	r3, #1
 800653a:	d503      	bpl.n	8006544 <__sfp+0x28>
 800653c:	6833      	ldr	r3, [r6, #0]
 800653e:	b30b      	cbz	r3, 8006584 <__sfp+0x68>
 8006540:	6836      	ldr	r6, [r6, #0]
 8006542:	e7f7      	b.n	8006534 <__sfp+0x18>
 8006544:	f9b4 500c 	ldrsh.w	r5, [r4, #12]
 8006548:	b9d5      	cbnz	r5, 8006580 <__sfp+0x64>
 800654a:	4b16      	ldr	r3, [pc, #88]	; (80065a4 <__sfp+0x88>)
 800654c:	f104 0058 	add.w	r0, r4, #88	; 0x58
 8006550:	60e3      	str	r3, [r4, #12]
 8006552:	6665      	str	r5, [r4, #100]	; 0x64
 8006554:	f000 f847 	bl	80065e6 <__retarget_lock_init_recursive>
 8006558:	f7ff ff96 	bl	8006488 <__sfp_lock_release>
 800655c:	2208      	movs	r2, #8
 800655e:	4629      	mov	r1, r5
 8006560:	e9c4 5501 	strd	r5, r5, [r4, #4]
 8006564:	e9c4 5504 	strd	r5, r5, [r4, #16]
 8006568:	6025      	str	r5, [r4, #0]
 800656a:	61a5      	str	r5, [r4, #24]
 800656c:	f104 005c 	add.w	r0, r4, #92	; 0x5c
 8006570:	f7fd faee 	bl	8003b50 <memset>
 8006574:	e9c4 550d 	strd	r5, r5, [r4, #52]	; 0x34
 8006578:	e9c4 5512 	strd	r5, r5, [r4, #72]	; 0x48
 800657c:	4620      	mov	r0, r4
 800657e:	bdf8      	pop	{r3, r4, r5, r6, r7, pc}
 8006580:	3468      	adds	r4, #104	; 0x68
 8006582:	e7d9      	b.n	8006538 <__sfp+0x1c>
 8006584:	2104      	movs	r1, #4
 8006586:	4638      	mov	r0, r7
 8006588:	f7ff ff62 	bl	8006450 <__sfmoreglue>
 800658c:	4604      	mov	r4, r0
 800658e:	6030      	str	r0, [r6, #0]
 8006590:	2800      	cmp	r0, #0
 8006592:	d1d5      	bne.n	8006540 <__sfp+0x24>
 8006594:	f7ff ff78 	bl	8006488 <__sfp_lock_release>
 8006598:	230c      	movs	r3, #12
 800659a:	603b      	str	r3, [r7, #0]
 800659c:	e7ee      	b.n	800657c <__sfp+0x60>
 800659e:	bf00      	nop
 80065a0:	08006924 	.word	0x08006924
 80065a4:	ffff0001 	.word	0xffff0001

080065a8 <_fwalk_reent>:
 80065a8:	e92d 43f8 	stmdb	sp!, {r3, r4, r5, r6, r7, r8, r9, lr}
 80065ac:	4606      	mov	r6, r0
 80065ae:	4688      	mov	r8, r1
 80065b0:	2700      	movs	r7, #0
 80065b2:	f100 0448 	add.w	r4, r0, #72	; 0x48
 80065b6:	e9d4 9501 	ldrd	r9, r5, [r4, #4]
 80065ba:	f1b9 0901 	subs.w	r9, r9, #1
 80065be:	d505      	bpl.n	80065cc <_fwalk_reent+0x24>
 80065c0:	6824      	ldr	r4, [r4, #0]
 80065c2:	2c00      	cmp	r4, #0
 80065c4:	d1f7      	bne.n	80065b6 <_fwalk_reent+0xe>
 80065c6:	4638      	mov	r0, r7
 80065c8:	e8bd 83f8 	ldmia.w	sp!, {r3, r4, r5, r6, r7, r8, r9, pc}
 80065cc:	89ab      	ldrh	r3, [r5, #12]
 80065ce:	2b01      	cmp	r3, #1
 80065d0:	d907      	bls.n	80065e2 <_fwalk_reent+0x3a>
 80065d2:	f9b5 300e 	ldrsh.w	r3, [r5, #14]
 80065d6:	3301      	adds	r3, #1
 80065d8:	d003      	beq.n	80065e2 <_fwalk_reent+0x3a>
 80065da:	4629      	mov	r1, r5
 80065dc:	4630      	mov	r0, r6
 80065de:	47c0      	blx	r8
 80065e0:	4307      	orrs	r7, r0
 80065e2:	3568      	adds	r5, #104	; 0x68
 80065e4:	e7e9      	b.n	80065ba <_fwalk_reent+0x12>

080065e6 <__retarget_lock_init_recursive>:
 80065e6:	4770      	bx	lr

080065e8 <__retarget_lock_acquire_recursive>:
 80065e8:	4770      	bx	lr

080065ea <__retarget_lock_release_recursive>:
 80065ea:	4770      	bx	lr

080065ec <__swhatbuf_r>:
 80065ec:	b570      	push	{r4, r5, r6, lr}
 80065ee:	460e      	mov	r6, r1
 80065f0:	f9b1 100e 	ldrsh.w	r1, [r1, #14]
 80065f4:	4614      	mov	r4, r2
 80065f6:	2900      	cmp	r1, #0
 80065f8:	461d      	mov	r5, r3
 80065fa:	b096      	sub	sp, #88	; 0x58
 80065fc:	da07      	bge.n	800660e <__swhatbuf_r+0x22>
 80065fe:	2300      	movs	r3, #0
 8006600:	602b      	str	r3, [r5, #0]
 8006602:	89b3      	ldrh	r3, [r6, #12]
 8006604:	061a      	lsls	r2, r3, #24
 8006606:	d410      	bmi.n	800662a <__swhatbuf_r+0x3e>
 8006608:	f44f 6380 	mov.w	r3, #1024	; 0x400
 800660c:	e00e      	b.n	800662c <__swhatbuf_r+0x40>
 800660e:	466a      	mov	r2, sp
 8006610:	f000 f902 	bl	8006818 <_fstat_r>
 8006614:	2800      	cmp	r0, #0
 8006616:	dbf2      	blt.n	80065fe <__swhatbuf_r+0x12>
 8006618:	9a01      	ldr	r2, [sp, #4]
 800661a:	f402 4270 	and.w	r2, r2, #61440	; 0xf000
 800661e:	f5a2 5300 	sub.w	r3, r2, #8192	; 0x2000
 8006622:	425a      	negs	r2, r3
 8006624:	415a      	adcs	r2, r3
 8006626:	602a      	str	r2, [r5, #0]
 8006628:	e7ee      	b.n	8006608 <__swhatbuf_r+0x1c>
 800662a:	2340      	movs	r3, #64	; 0x40
 800662c:	2000      	movs	r0, #0
 800662e:	6023      	str	r3, [r4, #0]
 8006630:	b016      	add	sp, #88	; 0x58
 8006632:	bd70      	pop	{r4, r5, r6, pc}

08006634 <__smakebuf_r>:
 8006634:	898b      	ldrh	r3, [r1, #12]
 8006636:	b573      	push	{r0, r1, r4, r5, r6, lr}
 8006638:	079d      	lsls	r5, r3, #30
 800663a:	4606      	mov	r6, r0
 800663c:	460c      	mov	r4, r1
 800663e:	d507      	bpl.n	8006650 <__smakebuf_r+0x1c>
 8006640:	f104 0347 	add.w	r3, r4, #71	; 0x47
 8006644:	6023      	str	r3, [r4, #0]
 8006646:	6123      	str	r3, [r4, #16]
 8006648:	2301      	movs	r3, #1
 800664a:	6163      	str	r3, [r4, #20]
 800664c:	b002      	add	sp, #8
 800664e:	bd70      	pop	{r4, r5, r6, pc}
 8006650:	466a      	mov	r2, sp
 8006652:	ab01      	add	r3, sp, #4
 8006654:	f7ff ffca 	bl	80065ec <__swhatbuf_r>
 8006658:	9900      	ldr	r1, [sp, #0]
 800665a:	4605      	mov	r5, r0
 800665c:	4630      	mov	r0, r6
 800665e:	f7ff f989 	bl	8005974 <_malloc_r>
 8006662:	b948      	cbnz	r0, 8006678 <__smakebuf_r+0x44>
 8006664:	f9b4 300c 	ldrsh.w	r3, [r4, #12]
 8006668:	059a      	lsls	r2, r3, #22
 800666a:	d4ef      	bmi.n	800664c <__smakebuf_r+0x18>
 800666c:	f023 0303 	bic.w	r3, r3, #3
 8006670:	f043 0302 	orr.w	r3, r3, #2
 8006674:	81a3      	strh	r3, [r4, #12]
 8006676:	e7e3      	b.n	8006640 <__smakebuf_r+0xc>
 8006678:	4b0d      	ldr	r3, [pc, #52]	; (80066b0 <__smakebuf_r+0x7c>)
 800667a:	62b3      	str	r3, [r6, #40]	; 0x28
 800667c:	89a3      	ldrh	r3, [r4, #12]
 800667e:	6020      	str	r0, [r4, #0]
 8006680:	f043 0380 	orr.w	r3, r3, #128	; 0x80
 8006684:	81a3      	strh	r3, [r4, #12]
 8006686:	9b00      	ldr	r3, [sp, #0]
 8006688:	6120      	str	r0, [r4, #16]
 800668a:	6163      	str	r3, [r4, #20]
 800668c:	9b01      	ldr	r3, [sp, #4]
 800668e:	b15b      	cbz	r3, 80066a8 <__smakebuf_r+0x74>
 8006690:	4630      	mov	r0, r6
 8006692:	f9b4 100e 	ldrsh.w	r1, [r4, #14]
 8006696:	f000 f8d1 	bl	800683c <_isatty_r>
 800669a:	b128      	cbz	r0, 80066a8 <__smakebuf_r+0x74>
 800669c:	89a3      	ldrh	r3, [r4, #12]
 800669e:	f023 0303 	bic.w	r3, r3, #3
 80066a2:	f043 0301 	orr.w	r3, r3, #1
 80066a6:	81a3      	strh	r3, [r4, #12]
 80066a8:	89a0      	ldrh	r0, [r4, #12]
 80066aa:	4305      	orrs	r5, r0
 80066ac:	81a5      	strh	r5, [r4, #12]
 80066ae:	e7cd      	b.n	800664c <__smakebuf_r+0x18>
 80066b0:	08006445 	.word	0x08006445

080066b4 <_malloc_usable_size_r>:
 80066b4:	f851 3c04 	ldr.w	r3, [r1, #-4]
 80066b8:	1f18      	subs	r0, r3, #4
 80066ba:	2b00      	cmp	r3, #0
 80066bc:	bfbc      	itt	lt
 80066be:	580b      	ldrlt	r3, [r1, r0]
 80066c0:	18c0      	addlt	r0, r0, r3
 80066c2:	4770      	bx	lr

080066c4 <_raise_r>:
 80066c4:	291f      	cmp	r1, #31
 80066c6:	b538      	push	{r3, r4, r5, lr}
 80066c8:	4604      	mov	r4, r0
 80066ca:	460d      	mov	r5, r1
 80066cc:	d904      	bls.n	80066d8 <_raise_r+0x14>
 80066ce:	2316      	movs	r3, #22
 80066d0:	6003      	str	r3, [r0, #0]
 80066d2:	f04f 30ff 	mov.w	r0, #4294967295	; 0xffffffff
 80066d6:	bd38      	pop	{r3, r4, r5, pc}
 80066d8:	6c42      	ldr	r2, [r0, #68]	; 0x44
 80066da:	b112      	cbz	r2, 80066e2 <_raise_r+0x1e>
 80066dc:	f852 3021 	ldr.w	r3, [r2, r1, lsl #2]
 80066e0:	b94b      	cbnz	r3, 80066f6 <_raise_r+0x32>
 80066e2:	4620      	mov	r0, r4
 80066e4:	f000 f830 	bl	8006748 <_getpid_r>
 80066e8:	462a      	mov	r2, r5
 80066ea:	4601      	mov	r1, r0
 80066ec:	4620      	mov	r0, r4
 80066ee:	e8bd 4038 	ldmia.w	sp!, {r3, r4, r5, lr}
 80066f2:	f000 b817 	b.w	8006724 <_kill_r>
 80066f6:	2b01      	cmp	r3, #1
 80066f8:	d00a      	beq.n	8006710 <_raise_r+0x4c>
 80066fa:	1c59      	adds	r1, r3, #1
 80066fc:	d103      	bne.n	8006706 <_raise_r+0x42>
 80066fe:	2316      	movs	r3, #22
 8006700:	6003      	str	r3, [r0, #0]
 8006702:	2001      	movs	r0, #1
 8006704:	e7e7      	b.n	80066d6 <_raise_r+0x12>
 8006706:	2400      	movs	r4, #0
 8006708:	4628      	mov	r0, r5
 800670a:	f842 4025 	str.w	r4, [r2, r5, lsl #2]
 800670e:	4798      	blx	r3
 8006710:	2000      	movs	r0, #0
 8006712:	e7e0      	b.n	80066d6 <_raise_r+0x12>

08006714 <raise>:
 8006714:	4b02      	ldr	r3, [pc, #8]	; (8006720 <raise+0xc>)
 8006716:	4601      	mov	r1, r0
 8006718:	6818      	ldr	r0, [r3, #0]
 800671a:	f7ff bfd3 	b.w	80066c4 <_raise_r>
 800671e:	bf00      	nop
 8006720:	20000010 	.word	0x20000010

08006724 <_kill_r>:
 8006724:	b538      	push	{r3, r4, r5, lr}
 8006726:	2300      	movs	r3, #0
 8006728:	4d06      	ldr	r5, [pc, #24]	; (8006744 <_kill_r+0x20>)
 800672a:	4604      	mov	r4, r0
 800672c:	4608      	mov	r0, r1
 800672e:	4611      	mov	r1, r2
 8006730:	602b      	str	r3, [r5, #0]
 8006732:	f7fa ffc3 	bl	80016bc <_kill>
 8006736:	1c43      	adds	r3, r0, #1
 8006738:	d102      	bne.n	8006740 <_kill_r+0x1c>
 800673a:	682b      	ldr	r3, [r5, #0]
 800673c:	b103      	cbz	r3, 8006740 <_kill_r+0x1c>
 800673e:	6023      	str	r3, [r4, #0]
 8006740:	bd38      	pop	{r3, r4, r5, pc}
 8006742:	bf00      	nop
 8006744:	2000050c 	.word	0x2000050c

08006748 <_getpid_r>:
 8006748:	f7fa bfb6 	b.w	80016b8 <_getpid>

0800674c <__sread>:
 800674c:	b510      	push	{r4, lr}
 800674e:	460c      	mov	r4, r1
 8006750:	f9b1 100e 	ldrsh.w	r1, [r1, #14]
 8006754:	f000 f894 	bl	8006880 <_read_r>
 8006758:	2800      	cmp	r0, #0
 800675a:	bfab      	itete	ge
 800675c:	6d63      	ldrge	r3, [r4, #84]	; 0x54
 800675e:	89a3      	ldrhlt	r3, [r4, #12]
 8006760:	181b      	addge	r3, r3, r0
 8006762:	f423 5380 	biclt.w	r3, r3, #4096	; 0x1000
 8006766:	bfac      	ite	ge
 8006768:	6563      	strge	r3, [r4, #84]	; 0x54
 800676a:	81a3      	strhlt	r3, [r4, #12]
 800676c:	bd10      	pop	{r4, pc}

0800676e <__swrite>:
 800676e:	e92d 41f0 	stmdb	sp!, {r4, r5, r6, r7, r8, lr}
 8006772:	461f      	mov	r7, r3
 8006774:	898b      	ldrh	r3, [r1, #12]
 8006776:	4605      	mov	r5, r0
 8006778:	05db      	lsls	r3, r3, #23
 800677a:	460c      	mov	r4, r1
 800677c:	4616      	mov	r6, r2
 800677e:	d505      	bpl.n	800678c <__swrite+0x1e>
 8006780:	2302      	movs	r3, #2
 8006782:	2200      	movs	r2, #0
 8006784:	f9b1 100e 	ldrsh.w	r1, [r1, #14]
 8006788:	f000 f868 	bl	800685c <_lseek_r>
 800678c:	89a3      	ldrh	r3, [r4, #12]
 800678e:	4632      	mov	r2, r6
 8006790:	f423 5380 	bic.w	r3, r3, #4096	; 0x1000
 8006794:	81a3      	strh	r3, [r4, #12]
 8006796:	4628      	mov	r0, r5
 8006798:	463b      	mov	r3, r7
 800679a:	f9b4 100e 	ldrsh.w	r1, [r4, #14]
 800679e:	e8bd 41f0 	ldmia.w	sp!, {r4, r5, r6, r7, r8, lr}
 80067a2:	f000 b817 	b.w	80067d4 <_write_r>

080067a6 <__sseek>:
 80067a6:	b510      	push	{r4, lr}
 80067a8:	460c      	mov	r4, r1
 80067aa:	f9b1 100e 	ldrsh.w	r1, [r1, #14]
 80067ae:	f000 f855 	bl	800685c <_lseek_r>
 80067b2:	1c43      	adds	r3, r0, #1
 80067b4:	89a3      	ldrh	r3, [r4, #12]
 80067b6:	bf15      	itete	ne
 80067b8:	6560      	strne	r0, [r4, #84]	; 0x54
 80067ba:	f423 5380 	biceq.w	r3, r3, #4096	; 0x1000
 80067be:	f443 5380 	orrne.w	r3, r3, #4096	; 0x1000
 80067c2:	81a3      	strheq	r3, [r4, #12]
 80067c4:	bf18      	it	ne
 80067c6:	81a3      	strhne	r3, [r4, #12]
 80067c8:	bd10      	pop	{r4, pc}

080067ca <__sclose>:
 80067ca:	f9b1 100e 	ldrsh.w	r1, [r1, #14]
 80067ce:	f000 b813 	b.w	80067f8 <_close_r>
	...

080067d4 <_write_r>:
 80067d4:	b538      	push	{r3, r4, r5, lr}
 80067d6:	4604      	mov	r4, r0
 80067d8:	4608      	mov	r0, r1
 80067da:	4611      	mov	r1, r2
 80067dc:	2200      	movs	r2, #0
 80067de:	4d05      	ldr	r5, [pc, #20]	; (80067f4 <_write_r+0x20>)
 80067e0:	602a      	str	r2, [r5, #0]
 80067e2:	461a      	mov	r2, r3
 80067e4:	f7fa ff85 	bl	80016f2 <_write>
 80067e8:	1c43      	adds	r3, r0, #1
 80067ea:	d102      	bne.n	80067f2 <_write_r+0x1e>
 80067ec:	682b      	ldr	r3, [r5, #0]
 80067ee:	b103      	cbz	r3, 80067f2 <_write_r+0x1e>
 80067f0:	6023      	str	r3, [r4, #0]
 80067f2:	bd38      	pop	{r3, r4, r5, pc}
 80067f4:	2000050c 	.word	0x2000050c

080067f8 <_close_r>:
 80067f8:	b538      	push	{r3, r4, r5, lr}
 80067fa:	2300      	movs	r3, #0
 80067fc:	4d05      	ldr	r5, [pc, #20]	; (8006814 <_close_r+0x1c>)
 80067fe:	4604      	mov	r4, r0
 8006800:	4608      	mov	r0, r1
 8006802:	602b      	str	r3, [r5, #0]
 8006804:	f7fa ff82 	bl	800170c <_close>
 8006808:	1c43      	adds	r3, r0, #1
 800680a:	d102      	bne.n	8006812 <_close_r+0x1a>
 800680c:	682b      	ldr	r3, [r5, #0]
 800680e:	b103      	cbz	r3, 8006812 <_close_r+0x1a>
 8006810:	6023      	str	r3, [r4, #0]
 8006812:	bd38      	pop	{r3, r4, r5, pc}
 8006814:	2000050c 	.word	0x2000050c

08006818 <_fstat_r>:
 8006818:	b538      	push	{r3, r4, r5, lr}
 800681a:	2300      	movs	r3, #0
 800681c:	4d06      	ldr	r5, [pc, #24]	; (8006838 <_fstat_r+0x20>)
 800681e:	4604      	mov	r4, r0
 8006820:	4608      	mov	r0, r1
 8006822:	4611      	mov	r1, r2
 8006824:	602b      	str	r3, [r5, #0]
 8006826:	f7fa ff74 	bl	8001712 <_fstat>
 800682a:	1c43      	adds	r3, r0, #1
 800682c:	d102      	bne.n	8006834 <_fstat_r+0x1c>
 800682e:	682b      	ldr	r3, [r5, #0]
 8006830:	b103      	cbz	r3, 8006834 <_fstat_r+0x1c>
 8006832:	6023      	str	r3, [r4, #0]
 8006834:	bd38      	pop	{r3, r4, r5, pc}
 8006836:	bf00      	nop
 8006838:	2000050c 	.word	0x2000050c

0800683c <_isatty_r>:
 800683c:	b538      	push	{r3, r4, r5, lr}
 800683e:	2300      	movs	r3, #0
 8006840:	4d05      	ldr	r5, [pc, #20]	; (8006858 <_isatty_r+0x1c>)
 8006842:	4604      	mov	r4, r0
 8006844:	4608      	mov	r0, r1
 8006846:	602b      	str	r3, [r5, #0]
 8006848:	f7fa ff68 	bl	800171c <_isatty>
 800684c:	1c43      	adds	r3, r0, #1
 800684e:	d102      	bne.n	8006856 <_isatty_r+0x1a>
 8006850:	682b      	ldr	r3, [r5, #0]
 8006852:	b103      	cbz	r3, 8006856 <_isatty_r+0x1a>
 8006854:	6023      	str	r3, [r4, #0]
 8006856:	bd38      	pop	{r3, r4, r5, pc}
 8006858:	2000050c 	.word	0x2000050c

0800685c <_lseek_r>:
 800685c:	b538      	push	{r3, r4, r5, lr}
 800685e:	4604      	mov	r4, r0
 8006860:	4608      	mov	r0, r1
 8006862:	4611      	mov	r1, r2
 8006864:	2200      	movs	r2, #0
 8006866:	4d05      	ldr	r5, [pc, #20]	; (800687c <_lseek_r+0x20>)
 8006868:	602a      	str	r2, [r5, #0]
 800686a:	461a      	mov	r2, r3
 800686c:	f7fa ff58 	bl	8001720 <_lseek>
 8006870:	1c43      	adds	r3, r0, #1
 8006872:	d102      	bne.n	800687a <_lseek_r+0x1e>
 8006874:	682b      	ldr	r3, [r5, #0]
 8006876:	b103      	cbz	r3, 800687a <_lseek_r+0x1e>
 8006878:	6023      	str	r3, [r4, #0]
 800687a:	bd38      	pop	{r3, r4, r5, pc}
 800687c:	2000050c 	.word	0x2000050c

08006880 <_read_r>:
 8006880:	b538      	push	{r3, r4, r5, lr}
 8006882:	4604      	mov	r4, r0
 8006884:	4608      	mov	r0, r1
 8006886:	4611      	mov	r1, r2
 8006888:	2200      	movs	r2, #0
 800688a:	4d05      	ldr	r5, [pc, #20]	; (80068a0 <_read_r+0x20>)
 800688c:	602a      	str	r2, [r5, #0]
 800688e:	461a      	mov	r2, r3
 8006890:	f7fa ff22 	bl	80016d8 <_read>
 8006894:	1c43      	adds	r3, r0, #1
 8006896:	d102      	bne.n	800689e <_read_r+0x1e>
 8006898:	682b      	ldr	r3, [r5, #0]
 800689a:	b103      	cbz	r3, 800689e <_read_r+0x1e>
 800689c:	6023      	str	r3, [r4, #0]
 800689e:	bd38      	pop	{r3, r4, r5, pc}
 80068a0:	2000050c 	.word	0x2000050c

080068a4 <_init>:
 80068a4:	b5f8      	push	{r3, r4, r5, r6, r7, lr}
 80068a6:	bf00      	nop
 80068a8:	bcf8      	pop	{r3, r4, r5, r6, r7}
 80068aa:	bc08      	pop	{r3}
 80068ac:	469e      	mov	lr, r3
 80068ae:	4770      	bx	lr

080068b0 <_fini>:
 80068b0:	b5f8      	push	{r3, r4, r5, r6, r7, lr}
 80068b2:	bf00      	nop
 80068b4:	bcf8      	pop	{r3, r4, r5, r6, r7}
 80068b6:	bc08      	pop	{r3}
 80068b8:	469e      	mov	lr, r3
 80068ba:	4770      	bx	lr
