
Anemometer.elf:     file format elf32-littlearm

Sections:
Idx Name          Size      VMA       LMA       File off  Algn
  0 .isr_vector   0000010c  08000000  08000000  00010000  2**0
                  CONTENTS, ALLOC, LOAD, READONLY, DATA
  1 .text         000087ec  08000110  08000110  00010110  2**3
                  CONTENTS, ALLOC, LOAD, READONLY, CODE
  2 .rodata       000005f4  08008900  08008900  00018900  2**3
                  CONTENTS, ALLOC, LOAD, READONLY, DATA
  3 .ARM.extab    00000000  08008ef4  08008ef4  0002022c  2**0
                  CONTENTS
  4 .ARM          00000000  08008ef4  08008ef4  0002022c  2**0
                  CONTENTS
  5 .preinit_array 00000000  08008ef4  08008ef4  0002022c  2**0
                  CONTENTS, ALLOC, LOAD, DATA
  6 .init_array   00000004  08008ef4  08008ef4  00018ef4  2**2
                  CONTENTS, ALLOC, LOAD, DATA
  7 .fini_array   00000004  08008ef8  08008ef8  00018ef8  2**2
                  CONTENTS, ALLOC, LOAD, DATA
  8 .data         0000022c  20000000  08008efc  00020000  2**2
                  CONTENTS, ALLOC, LOAD, DATA
  9 .bss          000003c4  20000230  08009128  00020230  2**3
                  ALLOC
 10 ._user_heap_stack 00000604  200005f4  08009128  000205f4  2**0
                  ALLOC
 11 .ARM.attributes 00000029  00000000  00000000  0002022c  2**0
                  CONTENTS, READONLY
 12 .comment      00000053  00000000  00000000  00020255  2**0
                  CONTENTS, READONLY
 13 .debug_frame  0000139c  00000000  00000000  000202a8  2**2
                  CONTENTS, READONLY, DEBUGGING, OCTETS

Disassembly of section .text:

08000110 <__do_global_dtors_aux>:
 8000110:	b510      	push	{r4, lr}
 8000112:	4c05      	ldr	r4, [pc, #20]	; (8000128 <__do_global_dtors_aux+0x18>)
 8000114:	7823      	ldrb	r3, [r4, #0]
 8000116:	b933      	cbnz	r3, 8000126 <__do_global_dtors_aux+0x16>
 8000118:	4b04      	ldr	r3, [pc, #16]	; (800012c <__do_global_dtors_aux+0x1c>)
 800011a:	b113      	cbz	r3, 8000122 <__do_global_dtors_aux+0x12>
 800011c:	4804      	ldr	r0, [pc, #16]	; (8000130 <__do_global_dtors_aux+0x20>)
 800011e:	f3af 8000 	nop.w
 8000122:	2301      	movs	r3, #1
 8000124:	7023      	strb	r3, [r4, #0]
 8000126:	bd10      	pop	{r4, pc}
 8000128:	20000230 	.word	0x20000230
 800012c:	00000000 	.word	0x00000000
 8000130:	080088e4 	.word	0x080088e4

08000134 <frame_dummy>:
 8000134:	b508      	push	{r3, lr}
 8000136:	4b03      	ldr	r3, [pc, #12]	; (8000144 <frame_dummy+0x10>)
 8000138:	b11b      	cbz	r3, 8000142 <frame_dummy+0xe>
 800013a:	4903      	ldr	r1, [pc, #12]	; (8000148 <frame_dummy+0x14>)
 800013c:	4803      	ldr	r0, [pc, #12]	; (800014c <frame_dummy+0x18>)
 800013e:	f3af 8000 	nop.w
 8000142:	bd08      	pop	{r3, pc}
 8000144:	00000000 	.word	0x00000000
 8000148:	20000234 	.word	0x20000234
 800014c:	080088e4 	.word	0x080088e4

08000150 <strlen>:
 8000150:	4603      	mov	r3, r0
 8000152:	f813 2b01 	ldrb.w	r2, [r3], #1
 8000156:	2a00      	cmp	r2, #0
 8000158:	d1fb      	bne.n	8000152 <strlen+0x2>
 800015a:	1a18      	subs	r0, r3, r0
 800015c:	3801      	subs	r0, #1
 800015e:	4770      	bx	lr

08000160 <__aeabi_drsub>:
 8000160:	f081 4100 	eor.w	r1, r1, #2147483648	; 0x80000000
 8000164:	e002      	b.n	800016c <__adddf3>
 8000166:	bf00      	nop

08000168 <__aeabi_dsub>:
 8000168:	f083 4300 	eor.w	r3, r3, #2147483648	; 0x80000000

0800016c <__adddf3>:
 800016c:	b530      	push	{r4, r5, lr}
 800016e:	ea4f 0441 	mov.w	r4, r1, lsl #1
 8000172:	ea4f 0543 	mov.w	r5, r3, lsl #1
 8000176:	ea94 0f05 	teq	r4, r5
 800017a:	bf08      	it	eq
 800017c:	ea90 0f02 	teqeq	r0, r2
 8000180:	bf1f      	itttt	ne
 8000182:	ea54 0c00 	orrsne.w	ip, r4, r0
 8000186:	ea55 0c02 	orrsne.w	ip, r5, r2
 800018a:	ea7f 5c64 	mvnsne.w	ip, r4, asr #21
 800018e:	ea7f 5c65 	mvnsne.w	ip, r5, asr #21
 8000192:	f000 80e2 	beq.w	800035a <__adddf3+0x1ee>
 8000196:	ea4f 5454 	mov.w	r4, r4, lsr #21
 800019a:	ebd4 5555 	rsbs	r5, r4, r5, lsr #21
 800019e:	bfb8      	it	lt
 80001a0:	426d      	neglt	r5, r5
 80001a2:	dd0c      	ble.n	80001be <__adddf3+0x52>
 80001a4:	442c      	add	r4, r5
 80001a6:	ea80 0202 	eor.w	r2, r0, r2
 80001aa:	ea81 0303 	eor.w	r3, r1, r3
 80001ae:	ea82 0000 	eor.w	r0, r2, r0
 80001b2:	ea83 0101 	eor.w	r1, r3, r1
 80001b6:	ea80 0202 	eor.w	r2, r0, r2
 80001ba:	ea81 0303 	eor.w	r3, r1, r3
 80001be:	2d36      	cmp	r5, #54	; 0x36
 80001c0:	bf88      	it	hi
 80001c2:	bd30      	pophi	{r4, r5, pc}
 80001c4:	f011 4f00 	tst.w	r1, #2147483648	; 0x80000000
 80001c8:	ea4f 3101 	mov.w	r1, r1, lsl #12
 80001cc:	f44f 1c80 	mov.w	ip, #1048576	; 0x100000
 80001d0:	ea4c 3111 	orr.w	r1, ip, r1, lsr #12
 80001d4:	d002      	beq.n	80001dc <__adddf3+0x70>
 80001d6:	4240      	negs	r0, r0
 80001d8:	eb61 0141 	sbc.w	r1, r1, r1, lsl #1
 80001dc:	f013 4f00 	tst.w	r3, #2147483648	; 0x80000000
 80001e0:	ea4f 3303 	mov.w	r3, r3, lsl #12
 80001e4:	ea4c 3313 	orr.w	r3, ip, r3, lsr #12
 80001e8:	d002      	beq.n	80001f0 <__adddf3+0x84>
 80001ea:	4252      	negs	r2, r2
 80001ec:	eb63 0343 	sbc.w	r3, r3, r3, lsl #1
 80001f0:	ea94 0f05 	teq	r4, r5
 80001f4:	f000 80a7 	beq.w	8000346 <__adddf3+0x1da>
 80001f8:	f1a4 0401 	sub.w	r4, r4, #1
 80001fc:	f1d5 0e20 	rsbs	lr, r5, #32
 8000200:	db0d      	blt.n	800021e <__adddf3+0xb2>
 8000202:	fa02 fc0e 	lsl.w	ip, r2, lr
 8000206:	fa22 f205 	lsr.w	r2, r2, r5
 800020a:	1880      	adds	r0, r0, r2
 800020c:	f141 0100 	adc.w	r1, r1, #0
 8000210:	fa03 f20e 	lsl.w	r2, r3, lr
 8000214:	1880      	adds	r0, r0, r2
 8000216:	fa43 f305 	asr.w	r3, r3, r5
 800021a:	4159      	adcs	r1, r3
 800021c:	e00e      	b.n	800023c <__adddf3+0xd0>
 800021e:	f1a5 0520 	sub.w	r5, r5, #32
 8000222:	f10e 0e20 	add.w	lr, lr, #32
 8000226:	2a01      	cmp	r2, #1
 8000228:	fa03 fc0e 	lsl.w	ip, r3, lr
 800022c:	bf28      	it	cs
 800022e:	f04c 0c02 	orrcs.w	ip, ip, #2
 8000232:	fa43 f305 	asr.w	r3, r3, r5
 8000236:	18c0      	adds	r0, r0, r3
 8000238:	eb51 71e3 	adcs.w	r1, r1, r3, asr #31
 800023c:	f001 4500 	and.w	r5, r1, #2147483648	; 0x80000000
 8000240:	d507      	bpl.n	8000252 <__adddf3+0xe6>
 8000242:	f04f 0e00 	mov.w	lr, #0
 8000246:	f1dc 0c00 	rsbs	ip, ip, #0
 800024a:	eb7e 0000 	sbcs.w	r0, lr, r0
 800024e:	eb6e 0101 	sbc.w	r1, lr, r1
 8000252:	f5b1 1f80 	cmp.w	r1, #1048576	; 0x100000
 8000256:	d31b      	bcc.n	8000290 <__adddf3+0x124>
 8000258:	f5b1 1f00 	cmp.w	r1, #2097152	; 0x200000
 800025c:	d30c      	bcc.n	8000278 <__adddf3+0x10c>
 800025e:	0849      	lsrs	r1, r1, #1
 8000260:	ea5f 0030 	movs.w	r0, r0, rrx
 8000264:	ea4f 0c3c 	mov.w	ip, ip, rrx
 8000268:	f104 0401 	add.w	r4, r4, #1
 800026c:	ea4f 5244 	mov.w	r2, r4, lsl #21
 8000270:	f512 0f80 	cmn.w	r2, #4194304	; 0x400000
 8000274:	f080 809a 	bcs.w	80003ac <__adddf3+0x240>
 8000278:	f1bc 4f00 	cmp.w	ip, #2147483648	; 0x80000000
 800027c:	bf08      	it	eq
 800027e:	ea5f 0c50 	movseq.w	ip, r0, lsr #1
 8000282:	f150 0000 	adcs.w	r0, r0, #0
 8000286:	eb41 5104 	adc.w	r1, r1, r4, lsl #20
 800028a:	ea41 0105 	orr.w	r1, r1, r5
 800028e:	bd30      	pop	{r4, r5, pc}
 8000290:	ea5f 0c4c 	movs.w	ip, ip, lsl #1
 8000294:	4140      	adcs	r0, r0
 8000296:	eb41 0101 	adc.w	r1, r1, r1
 800029a:	3c01      	subs	r4, #1
 800029c:	bf28      	it	cs
 800029e:	f5b1 1f80 	cmpcs.w	r1, #1048576	; 0x100000
 80002a2:	d2e9      	bcs.n	8000278 <__adddf3+0x10c>
 80002a4:	f091 0f00 	teq	r1, #0
 80002a8:	bf04      	itt	eq
 80002aa:	4601      	moveq	r1, r0
 80002ac:	2000      	moveq	r0, #0
 80002ae:	fab1 f381 	clz	r3, r1
 80002b2:	bf08      	it	eq
 80002b4:	3320      	addeq	r3, #32
 80002b6:	f1a3 030b 	sub.w	r3, r3, #11
 80002ba:	f1b3 0220 	subs.w	r2, r3, #32
 80002be:	da0c      	bge.n	80002da <__adddf3+0x16e>
 80002c0:	320c      	adds	r2, #12
 80002c2:	dd08      	ble.n	80002d6 <__adddf3+0x16a>
 80002c4:	f102 0c14 	add.w	ip, r2, #20
 80002c8:	f1c2 020c 	rsb	r2, r2, #12
 80002cc:	fa01 f00c 	lsl.w	r0, r1, ip
 80002d0:	fa21 f102 	lsr.w	r1, r1, r2
 80002d4:	e00c      	b.n	80002f0 <__adddf3+0x184>
 80002d6:	f102 0214 	add.w	r2, r2, #20
 80002da:	bfd8      	it	le
 80002dc:	f1c2 0c20 	rsble	ip, r2, #32
 80002e0:	fa01 f102 	lsl.w	r1, r1, r2
 80002e4:	fa20 fc0c 	lsr.w	ip, r0, ip
 80002e8:	bfdc      	itt	le
 80002ea:	ea41 010c 	orrle.w	r1, r1, ip
 80002ee:	4090      	lslle	r0, r2
 80002f0:	1ae4      	subs	r4, r4, r3
 80002f2:	bfa2      	ittt	ge
 80002f4:	eb01 5104 	addge.w	r1, r1, r4, lsl #20
 80002f8:	4329      	orrge	r1, r5
 80002fa:	bd30      	popge	{r4, r5, pc}
 80002fc:	ea6f 0404 	mvn.w	r4, r4
 8000300:	3c1f      	subs	r4, #31
 8000302:	da1c      	bge.n	800033e <__adddf3+0x1d2>
 8000304:	340c      	adds	r4, #12
 8000306:	dc0e      	bgt.n	8000326 <__adddf3+0x1ba>
 8000308:	f104 0414 	add.w	r4, r4, #20
 800030c:	f1c4 0220 	rsb	r2, r4, #32
 8000310:	fa20 f004 	lsr.w	r0, r0, r4
 8000314:	fa01 f302 	lsl.w	r3, r1, r2
 8000318:	ea40 0003 	orr.w	r0, r0, r3
 800031c:	fa21 f304 	lsr.w	r3, r1, r4
 8000320:	ea45 0103 	orr.w	r1, r5, r3
 8000324:	bd30      	pop	{r4, r5, pc}
 8000326:	f1c4 040c 	rsb	r4, r4, #12
 800032a:	f1c4 0220 	rsb	r2, r4, #32
 800032e:	fa20 f002 	lsr.w	r0, r0, r2
 8000332:	fa01 f304 	lsl.w	r3, r1, r4
 8000336:	ea40 0003 	orr.w	r0, r0, r3
 800033a:	4629      	mov	r1, r5
 800033c:	bd30      	pop	{r4, r5, pc}
 800033e:	fa21 f004 	lsr.w	r0, r1, r4
 8000342:	4629      	mov	r1, r5
 8000344:	bd30      	pop	{r4, r5, pc}
 8000346:	f094 0f00 	teq	r4, #0
 800034a:	f483 1380 	eor.w	r3, r3, #1048576	; 0x100000
 800034e:	bf06      	itte	eq
 8000350:	f481 1180 	eoreq.w	r1, r1, #1048576	; 0x100000
 8000354:	3401      	addeq	r4, #1
 8000356:	3d01      	subne	r5, #1
 8000358:	e74e      	b.n	80001f8 <__adddf3+0x8c>
 800035a:	ea7f 5c64 	mvns.w	ip, r4, asr #21
 800035e:	bf18      	it	ne
 8000360:	ea7f 5c65 	mvnsne.w	ip, r5, asr #21
 8000364:	d029      	beq.n	80003ba <__adddf3+0x24e>
 8000366:	ea94 0f05 	teq	r4, r5
 800036a:	bf08      	it	eq
 800036c:	ea90 0f02 	teqeq	r0, r2
 8000370:	d005      	beq.n	800037e <__adddf3+0x212>
 8000372:	ea54 0c00 	orrs.w	ip, r4, r0
 8000376:	bf04      	itt	eq
 8000378:	4619      	moveq	r1, r3
 800037a:	4610      	moveq	r0, r2
 800037c:	bd30      	pop	{r4, r5, pc}
 800037e:	ea91 0f03 	teq	r1, r3
 8000382:	bf1e      	ittt	ne
 8000384:	2100      	movne	r1, #0
 8000386:	2000      	movne	r0, #0
 8000388:	bd30      	popne	{r4, r5, pc}
 800038a:	ea5f 5c54 	movs.w	ip, r4, lsr #21
 800038e:	d105      	bne.n	800039c <__adddf3+0x230>
 8000390:	0040      	lsls	r0, r0, #1
 8000392:	4149      	adcs	r1, r1
 8000394:	bf28      	it	cs
 8000396:	f041 4100 	orrcs.w	r1, r1, #2147483648	; 0x80000000
 800039a:	bd30      	pop	{r4, r5, pc}
 800039c:	f514 0480 	adds.w	r4, r4, #4194304	; 0x400000
 80003a0:	bf3c      	itt	cc
 80003a2:	f501 1180 	addcc.w	r1, r1, #1048576	; 0x100000
 80003a6:	bd30      	popcc	{r4, r5, pc}
 80003a8:	f001 4500 	and.w	r5, r1, #2147483648	; 0x80000000
 80003ac:	f045 41fe 	orr.w	r1, r5, #2130706432	; 0x7f000000
 80003b0:	f441 0170 	orr.w	r1, r1, #15728640	; 0xf00000
 80003b4:	f04f 0000 	mov.w	r0, #0
 80003b8:	bd30      	pop	{r4, r5, pc}
 80003ba:	ea7f 5c64 	mvns.w	ip, r4, asr #21
 80003be:	bf1a      	itte	ne
 80003c0:	4619      	movne	r1, r3
 80003c2:	4610      	movne	r0, r2
 80003c4:	ea7f 5c65 	mvnseq.w	ip, r5, asr #21
 80003c8:	bf1c      	itt	ne
 80003ca:	460b      	movne	r3, r1
 80003cc:	4602      	movne	r2, r0
 80003ce:	ea50 3401 	orrs.w	r4, r0, r1, lsl #12
 80003d2:	bf06      	itte	eq
 80003d4:	ea52 3503 	orrseq.w	r5, r2, r3, lsl #12
 80003d8:	ea91 0f03 	teqeq	r1, r3
 80003dc:	f441 2100 	orrne.w	r1, r1, #524288	; 0x80000
 80003e0:	bd30      	pop	{r4, r5, pc}
 80003e2:	bf00      	nop

080003e4 <__aeabi_ui2d>:
 80003e4:	f090 0f00 	teq	r0, #0
 80003e8:	bf04      	itt	eq
 80003ea:	2100      	moveq	r1, #0
 80003ec:	4770      	bxeq	lr
 80003ee:	b530      	push	{r4, r5, lr}
 80003f0:	f44f 6480 	mov.w	r4, #1024	; 0x400
 80003f4:	f104 0432 	add.w	r4, r4, #50	; 0x32
 80003f8:	f04f 0500 	mov.w	r5, #0
 80003fc:	f04f 0100 	mov.w	r1, #0
 8000400:	e750      	b.n	80002a4 <__adddf3+0x138>
 8000402:	bf00      	nop

08000404 <__aeabi_i2d>:
 8000404:	f090 0f00 	teq	r0, #0
 8000408:	bf04      	itt	eq
 800040a:	2100      	moveq	r1, #0
 800040c:	4770      	bxeq	lr
 800040e:	b530      	push	{r4, r5, lr}
 8000410:	f44f 6480 	mov.w	r4, #1024	; 0x400
 8000414:	f104 0432 	add.w	r4, r4, #50	; 0x32
 8000418:	f010 4500 	ands.w	r5, r0, #2147483648	; 0x80000000
 800041c:	bf48      	it	mi
 800041e:	4240      	negmi	r0, r0
 8000420:	f04f 0100 	mov.w	r1, #0
 8000424:	e73e      	b.n	80002a4 <__adddf3+0x138>
 8000426:	bf00      	nop

08000428 <__aeabi_f2d>:
 8000428:	0042      	lsls	r2, r0, #1
 800042a:	ea4f 01e2 	mov.w	r1, r2, asr #3
 800042e:	ea4f 0131 	mov.w	r1, r1, rrx
 8000432:	ea4f 7002 	mov.w	r0, r2, lsl #28
 8000436:	bf1f      	itttt	ne
 8000438:	f012 437f 	andsne.w	r3, r2, #4278190080	; 0xff000000
 800043c:	f093 4f7f 	teqne	r3, #4278190080	; 0xff000000
 8000440:	f081 5160 	eorne.w	r1, r1, #939524096	; 0x38000000
 8000444:	4770      	bxne	lr
 8000446:	f032 427f 	bics.w	r2, r2, #4278190080	; 0xff000000
 800044a:	bf08      	it	eq
 800044c:	4770      	bxeq	lr
 800044e:	f093 4f7f 	teq	r3, #4278190080	; 0xff000000
 8000452:	bf04      	itt	eq
 8000454:	f441 2100 	orreq.w	r1, r1, #524288	; 0x80000
 8000458:	4770      	bxeq	lr
 800045a:	b530      	push	{r4, r5, lr}
 800045c:	f44f 7460 	mov.w	r4, #896	; 0x380
 8000460:	f001 4500 	and.w	r5, r1, #2147483648	; 0x80000000
 8000464:	f021 4100 	bic.w	r1, r1, #2147483648	; 0x80000000
 8000468:	e71c      	b.n	80002a4 <__adddf3+0x138>
 800046a:	bf00      	nop

0800046c <__aeabi_ul2d>:
 800046c:	ea50 0201 	orrs.w	r2, r0, r1
 8000470:	bf08      	it	eq
 8000472:	4770      	bxeq	lr
 8000474:	b530      	push	{r4, r5, lr}
 8000476:	f04f 0500 	mov.w	r5, #0
 800047a:	e00a      	b.n	8000492 <__aeabi_l2d+0x16>

0800047c <__aeabi_l2d>:
 800047c:	ea50 0201 	orrs.w	r2, r0, r1
 8000480:	bf08      	it	eq
 8000482:	4770      	bxeq	lr
 8000484:	b530      	push	{r4, r5, lr}
 8000486:	f011 4500 	ands.w	r5, r1, #2147483648	; 0x80000000
 800048a:	d502      	bpl.n	8000492 <__aeabi_l2d+0x16>
 800048c:	4240      	negs	r0, r0
 800048e:	eb61 0141 	sbc.w	r1, r1, r1, lsl #1
 8000492:	f44f 6480 	mov.w	r4, #1024	; 0x400
 8000496:	f104 0432 	add.w	r4, r4, #50	; 0x32
 800049a:	ea5f 5c91 	movs.w	ip, r1, lsr #22
 800049e:	f43f aed8 	beq.w	8000252 <__adddf3+0xe6>
 80004a2:	f04f 0203 	mov.w	r2, #3
 80004a6:	ea5f 0cdc 	movs.w	ip, ip, lsr #3
 80004aa:	bf18      	it	ne
 80004ac:	3203      	addne	r2, #3
 80004ae:	ea5f 0cdc 	movs.w	ip, ip, lsr #3
 80004b2:	bf18      	it	ne
 80004b4:	3203      	addne	r2, #3
 80004b6:	eb02 02dc 	add.w	r2, r2, ip, lsr #3
 80004ba:	f1c2 0320 	rsb	r3, r2, #32
 80004be:	fa00 fc03 	lsl.w	ip, r0, r3
 80004c2:	fa20 f002 	lsr.w	r0, r0, r2
 80004c6:	fa01 fe03 	lsl.w	lr, r1, r3
 80004ca:	ea40 000e 	orr.w	r0, r0, lr
 80004ce:	fa21 f102 	lsr.w	r1, r1, r2
 80004d2:	4414      	add	r4, r2
 80004d4:	e6bd      	b.n	8000252 <__adddf3+0xe6>
 80004d6:	bf00      	nop

080004d8 <__aeabi_dmul>:
 80004d8:	b570      	push	{r4, r5, r6, lr}
 80004da:	f04f 0cff 	mov.w	ip, #255	; 0xff
 80004de:	f44c 6ce0 	orr.w	ip, ip, #1792	; 0x700
 80004e2:	ea1c 5411 	ands.w	r4, ip, r1, lsr #20
 80004e6:	bf1d      	ittte	ne
 80004e8:	ea1c 5513 	andsne.w	r5, ip, r3, lsr #20
 80004ec:	ea94 0f0c 	teqne	r4, ip
 80004f0:	ea95 0f0c 	teqne	r5, ip
 80004f4:	f000 f8de 	bleq	80006b4 <__aeabi_dmul+0x1dc>
 80004f8:	442c      	add	r4, r5
 80004fa:	ea81 0603 	eor.w	r6, r1, r3
 80004fe:	ea21 514c 	bic.w	r1, r1, ip, lsl #21
 8000502:	ea23 534c 	bic.w	r3, r3, ip, lsl #21
 8000506:	ea50 3501 	orrs.w	r5, r0, r1, lsl #12
 800050a:	bf18      	it	ne
 800050c:	ea52 3503 	orrsne.w	r5, r2, r3, lsl #12
 8000510:	f441 1180 	orr.w	r1, r1, #1048576	; 0x100000
 8000514:	f443 1380 	orr.w	r3, r3, #1048576	; 0x100000
 8000518:	d038      	beq.n	800058c <__aeabi_dmul+0xb4>
 800051a:	fba0 ce02 	umull	ip, lr, r0, r2
 800051e:	f04f 0500 	mov.w	r5, #0
 8000522:	fbe1 e502 	umlal	lr, r5, r1, r2
 8000526:	f006 4200 	and.w	r2, r6, #2147483648	; 0x80000000
 800052a:	fbe0 e503 	umlal	lr, r5, r0, r3
 800052e:	f04f 0600 	mov.w	r6, #0
 8000532:	fbe1 5603 	umlal	r5, r6, r1, r3
 8000536:	f09c 0f00 	teq	ip, #0
 800053a:	bf18      	it	ne
 800053c:	f04e 0e01 	orrne.w	lr, lr, #1
 8000540:	f1a4 04ff 	sub.w	r4, r4, #255	; 0xff
 8000544:	f5b6 7f00 	cmp.w	r6, #512	; 0x200
 8000548:	f564 7440 	sbc.w	r4, r4, #768	; 0x300
 800054c:	d204      	bcs.n	8000558 <__aeabi_dmul+0x80>
 800054e:	ea5f 0e4e 	movs.w	lr, lr, lsl #1
 8000552:	416d      	adcs	r5, r5
 8000554:	eb46 0606 	adc.w	r6, r6, r6
 8000558:	ea42 21c6 	orr.w	r1, r2, r6, lsl #11
 800055c:	ea41 5155 	orr.w	r1, r1, r5, lsr #21
 8000560:	ea4f 20c5 	mov.w	r0, r5, lsl #11
 8000564:	ea40 505e 	orr.w	r0, r0, lr, lsr #21
 8000568:	ea4f 2ece 	mov.w	lr, lr, lsl #11
 800056c:	f1b4 0cfd 	subs.w	ip, r4, #253	; 0xfd
 8000570:	bf88      	it	hi
 8000572:	f5bc 6fe0 	cmphi.w	ip, #1792	; 0x700
 8000576:	d81e      	bhi.n	80005b6 <__aeabi_dmul+0xde>
 8000578:	f1be 4f00 	cmp.w	lr, #2147483648	; 0x80000000
 800057c:	bf08      	it	eq
 800057e:	ea5f 0e50 	movseq.w	lr, r0, lsr #1
 8000582:	f150 0000 	adcs.w	r0, r0, #0
 8000586:	eb41 5104 	adc.w	r1, r1, r4, lsl #20
 800058a:	bd70      	pop	{r4, r5, r6, pc}
 800058c:	f006 4600 	and.w	r6, r6, #2147483648	; 0x80000000
 8000590:	ea46 0101 	orr.w	r1, r6, r1
 8000594:	ea40 0002 	orr.w	r0, r0, r2
 8000598:	ea81 0103 	eor.w	r1, r1, r3
 800059c:	ebb4 045c 	subs.w	r4, r4, ip, lsr #1
 80005a0:	bfc2      	ittt	gt
 80005a2:	ebd4 050c 	rsbsgt	r5, r4, ip
 80005a6:	ea41 5104 	orrgt.w	r1, r1, r4, lsl #20
 80005aa:	bd70      	popgt	{r4, r5, r6, pc}
 80005ac:	f441 1180 	orr.w	r1, r1, #1048576	; 0x100000
 80005b0:	f04f 0e00 	mov.w	lr, #0
 80005b4:	3c01      	subs	r4, #1
 80005b6:	f300 80ab 	bgt.w	8000710 <__aeabi_dmul+0x238>
 80005ba:	f114 0f36 	cmn.w	r4, #54	; 0x36
 80005be:	bfde      	ittt	le
 80005c0:	2000      	movle	r0, #0
 80005c2:	f001 4100 	andle.w	r1, r1, #2147483648	; 0x80000000
 80005c6:	bd70      	pople	{r4, r5, r6, pc}
 80005c8:	f1c4 0400 	rsb	r4, r4, #0
 80005cc:	3c20      	subs	r4, #32
 80005ce:	da35      	bge.n	800063c <__aeabi_dmul+0x164>
 80005d0:	340c      	adds	r4, #12
 80005d2:	dc1b      	bgt.n	800060c <__aeabi_dmul+0x134>
 80005d4:	f104 0414 	add.w	r4, r4, #20
 80005d8:	f1c4 0520 	rsb	r5, r4, #32
 80005dc:	fa00 f305 	lsl.w	r3, r0, r5
 80005e0:	fa20 f004 	lsr.w	r0, r0, r4
 80005e4:	fa01 f205 	lsl.w	r2, r1, r5
 80005e8:	ea40 0002 	orr.w	r0, r0, r2
 80005ec:	f001 4200 	and.w	r2, r1, #2147483648	; 0x80000000
 80005f0:	f021 4100 	bic.w	r1, r1, #2147483648	; 0x80000000
 80005f4:	eb10 70d3 	adds.w	r0, r0, r3, lsr #31
 80005f8:	fa21 f604 	lsr.w	r6, r1, r4
 80005fc:	eb42 0106 	adc.w	r1, r2, r6
 8000600:	ea5e 0e43 	orrs.w	lr, lr, r3, lsl #1
 8000604:	bf08      	it	eq
 8000606:	ea20 70d3 	biceq.w	r0, r0, r3, lsr #31
 800060a:	bd70      	pop	{r4, r5, r6, pc}
 800060c:	f1c4 040c 	rsb	r4, r4, #12
 8000610:	f1c4 0520 	rsb	r5, r4, #32
 8000614:	fa00 f304 	lsl.w	r3, r0, r4
 8000618:	fa20 f005 	lsr.w	r0, r0, r5
 800061c:	fa01 f204 	lsl.w	r2, r1, r4
 8000620:	ea40 0002 	orr.w	r0, r0, r2
 8000624:	f001 4100 	and.w	r1, r1, #2147483648	; 0x80000000
 8000628:	eb10 70d3 	adds.w	r0, r0, r3, lsr #31
 800062c:	f141 0100 	adc.w	r1, r1, #0
 8000630:	ea5e 0e43 	orrs.w	lr, lr, r3, lsl #1
 8000634:	bf08      	it	eq
 8000636:	ea20 70d3 	biceq.w	r0, r0, r3, lsr #31
 800063a:	bd70      	pop	{r4, r5, r6, pc}
 800063c:	f1c4 0520 	rsb	r5, r4, #32
 8000640:	fa00 f205 	lsl.w	r2, r0, r5
 8000644:	ea4e 0e02 	orr.w	lr, lr, r2
 8000648:	fa20 f304 	lsr.w	r3, r0, r4
 800064c:	fa01 f205 	lsl.w	r2, r1, r5
 8000650:	ea43 0302 	orr.w	r3, r3, r2
 8000654:	fa21 f004 	lsr.w	r0, r1, r4
 8000658:	f001 4100 	and.w	r1, r1, #2147483648	; 0x80000000
 800065c:	fa21 f204 	lsr.w	r2, r1, r4
 8000660:	ea20 0002 	bic.w	r0, r0, r2
 8000664:	eb00 70d3 	add.w	r0, r0, r3, lsr #31
 8000668:	ea5e 0e43 	orrs.w	lr, lr, r3, lsl #1
 800066c:	bf08      	it	eq
 800066e:	ea20 70d3 	biceq.w	r0, r0, r3, lsr #31
 8000672:	bd70      	pop	{r4, r5, r6, pc}
 8000674:	f094 0f00 	teq	r4, #0
 8000678:	d10f      	bne.n	800069a <__aeabi_dmul+0x1c2>
 800067a:	f001 4600 	and.w	r6, r1, #2147483648	; 0x80000000
 800067e:	0040      	lsls	r0, r0, #1
 8000680:	eb41 0101 	adc.w	r1, r1, r1
 8000684:	f411 1f80 	tst.w	r1, #1048576	; 0x100000
 8000688:	bf08      	it	eq
 800068a:	3c01      	subeq	r4, #1
 800068c:	d0f7      	beq.n	800067e <__aeabi_dmul+0x1a6>
 800068e:	ea41 0106 	orr.w	r1, r1, r6
 8000692:	f095 0f00 	teq	r5, #0
 8000696:	bf18      	it	ne
 8000698:	4770      	bxne	lr
 800069a:	f003 4600 	and.w	r6, r3, #2147483648	; 0x80000000
 800069e:	0052      	lsls	r2, r2, #1
 80006a0:	eb43 0303 	adc.w	r3, r3, r3
 80006a4:	f413 1f80 	tst.w	r3, #1048576	; 0x100000
 80006a8:	bf08      	it	eq
 80006aa:	3d01      	subeq	r5, #1
 80006ac:	d0f7      	beq.n	800069e <__aeabi_dmul+0x1c6>
 80006ae:	ea43 0306 	orr.w	r3, r3, r6
 80006b2:	4770      	bx	lr
 80006b4:	ea94 0f0c 	teq	r4, ip
 80006b8:	ea0c 5513 	and.w	r5, ip, r3, lsr #20
 80006bc:	bf18      	it	ne
 80006be:	ea95 0f0c 	teqne	r5, ip
 80006c2:	d00c      	beq.n	80006de <__aeabi_dmul+0x206>
 80006c4:	ea50 0641 	orrs.w	r6, r0, r1, lsl #1
 80006c8:	bf18      	it	ne
 80006ca:	ea52 0643 	orrsne.w	r6, r2, r3, lsl #1
 80006ce:	d1d1      	bne.n	8000674 <__aeabi_dmul+0x19c>
 80006d0:	ea81 0103 	eor.w	r1, r1, r3
 80006d4:	f001 4100 	and.w	r1, r1, #2147483648	; 0x80000000
 80006d8:	f04f 0000 	mov.w	r0, #0
 80006dc:	bd70      	pop	{r4, r5, r6, pc}
 80006de:	ea50 0641 	orrs.w	r6, r0, r1, lsl #1
 80006e2:	bf06      	itte	eq
 80006e4:	4610      	moveq	r0, r2
 80006e6:	4619      	moveq	r1, r3
 80006e8:	ea52 0643 	orrsne.w	r6, r2, r3, lsl #1
 80006ec:	d019      	beq.n	8000722 <__aeabi_dmul+0x24a>
 80006ee:	ea94 0f0c 	teq	r4, ip
 80006f2:	d102      	bne.n	80006fa <__aeabi_dmul+0x222>
 80006f4:	ea50 3601 	orrs.w	r6, r0, r1, lsl #12
 80006f8:	d113      	bne.n	8000722 <__aeabi_dmul+0x24a>
 80006fa:	ea95 0f0c 	teq	r5, ip
 80006fe:	d105      	bne.n	800070c <__aeabi_dmul+0x234>
 8000700:	ea52 3603 	orrs.w	r6, r2, r3, lsl #12
 8000704:	bf1c      	itt	ne
 8000706:	4610      	movne	r0, r2
 8000708:	4619      	movne	r1, r3
 800070a:	d10a      	bne.n	8000722 <__aeabi_dmul+0x24a>
 800070c:	ea81 0103 	eor.w	r1, r1, r3
 8000710:	f001 4100 	and.w	r1, r1, #2147483648	; 0x80000000
 8000714:	f041 41fe 	orr.w	r1, r1, #2130706432	; 0x7f000000
 8000718:	f441 0170 	orr.w	r1, r1, #15728640	; 0xf00000
 800071c:	f04f 0000 	mov.w	r0, #0
 8000720:	bd70      	pop	{r4, r5, r6, pc}
 8000722:	f041 41fe 	orr.w	r1, r1, #2130706432	; 0x7f000000
 8000726:	f441 0178 	orr.w	r1, r1, #16252928	; 0xf80000
 800072a:	bd70      	pop	{r4, r5, r6, pc}

0800072c <__aeabi_ddiv>:
 800072c:	b570      	push	{r4, r5, r6, lr}
 800072e:	f04f 0cff 	mov.w	ip, #255	; 0xff
 8000732:	f44c 6ce0 	orr.w	ip, ip, #1792	; 0x700
 8000736:	ea1c 5411 	ands.w	r4, ip, r1, lsr #20
 800073a:	bf1d      	ittte	ne
 800073c:	ea1c 5513 	andsne.w	r5, ip, r3, lsr #20
 8000740:	ea94 0f0c 	teqne	r4, ip
 8000744:	ea95 0f0c 	teqne	r5, ip
 8000748:	f000 f8a7 	bleq	800089a <__aeabi_ddiv+0x16e>
 800074c:	eba4 0405 	sub.w	r4, r4, r5
 8000750:	ea81 0e03 	eor.w	lr, r1, r3
 8000754:	ea52 3503 	orrs.w	r5, r2, r3, lsl #12
 8000758:	ea4f 3101 	mov.w	r1, r1, lsl #12
 800075c:	f000 8088 	beq.w	8000870 <__aeabi_ddiv+0x144>
 8000760:	ea4f 3303 	mov.w	r3, r3, lsl #12
 8000764:	f04f 5580 	mov.w	r5, #268435456	; 0x10000000
 8000768:	ea45 1313 	orr.w	r3, r5, r3, lsr #4
 800076c:	ea43 6312 	orr.w	r3, r3, r2, lsr #24
 8000770:	ea4f 2202 	mov.w	r2, r2, lsl #8
 8000774:	ea45 1511 	orr.w	r5, r5, r1, lsr #4
 8000778:	ea45 6510 	orr.w	r5, r5, r0, lsr #24
 800077c:	ea4f 2600 	mov.w	r6, r0, lsl #8
 8000780:	f00e 4100 	and.w	r1, lr, #2147483648	; 0x80000000
 8000784:	429d      	cmp	r5, r3
 8000786:	bf08      	it	eq
 8000788:	4296      	cmpeq	r6, r2
 800078a:	f144 04fd 	adc.w	r4, r4, #253	; 0xfd
 800078e:	f504 7440 	add.w	r4, r4, #768	; 0x300
 8000792:	d202      	bcs.n	800079a <__aeabi_ddiv+0x6e>
 8000794:	085b      	lsrs	r3, r3, #1
 8000796:	ea4f 0232 	mov.w	r2, r2, rrx
 800079a:	1ab6      	subs	r6, r6, r2
 800079c:	eb65 0503 	sbc.w	r5, r5, r3
 80007a0:	085b      	lsrs	r3, r3, #1
 80007a2:	ea4f 0232 	mov.w	r2, r2, rrx
 80007a6:	f44f 1080 	mov.w	r0, #1048576	; 0x100000
 80007aa:	f44f 2c00 	mov.w	ip, #524288	; 0x80000
 80007ae:	ebb6 0e02 	subs.w	lr, r6, r2
 80007b2:	eb75 0e03 	sbcs.w	lr, r5, r3
 80007b6:	bf22      	ittt	cs
 80007b8:	1ab6      	subcs	r6, r6, r2
 80007ba:	4675      	movcs	r5, lr
 80007bc:	ea40 000c 	orrcs.w	r0, r0, ip
 80007c0:	085b      	lsrs	r3, r3, #1
 80007c2:	ea4f 0232 	mov.w	r2, r2, rrx
 80007c6:	ebb6 0e02 	subs.w	lr, r6, r2
 80007ca:	eb75 0e03 	sbcs.w	lr, r5, r3
 80007ce:	bf22      	ittt	cs
 80007d0:	1ab6      	subcs	r6, r6, r2
 80007d2:	4675      	movcs	r5, lr
 80007d4:	ea40 005c 	orrcs.w	r0, r0, ip, lsr #1
 80007d8:	085b      	lsrs	r3, r3, #1
 80007da:	ea4f 0232 	mov.w	r2, r2, rrx
 80007de:	ebb6 0e02 	subs.w	lr, r6, r2
 80007e2:	eb75 0e03 	sbcs.w	lr, r5, r3
 80007e6:	bf22      	ittt	cs
 80007e8:	1ab6      	subcs	r6, r6, r2
 80007ea:	4675      	movcs	r5, lr
 80007ec:	ea40 009c 	orrcs.w	r0, r0, ip, lsr #2
 80007f0:	085b      	lsrs	r3, r3, #1
 80007f2:	ea4f 0232 	mov.w	r2, r2, rrx
 80007f6:	ebb6 0e02 	subs.w	lr, r6, r2
 80007fa:	eb75 0e03 	sbcs.w	lr, r5, r3
 80007fe:	bf22      	ittt	cs
 8000800:	1ab6      	subcs	r6, r6, r2
 8000802:	4675      	movcs	r5, lr
 8000804:	ea40 00dc 	orrcs.w	r0, r0, ip, lsr #3
 8000808:	ea55 0e06 	orrs.w	lr, r5, r6
 800080c:	d018      	beq.n	8000840 <__aeabi_ddiv+0x114>
 800080e:	ea4f 1505 	mov.w	r5, r5, lsl #4
 8000812:	ea45 7516 	orr.w	r5, r5, r6, lsr #28
 8000816:	ea4f 1606 	mov.w	r6, r6, lsl #4
 800081a:	ea4f 03c3 	mov.w	r3, r3, lsl #3
 800081e:	ea43 7352 	orr.w	r3, r3, r2, lsr #29
 8000822:	ea4f 02c2 	mov.w	r2, r2, lsl #3
 8000826:	ea5f 1c1c 	movs.w	ip, ip, lsr #4
 800082a:	d1c0      	bne.n	80007ae <__aeabi_ddiv+0x82>
 800082c:	f411 1f80 	tst.w	r1, #1048576	; 0x100000
 8000830:	d10b      	bne.n	800084a <__aeabi_ddiv+0x11e>
 8000832:	ea41 0100 	orr.w	r1, r1, r0
 8000836:	f04f 0000 	mov.w	r0, #0
 800083a:	f04f 4c00 	mov.w	ip, #2147483648	; 0x80000000
 800083e:	e7b6      	b.n	80007ae <__aeabi_ddiv+0x82>
 8000840:	f411 1f80 	tst.w	r1, #1048576	; 0x100000
 8000844:	bf04      	itt	eq
 8000846:	4301      	orreq	r1, r0
 8000848:	2000      	moveq	r0, #0
 800084a:	f1b4 0cfd 	subs.w	ip, r4, #253	; 0xfd
 800084e:	bf88      	it	hi
 8000850:	f5bc 6fe0 	cmphi.w	ip, #1792	; 0x700
 8000854:	f63f aeaf 	bhi.w	80005b6 <__aeabi_dmul+0xde>
 8000858:	ebb5 0c03 	subs.w	ip, r5, r3
 800085c:	bf04      	itt	eq
 800085e:	ebb6 0c02 	subseq.w	ip, r6, r2
 8000862:	ea5f 0c50 	movseq.w	ip, r0, lsr #1
 8000866:	f150 0000 	adcs.w	r0, r0, #0
 800086a:	eb41 5104 	adc.w	r1, r1, r4, lsl #20
 800086e:	bd70      	pop	{r4, r5, r6, pc}
 8000870:	f00e 4e00 	and.w	lr, lr, #2147483648	; 0x80000000
 8000874:	ea4e 3111 	orr.w	r1, lr, r1, lsr #12
 8000878:	eb14 045c 	adds.w	r4, r4, ip, lsr #1
 800087c:	bfc2      	ittt	gt
 800087e:	ebd4 050c 	rsbsgt	r5, r4, ip
 8000882:	ea41 5104 	orrgt.w	r1, r1, r4, lsl #20
 8000886:	bd70      	popgt	{r4, r5, r6, pc}
 8000888:	f441 1180 	orr.w	r1, r1, #1048576	; 0x100000
 800088c:	f04f 0e00 	mov.w	lr, #0
 8000890:	3c01      	subs	r4, #1
 8000892:	e690      	b.n	80005b6 <__aeabi_dmul+0xde>
 8000894:	ea45 0e06 	orr.w	lr, r5, r6
 8000898:	e68d      	b.n	80005b6 <__aeabi_dmul+0xde>
 800089a:	ea0c 5513 	and.w	r5, ip, r3, lsr #20
 800089e:	ea94 0f0c 	teq	r4, ip
 80008a2:	bf08      	it	eq
 80008a4:	ea95 0f0c 	teqeq	r5, ip
 80008a8:	f43f af3b 	beq.w	8000722 <__aeabi_dmul+0x24a>
 80008ac:	ea94 0f0c 	teq	r4, ip
 80008b0:	d10a      	bne.n	80008c8 <__aeabi_ddiv+0x19c>
 80008b2:	ea50 3401 	orrs.w	r4, r0, r1, lsl #12
 80008b6:	f47f af34 	bne.w	8000722 <__aeabi_dmul+0x24a>
 80008ba:	ea95 0f0c 	teq	r5, ip
 80008be:	f47f af25 	bne.w	800070c <__aeabi_dmul+0x234>
 80008c2:	4610      	mov	r0, r2
 80008c4:	4619      	mov	r1, r3
 80008c6:	e72c      	b.n	8000722 <__aeabi_dmul+0x24a>
 80008c8:	ea95 0f0c 	teq	r5, ip
 80008cc:	d106      	bne.n	80008dc <__aeabi_ddiv+0x1b0>
 80008ce:	ea52 3503 	orrs.w	r5, r2, r3, lsl #12
 80008d2:	f43f aefd 	beq.w	80006d0 <__aeabi_dmul+0x1f8>
 80008d6:	4610      	mov	r0, r2
 80008d8:	4619      	mov	r1, r3
 80008da:	e722      	b.n	8000722 <__aeabi_dmul+0x24a>
 80008dc:	ea50 0641 	orrs.w	r6, r0, r1, lsl #1
 80008e0:	bf18      	it	ne
 80008e2:	ea52 0643 	orrsne.w	r6, r2, r3, lsl #1
 80008e6:	f47f aec5 	bne.w	8000674 <__aeabi_dmul+0x19c>
 80008ea:	ea50 0441 	orrs.w	r4, r0, r1, lsl #1
 80008ee:	f47f af0d 	bne.w	800070c <__aeabi_dmul+0x234>
 80008f2:	ea52 0543 	orrs.w	r5, r2, r3, lsl #1
 80008f6:	f47f aeeb 	bne.w	80006d0 <__aeabi_dmul+0x1f8>
 80008fa:	e712      	b.n	8000722 <__aeabi_dmul+0x24a>

080008fc <__gedf2>:
 80008fc:	f04f 3cff 	mov.w	ip, #4294967295	; 0xffffffff
 8000900:	e006      	b.n	8000910 <__cmpdf2+0x4>
 8000902:	bf00      	nop

08000904 <__ledf2>:
 8000904:	f04f 0c01 	mov.w	ip, #1
 8000908:	e002      	b.n	8000910 <__cmpdf2+0x4>
 800090a:	bf00      	nop

0800090c <__cmpdf2>:
 800090c:	f04f 0c01 	mov.w	ip, #1
 8000910:	f84d cd04 	str.w	ip, [sp, #-4]!
 8000914:	ea4f 0c41 	mov.w	ip, r1, lsl #1
 8000918:	ea7f 5c6c 	mvns.w	ip, ip, asr #21
 800091c:	ea4f 0c43 	mov.w	ip, r3, lsl #1
 8000920:	bf18      	it	ne
 8000922:	ea7f 5c6c 	mvnsne.w	ip, ip, asr #21
 8000926:	d01b      	beq.n	8000960 <__cmpdf2+0x54>
 8000928:	b001      	add	sp, #4
 800092a:	ea50 0c41 	orrs.w	ip, r0, r1, lsl #1
 800092e:	bf0c      	ite	eq
 8000930:	ea52 0c43 	orrseq.w	ip, r2, r3, lsl #1
 8000934:	ea91 0f03 	teqne	r1, r3
 8000938:	bf02      	ittt	eq
 800093a:	ea90 0f02 	teqeq	r0, r2
 800093e:	2000      	moveq	r0, #0
 8000940:	4770      	bxeq	lr
 8000942:	f110 0f00 	cmn.w	r0, #0
 8000946:	ea91 0f03 	teq	r1, r3
 800094a:	bf58      	it	pl
 800094c:	4299      	cmppl	r1, r3
 800094e:	bf08      	it	eq
 8000950:	4290      	cmpeq	r0, r2
 8000952:	bf2c      	ite	cs
 8000954:	17d8      	asrcs	r0, r3, #31
 8000956:	ea6f 70e3 	mvncc.w	r0, r3, asr #31
 800095a:	f040 0001 	orr.w	r0, r0, #1
 800095e:	4770      	bx	lr
 8000960:	ea4f 0c41 	mov.w	ip, r1, lsl #1
 8000964:	ea7f 5c6c 	mvns.w	ip, ip, asr #21
 8000968:	d102      	bne.n	8000970 <__cmpdf2+0x64>
 800096a:	ea50 3c01 	orrs.w	ip, r0, r1, lsl #12
 800096e:	d107      	bne.n	8000980 <__cmpdf2+0x74>
 8000970:	ea4f 0c43 	mov.w	ip, r3, lsl #1
 8000974:	ea7f 5c6c 	mvns.w	ip, ip, asr #21
 8000978:	d1d6      	bne.n	8000928 <__cmpdf2+0x1c>
 800097a:	ea52 3c03 	orrs.w	ip, r2, r3, lsl #12
 800097e:	d0d3      	beq.n	8000928 <__cmpdf2+0x1c>
 8000980:	f85d 0b04 	ldr.w	r0, [sp], #4
 8000984:	4770      	bx	lr
 8000986:	bf00      	nop

08000988 <__aeabi_cdrcmple>:
 8000988:	4684      	mov	ip, r0
 800098a:	4610      	mov	r0, r2
 800098c:	4662      	mov	r2, ip
 800098e:	468c      	mov	ip, r1
 8000990:	4619      	mov	r1, r3
 8000992:	4663      	mov	r3, ip
 8000994:	e000      	b.n	8000998 <__aeabi_cdcmpeq>
 8000996:	bf00      	nop

08000998 <__aeabi_cdcmpeq>:
 8000998:	b501      	push	{r0, lr}
 800099a:	f7ff ffb7 	bl	800090c <__cmpdf2>
 800099e:	2800      	cmp	r0, #0
 80009a0:	bf48      	it	mi
 80009a2:	f110 0f00 	cmnmi.w	r0, #0
 80009a6:	bd01      	pop	{r0, pc}

080009a8 <__aeabi_dcmpeq>:
 80009a8:	f84d ed08 	str.w	lr, [sp, #-8]!
 80009ac:	f7ff fff4 	bl	8000998 <__aeabi_cdcmpeq>
 80009b0:	bf0c      	ite	eq
 80009b2:	2001      	moveq	r0, #1
 80009b4:	2000      	movne	r0, #0
 80009b6:	f85d fb08 	ldr.w	pc, [sp], #8
 80009ba:	bf00      	nop

080009bc <__aeabi_dcmplt>:
 80009bc:	f84d ed08 	str.w	lr, [sp, #-8]!
 80009c0:	f7ff ffea 	bl	8000998 <__aeabi_cdcmpeq>
 80009c4:	bf34      	ite	cc
 80009c6:	2001      	movcc	r0, #1
 80009c8:	2000      	movcs	r0, #0
 80009ca:	f85d fb08 	ldr.w	pc, [sp], #8
 80009ce:	bf00      	nop

080009d0 <__aeabi_dcmple>:
 80009d0:	f84d ed08 	str.w	lr, [sp, #-8]!
 80009d4:	f7ff ffe0 	bl	8000998 <__aeabi_cdcmpeq>
 80009d8:	bf94      	ite	ls
 80009da:	2001      	movls	r0, #1
 80009dc:	2000      	movhi	r0, #0
 80009de:	f85d fb08 	ldr.w	pc, [sp], #8
 80009e2:	bf00      	nop

080009e4 <__aeabi_dcmpge>:
 80009e4:	f84d ed08 	str.w	lr, [sp, #-8]!
 80009e8:	f7ff ffce 	bl	8000988 <__aeabi_cdrcmple>
 80009ec:	bf94      	ite	ls
 80009ee:	2001      	movls	r0, #1
 80009f0:	2000      	movhi	r0, #0
 80009f2:	f85d fb08 	ldr.w	pc, [sp], #8
 80009f6:	bf00      	nop

080009f8 <__aeabi_dcmpgt>:
 80009f8:	f84d ed08 	str.w	lr, [sp, #-8]!
 80009fc:	f7ff ffc4 	bl	8000988 <__aeabi_cdrcmple>
 8000a00:	bf34      	ite	cc
 8000a02:	2001      	movcc	r0, #1
 8000a04:	2000      	movcs	r0, #0
 8000a06:	f85d fb08 	ldr.w	pc, [sp], #8
 8000a0a:	bf00      	nop

08000a0c <__aeabi_dcmpun>:
 8000a0c:	ea4f 0c41 	mov.w	ip, r1, lsl #1
 8000a10:	ea7f 5c6c 	mvns.w	ip, ip, asr #21
 8000a14:	d102      	bne.n	8000a1c <__aeabi_dcmpun+0x10>
 8000a16:	ea50 3c01 	orrs.w	ip, r0, r1, lsl #12
 8000a1a:	d10a      	bne.n	8000a32 <__aeabi_dcmpun+0x26>
 8000a1c:	ea4f 0c43 	mov.w	ip, r3, lsl #1
 8000a20:	ea7f 5c6c 	mvns.w	ip, ip, asr #21
 8000a24:	d102      	bne.n	8000a2c <__aeabi_dcmpun+0x20>
 8000a26:	ea52 3c03 	orrs.w	ip, r2, r3, lsl #12
 8000a2a:	d102      	bne.n	8000a32 <__aeabi_dcmpun+0x26>
 8000a2c:	f04f 0000 	mov.w	r0, #0
 8000a30:	4770      	bx	lr
 8000a32:	f04f 0001 	mov.w	r0, #1
 8000a36:	4770      	bx	lr

08000a38 <__aeabi_d2iz>:
 8000a38:	ea4f 0241 	mov.w	r2, r1, lsl #1
 8000a3c:	f512 1200 	adds.w	r2, r2, #2097152	; 0x200000
 8000a40:	d215      	bcs.n	8000a6e <__aeabi_d2iz+0x36>
 8000a42:	d511      	bpl.n	8000a68 <__aeabi_d2iz+0x30>
 8000a44:	f46f 7378 	mvn.w	r3, #992	; 0x3e0
 8000a48:	ebb3 5262 	subs.w	r2, r3, r2, asr #21
 8000a4c:	d912      	bls.n	8000a74 <__aeabi_d2iz+0x3c>
 8000a4e:	ea4f 23c1 	mov.w	r3, r1, lsl #11
 8000a52:	f043 4300 	orr.w	r3, r3, #2147483648	; 0x80000000
 8000a56:	ea43 5350 	orr.w	r3, r3, r0, lsr #21
 8000a5a:	f011 4f00 	tst.w	r1, #2147483648	; 0x80000000
 8000a5e:	fa23 f002 	lsr.w	r0, r3, r2
 8000a62:	bf18      	it	ne
 8000a64:	4240      	negne	r0, r0
 8000a66:	4770      	bx	lr
 8000a68:	f04f 0000 	mov.w	r0, #0
 8000a6c:	4770      	bx	lr
 8000a6e:	ea50 3001 	orrs.w	r0, r0, r1, lsl #12
 8000a72:	d105      	bne.n	8000a80 <__aeabi_d2iz+0x48>
 8000a74:	f011 4000 	ands.w	r0, r1, #2147483648	; 0x80000000
 8000a78:	bf08      	it	eq
 8000a7a:	f06f 4000 	mvneq.w	r0, #2147483648	; 0x80000000
 8000a7e:	4770      	bx	lr
 8000a80:	f04f 0000 	mov.w	r0, #0
 8000a84:	4770      	bx	lr
 8000a86:	bf00      	nop

08000a88 <__clear_cache>:
 8000a88:	4770      	bx	lr
 8000a8a:	bf00      	nop

08000a8c <default_ip_assign>:
 8000a8c:	b508      	push	{r3, lr}
 8000a8e:	2204      	movs	r2, #4
 8000a90:	f44f 6070 	mov.w	r0, #3840	; 0xf00
 8000a94:	4908      	ldr	r1, [pc, #32]	; (8000ab8 <default_ip_assign+0x2c>)
 8000a96:	f002 f9a1 	bl	8002ddc <WIZCHIP_WRITE_BUF>
 8000a9a:	2204      	movs	r2, #4
 8000a9c:	f44f 60a0 	mov.w	r0, #1280	; 0x500
 8000aa0:	4906      	ldr	r1, [pc, #24]	; (8000abc <default_ip_assign+0x30>)
 8000aa2:	f002 f99b 	bl	8002ddc <WIZCHIP_WRITE_BUF>
 8000aa6:	e8bd 4008 	ldmia.w	sp!, {r3, lr}
 8000aaa:	2204      	movs	r2, #4
 8000aac:	f44f 7080 	mov.w	r0, #256	; 0x100
 8000ab0:	4903      	ldr	r1, [pc, #12]	; (8000ac0 <default_ip_assign+0x34>)
 8000ab2:	f002 b993 	b.w	8002ddc <WIZCHIP_WRITE_BUF>
 8000ab6:	bf00      	nop
 8000ab8:	20000254 	.word	0x20000254
 8000abc:	20000258 	.word	0x20000258
 8000ac0:	20000250 	.word	0x20000250

08000ac4 <default_ip_update>:
 8000ac4:	b508      	push	{r3, lr}
 8000ac6:	2180      	movs	r1, #128	; 0x80
 8000ac8:	2000      	movs	r0, #0
 8000aca:	f002 f91b 	bl	8002d04 <WIZCHIP_WRITE>
 8000ace:	2000      	movs	r0, #0
 8000ad0:	f002 f8ea 	bl	8002ca8 <WIZCHIP_READ>
 8000ad4:	f7ff ffda 	bl	8000a8c <default_ip_assign>
 8000ad8:	e8bd 4008 	ldmia.w	sp!, {r3, lr}
 8000adc:	2206      	movs	r2, #6
 8000ade:	f44f 6010 	mov.w	r0, #2304	; 0x900
 8000ae2:	4901      	ldr	r1, [pc, #4]	; (8000ae8 <default_ip_update+0x24>)
 8000ae4:	f002 b97a 	b.w	8002ddc <WIZCHIP_WRITE_BUF>
 8000ae8:	20000300 	.word	0x20000300

08000aec <default_ip_conflict>:
 8000aec:	b508      	push	{r3, lr}
 8000aee:	2180      	movs	r1, #128	; 0x80
 8000af0:	2000      	movs	r0, #0
 8000af2:	f002 f907 	bl	8002d04 <WIZCHIP_WRITE>
 8000af6:	2000      	movs	r0, #0
 8000af8:	f002 f8d6 	bl	8002ca8 <WIZCHIP_READ>
 8000afc:	e8bd 4008 	ldmia.w	sp!, {r3, lr}
 8000b00:	2206      	movs	r2, #6
 8000b02:	f44f 6010 	mov.w	r0, #2304	; 0x900
 8000b06:	4901      	ldr	r1, [pc, #4]	; (8000b0c <default_ip_conflict+0x20>)
 8000b08:	f002 b968 	b.w	8002ddc <WIZCHIP_WRITE_BUF>
 8000b0c:	20000300 	.word	0x20000300

08000b10 <reg_dhcp_cbfunc>:
 8000b10:	b570      	push	{r4, r5, r6, lr}
 8000b12:	4b09      	ldr	r3, [pc, #36]	; (8000b38 <reg_dhcp_cbfunc+0x28>)
 8000b14:	4e09      	ldr	r6, [pc, #36]	; (8000b3c <reg_dhcp_cbfunc+0x2c>)
 8000b16:	4c0a      	ldr	r4, [pc, #40]	; (8000b40 <reg_dhcp_cbfunc+0x30>)
 8000b18:	601e      	str	r6, [r3, #0]
 8000b1a:	4e0a      	ldr	r6, [pc, #40]	; (8000b44 <reg_dhcp_cbfunc+0x34>)
 8000b1c:	4d0a      	ldr	r5, [pc, #40]	; (8000b48 <reg_dhcp_cbfunc+0x38>)
 8000b1e:	2800      	cmp	r0, #0
 8000b20:	bf08      	it	eq
 8000b22:	4630      	moveq	r0, r6
 8000b24:	2900      	cmp	r1, #0
 8000b26:	bf18      	it	ne
 8000b28:	460c      	movne	r4, r1
 8000b2a:	4e08      	ldr	r6, [pc, #32]	; (8000b4c <reg_dhcp_cbfunc+0x3c>)
 8000b2c:	602c      	str	r4, [r5, #0]
 8000b2e:	6030      	str	r0, [r6, #0]
 8000b30:	b102      	cbz	r2, 8000b34 <reg_dhcp_cbfunc+0x24>
 8000b32:	601a      	str	r2, [r3, #0]
 8000b34:	bd70      	pop	{r4, r5, r6, pc}
 8000b36:	bf00      	nop
 8000b38:	2000000c 	.word	0x2000000c
 8000b3c:	08000aed 	.word	0x08000aed
 8000b40:	08000ac5 	.word	0x08000ac5
 8000b44:	08000a8d 	.word	0x08000a8d
 8000b48:	20000010 	.word	0x20000010
 8000b4c:	20000008 	.word	0x20000008

08000b50 <makeDHCPMSG>:
 8000b50:	b507      	push	{r0, r1, r2, lr}
 8000b52:	2206      	movs	r2, #6
 8000b54:	4669      	mov	r1, sp
 8000b56:	f44f 6010 	mov.w	r0, #2304	; 0x900
 8000b5a:	f002 f905 	bl	8002d68 <WIZCHIP_READ_BUF>
 8000b5e:	4b20      	ldr	r3, [pc, #128]	; (8000be0 <makeDHCPMSG+0x90>)
 8000b60:	4a20      	ldr	r2, [pc, #128]	; (8000be4 <makeDHCPMSG+0x94>)
 8000b62:	681b      	ldr	r3, [r3, #0]
 8000b64:	601a      	str	r2, [r3, #0]
 8000b66:	4a20      	ldr	r2, [pc, #128]	; (8000be8 <makeDHCPMSG+0x98>)
 8000b68:	6812      	ldr	r2, [r2, #0]
 8000b6a:	0e11      	lsrs	r1, r2, #24
 8000b6c:	7119      	strb	r1, [r3, #4]
 8000b6e:	0c11      	lsrs	r1, r2, #16
 8000b70:	7159      	strb	r1, [r3, #5]
 8000b72:	0a11      	lsrs	r1, r2, #8
 8000b74:	7199      	strb	r1, [r3, #6]
 8000b76:	71da      	strb	r2, [r3, #7]
 8000b78:	2100      	movs	r1, #0
 8000b7a:	f44f 0200 	mov.w	r2, #8388608	; 0x800000
 8000b7e:	e9c3 2102 	strd	r2, r1, [r3, #8]
 8000b82:	4a1a      	ldr	r2, [pc, #104]	; (8000bec <makeDHCPMSG+0x9c>)
 8000b84:	e9c3 1104 	strd	r1, r1, [r3, #16]
 8000b88:	7810      	ldrb	r0, [r2, #0]
 8000b8a:	6199      	str	r1, [r3, #24]
 8000b8c:	7718      	strb	r0, [r3, #28]
 8000b8e:	7850      	ldrb	r0, [r2, #1]
 8000b90:	7758      	strb	r0, [r3, #29]
 8000b92:	7890      	ldrb	r0, [r2, #2]
 8000b94:	7798      	strb	r0, [r3, #30]
 8000b96:	78d0      	ldrb	r0, [r2, #3]
 8000b98:	77d8      	strb	r0, [r3, #31]
 8000b9a:	7910      	ldrb	r0, [r2, #4]
 8000b9c:	7952      	ldrb	r2, [r2, #5]
 8000b9e:	f883 0020 	strb.w	r0, [r3, #32]
 8000ba2:	f883 2021 	strb.w	r2, [r3, #33]	; 0x21
 8000ba6:	f103 002c 	add.w	r0, r3, #44	; 0x2c
 8000baa:	f103 0222 	add.w	r2, r3, #34	; 0x22
 8000bae:	f802 1b01 	strb.w	r1, [r2], #1
 8000bb2:	4282      	cmp	r2, r0
 8000bb4:	d1fb      	bne.n	8000bae <makeDHCPMSG+0x5e>
 8000bb6:	2000      	movs	r0, #0
 8000bb8:	f103 016c 	add.w	r1, r3, #108	; 0x6c
 8000bbc:	f802 0b01 	strb.w	r0, [r2], #1
 8000bc0:	428a      	cmp	r2, r1
 8000bc2:	d1fb      	bne.n	8000bbc <makeDHCPMSG+0x6c>
 8000bc4:	2000      	movs	r0, #0
 8000bc6:	f103 01ec 	add.w	r1, r3, #236	; 0xec
 8000bca:	f802 0b01 	strb.w	r0, [r2], #1
 8000bce:	4291      	cmp	r1, r2
 8000bd0:	d1fb      	bne.n	8000bca <makeDHCPMSG+0x7a>
 8000bd2:	4a07      	ldr	r2, [pc, #28]	; (8000bf0 <makeDHCPMSG+0xa0>)
 8000bd4:	f8c3 20ec 	str.w	r2, [r3, #236]	; 0xec
 8000bd8:	b003      	add	sp, #12
 8000bda:	f85d fb04 	ldr.w	pc, [sp], #4
 8000bde:	bf00      	nop
 8000be0:	20000314 	.word	0x20000314
 8000be4:	00060101 	.word	0x00060101
 8000be8:	20000308 	.word	0x20000308
 8000bec:	20000300 	.word	0x20000300
 8000bf0:	63538263 	.word	0x63538263

08000bf4 <send_DHCP_DECLINE>:
 8000bf4:	b51f      	push	{r0, r1, r2, r3, r4, lr}
 8000bf6:	f7ff ffab 	bl	8000b50 <makeDHCPMSG>
 8000bfa:	4b2d      	ldr	r3, [pc, #180]	; (8000cb0 <send_DHCP_DECLINE+0xbc>)
 8000bfc:	2200      	movs	r2, #0
 8000bfe:	6819      	ldr	r1, [r3, #0]
 8000c00:	4b2c      	ldr	r3, [pc, #176]	; (8000cb4 <send_DHCP_DECLINE+0xc0>)
 8000c02:	728a      	strb	r2, [r1, #10]
 8000c04:	f8c1 30f0 	str.w	r3, [r1, #240]	; 0xf0
 8000c08:	f240 1307 	movw	r3, #263	; 0x107
 8000c0c:	f8a1 30f4 	strh.w	r3, [r1, #244]	; 0xf4
 8000c10:	4b29      	ldr	r3, [pc, #164]	; (8000cb8 <send_DHCP_DECLINE+0xc4>)
 8000c12:	72ca      	strb	r2, [r1, #11]
 8000c14:	7818      	ldrb	r0, [r3, #0]
 8000c16:	f881 00f6 	strb.w	r0, [r1, #246]	; 0xf6
 8000c1a:	7858      	ldrb	r0, [r3, #1]
 8000c1c:	f881 00f7 	strb.w	r0, [r1, #247]	; 0xf7
 8000c20:	7898      	ldrb	r0, [r3, #2]
 8000c22:	f881 00f8 	strb.w	r0, [r1, #248]	; 0xf8
 8000c26:	78d8      	ldrb	r0, [r3, #3]
 8000c28:	f881 00f9 	strb.w	r0, [r1, #249]	; 0xf9
 8000c2c:	7918      	ldrb	r0, [r3, #4]
 8000c2e:	795b      	ldrb	r3, [r3, #5]
 8000c30:	f881 00fa 	strb.w	r0, [r1, #250]	; 0xfa
 8000c34:	f881 30fb 	strb.w	r3, [r1, #251]	; 0xfb
 8000c38:	f240 4332 	movw	r3, #1074	; 0x432
 8000c3c:	f8a1 30fc 	strh.w	r3, [r1, #252]	; 0xfc
 8000c40:	4b1e      	ldr	r3, [pc, #120]	; (8000cbc <send_DHCP_DECLINE+0xc8>)
 8000c42:	7818      	ldrb	r0, [r3, #0]
 8000c44:	f881 00fe 	strb.w	r0, [r1, #254]	; 0xfe
 8000c48:	7858      	ldrb	r0, [r3, #1]
 8000c4a:	f881 00ff 	strb.w	r0, [r1, #255]	; 0xff
 8000c4e:	7898      	ldrb	r0, [r3, #2]
 8000c50:	78db      	ldrb	r3, [r3, #3]
 8000c52:	f881 0100 	strb.w	r0, [r1, #256]	; 0x100
 8000c56:	f881 3101 	strb.w	r3, [r1, #257]	; 0x101
 8000c5a:	f240 4336 	movw	r3, #1078	; 0x436
 8000c5e:	f8a1 3102 	strh.w	r3, [r1, #258]	; 0x102
 8000c62:	4b17      	ldr	r3, [pc, #92]	; (8000cc0 <send_DHCP_DECLINE+0xcc>)
 8000c64:	7818      	ldrb	r0, [r3, #0]
 8000c66:	f881 0104 	strb.w	r0, [r1, #260]	; 0x104
 8000c6a:	7858      	ldrb	r0, [r3, #1]
 8000c6c:	f881 0105 	strb.w	r0, [r1, #261]	; 0x105
 8000c70:	7898      	ldrb	r0, [r3, #2]
 8000c72:	f881 0106 	strb.w	r0, [r1, #262]	; 0x106
 8000c76:	78db      	ldrb	r3, [r3, #3]
 8000c78:	f501 7009 	add.w	r0, r1, #548	; 0x224
 8000c7c:	f881 3107 	strb.w	r3, [r1, #263]	; 0x107
 8000c80:	23ff      	movs	r3, #255	; 0xff
 8000c82:	f881 3108 	strb.w	r3, [r1, #264]	; 0x108
 8000c86:	f201 1309 	addw	r3, r1, #265	; 0x109
 8000c8a:	f803 2b01 	strb.w	r2, [r3], #1
 8000c8e:	4283      	cmp	r3, r0
 8000c90:	d1fb      	bne.n	8000c8a <send_DHCP_DECLINE+0x96>
 8000c92:	f04f 33ff 	mov.w	r3, #4294967295	; 0xffffffff
 8000c96:	9303      	str	r3, [sp, #12]
 8000c98:	2343      	movs	r3, #67	; 0x43
 8000c9a:	480a      	ldr	r0, [pc, #40]	; (8000cc4 <send_DHCP_DECLINE+0xd0>)
 8000c9c:	9300      	str	r3, [sp, #0]
 8000c9e:	f44f 7209 	mov.w	r2, #548	; 0x224
 8000ca2:	ab03      	add	r3, sp, #12
 8000ca4:	7800      	ldrb	r0, [r0, #0]
 8000ca6:	f001 fad9 	bl	800225c <sendto>
 8000caa:	b005      	add	sp, #20
 8000cac:	f85d fb04 	ldr.w	pc, [sp], #4
 8000cb0:	20000314 	.word	0x20000314
 8000cb4:	3d040135 	.word	0x3d040135
 8000cb8:	20000300 	.word	0x20000300
 8000cbc:	20000254 	.word	0x20000254
 8000cc0:	20000310 	.word	0x20000310
 8000cc4:	20000318 	.word	0x20000318

08000cc8 <parseDHCPMSG>:
 8000cc8:	e92d 4ff0 	stmdb	sp!, {r4, r5, r6, r7, r8, r9, sl, fp, lr}
 8000ccc:	4d84      	ldr	r5, [pc, #528]	; (8000ee0 <parseDHCPMSG+0x218>)
 8000cce:	b089      	sub	sp, #36	; 0x24
 8000cd0:	7828      	ldrb	r0, [r5, #0]
 8000cd2:	f002 f8de 	bl	8002e92 <getSn_RX_RSR>
 8000cd6:	4602      	mov	r2, r0
 8000cd8:	b918      	cbnz	r0, 8000ce2 <parseDHCPMSG+0x1a>
 8000cda:	2000      	movs	r0, #0
 8000cdc:	b009      	add	sp, #36	; 0x24
 8000cde:	e8bd 8ff0 	ldmia.w	sp!, {r4, r5, r6, r7, r8, r9, sl, fp, pc}
 8000ce2:	f10d 0316 	add.w	r3, sp, #22
 8000ce6:	4c7f      	ldr	r4, [pc, #508]	; (8000ee4 <parseDHCPMSG+0x21c>)
 8000ce8:	9300      	str	r3, [sp, #0]
 8000cea:	6821      	ldr	r1, [r4, #0]
 8000cec:	ab06      	add	r3, sp, #24
 8000cee:	7828      	ldrb	r0, [r5, #0]
 8000cf0:	f001 fb64 	bl	80023bc <recvfrom>
 8000cf4:	f8bd 3016 	ldrh.w	r3, [sp, #22]
 8000cf8:	2b43      	cmp	r3, #67	; 0x43
 8000cfa:	f040 80ee 	bne.w	8000eda <parseDHCPMSG+0x212>
 8000cfe:	6822      	ldr	r2, [r4, #0]
 8000d00:	4b79      	ldr	r3, [pc, #484]	; (8000ee8 <parseDHCPMSG+0x220>)
 8000d02:	7f14      	ldrb	r4, [r2, #28]
 8000d04:	7819      	ldrb	r1, [r3, #0]
 8000d06:	428c      	cmp	r4, r1
 8000d08:	d1e7      	bne.n	8000cda <parseDHCPMSG+0x12>
 8000d0a:	7f54      	ldrb	r4, [r2, #29]
 8000d0c:	7859      	ldrb	r1, [r3, #1]
 8000d0e:	428c      	cmp	r4, r1
 8000d10:	d1e3      	bne.n	8000cda <parseDHCPMSG+0x12>
 8000d12:	7f94      	ldrb	r4, [r2, #30]
 8000d14:	7899      	ldrb	r1, [r3, #2]
 8000d16:	428c      	cmp	r4, r1
 8000d18:	d1df      	bne.n	8000cda <parseDHCPMSG+0x12>
 8000d1a:	7fd4      	ldrb	r4, [r2, #31]
 8000d1c:	78d9      	ldrb	r1, [r3, #3]
 8000d1e:	428c      	cmp	r4, r1
 8000d20:	d1db      	bne.n	8000cda <parseDHCPMSG+0x12>
 8000d22:	f892 4020 	ldrb.w	r4, [r2, #32]
 8000d26:	7919      	ldrb	r1, [r3, #4]
 8000d28:	428c      	cmp	r4, r1
 8000d2a:	d1d6      	bne.n	8000cda <parseDHCPMSG+0x12>
 8000d2c:	f892 1021 	ldrb.w	r1, [r2, #33]	; 0x21
 8000d30:	795b      	ldrb	r3, [r3, #5]
 8000d32:	4299      	cmp	r1, r3
 8000d34:	d1d1      	bne.n	8000cda <parseDHCPMSG+0x12>
 8000d36:	496d      	ldr	r1, [pc, #436]	; (8000eec <parseDHCPMSG+0x224>)
 8000d38:	f89d c018 	ldrb.w	ip, [sp, #24]
 8000d3c:	780f      	ldrb	r7, [r1, #0]
 8000d3e:	784e      	ldrb	r6, [r1, #1]
 8000d40:	788d      	ldrb	r5, [r1, #2]
 8000d42:	78cc      	ldrb	r4, [r1, #3]
 8000d44:	ea47 0306 	orr.w	r3, r7, r6
 8000d48:	432b      	orrs	r3, r5
 8000d4a:	4323      	orrs	r3, r4
 8000d4c:	d020      	beq.n	8000d90 <parseDHCPMSG+0xc8>
 8000d4e:	4567      	cmp	r7, ip
 8000d50:	d10b      	bne.n	8000d6a <parseDHCPMSG+0xa2>
 8000d52:	f89d 3019 	ldrb.w	r3, [sp, #25]
 8000d56:	42b3      	cmp	r3, r6
 8000d58:	d107      	bne.n	8000d6a <parseDHCPMSG+0xa2>
 8000d5a:	f89d 301a 	ldrb.w	r3, [sp, #26]
 8000d5e:	42ab      	cmp	r3, r5
 8000d60:	d103      	bne.n	8000d6a <parseDHCPMSG+0xa2>
 8000d62:	f89d 301b 	ldrb.w	r3, [sp, #27]
 8000d66:	42a3      	cmp	r3, r4
 8000d68:	d012      	beq.n	8000d90 <parseDHCPMSG+0xc8>
 8000d6a:	4b61      	ldr	r3, [pc, #388]	; (8000ef0 <parseDHCPMSG+0x228>)
 8000d6c:	781c      	ldrb	r4, [r3, #0]
 8000d6e:	4564      	cmp	r4, ip
 8000d70:	d1b3      	bne.n	8000cda <parseDHCPMSG+0x12>
 8000d72:	f89d 5019 	ldrb.w	r5, [sp, #25]
 8000d76:	785c      	ldrb	r4, [r3, #1]
 8000d78:	42a5      	cmp	r5, r4
 8000d7a:	d1ae      	bne.n	8000cda <parseDHCPMSG+0x12>
 8000d7c:	f89d 501a 	ldrb.w	r5, [sp, #26]
 8000d80:	789c      	ldrb	r4, [r3, #2]
 8000d82:	42a5      	cmp	r5, r4
 8000d84:	d1a9      	bne.n	8000cda <parseDHCPMSG+0x12>
 8000d86:	f89d 401b 	ldrb.w	r4, [sp, #27]
 8000d8a:	78db      	ldrb	r3, [r3, #3]
 8000d8c:	429c      	cmp	r4, r3
 8000d8e:	d1a4      	bne.n	8000cda <parseDHCPMSG+0x12>
 8000d90:	b280      	uxth	r0, r0
 8000d92:	f102 03f0 	add.w	r3, r2, #240	; 0xf0
 8000d96:	4402      	add	r2, r0
 8000d98:	f89d 0019 	ldrb.w	r0, [sp, #25]
 8000d9c:	f89d a01a 	ldrb.w	sl, [sp, #26]
 8000da0:	9003      	str	r0, [sp, #12]
 8000da2:	2000      	movs	r0, #0
 8000da4:	f89d b01b 	ldrb.w	fp, [sp, #27]
 8000da8:	f8df 9154 	ldr.w	r9, [pc, #340]	; 8000f00 <parseDHCPMSG+0x238>
 8000dac:	4c50      	ldr	r4, [pc, #320]	; (8000ef0 <parseDHCPMSG+0x228>)
 8000dae:	4d51      	ldr	r5, [pc, #324]	; (8000ef4 <parseDHCPMSG+0x22c>)
 8000db0:	4e51      	ldr	r6, [pc, #324]	; (8000ef8 <parseDHCPMSG+0x230>)
 8000db2:	4f52      	ldr	r7, [pc, #328]	; (8000efc <parseDHCPMSG+0x234>)
 8000db4:	9202      	str	r2, [sp, #8]
 8000db6:	9a02      	ldr	r2, [sp, #8]
 8000db8:	4293      	cmp	r3, r2
 8000dba:	d301      	bcc.n	8000dc0 <parseDHCPMSG+0xf8>
 8000dbc:	b240      	sxtb	r0, r0
 8000dbe:	e78d      	b.n	8000cdc <parseDHCPMSG+0x14>
 8000dc0:	f893 e000 	ldrb.w	lr, [r3]
 8000dc4:	f1be 0f33 	cmp.w	lr, #51	; 0x33
 8000dc8:	d059      	beq.n	8000e7e <parseDHCPMSG+0x1b6>
 8000dca:	d80b      	bhi.n	8000de4 <parseDHCPMSG+0x11c>
 8000dcc:	f1be 0f06 	cmp.w	lr, #6
 8000dd0:	d811      	bhi.n	8000df6 <parseDHCPMSG+0x12e>
 8000dd2:	f1be 0f06 	cmp.w	lr, #6
 8000dd6:	d80e      	bhi.n	8000df6 <parseDHCPMSG+0x12e>
 8000dd8:	e8df f00e 	tbb	[pc, lr]
 8000ddc:	290d1712 	.word	0x290d1712
 8000de0:	0d0d      	.short	0x0d0d
 8000de2:	3e          	.byte	0x3e
 8000de3:	00          	.byte	0x00
 8000de4:	f1be 0f36 	cmp.w	lr, #54	; 0x36
 8000de8:	d05c      	beq.n	8000ea4 <parseDHCPMSG+0x1dc>
 8000dea:	f1be 0fff 	cmp.w	lr, #255	; 0xff
 8000dee:	d072      	beq.n	8000ed6 <parseDHCPMSG+0x20e>
 8000df0:	f1be 0f35 	cmp.w	lr, #53	; 0x35
 8000df4:	d006      	beq.n	8000e04 <parseDHCPMSG+0x13c>
 8000df6:	f103 0e02 	add.w	lr, r3, #2
 8000dfa:	785b      	ldrb	r3, [r3, #1]
 8000dfc:	4473      	add	r3, lr
 8000dfe:	e7da      	b.n	8000db6 <parseDHCPMSG+0xee>
 8000e00:	3301      	adds	r3, #1
 8000e02:	e7d8      	b.n	8000db6 <parseDHCPMSG+0xee>
 8000e04:	7898      	ldrb	r0, [r3, #2]
 8000e06:	3303      	adds	r3, #3
 8000e08:	e7d5      	b.n	8000db6 <parseDHCPMSG+0xee>
 8000e0a:	f893 e002 	ldrb.w	lr, [r3, #2]
 8000e0e:	f887 e000 	strb.w	lr, [r7]
 8000e12:	f893 e003 	ldrb.w	lr, [r3, #3]
 8000e16:	f887 e001 	strb.w	lr, [r7, #1]
 8000e1a:	f893 e004 	ldrb.w	lr, [r3, #4]
 8000e1e:	f887 e002 	strb.w	lr, [r7, #2]
 8000e22:	f893 e005 	ldrb.w	lr, [r3, #5]
 8000e26:	f887 e003 	strb.w	lr, [r7, #3]
 8000e2a:	3306      	adds	r3, #6
 8000e2c:	e7c3      	b.n	8000db6 <parseDHCPMSG+0xee>
 8000e2e:	f893 8002 	ldrb.w	r8, [r3, #2]
 8000e32:	f893 e001 	ldrb.w	lr, [r3, #1]
 8000e36:	f886 8000 	strb.w	r8, [r6]
 8000e3a:	f893 8003 	ldrb.w	r8, [r3, #3]
 8000e3e:	f886 8001 	strb.w	r8, [r6, #1]
 8000e42:	f893 8004 	ldrb.w	r8, [r3, #4]
 8000e46:	f886 8002 	strb.w	r8, [r6, #2]
 8000e4a:	f893 8005 	ldrb.w	r8, [r3, #5]
 8000e4e:	f886 8003 	strb.w	r8, [r6, #3]
 8000e52:	4473      	add	r3, lr
 8000e54:	3302      	adds	r3, #2
 8000e56:	e7ae      	b.n	8000db6 <parseDHCPMSG+0xee>
 8000e58:	f893 8002 	ldrb.w	r8, [r3, #2]
 8000e5c:	f893 e001 	ldrb.w	lr, [r3, #1]
 8000e60:	f885 8000 	strb.w	r8, [r5]
 8000e64:	f893 8003 	ldrb.w	r8, [r3, #3]
 8000e68:	f885 8001 	strb.w	r8, [r5, #1]
 8000e6c:	f893 8004 	ldrb.w	r8, [r3, #4]
 8000e70:	f885 8002 	strb.w	r8, [r5, #2]
 8000e74:	f893 8005 	ldrb.w	r8, [r3, #5]
 8000e78:	f885 8003 	strb.w	r8, [r5, #3]
 8000e7c:	e7e9      	b.n	8000e52 <parseDHCPMSG+0x18a>
 8000e7e:	f893 e002 	ldrb.w	lr, [r3, #2]
 8000e82:	f8c9 e000 	str.w	lr, [r9]
 8000e86:	f893 8003 	ldrb.w	r8, [r3, #3]
 8000e8a:	eb08 2e0e 	add.w	lr, r8, lr, lsl #8
 8000e8e:	f893 8004 	ldrb.w	r8, [r3, #4]
 8000e92:	eb08 280e 	add.w	r8, r8, lr, lsl #8
 8000e96:	f893 e005 	ldrb.w	lr, [r3, #5]
 8000e9a:	eb0e 2e08 	add.w	lr, lr, r8, lsl #8
 8000e9e:	f8c9 e000 	str.w	lr, [r9]
 8000ea2:	e7c2      	b.n	8000e2a <parseDHCPMSG+0x162>
 8000ea4:	f893 e002 	ldrb.w	lr, [r3, #2]
 8000ea8:	9a03      	ldr	r2, [sp, #12]
 8000eaa:	f881 e000 	strb.w	lr, [r1]
 8000eae:	f893 e003 	ldrb.w	lr, [r3, #3]
 8000eb2:	f884 c000 	strb.w	ip, [r4]
 8000eb6:	f881 e001 	strb.w	lr, [r1, #1]
 8000eba:	f893 e004 	ldrb.w	lr, [r3, #4]
 8000ebe:	7062      	strb	r2, [r4, #1]
 8000ec0:	f881 e002 	strb.w	lr, [r1, #2]
 8000ec4:	f893 e005 	ldrb.w	lr, [r3, #5]
 8000ec8:	f884 a002 	strb.w	sl, [r4, #2]
 8000ecc:	f881 e003 	strb.w	lr, [r1, #3]
 8000ed0:	f884 b003 	strb.w	fp, [r4, #3]
 8000ed4:	e7a9      	b.n	8000e2a <parseDHCPMSG+0x162>
 8000ed6:	9b02      	ldr	r3, [sp, #8]
 8000ed8:	e76d      	b.n	8000db6 <parseDHCPMSG+0xee>
 8000eda:	2000      	movs	r0, #0
 8000edc:	e76e      	b.n	8000dbc <parseDHCPMSG+0xf4>
 8000ede:	bf00      	nop
 8000ee0:	20000318 	.word	0x20000318
 8000ee4:	20000314 	.word	0x20000314
 8000ee8:	20000300 	.word	0x20000300
 8000eec:	20000310 	.word	0x20000310
 8000ef0:	2000030c 	.word	0x2000030c
 8000ef4:	2000024c 	.word	0x2000024c
 8000ef8:	20000250 	.word	0x20000250
 8000efc:	20000258 	.word	0x20000258
 8000f00:	20000014 	.word	0x20000014

08000f04 <check_DHCP_leasedIP>:
 8000f04:	b537      	push	{r0, r1, r2, r4, r5, lr}
 8000f06:	f44f 50d8 	mov.w	r0, #6912	; 0x1b00
 8000f0a:	f001 fecd 	bl	8002ca8 <WIZCHIP_READ>
 8000f0e:	2103      	movs	r1, #3
 8000f10:	4605      	mov	r5, r0
 8000f12:	f44f 50d8 	mov.w	r0, #6912	; 0x1b00
 8000f16:	f001 fef5 	bl	8002d04 <WIZCHIP_WRITE>
 8000f1a:	f241 3388 	movw	r3, #5000	; 0x1388
 8000f1e:	480e      	ldr	r0, [pc, #56]	; (8000f58 <check_DHCP_leasedIP+0x54>)
 8000f20:	9300      	str	r3, [sp, #0]
 8000f22:	2211      	movs	r2, #17
 8000f24:	4b0d      	ldr	r3, [pc, #52]	; (8000f5c <check_DHCP_leasedIP+0x58>)
 8000f26:	490e      	ldr	r1, [pc, #56]	; (8000f60 <check_DHCP_leasedIP+0x5c>)
 8000f28:	7800      	ldrb	r0, [r0, #0]
 8000f2a:	f001 f997 	bl	800225c <sendto>
 8000f2e:	4604      	mov	r4, r0
 8000f30:	4629      	mov	r1, r5
 8000f32:	f44f 50d8 	mov.w	r0, #6912	; 0x1b00
 8000f36:	f001 fee5 	bl	8002d04 <WIZCHIP_WRITE>
 8000f3a:	340d      	adds	r4, #13
 8000f3c:	d00a      	beq.n	8000f54 <check_DHCP_leasedIP+0x50>
 8000f3e:	f7ff fe59 	bl	8000bf4 <send_DHCP_DECLINE>
 8000f42:	4b08      	ldr	r3, [pc, #32]	; (8000f64 <check_DHCP_leasedIP+0x60>)
 8000f44:	6819      	ldr	r1, [r3, #0]
 8000f46:	681a      	ldr	r2, [r3, #0]
 8000f48:	1a52      	subs	r2, r2, r1
 8000f4a:	2a01      	cmp	r2, #1
 8000f4c:	d9fb      	bls.n	8000f46 <check_DHCP_leasedIP+0x42>
 8000f4e:	2000      	movs	r0, #0
 8000f50:	b003      	add	sp, #12
 8000f52:	bd30      	pop	{r4, r5, pc}
 8000f54:	2001      	movs	r0, #1
 8000f56:	e7fb      	b.n	8000f50 <check_DHCP_leasedIP+0x4c>
 8000f58:	20000318 	.word	0x20000318
 8000f5c:	20000254 	.word	0x20000254
 8000f60:	08008916 	.word	0x08008916
 8000f64:	20000264 	.word	0x20000264

08000f68 <reset_DHCP_timeout>:
 8000f68:	2300      	movs	r3, #0
 8000f6a:	210a      	movs	r1, #10
 8000f6c:	4a03      	ldr	r2, [pc, #12]	; (8000f7c <reset_DHCP_timeout+0x14>)
 8000f6e:	6013      	str	r3, [r2, #0]
 8000f70:	4a03      	ldr	r2, [pc, #12]	; (8000f80 <reset_DHCP_timeout+0x18>)
 8000f72:	6011      	str	r1, [r2, #0]
 8000f74:	4a03      	ldr	r2, [pc, #12]	; (8000f84 <reset_DHCP_timeout+0x1c>)
 8000f76:	7013      	strb	r3, [r2, #0]
 8000f78:	4770      	bx	lr
 8000f7a:	bf00      	nop
 8000f7c:	20000264 	.word	0x20000264
 8000f80:	20000018 	.word	0x20000018
 8000f84:	20000260 	.word	0x20000260

08000f88 <DHCP_init>:
 8000f88:	2300      	movs	r3, #0
 8000f8a:	b573      	push	{r0, r1, r4, r5, r6, lr}
 8000f8c:	4c24      	ldr	r4, [pc, #144]	; (8001020 <DHCP_init+0x98>)
 8000f8e:	2206      	movs	r2, #6
 8000f90:	4606      	mov	r6, r0
 8000f92:	460d      	mov	r5, r1
 8000f94:	f44f 6010 	mov.w	r0, #2304	; 0x900
 8000f98:	4621      	mov	r1, r4
 8000f9a:	9301      	str	r3, [sp, #4]
 8000f9c:	f001 fee4 	bl	8002d68 <WIZCHIP_READ_BUF>
 8000fa0:	7862      	ldrb	r2, [r4, #1]
 8000fa2:	7823      	ldrb	r3, [r4, #0]
 8000fa4:	4313      	orrs	r3, r2
 8000fa6:	78a2      	ldrb	r2, [r4, #2]
 8000fa8:	4313      	orrs	r3, r2
 8000faa:	78e2      	ldrb	r2, [r4, #3]
 8000fac:	4313      	orrs	r3, r2
 8000fae:	7922      	ldrb	r2, [r4, #4]
 8000fb0:	4313      	orrs	r3, r2
 8000fb2:	7962      	ldrb	r2, [r4, #5]
 8000fb4:	4313      	orrs	r3, r2
 8000fb6:	d10d      	bne.n	8000fd4 <DHCP_init+0x4c>
 8000fb8:	2208      	movs	r2, #8
 8000fba:	7062      	strb	r2, [r4, #1]
 8000fbc:	22dc      	movs	r2, #220	; 0xdc
 8000fbe:	4621      	mov	r1, r4
 8000fc0:	70a2      	strb	r2, [r4, #2]
 8000fc2:	f44f 6010 	mov.w	r0, #2304	; 0x900
 8000fc6:	2206      	movs	r2, #6
 8000fc8:	7023      	strb	r3, [r4, #0]
 8000fca:	70e3      	strb	r3, [r4, #3]
 8000fcc:	7123      	strb	r3, [r4, #4]
 8000fce:	7163      	strb	r3, [r4, #5]
 8000fd0:	f001 ff04 	bl	8002ddc <WIZCHIP_WRITE_BUF>
 8000fd4:	4b13      	ldr	r3, [pc, #76]	; (8001024 <DHCP_init+0x9c>)
 8000fd6:	7920      	ldrb	r0, [r4, #4]
 8000fd8:	701e      	strb	r6, [r3, #0]
 8000fda:	4b13      	ldr	r3, [pc, #76]	; (8001028 <DHCP_init+0xa0>)
 8000fdc:	78e1      	ldrb	r1, [r4, #3]
 8000fde:	601d      	str	r5, [r3, #0]
 8000fe0:	4b12      	ldr	r3, [pc, #72]	; (800102c <DHCP_init+0xa4>)
 8000fe2:	7962      	ldrb	r2, [r4, #5]
 8000fe4:	180c      	adds	r4, r1, r0
 8000fe6:	4423      	add	r3, r4
 8000fe8:	4041      	eors	r1, r0
 8000fea:	4413      	add	r3, r2
 8000fec:	404a      	eors	r2, r1
 8000fee:	4413      	add	r3, r2
 8000ff0:	4a0f      	ldr	r2, [pc, #60]	; (8001030 <DHCP_init+0xa8>)
 8000ff2:	f44f 6070 	mov.w	r0, #3840	; 0xf00
 8000ff6:	6013      	str	r3, [r2, #0]
 8000ff8:	2204      	movs	r2, #4
 8000ffa:	eb0d 0102 	add.w	r1, sp, r2
 8000ffe:	f001 feed 	bl	8002ddc <WIZCHIP_WRITE_BUF>
 8001002:	2204      	movs	r2, #4
 8001004:	f44f 7080 	mov.w	r0, #256	; 0x100
 8001008:	eb0d 0102 	add.w	r1, sp, r2
 800100c:	f001 fee6 	bl	8002ddc <WIZCHIP_WRITE_BUF>
 8001010:	f7ff ffaa 	bl	8000f68 <reset_DHCP_timeout>
 8001014:	2200      	movs	r2, #0
 8001016:	4b07      	ldr	r3, [pc, #28]	; (8001034 <DHCP_init+0xac>)
 8001018:	701a      	strb	r2, [r3, #0]
 800101a:	b002      	add	sp, #8
 800101c:	bd70      	pop	{r4, r5, r6, pc}
 800101e:	bf00      	nop
 8001020:	20000300 	.word	0x20000300
 8001024:	20000318 	.word	0x20000318
 8001028:	20000314 	.word	0x20000314
 800102c:	12345678 	.word	0x12345678
 8001030:	20000308 	.word	0x20000308
 8001034:	20000261 	.word	0x20000261

08001038 <DHCP_time_handler>:
 8001038:	4a02      	ldr	r2, [pc, #8]	; (8001044 <DHCP_time_handler+0xc>)
 800103a:	6813      	ldr	r3, [r2, #0]
 800103c:	3301      	adds	r3, #1
 800103e:	6013      	str	r3, [r2, #0]
 8001040:	4770      	bx	lr
 8001042:	bf00      	nop
 8001044:	20000264 	.word	0x20000264

08001048 <getIPfromDHCP>:
 8001048:	4b04      	ldr	r3, [pc, #16]	; (800105c <getIPfromDHCP+0x14>)
 800104a:	781a      	ldrb	r2, [r3, #0]
 800104c:	7002      	strb	r2, [r0, #0]
 800104e:	785a      	ldrb	r2, [r3, #1]
 8001050:	7042      	strb	r2, [r0, #1]
 8001052:	789a      	ldrb	r2, [r3, #2]
 8001054:	7082      	strb	r2, [r0, #2]
 8001056:	78db      	ldrb	r3, [r3, #3]
 8001058:	70c3      	strb	r3, [r0, #3]
 800105a:	4770      	bx	lr
 800105c:	20000254 	.word	0x20000254

08001060 <getGWfromDHCP>:
 8001060:	4b04      	ldr	r3, [pc, #16]	; (8001074 <getGWfromDHCP+0x14>)
 8001062:	781a      	ldrb	r2, [r3, #0]
 8001064:	7002      	strb	r2, [r0, #0]
 8001066:	785a      	ldrb	r2, [r3, #1]
 8001068:	7042      	strb	r2, [r0, #1]
 800106a:	789a      	ldrb	r2, [r3, #2]
 800106c:	7082      	strb	r2, [r0, #2]
 800106e:	78db      	ldrb	r3, [r3, #3]
 8001070:	70c3      	strb	r3, [r0, #3]
 8001072:	4770      	bx	lr
 8001074:	20000250 	.word	0x20000250

08001078 <getSNfromDHCP>:
 8001078:	4b04      	ldr	r3, [pc, #16]	; (800108c <getSNfromDHCP+0x14>)
 800107a:	781a      	ldrb	r2, [r3, #0]
 800107c:	7002      	strb	r2, [r0, #0]
 800107e:	785a      	ldrb	r2, [r3, #1]
 8001080:	7042      	strb	r2, [r0, #1]
 8001082:	789a      	ldrb	r2, [r3, #2]
 8001084:	7082      	strb	r2, [r0, #2]
 8001086:	78db      	ldrb	r3, [r3, #3]
 8001088:	70c3      	strb	r3, [r0, #3]
 800108a:	4770      	bx	lr
 800108c:	20000258 	.word	0x20000258

08001090 <getDNSfromDHCP>:
 8001090:	4b04      	ldr	r3, [pc, #16]	; (80010a4 <getDNSfromDHCP+0x14>)
 8001092:	781a      	ldrb	r2, [r3, #0]
 8001094:	7002      	strb	r2, [r0, #0]
 8001096:	785a      	ldrb	r2, [r3, #1]
 8001098:	7042      	strb	r2, [r0, #1]
 800109a:	789a      	ldrb	r2, [r3, #2]
 800109c:	7082      	strb	r2, [r0, #2]
 800109e:	78db      	ldrb	r3, [r3, #3]
 80010a0:	70c3      	strb	r3, [r0, #3]
 80010a2:	4770      	bx	lr
 80010a4:	2000024c 	.word	0x2000024c

080010a8 <getDHCPLeasetime>:
 80010a8:	4b01      	ldr	r3, [pc, #4]	; (80010b0 <getDHCPLeasetime+0x8>)
 80010aa:	6818      	ldr	r0, [r3, #0]
 80010ac:	4770      	bx	lr
 80010ae:	bf00      	nop
 80010b0:	20000014 	.word	0x20000014

080010b4 <NibbleToHex>:
 80010b4:	f000 000f 	and.w	r0, r0, #15
 80010b8:	2809      	cmp	r0, #9
 80010ba:	bf94      	ite	ls
 80010bc:	3030      	addls	r0, #48	; 0x30
 80010be:	3037      	addhi	r0, #55	; 0x37
 80010c0:	4770      	bx	lr
	...

080010c4 <send_DHCP_DISCOVER>:
 80010c4:	e92d 43f0 	stmdb	sp!, {r4, r5, r6, r7, r8, r9, lr}
 80010c8:	b085      	sub	sp, #20
 80010ca:	f7ff fd41 	bl	8000b50 <makeDHCPMSG>
 80010ce:	2300      	movs	r3, #0
 80010d0:	4a62      	ldr	r2, [pc, #392]	; (800125c <send_DHCP_DISCOVER+0x198>)
 80010d2:	4863      	ldr	r0, [pc, #396]	; (8001260 <send_DHCP_DISCOVER+0x19c>)
 80010d4:	7013      	strb	r3, [r2, #0]
 80010d6:	7053      	strb	r3, [r2, #1]
 80010d8:	7093      	strb	r3, [r2, #2]
 80010da:	70d3      	strb	r3, [r2, #3]
 80010dc:	4a61      	ldr	r2, [pc, #388]	; (8001264 <send_DHCP_DISCOVER+0x1a0>)
 80010de:	7013      	strb	r3, [r2, #0]
 80010e0:	7053      	strb	r3, [r2, #1]
 80010e2:	7093      	strb	r3, [r2, #2]
 80010e4:	70d3      	strb	r3, [r2, #3]
 80010e6:	4b60      	ldr	r3, [pc, #384]	; (8001268 <send_DHCP_DISCOVER+0x1a4>)
 80010e8:	6819      	ldr	r1, [r3, #0]
 80010ea:	4b60      	ldr	r3, [pc, #384]	; (800126c <send_DHCP_DISCOVER+0x1a8>)
 80010ec:	f8c1 30f0 	str.w	r3, [r1, #240]	; 0xf0
 80010f0:	f240 1307 	movw	r3, #263	; 0x107
 80010f4:	f8a1 30f4 	strh.w	r3, [r1, #244]	; 0xf4
 80010f8:	4b5d      	ldr	r3, [pc, #372]	; (8001270 <send_DHCP_DISCOVER+0x1ac>)
 80010fa:	781a      	ldrb	r2, [r3, #0]
 80010fc:	f893 8003 	ldrb.w	r8, [r3, #3]
 8001100:	f881 20f6 	strb.w	r2, [r1, #246]	; 0xf6
 8001104:	785a      	ldrb	r2, [r3, #1]
 8001106:	791f      	ldrb	r7, [r3, #4]
 8001108:	795e      	ldrb	r6, [r3, #5]
 800110a:	f881 20f7 	strb.w	r2, [r1, #247]	; 0xf7
 800110e:	789a      	ldrb	r2, [r3, #2]
 8001110:	230c      	movs	r3, #12
 8001112:	f8a1 30fc 	strh.w	r3, [r1, #252]	; 0xfc
 8001116:	2312      	movs	r3, #18
 8001118:	f881 20f8 	strb.w	r2, [r1, #248]	; 0xf8
 800111c:	f881 80f9 	strb.w	r8, [r1, #249]	; 0xf9
 8001120:	f881 70fa 	strb.w	r7, [r1, #250]	; 0xfa
 8001124:	f881 60fb 	strb.w	r6, [r1, #251]	; 0xfb
 8001128:	f1a3 0212 	sub.w	r2, r3, #18
 800112c:	b292      	uxth	r2, r2
 800112e:	5c84      	ldrb	r4, [r0, r2]
 8001130:	1c5d      	adds	r5, r3, #1
 8001132:	b2ad      	uxth	r5, r5
 8001134:	eb01 0903 	add.w	r9, r1, r3
 8001138:	2c00      	cmp	r4, #0
 800113a:	f040 8085 	bne.w	8001248 <send_DHCP_DISCOVER+0x184>
 800113e:	ea4f 1018 	mov.w	r0, r8, lsr #4
 8001142:	f7ff ffb7 	bl	80010b4 <NibbleToHex>
 8001146:	f889 00ec 	strb.w	r0, [r9, #236]	; 0xec
 800114a:	4640      	mov	r0, r8
 800114c:	f7ff ffb2 	bl	80010b4 <NibbleToHex>
 8001150:	440d      	add	r5, r1
 8001152:	f885 00ec 	strb.w	r0, [r5, #236]	; 0xec
 8001156:	0938      	lsrs	r0, r7, #4
 8001158:	f7ff ffac 	bl	80010b4 <NibbleToHex>
 800115c:	1c9d      	adds	r5, r3, #2
 800115e:	b2ad      	uxth	r5, r5
 8001160:	440d      	add	r5, r1
 8001162:	f885 00ec 	strb.w	r0, [r5, #236]	; 0xec
 8001166:	4638      	mov	r0, r7
 8001168:	f7ff ffa4 	bl	80010b4 <NibbleToHex>
 800116c:	1cdd      	adds	r5, r3, #3
 800116e:	b2ad      	uxth	r5, r5
 8001170:	440d      	add	r5, r1
 8001172:	f885 00ec 	strb.w	r0, [r5, #236]	; 0xec
 8001176:	0930      	lsrs	r0, r6, #4
 8001178:	f7ff ff9c 	bl	80010b4 <NibbleToHex>
 800117c:	1d1d      	adds	r5, r3, #4
 800117e:	b2ad      	uxth	r5, r5
 8001180:	440d      	add	r5, r1
 8001182:	f885 00ec 	strb.w	r0, [r5, #236]	; 0xec
 8001186:	4630      	mov	r0, r6
 8001188:	f7ff ff94 	bl	80010b4 <NibbleToHex>
 800118c:	1d5d      	adds	r5, r3, #5
 800118e:	b2ad      	uxth	r5, r5
 8001190:	440d      	add	r5, r1
 8001192:	f885 00ec 	strb.w	r0, [r5, #236]	; 0xec
 8001196:	1d98      	adds	r0, r3, #6
 8001198:	b280      	uxth	r0, r0
 800119a:	1dd5      	adds	r5, r2, #7
 800119c:	1b45      	subs	r5, r0, r5
 800119e:	440d      	add	r5, r1
 80011a0:	3206      	adds	r2, #6
 80011a2:	f885 20ec 	strb.w	r2, [r5, #236]	; 0xec
 80011a6:	2237      	movs	r2, #55	; 0x37
 80011a8:	4408      	add	r0, r1
 80011aa:	f880 20ec 	strb.w	r2, [r0, #236]	; 0xec
 80011ae:	2006      	movs	r0, #6
 80011b0:	2501      	movs	r5, #1
 80011b2:	1dda      	adds	r2, r3, #7
 80011b4:	b292      	uxth	r2, r2
 80011b6:	440a      	add	r2, r1
 80011b8:	f882 00ec 	strb.w	r0, [r2, #236]	; 0xec
 80011bc:	f103 0208 	add.w	r2, r3, #8
 80011c0:	b292      	uxth	r2, r2
 80011c2:	440a      	add	r2, r1
 80011c4:	f882 50ec 	strb.w	r5, [r2, #236]	; 0xec
 80011c8:	2503      	movs	r5, #3
 80011ca:	f103 0209 	add.w	r2, r3, #9
 80011ce:	b292      	uxth	r2, r2
 80011d0:	440a      	add	r2, r1
 80011d2:	f882 50ec 	strb.w	r5, [r2, #236]	; 0xec
 80011d6:	f103 020a 	add.w	r2, r3, #10
 80011da:	b292      	uxth	r2, r2
 80011dc:	440a      	add	r2, r1
 80011de:	f882 00ec 	strb.w	r0, [r2, #236]	; 0xec
 80011e2:	200f      	movs	r0, #15
 80011e4:	f103 020b 	add.w	r2, r3, #11
 80011e8:	b292      	uxth	r2, r2
 80011ea:	440a      	add	r2, r1
 80011ec:	f882 00ec 	strb.w	r0, [r2, #236]	; 0xec
 80011f0:	203a      	movs	r0, #58	; 0x3a
 80011f2:	f103 020c 	add.w	r2, r3, #12
 80011f6:	b292      	uxth	r2, r2
 80011f8:	440a      	add	r2, r1
 80011fa:	f882 00ec 	strb.w	r0, [r2, #236]	; 0xec
 80011fe:	203b      	movs	r0, #59	; 0x3b
 8001200:	f103 020d 	add.w	r2, r3, #13
 8001204:	b292      	uxth	r2, r2
 8001206:	440a      	add	r2, r1
 8001208:	f882 00ec 	strb.w	r0, [r2, #236]	; 0xec
 800120c:	20ff      	movs	r0, #255	; 0xff
 800120e:	f103 020f 	add.w	r2, r3, #15
 8001212:	330e      	adds	r3, #14
 8001214:	b29b      	uxth	r3, r3
 8001216:	440b      	add	r3, r1
 8001218:	b292      	uxth	r2, r2
 800121a:	f883 00ec 	strb.w	r0, [r3, #236]	; 0xec
 800121e:	f102 03ec 	add.w	r3, r2, #236	; 0xec
 8001222:	440b      	add	r3, r1
 8001224:	f5b2 7f9c 	cmp.w	r2, #312	; 0x138
 8001228:	d312      	bcc.n	8001250 <send_DHCP_DISCOVER+0x18c>
 800122a:	f04f 33ff 	mov.w	r3, #4294967295	; 0xffffffff
 800122e:	9303      	str	r3, [sp, #12]
 8001230:	2343      	movs	r3, #67	; 0x43
 8001232:	4810      	ldr	r0, [pc, #64]	; (8001274 <send_DHCP_DISCOVER+0x1b0>)
 8001234:	9300      	str	r3, [sp, #0]
 8001236:	f44f 7209 	mov.w	r2, #548	; 0x224
 800123a:	ab03      	add	r3, sp, #12
 800123c:	7800      	ldrb	r0, [r0, #0]
 800123e:	f001 f80d 	bl	800225c <sendto>
 8001242:	b005      	add	sp, #20
 8001244:	e8bd 83f0 	ldmia.w	sp!, {r4, r5, r6, r7, r8, r9, pc}
 8001248:	462b      	mov	r3, r5
 800124a:	f889 40ec 	strb.w	r4, [r9, #236]	; 0xec
 800124e:	e76b      	b.n	8001128 <send_DHCP_DISCOVER+0x64>
 8001250:	3201      	adds	r2, #1
 8001252:	f803 4b01 	strb.w	r4, [r3], #1
 8001256:	b292      	uxth	r2, r2
 8001258:	e7e4      	b.n	8001224 <send_DHCP_DISCOVER+0x160>
 800125a:	bf00      	nop
 800125c:	20000310 	.word	0x20000310
 8001260:	20000000 	.word	0x20000000
 8001264:	2000030c 	.word	0x2000030c
 8001268:	20000314 	.word	0x20000314
 800126c:	3d010135 	.word	0x3d010135
 8001270:	20000300 	.word	0x20000300
 8001274:	20000318 	.word	0x20000318

08001278 <send_DHCP_REQUEST>:
 8001278:	e92d 43f0 	stmdb	sp!, {r4, r5, r6, r7, r8, r9, lr}
 800127c:	b085      	sub	sp, #20
 800127e:	f7ff fc67 	bl	8000b50 <makeDHCPMSG>
 8001282:	4b8b      	ldr	r3, [pc, #556]	; (80014b0 <send_DHCP_REQUEST+0x238>)
 8001284:	498b      	ldr	r1, [pc, #556]	; (80014b4 <send_DHCP_REQUEST+0x23c>)
 8001286:	781b      	ldrb	r3, [r3, #0]
 8001288:	3b03      	subs	r3, #3
 800128a:	2b01      	cmp	r3, #1
 800128c:	f200 8101 	bhi.w	8001492 <send_DHCP_REQUEST+0x21a>
 8001290:	2200      	movs	r2, #0
 8001292:	680b      	ldr	r3, [r1, #0]
 8001294:	729a      	strb	r2, [r3, #10]
 8001296:	72da      	strb	r2, [r3, #11]
 8001298:	4a87      	ldr	r2, [pc, #540]	; (80014b8 <send_DHCP_REQUEST+0x240>)
 800129a:	7810      	ldrb	r0, [r2, #0]
 800129c:	7318      	strb	r0, [r3, #12]
 800129e:	7850      	ldrb	r0, [r2, #1]
 80012a0:	7358      	strb	r0, [r3, #13]
 80012a2:	7890      	ldrb	r0, [r2, #2]
 80012a4:	78d2      	ldrb	r2, [r2, #3]
 80012a6:	7398      	strb	r0, [r3, #14]
 80012a8:	73da      	strb	r2, [r3, #15]
 80012aa:	4b84      	ldr	r3, [pc, #528]	; (80014bc <send_DHCP_REQUEST+0x244>)
 80012ac:	781a      	ldrb	r2, [r3, #0]
 80012ae:	f88d 200c 	strb.w	r2, [sp, #12]
 80012b2:	785a      	ldrb	r2, [r3, #1]
 80012b4:	f88d 200d 	strb.w	r2, [sp, #13]
 80012b8:	789a      	ldrb	r2, [r3, #2]
 80012ba:	78db      	ldrb	r3, [r3, #3]
 80012bc:	f88d 200e 	strb.w	r2, [sp, #14]
 80012c0:	f88d 300f 	strb.w	r3, [sp, #15]
 80012c4:	6809      	ldr	r1, [r1, #0]
 80012c6:	4b7e      	ldr	r3, [pc, #504]	; (80014c0 <send_DHCP_REQUEST+0x248>)
 80012c8:	f8c1 30f0 	str.w	r3, [r1, #240]	; 0xf0
 80012cc:	f240 1307 	movw	r3, #263	; 0x107
 80012d0:	f8a1 30f4 	strh.w	r3, [r1, #244]	; 0xf4
 80012d4:	4b7b      	ldr	r3, [pc, #492]	; (80014c4 <send_DHCP_REQUEST+0x24c>)
 80012d6:	781a      	ldrb	r2, [r3, #0]
 80012d8:	78df      	ldrb	r7, [r3, #3]
 80012da:	f881 20f6 	strb.w	r2, [r1, #246]	; 0xf6
 80012de:	785a      	ldrb	r2, [r3, #1]
 80012e0:	791e      	ldrb	r6, [r3, #4]
 80012e2:	f893 8005 	ldrb.w	r8, [r3, #5]
 80012e6:	f881 20f7 	strb.w	r2, [r1, #247]	; 0xf7
 80012ea:	789a      	ldrb	r2, [r3, #2]
 80012ec:	f89d 300f 	ldrb.w	r3, [sp, #15]
 80012f0:	f881 20f8 	strb.w	r2, [r1, #248]	; 0xf8
 80012f4:	2bff      	cmp	r3, #255	; 0xff
 80012f6:	f881 70f9 	strb.w	r7, [r1, #249]	; 0xf9
 80012fa:	f881 60fa 	strb.w	r6, [r1, #250]	; 0xfa
 80012fe:	f881 80fb 	strb.w	r8, [r1, #251]	; 0xfb
 8001302:	f040 80ca 	bne.w	800149a <send_DHCP_REQUEST+0x222>
 8001306:	f240 4332 	movw	r3, #1074	; 0x432
 800130a:	f8a1 30fc 	strh.w	r3, [r1, #252]	; 0xfc
 800130e:	4b6a      	ldr	r3, [pc, #424]	; (80014b8 <send_DHCP_REQUEST+0x240>)
 8001310:	781a      	ldrb	r2, [r3, #0]
 8001312:	f881 20fe 	strb.w	r2, [r1, #254]	; 0xfe
 8001316:	785a      	ldrb	r2, [r3, #1]
 8001318:	f881 20ff 	strb.w	r2, [r1, #255]	; 0xff
 800131c:	789a      	ldrb	r2, [r3, #2]
 800131e:	78db      	ldrb	r3, [r3, #3]
 8001320:	f881 2100 	strb.w	r2, [r1, #256]	; 0x100
 8001324:	f881 3101 	strb.w	r3, [r1, #257]	; 0x101
 8001328:	f240 4336 	movw	r3, #1078	; 0x436
 800132c:	f8a1 3102 	strh.w	r3, [r1, #258]	; 0x102
 8001330:	4b62      	ldr	r3, [pc, #392]	; (80014bc <send_DHCP_REQUEST+0x244>)
 8001332:	781a      	ldrb	r2, [r3, #0]
 8001334:	f881 2104 	strb.w	r2, [r1, #260]	; 0x104
 8001338:	785a      	ldrb	r2, [r3, #1]
 800133a:	f881 2105 	strb.w	r2, [r1, #261]	; 0x105
 800133e:	789a      	ldrb	r2, [r3, #2]
 8001340:	78db      	ldrb	r3, [r3, #3]
 8001342:	f881 2106 	strb.w	r2, [r1, #262]	; 0x106
 8001346:	221c      	movs	r2, #28
 8001348:	f881 3107 	strb.w	r3, [r1, #263]	; 0x107
 800134c:	200c      	movs	r0, #12
 800134e:	188b      	adds	r3, r1, r2
 8001350:	f883 00ec 	strb.w	r0, [r3, #236]	; 0xec
 8001354:	1c93      	adds	r3, r2, #2
 8001356:	3201      	adds	r2, #1
 8001358:	1888      	adds	r0, r1, r2
 800135a:	2200      	movs	r2, #0
 800135c:	f880 20ec 	strb.w	r2, [r0, #236]	; 0xec
 8001360:	4859      	ldr	r0, [pc, #356]	; (80014c8 <send_DHCP_REQUEST+0x250>)
 8001362:	f810 5b01 	ldrb.w	r5, [r0], #1
 8001366:	1c5c      	adds	r4, r3, #1
 8001368:	b2a4      	uxth	r4, r4
 800136a:	eb01 0903 	add.w	r9, r1, r3
 800136e:	2d00      	cmp	r5, #0
 8001370:	f040 8095 	bne.w	800149e <send_DHCP_REQUEST+0x226>
 8001374:	0938      	lsrs	r0, r7, #4
 8001376:	f7ff fe9d 	bl	80010b4 <NibbleToHex>
 800137a:	f889 00ec 	strb.w	r0, [r9, #236]	; 0xec
 800137e:	4638      	mov	r0, r7
 8001380:	f7ff fe98 	bl	80010b4 <NibbleToHex>
 8001384:	440c      	add	r4, r1
 8001386:	f884 00ec 	strb.w	r0, [r4, #236]	; 0xec
 800138a:	0930      	lsrs	r0, r6, #4
 800138c:	f7ff fe92 	bl	80010b4 <NibbleToHex>
 8001390:	1c9c      	adds	r4, r3, #2
 8001392:	b2a4      	uxth	r4, r4
 8001394:	440c      	add	r4, r1
 8001396:	f884 00ec 	strb.w	r0, [r4, #236]	; 0xec
 800139a:	4630      	mov	r0, r6
 800139c:	f7ff fe8a 	bl	80010b4 <NibbleToHex>
 80013a0:	1cdc      	adds	r4, r3, #3
 80013a2:	b2a4      	uxth	r4, r4
 80013a4:	440c      	add	r4, r1
 80013a6:	f884 00ec 	strb.w	r0, [r4, #236]	; 0xec
 80013aa:	ea4f 1018 	mov.w	r0, r8, lsr #4
 80013ae:	f7ff fe81 	bl	80010b4 <NibbleToHex>
 80013b2:	1d1c      	adds	r4, r3, #4
 80013b4:	b2a4      	uxth	r4, r4
 80013b6:	440c      	add	r4, r1
 80013b8:	f884 00ec 	strb.w	r0, [r4, #236]	; 0xec
 80013bc:	4640      	mov	r0, r8
 80013be:	f7ff fe79 	bl	80010b4 <NibbleToHex>
 80013c2:	1d5c      	adds	r4, r3, #5
 80013c4:	b2a4      	uxth	r4, r4
 80013c6:	440c      	add	r4, r1
 80013c8:	f884 00ec 	strb.w	r0, [r4, #236]	; 0xec
 80013cc:	1d98      	adds	r0, r3, #6
 80013ce:	b280      	uxth	r0, r0
 80013d0:	1dd4      	adds	r4, r2, #7
 80013d2:	1b04      	subs	r4, r0, r4
 80013d4:	3206      	adds	r2, #6
 80013d6:	440c      	add	r4, r1
 80013d8:	f884 20ec 	strb.w	r2, [r4, #236]	; 0xec
 80013dc:	2237      	movs	r2, #55	; 0x37
 80013de:	4408      	add	r0, r1
 80013e0:	f880 20ec 	strb.w	r2, [r0, #236]	; 0xec
 80013e4:	2008      	movs	r0, #8
 80013e6:	1dda      	adds	r2, r3, #7
 80013e8:	b292      	uxth	r2, r2
 80013ea:	440a      	add	r2, r1
 80013ec:	f882 00ec 	strb.w	r0, [r2, #236]	; 0xec
 80013f0:	181a      	adds	r2, r3, r0
 80013f2:	2001      	movs	r0, #1
 80013f4:	b292      	uxth	r2, r2
 80013f6:	440a      	add	r2, r1
 80013f8:	f882 00ec 	strb.w	r0, [r2, #236]	; 0xec
 80013fc:	2003      	movs	r0, #3
 80013fe:	f103 0209 	add.w	r2, r3, #9
 8001402:	b292      	uxth	r2, r2
 8001404:	440a      	add	r2, r1
 8001406:	f882 00ec 	strb.w	r0, [r2, #236]	; 0xec
 800140a:	2006      	movs	r0, #6
 800140c:	f103 020a 	add.w	r2, r3, #10
 8001410:	b292      	uxth	r2, r2
 8001412:	440a      	add	r2, r1
 8001414:	f882 00ec 	strb.w	r0, [r2, #236]	; 0xec
 8001418:	200f      	movs	r0, #15
 800141a:	f103 020b 	add.w	r2, r3, #11
 800141e:	b292      	uxth	r2, r2
 8001420:	440a      	add	r2, r1
 8001422:	f882 00ec 	strb.w	r0, [r2, #236]	; 0xec
 8001426:	203a      	movs	r0, #58	; 0x3a
 8001428:	f103 020c 	add.w	r2, r3, #12
 800142c:	b292      	uxth	r2, r2
 800142e:	440a      	add	r2, r1
 8001430:	f882 00ec 	strb.w	r0, [r2, #236]	; 0xec
 8001434:	203b      	movs	r0, #59	; 0x3b
 8001436:	f103 020d 	add.w	r2, r3, #13
 800143a:	b292      	uxth	r2, r2
 800143c:	440a      	add	r2, r1
 800143e:	f882 00ec 	strb.w	r0, [r2, #236]	; 0xec
 8001442:	201f      	movs	r0, #31
 8001444:	f103 020e 	add.w	r2, r3, #14
 8001448:	b292      	uxth	r2, r2
 800144a:	440a      	add	r2, r1
 800144c:	f882 00ec 	strb.w	r0, [r2, #236]	; 0xec
 8001450:	2021      	movs	r0, #33	; 0x21
 8001452:	f103 020f 	add.w	r2, r3, #15
 8001456:	b292      	uxth	r2, r2
 8001458:	440a      	add	r2, r1
 800145a:	f882 00ec 	strb.w	r0, [r2, #236]	; 0xec
 800145e:	20ff      	movs	r0, #255	; 0xff
 8001460:	f103 0210 	add.w	r2, r3, #16
 8001464:	b292      	uxth	r2, r2
 8001466:	440a      	add	r2, r1
 8001468:	3311      	adds	r3, #17
 800146a:	f882 00ec 	strb.w	r0, [r2, #236]	; 0xec
 800146e:	b29b      	uxth	r3, r3
 8001470:	f101 02ec 	add.w	r2, r1, #236	; 0xec
 8001474:	f5b3 7f9c 	cmp.w	r3, #312	; 0x138
 8001478:	db16      	blt.n	80014a8 <send_DHCP_REQUEST+0x230>
 800147a:	2343      	movs	r3, #67	; 0x43
 800147c:	4813      	ldr	r0, [pc, #76]	; (80014cc <send_DHCP_REQUEST+0x254>)
 800147e:	9300      	str	r3, [sp, #0]
 8001480:	f44f 7209 	mov.w	r2, #548	; 0x224
 8001484:	ab03      	add	r3, sp, #12
 8001486:	7800      	ldrb	r0, [r0, #0]
 8001488:	f000 fee8 	bl	800225c <sendto>
 800148c:	b005      	add	sp, #20
 800148e:	e8bd 83f0 	ldmia.w	sp!, {r4, r5, r6, r7, r8, r9, pc}
 8001492:	f04f 33ff 	mov.w	r3, #4294967295	; 0xffffffff
 8001496:	9303      	str	r3, [sp, #12]
 8001498:	e714      	b.n	80012c4 <send_DHCP_REQUEST+0x4c>
 800149a:	2210      	movs	r2, #16
 800149c:	e756      	b.n	800134c <send_DHCP_REQUEST+0xd4>
 800149e:	4623      	mov	r3, r4
 80014a0:	f889 50ec 	strb.w	r5, [r9, #236]	; 0xec
 80014a4:	3201      	adds	r2, #1
 80014a6:	e75c      	b.n	8001362 <send_DHCP_REQUEST+0xea>
 80014a8:	54d5      	strb	r5, [r2, r3]
 80014aa:	3301      	adds	r3, #1
 80014ac:	e7e2      	b.n	8001474 <send_DHCP_REQUEST+0x1fc>
 80014ae:	bf00      	nop
 80014b0:	20000261 	.word	0x20000261
 80014b4:	20000314 	.word	0x20000314
 80014b8:	20000254 	.word	0x20000254
 80014bc:	20000310 	.word	0x20000310
 80014c0:	3d030135 	.word	0x3d030135
 80014c4:	20000300 	.word	0x20000300
 80014c8:	20000000 	.word	0x20000000
 80014cc:	20000318 	.word	0x20000318

080014d0 <check_DHCP_timeout>:
 80014d0:	b570      	push	{r4, r5, r6, lr}
 80014d2:	4c1c      	ldr	r4, [pc, #112]	; (8001544 <check_DHCP_timeout+0x74>)
 80014d4:	f994 3000 	ldrsb.w	r3, [r4]
 80014d8:	2b01      	cmp	r3, #1
 80014da:	dc1d      	bgt.n	8001518 <check_DHCP_timeout+0x48>
 80014dc:	4d1a      	ldr	r5, [pc, #104]	; (8001548 <check_DHCP_timeout+0x78>)
 80014de:	4e1b      	ldr	r6, [pc, #108]	; (800154c <check_DHCP_timeout+0x7c>)
 80014e0:	682a      	ldr	r2, [r5, #0]
 80014e2:	6831      	ldr	r1, [r6, #0]
 80014e4:	4291      	cmp	r1, r2
 80014e6:	d212      	bcs.n	800150e <check_DHCP_timeout+0x3e>
 80014e8:	4b19      	ldr	r3, [pc, #100]	; (8001550 <check_DHCP_timeout+0x80>)
 80014ea:	f993 3000 	ldrsb.w	r3, [r3]
 80014ee:	2b02      	cmp	r3, #2
 80014f0:	d00f      	beq.n	8001512 <check_DHCP_timeout+0x42>
 80014f2:	2b04      	cmp	r3, #4
 80014f4:	d00d      	beq.n	8001512 <check_DHCP_timeout+0x42>
 80014f6:	2b01      	cmp	r3, #1
 80014f8:	d101      	bne.n	80014fe <check_DHCP_timeout+0x2e>
 80014fa:	f7ff fde3 	bl	80010c4 <send_DHCP_DISCOVER>
 80014fe:	2300      	movs	r3, #0
 8001500:	602b      	str	r3, [r5, #0]
 8001502:	682b      	ldr	r3, [r5, #0]
 8001504:	330a      	adds	r3, #10
 8001506:	6033      	str	r3, [r6, #0]
 8001508:	7823      	ldrb	r3, [r4, #0]
 800150a:	3301      	adds	r3, #1
 800150c:	7023      	strb	r3, [r4, #0]
 800150e:	2001      	movs	r0, #1
 8001510:	e010      	b.n	8001534 <check_DHCP_timeout+0x64>
 8001512:	f7ff feb1 	bl	8001278 <send_DHCP_REQUEST>
 8001516:	e7f2      	b.n	80014fe <check_DHCP_timeout+0x2e>
 8001518:	4b0d      	ldr	r3, [pc, #52]	; (8001550 <check_DHCP_timeout+0x80>)
 800151a:	f993 2000 	ldrsb.w	r2, [r3]
 800151e:	461c      	mov	r4, r3
 8001520:	2a02      	cmp	r2, #2
 8001522:	d008      	beq.n	8001536 <check_DHCP_timeout+0x66>
 8001524:	2a04      	cmp	r2, #4
 8001526:	d006      	beq.n	8001536 <check_DHCP_timeout+0x66>
 8001528:	2a01      	cmp	r2, #1
 800152a:	d109      	bne.n	8001540 <check_DHCP_timeout+0x70>
 800152c:	2000      	movs	r0, #0
 800152e:	7018      	strb	r0, [r3, #0]
 8001530:	f7ff fd1a 	bl	8000f68 <reset_DHCP_timeout>
 8001534:	bd70      	pop	{r4, r5, r6, pc}
 8001536:	f7ff fdc5 	bl	80010c4 <send_DHCP_DISCOVER>
 800153a:	2001      	movs	r0, #1
 800153c:	7020      	strb	r0, [r4, #0]
 800153e:	e7f7      	b.n	8001530 <check_DHCP_timeout+0x60>
 8001540:	2001      	movs	r0, #1
 8001542:	e7f5      	b.n	8001530 <check_DHCP_timeout+0x60>
 8001544:	20000260 	.word	0x20000260
 8001548:	20000264 	.word	0x20000264
 800154c:	20000018 	.word	0x20000018
 8001550:	20000261 	.word	0x20000261

08001554 <DHCP_run>:
 8001554:	b538      	push	{r3, r4, r5, lr}
 8001556:	4c52      	ldr	r4, [pc, #328]	; (80016a0 <DHCP_run+0x14c>)
 8001558:	f994 3000 	ldrsb.w	r3, [r4]
 800155c:	2b06      	cmp	r3, #6
 800155e:	f000 809c 	beq.w	800169a <DHCP_run+0x146>
 8001562:	4d50      	ldr	r5, [pc, #320]	; (80016a4 <DHCP_run+0x150>)
 8001564:	7828      	ldrb	r0, [r5, #0]
 8001566:	0140      	lsls	r0, r0, #5
 8001568:	f500 7042 	add.w	r0, r0, #776	; 0x308
 800156c:	f001 fb9c 	bl	8002ca8 <WIZCHIP_READ>
 8001570:	2822      	cmp	r0, #34	; 0x22
 8001572:	d005      	beq.n	8001580 <DHCP_run+0x2c>
 8001574:	2300      	movs	r3, #0
 8001576:	2244      	movs	r2, #68	; 0x44
 8001578:	2102      	movs	r1, #2
 800157a:	7828      	ldrb	r0, [r5, #0]
 800157c:	f000 fddc 	bl	8002138 <socket>
 8001580:	f7ff fba2 	bl	8000cc8 <parseDHCPMSG>
 8001584:	f994 3000 	ldrsb.w	r3, [r4]
 8001588:	b2c5      	uxtb	r5, r0
 800158a:	2b04      	cmp	r3, #4
 800158c:	d831      	bhi.n	80015f2 <DHCP_run+0x9e>
 800158e:	e8df f003 	tbb	[pc, r3]
 8001592:	0e03      	.short	0x0e03
 8001594:	3d23      	.short	0x3d23
 8001596:	5a          	.byte	0x5a
 8001597:	00          	.byte	0x00
 8001598:	2200      	movs	r2, #0
 800159a:	4b43      	ldr	r3, [pc, #268]	; (80016a8 <DHCP_run+0x154>)
 800159c:	701a      	strb	r2, [r3, #0]
 800159e:	705a      	strb	r2, [r3, #1]
 80015a0:	709a      	strb	r2, [r3, #2]
 80015a2:	70da      	strb	r2, [r3, #3]
 80015a4:	f7ff fd8e 	bl	80010c4 <send_DHCP_DISCOVER>
 80015a8:	2001      	movs	r0, #1
 80015aa:	7020      	strb	r0, [r4, #0]
 80015ac:	bd38      	pop	{r3, r4, r5, pc}
 80015ae:	2d02      	cmp	r5, #2
 80015b0:	d10e      	bne.n	80015d0 <DHCP_run+0x7c>
 80015b2:	4b3e      	ldr	r3, [pc, #248]	; (80016ac <DHCP_run+0x158>)
 80015b4:	681a      	ldr	r2, [r3, #0]
 80015b6:	4b3c      	ldr	r3, [pc, #240]	; (80016a8 <DHCP_run+0x154>)
 80015b8:	7c11      	ldrb	r1, [r2, #16]
 80015ba:	7019      	strb	r1, [r3, #0]
 80015bc:	7c51      	ldrb	r1, [r2, #17]
 80015be:	7059      	strb	r1, [r3, #1]
 80015c0:	7c91      	ldrb	r1, [r2, #18]
 80015c2:	7cd2      	ldrb	r2, [r2, #19]
 80015c4:	7099      	strb	r1, [r3, #2]
 80015c6:	70da      	strb	r2, [r3, #3]
 80015c8:	f7ff fe56 	bl	8001278 <send_DHCP_REQUEST>
 80015cc:	7025      	strb	r5, [r4, #0]
 80015ce:	e010      	b.n	80015f2 <DHCP_run+0x9e>
 80015d0:	e8bd 4038 	ldmia.w	sp!, {r3, r4, r5, lr}
 80015d4:	f7ff bf7c 	b.w	80014d0 <check_DHCP_timeout>
 80015d8:	2d05      	cmp	r5, #5
 80015da:	d112      	bne.n	8001602 <DHCP_run+0xae>
 80015dc:	f7ff fc92 	bl	8000f04 <check_DHCP_leasedIP>
 80015e0:	4605      	mov	r5, r0
 80015e2:	b140      	cbz	r0, 80015f6 <DHCP_run+0xa2>
 80015e4:	4b32      	ldr	r3, [pc, #200]	; (80016b0 <DHCP_run+0x15c>)
 80015e6:	681b      	ldr	r3, [r3, #0]
 80015e8:	4798      	blx	r3
 80015ea:	f7ff fcbd 	bl	8000f68 <reset_DHCP_timeout>
 80015ee:	2303      	movs	r3, #3
 80015f0:	7023      	strb	r3, [r4, #0]
 80015f2:	2001      	movs	r0, #1
 80015f4:	e7da      	b.n	80015ac <DHCP_run+0x58>
 80015f6:	f7ff fcb7 	bl	8000f68 <reset_DHCP_timeout>
 80015fa:	4b2e      	ldr	r3, [pc, #184]	; (80016b4 <DHCP_run+0x160>)
 80015fc:	681b      	ldr	r3, [r3, #0]
 80015fe:	4798      	blx	r3
 8001600:	e7e4      	b.n	80015cc <DHCP_run+0x78>
 8001602:	2d06      	cmp	r5, #6
 8001604:	d1e4      	bne.n	80015d0 <DHCP_run+0x7c>
 8001606:	f7ff fcaf 	bl	8000f68 <reset_DHCP_timeout>
 800160a:	e7cd      	b.n	80015a8 <DHCP_run+0x54>
 800160c:	4b2a      	ldr	r3, [pc, #168]	; (80016b8 <DHCP_run+0x164>)
 800160e:	681b      	ldr	r3, [r3, #0]
 8001610:	1c5a      	adds	r2, r3, #1
 8001612:	d040      	beq.n	8001696 <DHCP_run+0x142>
 8001614:	4a29      	ldr	r2, [pc, #164]	; (80016bc <DHCP_run+0x168>)
 8001616:	6812      	ldr	r2, [r2, #0]
 8001618:	ebb2 0f53 	cmp.w	r2, r3, lsr #1
 800161c:	d93b      	bls.n	8001696 <DHCP_run+0x142>
 800161e:	4a22      	ldr	r2, [pc, #136]	; (80016a8 <DHCP_run+0x154>)
 8001620:	4b27      	ldr	r3, [pc, #156]	; (80016c0 <DHCP_run+0x16c>)
 8001622:	7811      	ldrb	r1, [r2, #0]
 8001624:	7019      	strb	r1, [r3, #0]
 8001626:	7851      	ldrb	r1, [r2, #1]
 8001628:	7059      	strb	r1, [r3, #1]
 800162a:	7891      	ldrb	r1, [r2, #2]
 800162c:	78d2      	ldrb	r2, [r2, #3]
 800162e:	7099      	strb	r1, [r3, #2]
 8001630:	70da      	strb	r2, [r3, #3]
 8001632:	4a24      	ldr	r2, [pc, #144]	; (80016c4 <DHCP_run+0x170>)
 8001634:	6813      	ldr	r3, [r2, #0]
 8001636:	3301      	adds	r3, #1
 8001638:	6013      	str	r3, [r2, #0]
 800163a:	f7ff fe1d 	bl	8001278 <send_DHCP_REQUEST>
 800163e:	f7ff fc93 	bl	8000f68 <reset_DHCP_timeout>
 8001642:	2004      	movs	r0, #4
 8001644:	e7b1      	b.n	80015aa <DHCP_run+0x56>
 8001646:	2d05      	cmp	r5, #5
 8001648:	d11f      	bne.n	800168a <DHCP_run+0x136>
 800164a:	2200      	movs	r2, #0
 800164c:	4b1e      	ldr	r3, [pc, #120]	; (80016c8 <DHCP_run+0x174>)
 800164e:	701a      	strb	r2, [r3, #0]
 8001650:	4a1b      	ldr	r2, [pc, #108]	; (80016c0 <DHCP_run+0x16c>)
 8001652:	4b15      	ldr	r3, [pc, #84]	; (80016a8 <DHCP_run+0x154>)
 8001654:	7810      	ldrb	r0, [r2, #0]
 8001656:	7819      	ldrb	r1, [r3, #0]
 8001658:	4288      	cmp	r0, r1
 800165a:	d10b      	bne.n	8001674 <DHCP_run+0x120>
 800165c:	7850      	ldrb	r0, [r2, #1]
 800165e:	7859      	ldrb	r1, [r3, #1]
 8001660:	4288      	cmp	r0, r1
 8001662:	d107      	bne.n	8001674 <DHCP_run+0x120>
 8001664:	7890      	ldrb	r0, [r2, #2]
 8001666:	7899      	ldrb	r1, [r3, #2]
 8001668:	4288      	cmp	r0, r1
 800166a:	d103      	bne.n	8001674 <DHCP_run+0x120>
 800166c:	78d2      	ldrb	r2, [r2, #3]
 800166e:	78db      	ldrb	r3, [r3, #3]
 8001670:	429a      	cmp	r2, r3
 8001672:	d008      	beq.n	8001686 <DHCP_run+0x132>
 8001674:	4b15      	ldr	r3, [pc, #84]	; (80016cc <DHCP_run+0x178>)
 8001676:	681b      	ldr	r3, [r3, #0]
 8001678:	4798      	blx	r3
 800167a:	2003      	movs	r0, #3
 800167c:	f7ff fc74 	bl	8000f68 <reset_DHCP_timeout>
 8001680:	2303      	movs	r3, #3
 8001682:	7023      	strb	r3, [r4, #0]
 8001684:	e792      	b.n	80015ac <DHCP_run+0x58>
 8001686:	2004      	movs	r0, #4
 8001688:	e7f8      	b.n	800167c <DHCP_run+0x128>
 800168a:	2d06      	cmp	r5, #6
 800168c:	d1a0      	bne.n	80015d0 <DHCP_run+0x7c>
 800168e:	f7ff fc6b 	bl	8000f68 <reset_DHCP_timeout>
 8001692:	2301      	movs	r3, #1
 8001694:	7023      	strb	r3, [r4, #0]
 8001696:	2004      	movs	r0, #4
 8001698:	e788      	b.n	80015ac <DHCP_run+0x58>
 800169a:	2005      	movs	r0, #5
 800169c:	e786      	b.n	80015ac <DHCP_run+0x58>
 800169e:	bf00      	nop
 80016a0:	20000261 	.word	0x20000261
 80016a4:	20000318 	.word	0x20000318
 80016a8:	20000254 	.word	0x20000254
 80016ac:	20000314 	.word	0x20000314
 80016b0:	20000008 	.word	0x20000008
 80016b4:	2000000c 	.word	0x2000000c
 80016b8:	20000014 	.word	0x20000014
 80016bc:	20000264 	.word	0x20000264
 80016c0:	2000025c 	.word	0x2000025c
 80016c4:	20000308 	.word	0x20000308
 80016c8:	20000260 	.word	0x20000260
 80016cc:	20000010 	.word	0x20000010

080016d0 <W5500_Unselect.8408>:
 80016d0:	2201      	movs	r2, #1
 80016d2:	f44f 5180 	mov.w	r1, #4096	; 0x1000
 80016d6:	4801      	ldr	r0, [pc, #4]	; (80016dc <W5500_Unselect.8408+0xc>)
 80016d8:	f002 b872 	b.w	80037c0 <HAL_GPIO_WritePin>
 80016dc:	40010c00 	.word	0x40010c00

080016e0 <W5500_Select.8405>:
 80016e0:	2200      	movs	r2, #0
 80016e2:	f44f 5180 	mov.w	r1, #4096	; 0x1000
 80016e6:	4801      	ldr	r0, [pc, #4]	; (80016ec <W5500_Select.8405+0xc>)
 80016e8:	f002 b86a 	b.w	80037c0 <HAL_GPIO_WritePin>
 80016ec:	40010c00 	.word	0x40010c00

080016f0 <UART_Printf.8399>:
 80016f0:	b40f      	push	{r0, r1, r2, r3}
 80016f2:	b500      	push	{lr}
 80016f4:	b0c3      	sub	sp, #268	; 0x10c
 80016f6:	ab44      	add	r3, sp, #272	; 0x110
 80016f8:	f853 2b04 	ldr.w	r2, [r3], #4
 80016fc:	f44f 7180 	mov.w	r1, #256	; 0x100
 8001700:	a802      	add	r0, sp, #8
 8001702:	9301      	str	r3, [sp, #4]
 8001704:	f004 fec8 	bl	8006498 <vsniprintf>
 8001708:	a802      	add	r0, sp, #8
 800170a:	f7fe fd21 	bl	8000150 <strlen>
 800170e:	f04f 33ff 	mov.w	r3, #4294967295	; 0xffffffff
 8001712:	b282      	uxth	r2, r0
 8001714:	a902      	add	r1, sp, #8
 8001716:	4804      	ldr	r0, [pc, #16]	; (8001728 <UART_Printf.8399+0x38>)
 8001718:	f003 fe26 	bl	8005368 <HAL_UART_Transmit>
 800171c:	b043      	add	sp, #268	; 0x10c
 800171e:	f85d eb04 	ldr.w	lr, [sp], #4
 8001722:	b004      	add	sp, #16
 8001724:	4770      	bx	lr
 8001726:	bf00      	nop
 8001728:	200004e8 	.word	0x200004e8

0800172c <Callback_IPAssigned.8427>:
 800172c:	b510      	push	{r4, lr}
 800172e:	4664      	mov	r4, ip
 8001730:	f7ff fcba 	bl	80010a8 <getDHCPLeasetime>
 8001734:	4601      	mov	r1, r0
 8001736:	4803      	ldr	r0, [pc, #12]	; (8001744 <Callback_IPAssigned.8427+0x18>)
 8001738:	f7ff ffda 	bl	80016f0 <UART_Printf.8399>
 800173c:	2301      	movs	r3, #1
 800173e:	f884 3400 	strb.w	r3, [r4, #1024]	; 0x400
 8001742:	bd10      	pop	{r4, pc}
 8001744:	08008928 	.word	0x08008928

08001748 <Callback_IPConflict.8430>:
 8001748:	4801      	ldr	r0, [pc, #4]	; (8001750 <Callback_IPConflict.8430+0x8>)
 800174a:	f7ff bfd1 	b.w	80016f0 <UART_Printf.8399>
 800174e:	bf00      	nop
 8001750:	08008955 	.word	0x08008955

08001754 <W5500_WriteBuff.8416>:
 8001754:	460a      	mov	r2, r1
 8001756:	f04f 33ff 	mov.w	r3, #4294967295	; 0xffffffff
 800175a:	4601      	mov	r1, r0
 800175c:	4801      	ldr	r0, [pc, #4]	; (8001764 <W5500_WriteBuff.8416+0x10>)
 800175e:	f002 bc52 	b.w	8004006 <HAL_SPI_Transmit>
 8001762:	bf00      	nop
 8001764:	20000374 	.word	0x20000374

08001768 <W5500_WriteByte.8423>:
 8001768:	b507      	push	{r0, r1, r2, lr}
 800176a:	2101      	movs	r1, #1
 800176c:	f88d 0007 	strb.w	r0, [sp, #7]
 8001770:	f10d 0007 	add.w	r0, sp, #7
 8001774:	f7ff ffee 	bl	8001754 <W5500_WriteBuff.8416>
 8001778:	b003      	add	sp, #12
 800177a:	f85d fb04 	ldr.w	pc, [sp], #4
	...

08001780 <W5500_ReadBuff.8412>:
 8001780:	460a      	mov	r2, r1
 8001782:	f04f 33ff 	mov.w	r3, #4294967295	; 0xffffffff
 8001786:	4601      	mov	r1, r0
 8001788:	4801      	ldr	r0, [pc, #4]	; (8001790 <W5500_ReadBuff.8412+0x10>)
 800178a:	f002 bdd8 	b.w	800433e <HAL_SPI_Receive>
 800178e:	bf00      	nop
 8001790:	20000374 	.word	0x20000374

08001794 <W5500_ReadByte.8419>:
 8001794:	b507      	push	{r0, r1, r2, lr}
 8001796:	2101      	movs	r1, #1
 8001798:	f10d 0007 	add.w	r0, sp, #7
 800179c:	f7ff fff0 	bl	8001780 <W5500_ReadBuff.8412>
 80017a0:	f89d 0007 	ldrb.w	r0, [sp, #7]
 80017a4:	b003      	add	sp, #12
 80017a6:	f85d fb04 	ldr.w	pc, [sp], #4

080017aa <SystemClock_Config>:
 80017aa:	b510      	push	{r4, lr}
 80017ac:	b090      	sub	sp, #64	; 0x40
 80017ae:	2210      	movs	r2, #16
 80017b0:	2100      	movs	r1, #0
 80017b2:	a809      	add	r0, sp, #36	; 0x24
 80017b4:	f004 f9b4 	bl	8005b20 <memset>
 80017b8:	2214      	movs	r2, #20
 80017ba:	2100      	movs	r1, #0
 80017bc:	a801      	add	r0, sp, #4
 80017be:	f004 f9af 	bl	8005b20 <memset>
 80017c2:	2402      	movs	r4, #2
 80017c4:	f44f 3380 	mov.w	r3, #65536	; 0x10000
 80017c8:	2201      	movs	r2, #1
 80017ca:	2100      	movs	r1, #0
 80017cc:	e9cd 2306 	strd	r2, r3, [sp, #24]
 80017d0:	e9cd 430d 	strd	r4, r3, [sp, #52]	; 0x34
 80017d4:	f44f 13c0 	mov.w	r3, #1572864	; 0x180000
 80017d8:	a806      	add	r0, sp, #24
 80017da:	9108      	str	r1, [sp, #32]
 80017dc:	920a      	str	r2, [sp, #40]	; 0x28
 80017de:	930f      	str	r3, [sp, #60]	; 0x3c
 80017e0:	f002 f89c 	bl	800391c <HAL_RCC_OscConfig>
 80017e4:	b108      	cbz	r0, 80017ea <SystemClock_Config+0x40>
 80017e6:	b672      	cpsid	i
 80017e8:	e7fe      	b.n	80017e8 <SystemClock_Config+0x3e>
 80017ea:	230f      	movs	r3, #15
 80017ec:	e9cd 3401 	strd	r3, r4, [sp, #4]
 80017f0:	f44f 6380 	mov.w	r3, #1024	; 0x400
 80017f4:	9003      	str	r0, [sp, #12]
 80017f6:	e9cd 3004 	strd	r3, r0, [sp, #16]
 80017fa:	4621      	mov	r1, r4
 80017fc:	a801      	add	r0, sp, #4
 80017fe:	f002 fa63 	bl	8003cc8 <HAL_RCC_ClockConfig>
 8001802:	b108      	cbz	r0, 8001808 <SystemClock_Config+0x5e>
 8001804:	b672      	cpsid	i
 8001806:	e7fe      	b.n	8001806 <SystemClock_Config+0x5c>
 8001808:	b010      	add	sp, #64	; 0x40
 800180a:	bd10      	pop	{r4, pc}
 800180c:	0000      	movs	r0, r0
	...

08001810 <main>:
 8001810:	2500      	movs	r5, #0
 8001812:	e92d 4880 	stmdb	sp!, {r7, fp, lr}
 8001816:	f2ad 4dcc 	subw	sp, sp, #1228	; 0x4cc
 800181a:	af2c      	add	r7, sp, #176	; 0xb0
 800181c:	f50d 639b 	add.w	r3, sp, #1240	; 0x4d8
 8001820:	f8c7 3414 	str.w	r3, [r7, #1044]	; 0x414
 8001824:	4bac      	ldr	r3, [pc, #688]	; (8001ad8 <main+0x2c8>)
 8001826:	f20d 46b4 	addw	r6, sp, #1204	; 0x4b4
 800182a:	cb0f      	ldmia	r3, {r0, r1, r2, r3}
 800182c:	e886 000f 	stmia.w	r6, {r0, r1, r2, r3}
 8001830:	4baa      	ldr	r3, [pc, #680]	; (8001adc <main+0x2cc>)
 8001832:	4cab      	ldr	r4, [pc, #684]	; (8001ae0 <main+0x2d0>)
 8001834:	60f3      	str	r3, [r6, #12]
 8001836:	f20d 41c4 	addw	r1, sp, #1220	; 0x4c4
 800183a:	4630      	mov	r0, r6
 800183c:	60b7      	str	r7, [r6, #8]
 800183e:	f7ff f923 	bl	8000a88 <__clear_cache>
 8001842:	f887 5400 	strb.w	r5, [r7, #1024]	; 0x400
 8001846:	f001 fcff 	bl	8003248 <HAL_Init>
 800184a:	f7ff ffae 	bl	80017aa <SystemClock_Config>
 800184e:	2210      	movs	r2, #16
 8001850:	4629      	mov	r1, r5
 8001852:	a824      	add	r0, sp, #144	; 0x90
 8001854:	f004 f964 	bl	8005b20 <memset>
 8001858:	69a3      	ldr	r3, [r4, #24]
 800185a:	462a      	mov	r2, r5
 800185c:	f043 0320 	orr.w	r3, r3, #32
 8001860:	61a3      	str	r3, [r4, #24]
 8001862:	69a3      	ldr	r3, [r4, #24]
 8001864:	f641 411e 	movw	r1, #7198	; 0x1c1e
 8001868:	f003 0320 	and.w	r3, r3, #32
 800186c:	9314      	str	r3, [sp, #80]	; 0x50
 800186e:	9b14      	ldr	r3, [sp, #80]	; 0x50
 8001870:	69a3      	ldr	r3, [r4, #24]
 8001872:	489c      	ldr	r0, [pc, #624]	; (8001ae4 <main+0x2d4>)
 8001874:	f043 0304 	orr.w	r3, r3, #4
 8001878:	61a3      	str	r3, [r4, #24]
 800187a:	69a3      	ldr	r3, [r4, #24]
 800187c:	f04f 0901 	mov.w	r9, #1
 8001880:	f003 0304 	and.w	r3, r3, #4
 8001884:	9315      	str	r3, [sp, #84]	; 0x54
 8001886:	9b15      	ldr	r3, [sp, #84]	; 0x54
 8001888:	69a3      	ldr	r3, [r4, #24]
 800188a:	f04f 0a02 	mov.w	sl, #2
 800188e:	f043 0308 	orr.w	r3, r3, #8
 8001892:	61a3      	str	r3, [r4, #24]
 8001894:	69a3      	ldr	r3, [r4, #24]
 8001896:	f44f 5880 	mov.w	r8, #4096	; 0x1000
 800189a:	f003 0308 	and.w	r3, r3, #8
 800189e:	9316      	str	r3, [sp, #88]	; 0x58
 80018a0:	9b16      	ldr	r3, [sp, #88]	; 0x58
 80018a2:	f001 ff8d 	bl	80037c0 <HAL_GPIO_WritePin>
 80018a6:	462a      	mov	r2, r5
 80018a8:	f44f 5180 	mov.w	r1, #4096	; 0x1000
 80018ac:	488e      	ldr	r0, [pc, #568]	; (8001ae8 <main+0x2d8>)
 80018ae:	f001 ff87 	bl	80037c0 <HAL_GPIO_WritePin>
 80018b2:	f640 4306 	movw	r3, #3078	; 0xc06
 80018b6:	e9cd 3924 	strd	r3, r9, [sp, #144]	; 0x90
 80018ba:	2303      	movs	r3, #3
 80018bc:	4889      	ldr	r0, [pc, #548]	; (8001ae4 <main+0x2d4>)
 80018be:	a924      	add	r1, sp, #144	; 0x90
 80018c0:	9327      	str	r3, [sp, #156]	; 0x9c
 80018c2:	9526      	str	r5, [sp, #152]	; 0x98
 80018c4:	f001 fea0 	bl	8003608 <HAL_GPIO_Init>
 80018c8:	f241 0318 	movw	r3, #4120	; 0x1018
 80018cc:	4885      	ldr	r0, [pc, #532]	; (8001ae4 <main+0x2d4>)
 80018ce:	a924      	add	r1, sp, #144	; 0x90
 80018d0:	e9cd 3924 	strd	r3, r9, [sp, #144]	; 0x90
 80018d4:	9526      	str	r5, [sp, #152]	; 0x98
 80018d6:	f8cd a09c 	str.w	sl, [sp, #156]	; 0x9c
 80018da:	f001 fe95 	bl	8003608 <HAL_GPIO_Init>
 80018de:	4882      	ldr	r0, [pc, #520]	; (8001ae8 <main+0x2d8>)
 80018e0:	a924      	add	r1, sp, #144	; 0x90
 80018e2:	e9cd 8924 	strd	r8, r9, [sp, #144]	; 0x90
 80018e6:	e9cd 5a26 	strd	r5, sl, [sp, #152]	; 0x98
 80018ea:	f001 fe8d 	bl	8003608 <HAL_GPIO_Init>
 80018ee:	6963      	ldr	r3, [r4, #20]
 80018f0:	462a      	mov	r2, r5
 80018f2:	ea43 0309 	orr.w	r3, r3, r9
 80018f6:	6163      	str	r3, [r4, #20]
 80018f8:	6963      	ldr	r3, [r4, #20]
 80018fa:	4629      	mov	r1, r5
 80018fc:	ea03 0309 	and.w	r3, r3, r9
 8001900:	200f      	movs	r0, #15
 8001902:	9313      	str	r3, [sp, #76]	; 0x4c
 8001904:	9b13      	ldr	r3, [sp, #76]	; 0x4c
 8001906:	f001 fce7 	bl	80032d8 <HAL_NVIC_SetPriority>
 800190a:	200f      	movs	r0, #15
 800190c:	f001 fd16 	bl	800333c <HAL_NVIC_EnableIRQ>
 8001910:	2210      	movs	r2, #16
 8001912:	4629      	mov	r1, r5
 8001914:	a819      	add	r0, sp, #100	; 0x64
 8001916:	f004 f903 	bl	8005b20 <memset>
 800191a:	221c      	movs	r2, #28
 800191c:	4629      	mov	r1, r5
 800191e:	a81d      	add	r0, sp, #116	; 0x74
 8001920:	e9cd 5517 	strd	r5, r5, [sp, #92]	; 0x5c
 8001924:	f004 f8fc 	bl	8005b20 <memset>
 8001928:	2220      	movs	r2, #32
 800192a:	4629      	mov	r1, r5
 800192c:	a824      	add	r0, sp, #144	; 0x90
 800192e:	f004 f8f7 	bl	8005b20 <memset>
 8001932:	4c6e      	ldr	r4, [pc, #440]	; (8001aec <main+0x2dc>)
 8001934:	4b6e      	ldr	r3, [pc, #440]	; (8001af0 <main+0x2e0>)
 8001936:	f04f 0980 	mov.w	r9, #128	; 0x80
 800193a:	e9c4 3500 	strd	r3, r5, [r4]
 800193e:	f240 331f 	movw	r3, #799	; 0x31f
 8001942:	e9c4 3503 	strd	r3, r5, [r4, #12]
 8001946:	2307      	movs	r3, #7
 8001948:	4620      	mov	r0, r4
 800194a:	e9c4 3905 	strd	r3, r9, [r4, #20]
 800194e:	60a5      	str	r5, [r4, #8]
 8001950:	f002 ff98 	bl	8004884 <HAL_TIM_Base_Init>
 8001954:	b108      	cbz	r0, 800195a <main+0x14a>
 8001956:	b672      	cpsid	i
 8001958:	e7fe      	b.n	8001958 <main+0x148>
 800195a:	4620      	mov	r0, r4
 800195c:	a919      	add	r1, sp, #100	; 0x64
 800195e:	f8cd 8064 	str.w	r8, [sp, #100]	; 0x64
 8001962:	f003 f94d 	bl	8004c00 <HAL_TIM_ConfigClockSource>
 8001966:	b108      	cbz	r0, 800196c <main+0x15c>
 8001968:	b672      	cpsid	i
 800196a:	e7fe      	b.n	800196a <main+0x15a>
 800196c:	4620      	mov	r0, r4
 800196e:	f002 ffb5 	bl	80048dc <HAL_TIM_OC_Init>
 8001972:	b108      	cbz	r0, 8001978 <main+0x168>
 8001974:	b672      	cpsid	i
 8001976:	e7fe      	b.n	8001976 <main+0x166>
 8001978:	2108      	movs	r1, #8
 800197a:	4620      	mov	r0, r4
 800197c:	f003 f806 	bl	800498c <HAL_TIM_OnePulse_Init>
 8001980:	b108      	cbz	r0, 8001986 <main+0x176>
 8001982:	b672      	cpsid	i
 8001984:	e7fe      	b.n	8001984 <main+0x174>
 8001986:	2530      	movs	r5, #48	; 0x30
 8001988:	4620      	mov	r0, r4
 800198a:	a917      	add	r1, sp, #92	; 0x5c
 800198c:	e9cd 5917 	strd	r5, r9, [sp, #92]	; 0x5c
 8001990:	f003 fc04 	bl	800519c <HAL_TIMEx_MasterConfigSynchronization>
 8001994:	4602      	mov	r2, r0
 8001996:	b108      	cbz	r0, 800199c <main+0x18c>
 8001998:	b672      	cpsid	i
 800199a:	e7fe      	b.n	800199a <main+0x18a>
 800199c:	e9cd 501d 	strd	r5, r0, [sp, #116]	; 0x74
 80019a0:	e9cd 001f 	strd	r0, r0, [sp, #124]	; 0x7c
 80019a4:	e9cd 0021 	strd	r0, r0, [sp, #132]	; 0x84
 80019a8:	9023      	str	r0, [sp, #140]	; 0x8c
 80019aa:	a91d      	add	r1, sp, #116	; 0x74
 80019ac:	4620      	mov	r0, r4
 80019ae:	f003 f847 	bl	8004a40 <HAL_TIM_OC_ConfigChannel>
 80019b2:	b108      	cbz	r0, 80019b8 <main+0x1a8>
 80019b4:	b672      	cpsid	i
 80019b6:	e7fe      	b.n	80019b6 <main+0x1a6>
 80019b8:	6822      	ldr	r2, [r4, #0]
 80019ba:	4620      	mov	r0, r4
 80019bc:	6993      	ldr	r3, [r2, #24]
 80019be:	a91d      	add	r1, sp, #116	; 0x74
 80019c0:	f043 0308 	orr.w	r3, r3, #8
 80019c4:	6193      	str	r3, [r2, #24]
 80019c6:	2204      	movs	r2, #4
 80019c8:	f003 f83a 	bl	8004a40 <HAL_TIM_OC_ConfigChannel>
 80019cc:	b108      	cbz	r0, 80019d2 <main+0x1c2>
 80019ce:	b672      	cpsid	i
 80019d0:	e7fe      	b.n	80019d0 <main+0x1c0>
 80019d2:	2208      	movs	r2, #8
 80019d4:	4620      	mov	r0, r4
 80019d6:	a91d      	add	r1, sp, #116	; 0x74
 80019d8:	f003 f832 	bl	8004a40 <HAL_TIM_OC_ConfigChannel>
 80019dc:	b108      	cbz	r0, 80019e2 <main+0x1d2>
 80019de:	b672      	cpsid	i
 80019e0:	e7fe      	b.n	80019e0 <main+0x1d0>
 80019e2:	220c      	movs	r2, #12
 80019e4:	4620      	mov	r0, r4
 80019e6:	a91d      	add	r1, sp, #116	; 0x74
 80019e8:	f003 f82a 	bl	8004a40 <HAL_TIM_OC_ConfigChannel>
 80019ec:	b108      	cbz	r0, 80019f2 <main+0x1e2>
 80019ee:	b672      	cpsid	i
 80019f0:	e7fe      	b.n	80019f0 <main+0x1e0>
 80019f2:	f44f 5300 	mov.w	r3, #8192	; 0x2000
 80019f6:	e9cd 0024 	strd	r0, r0, [sp, #144]	; 0x90
 80019fa:	e9cd 0026 	strd	r0, r0, [sp, #152]	; 0x98
 80019fe:	9028      	str	r0, [sp, #160]	; 0xa0
 8001a00:	902b      	str	r0, [sp, #172]	; 0xac
 8001a02:	a924      	add	r1, sp, #144	; 0x90
 8001a04:	4620      	mov	r0, r4
 8001a06:	9329      	str	r3, [sp, #164]	; 0xa4
 8001a08:	f003 fbf6 	bl	80051f8 <HAL_TIMEx_ConfigBreakDeadTime>
 8001a0c:	b108      	cbz	r0, 8001a12 <main+0x202>
 8001a0e:	b672      	cpsid	i
 8001a10:	e7fe      	b.n	8001a10 <main+0x200>
 8001a12:	4836      	ldr	r0, [pc, #216]	; (8001aec <main+0x2dc>)
 8001a14:	f000 fef8 	bl	8002808 <HAL_TIM_MspPostInit>
 8001a18:	f44f 33e1 	mov.w	r3, #115200	; 0x1c200
 8001a1c:	4835      	ldr	r0, [pc, #212]	; (8001af4 <main+0x2e4>)
 8001a1e:	f8df e0dc 	ldr.w	lr, [pc, #220]	; 8001afc <main+0x2ec>
 8001a22:	220c      	movs	r2, #12
 8001a24:	e9c0 e300 	strd	lr, r3, [r0]
 8001a28:	2300      	movs	r3, #0
 8001a2a:	e9c0 3302 	strd	r3, r3, [r0, #8]
 8001a2e:	e9c0 2305 	strd	r2, r3, [r0, #20]
 8001a32:	6103      	str	r3, [r0, #16]
 8001a34:	61c3      	str	r3, [r0, #28]
 8001a36:	f003 fc69 	bl	800530c <HAL_UART_Init>
 8001a3a:	4605      	mov	r5, r0
 8001a3c:	b108      	cbz	r0, 8001a42 <main+0x232>
 8001a3e:	b672      	cpsid	i
 8001a40:	e7fe      	b.n	8001a40 <main+0x230>
 8001a42:	4601      	mov	r1, r0
 8001a44:	2210      	movs	r2, #16
 8001a46:	a819      	add	r0, sp, #100	; 0x64
 8001a48:	f004 f86a 	bl	8005b20 <memset>
 8001a4c:	2214      	movs	r2, #20
 8001a4e:	4629      	mov	r1, r5
 8001a50:	a824      	add	r0, sp, #144	; 0x90
 8001a52:	f004 f865 	bl	8005b20 <memset>
 8001a56:	2210      	movs	r2, #16
 8001a58:	4629      	mov	r1, r5
 8001a5a:	a81d      	add	r0, sp, #116	; 0x74
 8001a5c:	f64f 79ff 	movw	r9, #65535	; 0xffff
 8001a60:	f04f 0a80 	mov.w	sl, #128	; 0x80
 8001a64:	e9cd 5517 	strd	r5, r5, [sp, #92]	; 0x5c
 8001a68:	f004 f85a 	bl	8005b20 <memset>
 8001a6c:	f04f 4380 	mov.w	r3, #1073741824	; 0x40000000
 8001a70:	4c21      	ldr	r4, [pc, #132]	; (8001af8 <main+0x2e8>)
 8001a72:	4620      	mov	r0, r4
 8001a74:	e9c4 3500 	strd	r3, r5, [r4]
 8001a78:	e9c4 9503 	strd	r9, r5, [r4, #12]
 8001a7c:	60a5      	str	r5, [r4, #8]
 8001a7e:	f8c4 a018 	str.w	sl, [r4, #24]
 8001a82:	f002 feff 	bl	8004884 <HAL_TIM_Base_Init>
 8001a86:	b108      	cbz	r0, 8001a8c <main+0x27c>
 8001a88:	b672      	cpsid	i
 8001a8a:	e7fe      	b.n	8001a8a <main+0x27a>
 8001a8c:	f44f 5880 	mov.w	r8, #4096	; 0x1000
 8001a90:	4620      	mov	r0, r4
 8001a92:	a919      	add	r1, sp, #100	; 0x64
 8001a94:	f8cd 8064 	str.w	r8, [sp, #100]	; 0x64
 8001a98:	f003 f8b2 	bl	8004c00 <HAL_TIM_ConfigClockSource>
 8001a9c:	b108      	cbz	r0, 8001aa2 <main+0x292>
 8001a9e:	b672      	cpsid	i
 8001aa0:	e7fe      	b.n	8001aa0 <main+0x290>
 8001aa2:	4620      	mov	r0, r4
 8001aa4:	f002 ff46 	bl	8004934 <HAL_TIM_IC_Init>
 8001aa8:	b108      	cbz	r0, 8001aae <main+0x29e>
 8001aaa:	b672      	cpsid	i
 8001aac:	e7fe      	b.n	8001aac <main+0x29c>
 8001aae:	2304      	movs	r3, #4
 8001ab0:	2520      	movs	r5, #32
 8001ab2:	4620      	mov	r0, r4
 8001ab4:	a924      	add	r1, sp, #144	; 0x90
 8001ab6:	e9cd 3524 	strd	r3, r5, [sp, #144]	; 0x90
 8001aba:	f003 f987 	bl	8004dcc <HAL_TIM_SlaveConfigSynchro>
 8001abe:	b108      	cbz	r0, 8001ac4 <main+0x2b4>
 8001ac0:	b672      	cpsid	i
 8001ac2:	e7fe      	b.n	8001ac2 <main+0x2b2>
 8001ac4:	e9cd 0017 	strd	r0, r0, [sp, #92]	; 0x5c
 8001ac8:	a917      	add	r1, sp, #92	; 0x5c
 8001aca:	4620      	mov	r0, r4
 8001acc:	f003 fb66 	bl	800519c <HAL_TIMEx_MasterConfigSynchronization>
 8001ad0:	4602      	mov	r2, r0
 8001ad2:	b1a8      	cbz	r0, 8001b00 <main+0x2f0>
 8001ad4:	b672      	cpsid	i
 8001ad6:	e7fe      	b.n	8001ad6 <main+0x2c6>
 8001ad8:	08008900 	.word	0x08008900
 8001adc:	0800172d 	.word	0x0800172d
 8001ae0:	40021000 	.word	0x40021000
 8001ae4:	40010c00 	.word	0x40010c00
 8001ae8:	40010800 	.word	0x40010800
 8001aec:	2000053c 	.word	0x2000053c
 8001af0:	40012c00 	.word	0x40012c00
 8001af4:	200004e8 	.word	0x200004e8
 8001af8:	2000058c 	.word	0x2000058c
 8001afc:	40013800 	.word	0x40013800
 8001b00:	2301      	movs	r3, #1
 8001b02:	901d      	str	r0, [sp, #116]	; 0x74
 8001b04:	e9cd 301e 	strd	r3, r0, [sp, #120]	; 0x78
 8001b08:	9020      	str	r0, [sp, #128]	; 0x80
 8001b0a:	a91d      	add	r1, sp, #116	; 0x74
 8001b0c:	4620      	mov	r0, r4
 8001b0e:	f002 ffe9 	bl	8004ae4 <HAL_TIM_IC_ConfigChannel>
 8001b12:	4683      	mov	fp, r0
 8001b14:	b108      	cbz	r0, 8001b1a <main+0x30a>
 8001b16:	b672      	cpsid	i
 8001b18:	e7fe      	b.n	8001b18 <main+0x308>
 8001b1a:	4601      	mov	r1, r0
 8001b1c:	2210      	movs	r2, #16
 8001b1e:	a824      	add	r0, sp, #144	; 0x90
 8001b20:	f003 fffe 	bl	8005b20 <memset>
 8001b24:	2302      	movs	r3, #2
 8001b26:	4c5a      	ldr	r4, [pc, #360]	; (8001c90 <main+0x480>)
 8001b28:	f8df c184 	ldr.w	ip, [pc, #388]	; 8001cb0 <main+0x4a0>
 8001b2c:	4620      	mov	r0, r4
 8001b2e:	e9cd bb1d 	strd	fp, fp, [sp, #116]	; 0x74
 8001b32:	e9c4 c300 	strd	ip, r3, [r4]
 8001b36:	e9c4 b902 	strd	fp, r9, [r4, #8]
 8001b3a:	f8c4 b010 	str.w	fp, [r4, #16]
 8001b3e:	f8c4 a018 	str.w	sl, [r4, #24]
 8001b42:	f002 fe9f 	bl	8004884 <HAL_TIM_Base_Init>
 8001b46:	b108      	cbz	r0, 8001b4c <main+0x33c>
 8001b48:	b672      	cpsid	i
 8001b4a:	e7fe      	b.n	8001b4a <main+0x33a>
 8001b4c:	4620      	mov	r0, r4
 8001b4e:	a924      	add	r1, sp, #144	; 0x90
 8001b50:	f8cd 8090 	str.w	r8, [sp, #144]	; 0x90
 8001b54:	f003 f854 	bl	8004c00 <HAL_TIM_ConfigClockSource>
 8001b58:	b108      	cbz	r0, 8001b5e <main+0x34e>
 8001b5a:	b672      	cpsid	i
 8001b5c:	e7fe      	b.n	8001b5c <main+0x34c>
 8001b5e:	e9cd 501d 	strd	r5, r0, [sp, #116]	; 0x74
 8001b62:	a91d      	add	r1, sp, #116	; 0x74
 8001b64:	4620      	mov	r0, r4
 8001b66:	f003 fb19 	bl	800519c <HAL_TIMEx_MasterConfigSynchronization>
 8001b6a:	b108      	cbz	r0, 8001b70 <main+0x360>
 8001b6c:	b672      	cpsid	i
 8001b6e:	e7fe      	b.n	8001b6e <main+0x35e>
 8001b70:	2510      	movs	r5, #16
 8001b72:	f04f 0800 	mov.w	r8, #0
 8001b76:	462a      	mov	r2, r5
 8001b78:	2100      	movs	r1, #0
 8001b7a:	a819      	add	r0, sp, #100	; 0x64
 8001b7c:	f003 ffd0 	bl	8005b20 <memset>
 8001b80:	2214      	movs	r2, #20
 8001b82:	2100      	movs	r1, #0
 8001b84:	a81d      	add	r0, sp, #116	; 0x74
 8001b86:	f003 ffcb 	bl	8005b20 <memset>
 8001b8a:	221c      	movs	r2, #28
 8001b8c:	4641      	mov	r1, r8
 8001b8e:	a824      	add	r0, sp, #144	; 0x90
 8001b90:	4c40      	ldr	r4, [pc, #256]	; (8001c94 <main+0x484>)
 8001b92:	e9cd 8817 	strd	r8, r8, [sp, #92]	; 0x5c
 8001b96:	f003 ffc3 	bl	8005b20 <memset>
 8001b9a:	4b3f      	ldr	r3, [pc, #252]	; (8001c98 <main+0x488>)
 8001b9c:	f04f 0a80 	mov.w	sl, #128	; 0x80
 8001ba0:	e9c4 3800 	strd	r3, r8, [r4]
 8001ba4:	f247 63c0 	movw	r3, #30400	; 0x76c0
 8001ba8:	4620      	mov	r0, r4
 8001baa:	e9c4 3803 	strd	r3, r8, [r4, #12]
 8001bae:	f8c4 8008 	str.w	r8, [r4, #8]
 8001bb2:	f8c4 a018 	str.w	sl, [r4, #24]
 8001bb6:	f002 fe65 	bl	8004884 <HAL_TIM_Base_Init>
 8001bba:	b108      	cbz	r0, 8001bc0 <main+0x3b0>
 8001bbc:	b672      	cpsid	i
 8001bbe:	e7fe      	b.n	8001bbe <main+0x3ae>
 8001bc0:	f44f 5980 	mov.w	r9, #4096	; 0x1000
 8001bc4:	4620      	mov	r0, r4
 8001bc6:	a919      	add	r1, sp, #100	; 0x64
 8001bc8:	f8cd 9064 	str.w	r9, [sp, #100]	; 0x64
 8001bcc:	f003 f818 	bl	8004c00 <HAL_TIM_ConfigClockSource>
 8001bd0:	b108      	cbz	r0, 8001bd6 <main+0x3c6>
 8001bd2:	b672      	cpsid	i
 8001bd4:	e7fe      	b.n	8001bd4 <main+0x3c4>
 8001bd6:	4620      	mov	r0, r4
 8001bd8:	f002 fe80 	bl	80048dc <HAL_TIM_OC_Init>
 8001bdc:	b108      	cbz	r0, 8001be2 <main+0x3d2>
 8001bde:	b672      	cpsid	i
 8001be0:	e7fe      	b.n	8001be0 <main+0x3d0>
 8001be2:	2108      	movs	r1, #8
 8001be4:	4620      	mov	r0, r4
 8001be6:	f002 fed1 	bl	800498c <HAL_TIM_OnePulse_Init>
 8001bea:	b108      	cbz	r0, 8001bf0 <main+0x3e0>
 8001bec:	b672      	cpsid	i
 8001bee:	e7fe      	b.n	8001bee <main+0x3de>
 8001bf0:	f04f 0806 	mov.w	r8, #6
 8001bf4:	a91d      	add	r1, sp, #116	; 0x74
 8001bf6:	e9cd 801d 	strd	r8, r0, [sp, #116]	; 0x74
 8001bfa:	4620      	mov	r0, r4
 8001bfc:	f003 f8e6 	bl	8004dcc <HAL_TIM_SlaveConfigSynchro>
 8001c00:	b108      	cbz	r0, 8001c06 <main+0x3f6>
 8001c02:	b672      	cpsid	i
 8001c04:	e7fe      	b.n	8001c04 <main+0x3f4>
 8001c06:	2330      	movs	r3, #48	; 0x30
 8001c08:	4620      	mov	r0, r4
 8001c0a:	a917      	add	r1, sp, #92	; 0x5c
 8001c0c:	e9cd 3a17 	strd	r3, sl, [sp, #92]	; 0x5c
 8001c10:	f003 fac4 	bl	800519c <HAL_TIMEx_MasterConfigSynchronization>
 8001c14:	4602      	mov	r2, r0
 8001c16:	b108      	cbz	r0, 8001c1c <main+0x40c>
 8001c18:	b672      	cpsid	i
 8001c1a:	e7fe      	b.n	8001c1a <main+0x40a>
 8001c1c:	e9cd 5024 	strd	r5, r0, [sp, #144]	; 0x90
 8001c20:	9026      	str	r0, [sp, #152]	; 0x98
 8001c22:	9028      	str	r0, [sp, #160]	; 0xa0
 8001c24:	a924      	add	r1, sp, #144	; 0x90
 8001c26:	4620      	mov	r0, r4
 8001c28:	f002 ff0a 	bl	8004a40 <HAL_TIM_OC_ConfigChannel>
 8001c2c:	4603      	mov	r3, r0
 8001c2e:	b108      	cbz	r0, 8001c34 <main+0x424>
 8001c30:	b672      	cpsid	i
 8001c32:	e7fe      	b.n	8001c32 <main+0x422>
 8001c34:	4819      	ldr	r0, [pc, #100]	; (8001c9c <main+0x48c>)
 8001c36:	4a1a      	ldr	r2, [pc, #104]	; (8001ca0 <main+0x490>)
 8001c38:	4c1a      	ldr	r4, [pc, #104]	; (8001ca4 <main+0x494>)
 8001c3a:	e9c0 3302 	strd	r3, r3, [r0, #8]
 8001c3e:	e9c0 4200 	strd	r4, r2, [r0]
 8001c42:	f44f 4280 	mov.w	r2, #16384	; 0x4000
 8001c46:	e9c0 3306 	strd	r3, r3, [r0, #24]
 8001c4a:	e9c0 2304 	strd	r2, r3, [r0, #16]
 8001c4e:	6203      	str	r3, [r0, #32]
 8001c50:	f001 fdbc 	bl	80037cc <HAL_I2C_Init>
 8001c54:	4603      	mov	r3, r0
 8001c56:	b108      	cbz	r0, 8001c5c <main+0x44c>
 8001c58:	b672      	cpsid	i
 8001c5a:	e7fe      	b.n	8001c5a <main+0x44a>
 8001c5c:	f44f 7282 	mov.w	r2, #260	; 0x104
 8001c60:	4811      	ldr	r0, [pc, #68]	; (8001ca8 <main+0x498>)
 8001c62:	4912      	ldr	r1, [pc, #72]	; (8001cac <main+0x49c>)
 8001c64:	e9c0 3302 	strd	r3, r3, [r0, #8]
 8001c68:	e9c0 1200 	strd	r1, r2, [r0]
 8001c6c:	f44f 7200 	mov.w	r2, #512	; 0x200
 8001c70:	e9c0 3304 	strd	r3, r3, [r0, #16]
 8001c74:	e9c0 2306 	strd	r2, r3, [r0, #24]
 8001c78:	e9c0 3308 	strd	r3, r3, [r0, #32]
 8001c7c:	6283      	str	r3, [r0, #40]	; 0x28
 8001c7e:	230a      	movs	r3, #10
 8001c80:	62c3      	str	r3, [r0, #44]	; 0x2c
 8001c82:	f002 f968 	bl	8003f56 <HAL_SPI_Init>
 8001c86:	4604      	mov	r4, r0
 8001c88:	b1a0      	cbz	r0, 8001cb4 <main+0x4a4>
 8001c8a:	b672      	cpsid	i
 8001c8c:	e7fe      	b.n	8001c8c <main+0x47c>
 8001c8e:	bf00      	nop
 8001c90:	200003cc 	.word	0x200003cc
 8001c94:	20000490 	.word	0x20000490
 8001c98:	40000400 	.word	0x40000400
 8001c9c:	20000418 	.word	0x20000418
 8001ca0:	000186a0 	.word	0x000186a0
 8001ca4:	40005400 	.word	0x40005400
 8001ca8:	20000374 	.word	0x20000374
 8001cac:	40003800 	.word	0x40003800
 8001cb0:	40000800 	.word	0x40000800
 8001cb4:	4b8c      	ldr	r3, [pc, #560]	; (8001ee8 <main+0x6d8>)
 8001cb6:	f8df a2bc 	ldr.w	sl, [pc, #700]	; 8001f74 <main+0x764>
 8001cba:	6018      	str	r0, [r3, #0]
 8001cbc:	f8da 300c 	ldr.w	r3, [sl, #12]
 8001cc0:	498a      	ldr	r1, [pc, #552]	; (8001eec <main+0x6dc>)
 8001cc2:	f423 6340 	bic.w	r3, r3, #3072	; 0xc00
 8001cc6:	f023 0306 	bic.w	r3, r3, #6
 8001cca:	f8ca 300c 	str.w	r3, [sl, #12]
 8001cce:	4888      	ldr	r0, [pc, #544]	; (8001ef0 <main+0x6e0>)
 8001cd0:	f004 fbae 	bl	8006430 <strcpy>
 8001cd4:	f44f 737a 	mov.w	r3, #1000	; 0x3e8
 8001cd8:	2264      	movs	r2, #100	; 0x64
 8001cda:	4985      	ldr	r1, [pc, #532]	; (8001ef0 <main+0x6e0>)
 8001cdc:	4885      	ldr	r0, [pc, #532]	; (8001ef4 <main+0x6e4>)
 8001cde:	f003 fb43 	bl	8005368 <HAL_UART_Transmit>
 8001ce2:	4622      	mov	r2, r4
 8001ce4:	4629      	mov	r1, r5
 8001ce6:	4650      	mov	r0, sl
 8001ce8:	f001 fd6a 	bl	80037c0 <HAL_GPIO_WritePin>
 8001cec:	2201      	movs	r2, #1
 8001cee:	4629      	mov	r1, r5
 8001cf0:	4650      	mov	r0, sl
 8001cf2:	f001 fd65 	bl	80037c0 <HAL_GPIO_WritePin>
 8001cf6:	2201      	movs	r2, #1
 8001cf8:	4649      	mov	r1, r9
 8001cfa:	4650      	mov	r0, sl
 8001cfc:	f001 fd60 	bl	80037c0 <HAL_GPIO_WritePin>
 8001d00:	f44f 707a 	mov.w	r0, #1000	; 0x3e8
 8001d04:	f001 fac4 	bl	8003290 <HAL_Delay>
 8001d08:	487b      	ldr	r0, [pc, #492]	; (8001ef8 <main+0x6e8>)
 8001d0a:	f7ff fcf1 	bl	80016f0 <UART_Printf.8399>
 8001d0e:	487b      	ldr	r0, [pc, #492]	; (8001efc <main+0x6ec>)
 8001d10:	f7ff fcee 	bl	80016f0 <UART_Printf.8399>
 8001d14:	497a      	ldr	r1, [pc, #488]	; (8001f00 <main+0x6f0>)
 8001d16:	487b      	ldr	r0, [pc, #492]	; (8001f04 <main+0x6f4>)
 8001d18:	f001 f962 	bl	8002fe0 <reg_wizchip_cs_cbfunc>
 8001d1c:	497a      	ldr	r1, [pc, #488]	; (8001f08 <main+0x6f8>)
 8001d1e:	487b      	ldr	r0, [pc, #492]	; (8001f0c <main+0x6fc>)
 8001d20:	f001 f970 	bl	8003004 <reg_wizchip_spi_cbfunc>
 8001d24:	497a      	ldr	r1, [pc, #488]	; (8001f10 <main+0x700>)
 8001d26:	487b      	ldr	r0, [pc, #492]	; (8001f14 <main+0x704>)
 8001d28:	f001 f984 	bl	8003034 <reg_wizchip_spiburst_cbfunc>
 8001d2c:	487a      	ldr	r0, [pc, #488]	; (8001f18 <main+0x708>)
 8001d2e:	f7ff fcdf 	bl	80016f0 <UART_Printf.8399>
 8001d32:	4a7a      	ldr	r2, [pc, #488]	; (8001f1c <main+0x70c>)
 8001d34:	ab1d      	add	r3, sp, #116	; 0x74
 8001d36:	6810      	ldr	r0, [r2, #0]
 8001d38:	6851      	ldr	r1, [r2, #4]
 8001d3a:	c303      	stmia	r3!, {r0, r1}
 8001d3c:	a91d      	add	r1, sp, #116	; 0x74
 8001d3e:	4608      	mov	r0, r1
 8001d40:	f001 f9cd 	bl	80030de <wizchip_init>
 8001d44:	4876      	ldr	r0, [pc, #472]	; (8001f20 <main+0x710>)
 8001d46:	f7ff fcd3 	bl	80016f0 <UART_Printf.8399>
 8001d4a:	4621      	mov	r1, r4
 8001d4c:	2212      	movs	r2, #18
 8001d4e:	a825      	add	r0, sp, #148	; 0x94
 8001d50:	f003 fee6 	bl	8005b20 <memset>
 8001d54:	4b73      	ldr	r3, [pc, #460]	; (8001f24 <main+0x714>)
 8001d56:	4642      	mov	r2, r8
 8001d58:	6818      	ldr	r0, [r3, #0]
 8001d5a:	889b      	ldrh	r3, [r3, #4]
 8001d5c:	9024      	str	r0, [sp, #144]	; 0x90
 8001d5e:	f8ad 3094 	strh.w	r3, [sp, #148]	; 0x94
 8001d62:	2302      	movs	r3, #2
 8001d64:	f44f 6010 	mov.w	r0, #2304	; 0x900
 8001d68:	a924      	add	r1, sp, #144	; 0x90
 8001d6a:	f88d 30a6 	strb.w	r3, [sp, #166]	; 0xa6
 8001d6e:	f001 f835 	bl	8002ddc <WIZCHIP_WRITE_BUF>
 8001d72:	4639      	mov	r1, r7
 8001d74:	4620      	mov	r0, r4
 8001d76:	f7ff f907 	bl	8000f88 <DHCP_init>
 8001d7a:	486b      	ldr	r0, [pc, #428]	; (8001f28 <main+0x718>)
 8001d7c:	f7ff fcb8 	bl	80016f0 <UART_Printf.8399>
 8001d80:	f046 0101 	orr.w	r1, r6, #1
 8001d84:	4608      	mov	r0, r1
 8001d86:	4a69      	ldr	r2, [pc, #420]	; (8001f2c <main+0x71c>)
 8001d88:	f7fe fec2 	bl	8000b10 <reg_dhcp_cbfunc>
 8001d8c:	4868      	ldr	r0, [pc, #416]	; (8001f30 <main+0x720>)
 8001d8e:	f7ff fcaf 	bl	80016f0 <UART_Printf.8399>
 8001d92:	f242 7411 	movw	r4, #10001	; 0x2711
 8001d96:	f897 3400 	ldrb.w	r3, [r7, #1024]	; 0x400
 8001d9a:	b90b      	cbnz	r3, 8001da0 <main+0x590>
 8001d9c:	3c01      	subs	r4, #1
 8001d9e:	d156      	bne.n	8001e4e <main+0x63e>
 8001da0:	f89d 34b0 	ldrb.w	r3, [sp, #1200]	; 0x4b0
 8001da4:	2b00      	cmp	r3, #0
 8001da6:	d158      	bne.n	8001e5a <main+0x64a>
 8001da8:	4862      	ldr	r0, [pc, #392]	; (8001f34 <main+0x724>)
 8001daa:	f7ff fca1 	bl	80016f0 <UART_Printf.8399>
 8001dae:	2400      	movs	r4, #0
 8001db0:	4961      	ldr	r1, [pc, #388]	; (8001f38 <main+0x728>)
 8001db2:	484f      	ldr	r0, [pc, #316]	; (8001ef0 <main+0x6e0>)
 8001db4:	f004 fb3c 	bl	8006430 <strcpy>
 8001db8:	2264      	movs	r2, #100	; 0x64
 8001dba:	494d      	ldr	r1, [pc, #308]	; (8001ef0 <main+0x6e0>)
 8001dbc:	f44f 737a 	mov.w	r3, #1000	; 0x3e8
 8001dc0:	484c      	ldr	r0, [pc, #304]	; (8001ef4 <main+0x6e4>)
 8001dc2:	f003 fad1 	bl	8005368 <HAL_UART_Transmit>
 8001dc6:	4b5d      	ldr	r3, [pc, #372]	; (8001f3c <main+0x72c>)
 8001dc8:	485d      	ldr	r0, [pc, #372]	; (8001f40 <main+0x730>)
 8001dca:	801c      	strh	r4, [r3, #0]
 8001dcc:	f002 fbc6 	bl	800455c <HAL_TIM_Base_Start_IT>
 8001dd0:	485c      	ldr	r0, [pc, #368]	; (8001f44 <main+0x734>)
 8001dd2:	f002 fbc3 	bl	800455c <HAL_TIM_Base_Start_IT>
 8001dd6:	4621      	mov	r1, r4
 8001dd8:	485b      	ldr	r0, [pc, #364]	; (8001f48 <main+0x738>)
 8001dda:	f003 f98b 	bl	80050f4 <HAL_TIM_IC_Stop_DMA>
 8001dde:	230a      	movs	r3, #10
 8001de0:	495a      	ldr	r1, [pc, #360]	; (8001f4c <main+0x73c>)
 8001de2:	2200      	movs	r2, #0
 8001de4:	800b      	strh	r3, [r1, #0]
 8001de6:	2300      	movs	r3, #0
 8001de8:	f04f 0a00 	mov.w	sl, #0
 8001dec:	4c58      	ldr	r4, [pc, #352]	; (8001f50 <main+0x740>)
 8001dee:	4859      	ldr	r0, [pc, #356]	; (8001f54 <main+0x744>)
 8001df0:	e9c4 2300 	strd	r2, r3, [r4]
 8001df4:	e9c0 2300 	strd	r2, r3, [r0]
 8001df8:	e9cd 2310 	strd	r2, r3, [sp, #64]	; 0x40
 8001dfc:	f8df b178 	ldr.w	fp, [pc, #376]	; 8001f78 <main+0x768>
 8001e00:	910f      	str	r1, [sp, #60]	; 0x3c
 8001e02:	2001      	movs	r0, #1
 8001e04:	f001 fa44 	bl	8003290 <HAL_Delay>
 8001e08:	4b53      	ldr	r3, [pc, #332]	; (8001f58 <main+0x748>)
 8001e0a:	781b      	ldrb	r3, [r3, #0]
 8001e0c:	2b00      	cmp	r3, #0
 8001e0e:	d0f8      	beq.n	8001e02 <main+0x5f2>
 8001e10:	4b52      	ldr	r3, [pc, #328]	; (8001f5c <main+0x74c>)
 8001e12:	881b      	ldrh	r3, [r3, #0]
 8001e14:	2b00      	cmp	r3, #0
 8001e16:	d0f4      	beq.n	8001e02 <main+0x5f2>
 8001e18:	4b51      	ldr	r3, [pc, #324]	; (8001f60 <main+0x750>)
 8001e1a:	881b      	ldrh	r3, [r3, #0]
 8001e1c:	2b00      	cmp	r3, #0
 8001e1e:	d0f0      	beq.n	8001e02 <main+0x5f2>
 8001e20:	9b0f      	ldr	r3, [sp, #60]	; 0x3c
 8001e22:	990f      	ldr	r1, [sp, #60]	; 0x3c
 8001e24:	881b      	ldrh	r3, [r3, #0]
 8001e26:	1e5a      	subs	r2, r3, #1
 8001e28:	800a      	strh	r2, [r1, #0]
 8001e2a:	2b00      	cmp	r3, #0
 8001e2c:	f000 80a6 	beq.w	8001f7c <main+0x76c>
 8001e30:	4b4c      	ldr	r3, [pc, #304]	; (8001f64 <main+0x754>)
 8001e32:	e9d3 2300 	ldrd	r2, r3, [r3]
 8001e36:	e9c4 2300 	strd	r2, r3, [r4]
 8001e3a:	4b4b      	ldr	r3, [pc, #300]	; (8001f68 <main+0x758>)
 8001e3c:	e9d3 0100 	ldrd	r0, r1, [r3]
 8001e40:	4b44      	ldr	r3, [pc, #272]	; (8001f54 <main+0x744>)
 8001e42:	e9c3 0100 	strd	r0, r1, [r3]
 8001e46:	2200      	movs	r2, #0
 8001e48:	4b43      	ldr	r3, [pc, #268]	; (8001f58 <main+0x748>)
 8001e4a:	701a      	strb	r2, [r3, #0]
 8001e4c:	e7d9      	b.n	8001e02 <main+0x5f2>
 8001e4e:	f7ff fb81 	bl	8001554 <DHCP_run>
 8001e52:	2064      	movs	r0, #100	; 0x64
 8001e54:	f001 fa1c 	bl	8003290 <HAL_Delay>
 8001e58:	e79d      	b.n	8001d96 <main+0x586>
 8001e5a:	f10d 0096 	add.w	r0, sp, #150	; 0x96
 8001e5e:	f7ff f8f3 	bl	8001048 <getIPfromDHCP>
 8001e62:	f10d 009e 	add.w	r0, sp, #158	; 0x9e
 8001e66:	f7ff f8fb 	bl	8001060 <getGWfromDHCP>
 8001e6a:	f10d 009a 	add.w	r0, sp, #154	; 0x9a
 8001e6e:	f7ff f903 	bl	8001078 <getSNfromDHCP>
 8001e72:	a819      	add	r0, sp, #100	; 0x64
 8001e74:	f7ff f90c 	bl	8001090 <getDNSfromDHCP>
 8001e78:	f89d 3067 	ldrb.w	r3, [sp, #103]	; 0x67
 8001e7c:	f89d 2097 	ldrb.w	r2, [sp, #151]	; 0x97
 8001e80:	930c      	str	r3, [sp, #48]	; 0x30
 8001e82:	f89d 3066 	ldrb.w	r3, [sp, #102]	; 0x66
 8001e86:	f89d 1096 	ldrb.w	r1, [sp, #150]	; 0x96
 8001e8a:	930b      	str	r3, [sp, #44]	; 0x2c
 8001e8c:	f89d 3065 	ldrb.w	r3, [sp, #101]	; 0x65
 8001e90:	4836      	ldr	r0, [pc, #216]	; (8001f6c <main+0x75c>)
 8001e92:	930a      	str	r3, [sp, #40]	; 0x28
 8001e94:	f89d 3064 	ldrb.w	r3, [sp, #100]	; 0x64
 8001e98:	9309      	str	r3, [sp, #36]	; 0x24
 8001e9a:	f89d 309d 	ldrb.w	r3, [sp, #157]	; 0x9d
 8001e9e:	9308      	str	r3, [sp, #32]
 8001ea0:	f89d 309c 	ldrb.w	r3, [sp, #156]	; 0x9c
 8001ea4:	9307      	str	r3, [sp, #28]
 8001ea6:	f89d 309b 	ldrb.w	r3, [sp, #155]	; 0x9b
 8001eaa:	9306      	str	r3, [sp, #24]
 8001eac:	f89d 309a 	ldrb.w	r3, [sp, #154]	; 0x9a
 8001eb0:	9305      	str	r3, [sp, #20]
 8001eb2:	f89d 30a1 	ldrb.w	r3, [sp, #161]	; 0xa1
 8001eb6:	9304      	str	r3, [sp, #16]
 8001eb8:	f89d 30a0 	ldrb.w	r3, [sp, #160]	; 0xa0
 8001ebc:	9303      	str	r3, [sp, #12]
 8001ebe:	f89d 309f 	ldrb.w	r3, [sp, #159]	; 0x9f
 8001ec2:	9302      	str	r3, [sp, #8]
 8001ec4:	f89d 309e 	ldrb.w	r3, [sp, #158]	; 0x9e
 8001ec8:	9301      	str	r3, [sp, #4]
 8001eca:	f89d 3099 	ldrb.w	r3, [sp, #153]	; 0x99
 8001ece:	9300      	str	r3, [sp, #0]
 8001ed0:	f89d 3098 	ldrb.w	r3, [sp, #152]	; 0x98
 8001ed4:	f7ff fc0c 	bl	80016f0 <UART_Printf.8399>
 8001ed8:	4825      	ldr	r0, [pc, #148]	; (8001f70 <main+0x760>)
 8001eda:	f7ff fc09 	bl	80016f0 <UART_Printf.8399>
 8001ede:	a824      	add	r0, sp, #144	; 0x90
 8001ee0:	f001 f93a 	bl	8003158 <wizchip_setnetinfo>
 8001ee4:	e763      	b.n	8001dae <main+0x59e>
 8001ee6:	bf00      	nop
 8001ee8:	2000048c 	.word	0x2000048c
 8001eec:	0800896e 	.word	0x0800896e
 8001ef0:	20000268 	.word	0x20000268
 8001ef4:	200004e8 	.word	0x200004e8
 8001ef8:	08008983 	.word	0x08008983
 8001efc:	08008996 	.word	0x08008996
 8001f00:	080016d1 	.word	0x080016d1
 8001f04:	080016e1 	.word	0x080016e1
 8001f08:	08001769 	.word	0x08001769
 8001f0c:	08001795 	.word	0x08001795
 8001f10:	08001755 	.word	0x08001755
 8001f14:	08001781 	.word	0x08001781
 8001f18:	080089b7 	.word	0x080089b7
 8001f1c:	08008ae0 	.word	0x08008ae0
 8001f20:	080089d3 	.word	0x080089d3
 8001f24:	08008910 	.word	0x08008910
 8001f28:	080089ec 	.word	0x080089ec
 8001f2c:	08001749 	.word	0x08001749
 8001f30:	08008a0c 	.word	0x08008a0c
 8001f34:	08008a24 	.word	0x08008a24
 8001f38:	08008aaa 	.word	0x08008aaa
 8001f3c:	20000586 	.word	0x20000586
 8001f40:	200003cc 	.word	0x200003cc
 8001f44:	20000490 	.word	0x20000490
 8001f48:	2000058c 	.word	0x2000058c
 8001f4c:	20000416 	.word	0x20000416
 8001f50:	20000530 	.word	0x20000530
 8001f54:	20000328 	.word	0x20000328
 8001f58:	20000320 	.word	0x20000320
 8001f5c:	2000052e 	.word	0x2000052e
 8001f60:	20000478 	.word	0x20000478
 8001f64:	200005d8 	.word	0x200005d8
 8001f68:	20000480 	.word	0x20000480
 8001f6c:	08008a3f 	.word	0x08008a3f
 8001f70:	08008a88 	.word	0x08008a88
 8001f74:	40010c00 	.word	0x40010c00
 8001f78:	40240000 	.word	0x40240000
 8001f7c:	230a      	movs	r3, #10
 8001f7e:	e9d4 0100 	ldrd	r0, r1, [r4]
 8001f82:	9a0f      	ldr	r2, [sp, #60]	; 0x3c
 8001f84:	4d44      	ldr	r5, [pc, #272]	; (8002098 <main+0x888>)
 8001f86:	8013      	strh	r3, [r2, #0]
 8001f88:	4652      	mov	r2, sl
 8001f8a:	465b      	mov	r3, fp
 8001f8c:	f7fe fbce 	bl	800072c <__aeabi_ddiv>
 8001f90:	4680      	mov	r8, r0
 8001f92:	4689      	mov	r9, r1
 8001f94:	e9d5 0100 	ldrd	r0, r1, [r5]
 8001f98:	e9c4 8900 	strd	r8, r9, [r4]
 8001f9c:	4652      	mov	r2, sl
 8001f9e:	465b      	mov	r3, fp
 8001fa0:	f7fe fbc4 	bl	800072c <__aeabi_ddiv>
 8001fa4:	4606      	mov	r6, r0
 8001fa6:	460f      	mov	r7, r1
 8001fa8:	4642      	mov	r2, r8
 8001faa:	464b      	mov	r3, r9
 8001fac:	e9c5 6700 	strd	r6, r7, [r5]
 8001fb0:	4640      	mov	r0, r8
 8001fb2:	4649      	mov	r1, r9
 8001fb4:	f7fe fa90 	bl	80004d8 <__aeabi_dmul>
 8001fb8:	4632      	mov	r2, r6
 8001fba:	4680      	mov	r8, r0
 8001fbc:	4689      	mov	r9, r1
 8001fbe:	463b      	mov	r3, r7
 8001fc0:	4630      	mov	r0, r6
 8001fc2:	4639      	mov	r1, r7
 8001fc4:	f7fe fa88 	bl	80004d8 <__aeabi_dmul>
 8001fc8:	4602      	mov	r2, r0
 8001fca:	460b      	mov	r3, r1
 8001fcc:	4640      	mov	r0, r8
 8001fce:	4649      	mov	r1, r9
 8001fd0:	f7fe f8cc 	bl	800016c <__adddf3>
 8001fd4:	f003 fa4c 	bl	8005470 <sqrt>
 8001fd8:	4680      	mov	r8, r0
 8001fda:	4689      	mov	r9, r1
 8001fdc:	4f2f      	ldr	r7, [pc, #188]	; (800209c <main+0x88c>)
 8001fde:	2200      	movs	r2, #0
 8001fe0:	2300      	movs	r3, #0
 8001fe2:	e9c7 8900 	strd	r8, r9, [r7]
 8001fe6:	f7fe fcdf 	bl	80009a8 <__aeabi_dcmpeq>
 8001fea:	4e2d      	ldr	r6, [pc, #180]	; (80020a0 <main+0x890>)
 8001fec:	2800      	cmp	r0, #0
 8001fee:	d144      	bne.n	800207a <main+0x86a>
 8001ff0:	e9d4 0100 	ldrd	r0, r1, [r4]
 8001ff4:	4642      	mov	r2, r8
 8001ff6:	464b      	mov	r3, r9
 8001ff8:	f7fe fb98 	bl	800072c <__aeabi_ddiv>
 8001ffc:	f003 fa0a 	bl	8005414 <acos>
 8002000:	2200      	movs	r2, #0
 8002002:	4b28      	ldr	r3, [pc, #160]	; (80020a4 <main+0x894>)
 8002004:	f7fe fa68 	bl	80004d8 <__aeabi_dmul>
 8002008:	a31f      	add	r3, pc, #124	; (adr r3, 8002088 <main+0x878>)
 800200a:	e9d3 2300 	ldrd	r2, r3, [r3]
 800200e:	f7fe fb8d 	bl	800072c <__aeabi_ddiv>
 8002012:	4680      	mov	r8, r0
 8002014:	4689      	mov	r9, r1
 8002016:	e9d5 0100 	ldrd	r0, r1, [r5]
 800201a:	2200      	movs	r2, #0
 800201c:	2300      	movs	r3, #0
 800201e:	e9c6 8900 	strd	r8, r9, [r6]
 8002022:	f7fe fccb 	bl	80009bc <__aeabi_dcmplt>
 8002026:	b138      	cbz	r0, 8002038 <main+0x828>
 8002028:	4642      	mov	r2, r8
 800202a:	464b      	mov	r3, r9
 800202c:	2000      	movs	r0, #0
 800202e:	491e      	ldr	r1, [pc, #120]	; (80020a8 <main+0x898>)
 8002030:	f7fe f89a 	bl	8000168 <__aeabi_dsub>
 8002034:	e9c6 0100 	strd	r0, r1, [r6]
 8002038:	e9d7 0100 	ldrd	r0, r1, [r7]
 800203c:	a314      	add	r3, pc, #80	; (adr r3, 8002090 <main+0x880>)
 800203e:	e9d3 2300 	ldrd	r2, r3, [r3]
 8002042:	f7fe fb73 	bl	800072c <__aeabi_ddiv>
 8002046:	e9d6 2300 	ldrd	r2, r3, [r6]
 800204a:	e9c7 0100 	strd	r0, r1, [r7]
 800204e:	e9cd 0102 	strd	r0, r1, [sp, #8]
 8002052:	e9cd 2304 	strd	r2, r3, [sp, #16]
 8002056:	e9d5 2300 	ldrd	r2, r3, [r5]
 800205a:	e9cd 2300 	strd	r2, r3, [sp]
 800205e:	4913      	ldr	r1, [pc, #76]	; (80020ac <main+0x89c>)
 8002060:	e9d4 2300 	ldrd	r2, r3, [r4]
 8002064:	4812      	ldr	r0, [pc, #72]	; (80020b0 <main+0x8a0>)
 8002066:	f004 f9c3 	bl	80063f0 <siprintf>
 800206a:	f44f 737a 	mov.w	r3, #1000	; 0x3e8
 800206e:	2264      	movs	r2, #100	; 0x64
 8002070:	490f      	ldr	r1, [pc, #60]	; (80020b0 <main+0x8a0>)
 8002072:	4810      	ldr	r0, [pc, #64]	; (80020b4 <main+0x8a4>)
 8002074:	f003 f978 	bl	8005368 <HAL_UART_Transmit>
 8002078:	e6e5      	b.n	8001e46 <main+0x636>
 800207a:	e9dd 2310 	ldrd	r2, r3, [sp, #64]	; 0x40
 800207e:	e9c6 2300 	strd	r2, r3, [r6]
 8002082:	e7d9      	b.n	8002038 <main+0x828>
 8002084:	f3af 8000 	nop.w
 8002088:	4d12d84a 	.word	0x4d12d84a
 800208c:	400921fb 	.word	0x400921fb
 8002090:	66666666 	.word	0x66666666
 8002094:	40146666 	.word	0x40146666
 8002098:	20000328 	.word	0x20000328
 800209c:	200004e0 	.word	0x200004e0
 80020a0:	20000470 	.word	0x20000470
 80020a4:	40668000 	.word	0x40668000
 80020a8:	40768000 	.word	0x40768000
 80020ac:	08008ab9 	.word	0x08008ab9
 80020b0:	20000268 	.word	0x20000268
 80020b4:	200004e8 	.word	0x200004e8

080020b8 <Error_Handler>:
 80020b8:	b672      	cpsid	i
 80020ba:	e7fe      	b.n	80020ba <Error_Handler+0x2>

080020bc <close>:
 80020bc:	2808      	cmp	r0, #8
 80020be:	b5f8      	push	{r3, r4, r5, r6, r7, lr}
 80020c0:	4604      	mov	r4, r0
 80020c2:	d82d      	bhi.n	8002120 <close+0x64>
 80020c4:	0147      	lsls	r7, r0, #5
 80020c6:	f107 0608 	add.w	r6, r7, #8
 80020ca:	f507 7784 	add.w	r7, r7, #264	; 0x108
 80020ce:	2110      	movs	r1, #16
 80020d0:	4638      	mov	r0, r7
 80020d2:	f000 fe17 	bl	8002d04 <WIZCHIP_WRITE>
 80020d6:	4638      	mov	r0, r7
 80020d8:	f000 fde6 	bl	8002ca8 <WIZCHIP_READ>
 80020dc:	4605      	mov	r5, r0
 80020de:	2800      	cmp	r0, #0
 80020e0:	d1f9      	bne.n	80020d6 <close+0x1a>
 80020e2:	211f      	movs	r1, #31
 80020e4:	f506 7000 	add.w	r0, r6, #512	; 0x200
 80020e8:	f000 fe0c 	bl	8002d04 <WIZCHIP_WRITE>
 80020ec:	2301      	movs	r3, #1
 80020ee:	40a3      	lsls	r3, r4
 80020f0:	43db      	mvns	r3, r3
 80020f2:	490d      	ldr	r1, [pc, #52]	; (8002128 <close+0x6c>)
 80020f4:	b21b      	sxth	r3, r3
 80020f6:	880a      	ldrh	r2, [r1, #0]
 80020f8:	f506 7640 	add.w	r6, r6, #768	; 0x300
 80020fc:	401a      	ands	r2, r3
 80020fe:	800a      	strh	r2, [r1, #0]
 8002100:	4a0a      	ldr	r2, [pc, #40]	; (800212c <close+0x70>)
 8002102:	8811      	ldrh	r1, [r2, #0]
 8002104:	400b      	ands	r3, r1
 8002106:	8013      	strh	r3, [r2, #0]
 8002108:	4b09      	ldr	r3, [pc, #36]	; (8002130 <close+0x74>)
 800210a:	f823 5014 	strh.w	r5, [r3, r4, lsl #1]
 800210e:	4b09      	ldr	r3, [pc, #36]	; (8002134 <close+0x78>)
 8002110:	551d      	strb	r5, [r3, r4]
 8002112:	4630      	mov	r0, r6
 8002114:	f000 fdc8 	bl	8002ca8 <WIZCHIP_READ>
 8002118:	2800      	cmp	r0, #0
 800211a:	d1fa      	bne.n	8002112 <close+0x56>
 800211c:	2001      	movs	r0, #1
 800211e:	bdf8      	pop	{r3, r4, r5, r6, r7, pc}
 8002120:	f04f 30ff 	mov.w	r0, #4294967295	; 0xffffffff
 8002124:	e7fb      	b.n	800211e <close+0x62>
 8002126:	bf00      	nop
 8002128:	200002cc 	.word	0x200002cc
 800212c:	200002ce 	.word	0x200002ce
 8002130:	200002d8 	.word	0x200002d8
 8002134:	200002d0 	.word	0x200002d0

08002138 <socket>:
 8002138:	2808      	cmp	r0, #8
 800213a:	e92d 41f3 	stmdb	sp!, {r0, r1, r4, r5, r6, r7, r8, lr}
 800213e:	4604      	mov	r4, r0
 8002140:	4688      	mov	r8, r1
 8002142:	4617      	mov	r7, r2
 8002144:	461d      	mov	r5, r3
 8002146:	d87c      	bhi.n	8002242 <socket+0x10a>
 8002148:	2901      	cmp	r1, #1
 800214a:	d005      	beq.n	8002158 <socket+0x20>
 800214c:	1e8b      	subs	r3, r1, #2
 800214e:	2b02      	cmp	r3, #2
 8002150:	d910      	bls.n	8002174 <socket+0x3c>
 8002152:	f06f 0004 	mvn.w	r0, #4
 8002156:	e00a      	b.n	800216e <socket+0x36>
 8002158:	2204      	movs	r2, #4
 800215a:	f44f 6070 	mov.w	r0, #3840	; 0xf00
 800215e:	eb0d 0102 	add.w	r1, sp, r2
 8002162:	f000 fe01 	bl	8002d68 <WIZCHIP_READ_BUF>
 8002166:	9b01      	ldr	r3, [sp, #4]
 8002168:	b923      	cbnz	r3, 8002174 <socket+0x3c>
 800216a:	f06f 0002 	mvn.w	r0, #2
 800216e:	b002      	add	sp, #8
 8002170:	e8bd 81f0 	ldmia.w	sp!, {r4, r5, r6, r7, r8, pc}
 8002174:	0768      	lsls	r0, r5, #29
 8002176:	d457      	bmi.n	8002228 <socket+0xf0>
 8002178:	b12d      	cbz	r5, 8002186 <socket+0x4e>
 800217a:	f1b8 0f01 	cmp.w	r8, #1
 800217e:	d050      	beq.n	8002222 <socket+0xea>
 8002180:	f1b8 0f02 	cmp.w	r8, #2
 8002184:	d053      	beq.n	800222e <socket+0xf6>
 8002186:	4620      	mov	r0, r4
 8002188:	0166      	lsls	r6, r4, #5
 800218a:	f7ff ff97 	bl	80020bc <close>
 800218e:	3608      	adds	r6, #8
 8002190:	f025 010f 	bic.w	r1, r5, #15
 8002194:	4630      	mov	r0, r6
 8002196:	ea41 0108 	orr.w	r1, r1, r8
 800219a:	f000 fdb3 	bl	8002d04 <WIZCHIP_WRITE>
 800219e:	b96f      	cbnz	r7, 80021bc <socket+0x84>
 80021a0:	f64f 71f0 	movw	r1, #65520	; 0xfff0
 80021a4:	4a28      	ldr	r2, [pc, #160]	; (8002248 <socket+0x110>)
 80021a6:	8817      	ldrh	r7, [r2, #0]
 80021a8:	1c7b      	adds	r3, r7, #1
 80021aa:	b29b      	uxth	r3, r3
 80021ac:	428b      	cmp	r3, r1
 80021ae:	bf05      	ittet	eq
 80021b0:	f44f 4340 	moveq.w	r3, #49152	; 0xc000
 80021b4:	f64f 77ef 	movweq	r7, #65519	; 0xffef
 80021b8:	8013      	strhne	r3, [r2, #0]
 80021ba:	8013      	strheq	r3, [r2, #0]
 80021bc:	0a39      	lsrs	r1, r7, #8
 80021be:	f506 6080 	add.w	r0, r6, #1024	; 0x400
 80021c2:	f000 fd9f 	bl	8002d04 <WIZCHIP_WRITE>
 80021c6:	b2f9      	uxtb	r1, r7
 80021c8:	f506 60a0 	add.w	r0, r6, #1280	; 0x500
 80021cc:	f506 7780 	add.w	r7, r6, #256	; 0x100
 80021d0:	f000 fd98 	bl	8002d04 <WIZCHIP_WRITE>
 80021d4:	2101      	movs	r1, #1
 80021d6:	4638      	mov	r0, r7
 80021d8:	f000 fd94 	bl	8002d04 <WIZCHIP_WRITE>
 80021dc:	4638      	mov	r0, r7
 80021de:	f000 fd63 	bl	8002ca8 <WIZCHIP_READ>
 80021e2:	2800      	cmp	r0, #0
 80021e4:	d1fa      	bne.n	80021dc <socket+0xa4>
 80021e6:	2301      	movs	r3, #1
 80021e8:	40a3      	lsls	r3, r4
 80021ea:	43db      	mvns	r3, r3
 80021ec:	4917      	ldr	r1, [pc, #92]	; (800224c <socket+0x114>)
 80021ee:	b21b      	sxth	r3, r3
 80021f0:	880a      	ldrh	r2, [r1, #0]
 80021f2:	f005 0501 	and.w	r5, r5, #1
 80021f6:	401a      	ands	r2, r3
 80021f8:	40a5      	lsls	r5, r4
 80021fa:	4315      	orrs	r5, r2
 80021fc:	4a14      	ldr	r2, [pc, #80]	; (8002250 <socket+0x118>)
 80021fe:	800d      	strh	r5, [r1, #0]
 8002200:	8811      	ldrh	r1, [r2, #0]
 8002202:	f506 7640 	add.w	r6, r6, #768	; 0x300
 8002206:	400b      	ands	r3, r1
 8002208:	8013      	strh	r3, [r2, #0]
 800220a:	4b12      	ldr	r3, [pc, #72]	; (8002254 <socket+0x11c>)
 800220c:	f823 0014 	strh.w	r0, [r3, r4, lsl #1]
 8002210:	4b11      	ldr	r3, [pc, #68]	; (8002258 <socket+0x120>)
 8002212:	5518      	strb	r0, [r3, r4]
 8002214:	4630      	mov	r0, r6
 8002216:	f000 fd47 	bl	8002ca8 <WIZCHIP_READ>
 800221a:	2800      	cmp	r0, #0
 800221c:	d0fa      	beq.n	8002214 <socket+0xdc>
 800221e:	b260      	sxtb	r0, r4
 8002220:	e7a5      	b.n	800216e <socket+0x36>
 8002222:	f015 0f21 	tst.w	r5, #33	; 0x21
 8002226:	d1ae      	bne.n	8002186 <socket+0x4e>
 8002228:	f06f 0005 	mvn.w	r0, #5
 800222c:	e79f      	b.n	800216e <socket+0x36>
 800222e:	06a9      	lsls	r1, r5, #26
 8002230:	b26b      	sxtb	r3, r5
 8002232:	d501      	bpl.n	8002238 <socket+0x100>
 8002234:	2b00      	cmp	r3, #0
 8002236:	daf7      	bge.n	8002228 <socket+0xf0>
 8002238:	06ea      	lsls	r2, r5, #27
 800223a:	d5a4      	bpl.n	8002186 <socket+0x4e>
 800223c:	2b00      	cmp	r3, #0
 800223e:	dba2      	blt.n	8002186 <socket+0x4e>
 8002240:	e7f2      	b.n	8002228 <socket+0xf0>
 8002242:	f04f 30ff 	mov.w	r0, #4294967295	; 0xffffffff
 8002246:	e792      	b.n	800216e <socket+0x36>
 8002248:	2000001c 	.word	0x2000001c
 800224c:	200002cc 	.word	0x200002cc
 8002250:	200002ce 	.word	0x200002ce
 8002254:	200002d8 	.word	0x200002d8
 8002258:	200002d0 	.word	0x200002d0

0800225c <sendto>:
 800225c:	e92d 4ff8 	stmdb	sp!, {r3, r4, r5, r6, r7, r8, r9, sl, fp, lr}
 8002260:	2808      	cmp	r0, #8
 8002262:	4606      	mov	r6, r0
 8002264:	4688      	mov	r8, r1
 8002266:	4614      	mov	r4, r2
 8002268:	461f      	mov	r7, r3
 800226a:	f8bd a028 	ldrh.w	sl, [sp, #40]	; 0x28
 800226e:	f200 8097 	bhi.w	80023a0 <sendto+0x144>
 8002272:	0145      	lsls	r5, r0, #5
 8002274:	3508      	adds	r5, #8
 8002276:	4628      	mov	r0, r5
 8002278:	f000 fd16 	bl	8002ca8 <WIZCHIP_READ>
 800227c:	f000 000f 	and.w	r0, r0, #15
 8002280:	3802      	subs	r0, #2
 8002282:	2802      	cmp	r0, #2
 8002284:	f200 808f 	bhi.w	80023a6 <sendto+0x14a>
 8002288:	2c00      	cmp	r4, #0
 800228a:	f000 808f 	beq.w	80023ac <sendto+0x150>
 800228e:	783b      	ldrb	r3, [r7, #0]
 8002290:	787a      	ldrb	r2, [r7, #1]
 8002292:	eb02 2203 	add.w	r2, r2, r3, lsl #8
 8002296:	78bb      	ldrb	r3, [r7, #2]
 8002298:	eb03 2202 	add.w	r2, r3, r2, lsl #8
 800229c:	78fb      	ldrb	r3, [r7, #3]
 800229e:	eb03 2302 	add.w	r3, r3, r2, lsl #8
 80022a2:	2b00      	cmp	r3, #0
 80022a4:	d03c      	beq.n	8002320 <sendto+0xc4>
 80022a6:	f1ba 0f00 	cmp.w	sl, #0
 80022aa:	d041      	beq.n	8002330 <sendto+0xd4>
 80022ac:	f505 7940 	add.w	r9, r5, #768	; 0x300
 80022b0:	4648      	mov	r0, r9
 80022b2:	f000 fcf9 	bl	8002ca8 <WIZCHIP_READ>
 80022b6:	2842      	cmp	r0, #66	; 0x42
 80022b8:	d142      	bne.n	8002340 <sendto+0xe4>
 80022ba:	2204      	movs	r2, #4
 80022bc:	4639      	mov	r1, r7
 80022be:	f505 6040 	add.w	r0, r5, #3072	; 0xc00
 80022c2:	f000 fd8b 	bl	8002ddc <WIZCHIP_WRITE_BUF>
 80022c6:	ea4f 211a 	mov.w	r1, sl, lsr #8
 80022ca:	f505 5080 	add.w	r0, r5, #4096	; 0x1000
 80022ce:	f000 fd19 	bl	8002d04 <WIZCHIP_WRITE>
 80022d2:	fa5f f18a 	uxtb.w	r1, sl
 80022d6:	f505 5088 	add.w	r0, r5, #4352	; 0x1100
 80022da:	f000 fd13 	bl	8002d04 <WIZCHIP_WRITE>
 80022de:	f505 50f8 	add.w	r0, r5, #7936	; 0x1f00
 80022e2:	f000 fce1 	bl	8002ca8 <WIZCHIP_READ>
 80022e6:	0280      	lsls	r0, r0, #10
 80022e8:	b280      	uxth	r0, r0
 80022ea:	f04f 0a01 	mov.w	sl, #1
 80022ee:	4284      	cmp	r4, r0
 80022f0:	bf28      	it	cs
 80022f2:	4604      	movcs	r4, r0
 80022f4:	f8df b0c0 	ldr.w	fp, [pc, #192]	; 80023b8 <sendto+0x15c>
 80022f8:	fa0a fa06 	lsl.w	sl, sl, r6
 80022fc:	4630      	mov	r0, r6
 80022fe:	f000 fda7 	bl	8002e50 <getSn_TX_FSR>
 8002302:	4607      	mov	r7, r0
 8002304:	4648      	mov	r0, r9
 8002306:	f000 fccf 	bl	8002ca8 <WIZCHIP_READ>
 800230a:	2800      	cmp	r0, #0
 800230c:	d051      	beq.n	80023b2 <sendto+0x156>
 800230e:	f8bb 3000 	ldrh.w	r3, [fp]
 8002312:	ea13 0f0a 	tst.w	r3, sl
 8002316:	d01a      	beq.n	800234e <sendto+0xf2>
 8002318:	42bc      	cmp	r4, r7
 800231a:	d91a      	bls.n	8002352 <sendto+0xf6>
 800231c:	2000      	movs	r0, #0
 800231e:	e034      	b.n	800238a <sendto+0x12e>
 8002320:	4628      	mov	r0, r5
 8002322:	f000 fcc1 	bl	8002ca8 <WIZCHIP_READ>
 8002326:	0740      	lsls	r0, r0, #29
 8002328:	d4bd      	bmi.n	80022a6 <sendto+0x4a>
 800232a:	f06f 000b 	mvn.w	r0, #11
 800232e:	e02c      	b.n	800238a <sendto+0x12e>
 8002330:	4628      	mov	r0, r5
 8002332:	f000 fcb9 	bl	8002ca8 <WIZCHIP_READ>
 8002336:	0741      	lsls	r1, r0, #29
 8002338:	d4b8      	bmi.n	80022ac <sendto+0x50>
 800233a:	f06f 000a 	mvn.w	r0, #10
 800233e:	e024      	b.n	800238a <sendto+0x12e>
 8002340:	f000 00ef 	and.w	r0, r0, #239	; 0xef
 8002344:	2822      	cmp	r0, #34	; 0x22
 8002346:	d0b8      	beq.n	80022ba <sendto+0x5e>
 8002348:	f06f 0006 	mvn.w	r0, #6
 800234c:	e01d      	b.n	800238a <sendto+0x12e>
 800234e:	42bc      	cmp	r4, r7
 8002350:	d8d4      	bhi.n	80022fc <sendto+0xa0>
 8002352:	4630      	mov	r0, r6
 8002354:	4641      	mov	r1, r8
 8002356:	4622      	mov	r2, r4
 8002358:	f505 7680 	add.w	r6, r5, #256	; 0x100
 800235c:	f000 fdba 	bl	8002ed4 <wiz_send_data>
 8002360:	2120      	movs	r1, #32
 8002362:	4630      	mov	r0, r6
 8002364:	f000 fcce 	bl	8002d04 <WIZCHIP_WRITE>
 8002368:	4630      	mov	r0, r6
 800236a:	f000 fc9d 	bl	8002ca8 <WIZCHIP_READ>
 800236e:	2800      	cmp	r0, #0
 8002370:	d1fa      	bne.n	8002368 <sendto+0x10c>
 8002372:	f505 7500 	add.w	r5, r5, #512	; 0x200
 8002376:	4628      	mov	r0, r5
 8002378:	f000 fc96 	bl	8002ca8 <WIZCHIP_READ>
 800237c:	06c2      	lsls	r2, r0, #27
 800237e:	d506      	bpl.n	800238e <sendto+0x132>
 8002380:	4628      	mov	r0, r5
 8002382:	2110      	movs	r1, #16
 8002384:	f000 fcbe 	bl	8002d04 <WIZCHIP_WRITE>
 8002388:	4620      	mov	r0, r4
 800238a:	e8bd 8ff8 	ldmia.w	sp!, {r3, r4, r5, r6, r7, r8, r9, sl, fp, pc}
 800238e:	0703      	lsls	r3, r0, #28
 8002390:	d5f1      	bpl.n	8002376 <sendto+0x11a>
 8002392:	4628      	mov	r0, r5
 8002394:	2108      	movs	r1, #8
 8002396:	f000 fcb5 	bl	8002d04 <WIZCHIP_WRITE>
 800239a:	f06f 000c 	mvn.w	r0, #12
 800239e:	e7f4      	b.n	800238a <sendto+0x12e>
 80023a0:	f04f 30ff 	mov.w	r0, #4294967295	; 0xffffffff
 80023a4:	e7f1      	b.n	800238a <sendto+0x12e>
 80023a6:	f06f 0004 	mvn.w	r0, #4
 80023aa:	e7ee      	b.n	800238a <sendto+0x12e>
 80023ac:	f06f 000d 	mvn.w	r0, #13
 80023b0:	e7eb      	b.n	800238a <sendto+0x12e>
 80023b2:	f06f 0003 	mvn.w	r0, #3
 80023b6:	e7e8      	b.n	800238a <sendto+0x12e>
 80023b8:	200002cc 	.word	0x200002cc

080023bc <recvfrom>:
 80023bc:	e92d 4ff0 	stmdb	sp!, {r4, r5, r6, r7, r8, r9, sl, fp, lr}
 80023c0:	2808      	cmp	r0, #8
 80023c2:	4604      	mov	r4, r0
 80023c4:	468a      	mov	sl, r1
 80023c6:	4691      	mov	r9, r2
 80023c8:	4698      	mov	r8, r3
 80023ca:	b085      	sub	sp, #20
 80023cc:	f200 80e8 	bhi.w	80025a0 <recvfrom+0x1e4>
 80023d0:	0147      	lsls	r7, r0, #5
 80023d2:	3708      	adds	r7, #8
 80023d4:	4638      	mov	r0, r7
 80023d6:	f000 fc67 	bl	8002ca8 <WIZCHIP_READ>
 80023da:	f000 020f 	and.w	r2, r0, #15
 80023de:	3a02      	subs	r2, #2
 80023e0:	2a02      	cmp	r2, #2
 80023e2:	4683      	mov	fp, r0
 80023e4:	f200 80df 	bhi.w	80025a6 <recvfrom+0x1ea>
 80023e8:	f1b9 0f00 	cmp.w	r9, #0
 80023ec:	f000 80de 	beq.w	80025ac <recvfrom+0x1f0>
 80023f0:	4e71      	ldr	r6, [pc, #452]	; (80025b8 <recvfrom+0x1fc>)
 80023f2:	f836 2014 	ldrh.w	r2, [r6, r4, lsl #1]
 80023f6:	2a00      	cmp	r2, #0
 80023f8:	d17a      	bne.n	80024f0 <recvfrom+0x134>
 80023fa:	2101      	movs	r1, #1
 80023fc:	f507 7340 	add.w	r3, r7, #768	; 0x300
 8002400:	40a1      	lsls	r1, r4
 8002402:	9300      	str	r3, [sp, #0]
 8002404:	4620      	mov	r0, r4
 8002406:	9101      	str	r1, [sp, #4]
 8002408:	f000 fd43 	bl	8002e92 <getSn_RX_RSR>
 800240c:	4605      	mov	r5, r0
 800240e:	9800      	ldr	r0, [sp, #0]
 8002410:	f000 fc4a 	bl	8002ca8 <WIZCHIP_READ>
 8002414:	2800      	cmp	r0, #0
 8002416:	f000 80cc 	beq.w	80025b2 <recvfrom+0x1f6>
 800241a:	4b68      	ldr	r3, [pc, #416]	; (80025bc <recvfrom+0x200>)
 800241c:	9901      	ldr	r1, [sp, #4]
 800241e:	881a      	ldrh	r2, [r3, #0]
 8002420:	420a      	tst	r2, r1
 8002422:	d002      	beq.n	800242a <recvfrom+0x6e>
 8002424:	b91d      	cbnz	r5, 800242e <recvfrom+0x72>
 8002426:	4628      	mov	r0, r5
 8002428:	e089      	b.n	800253e <recvfrom+0x182>
 800242a:	2d00      	cmp	r5, #0
 800242c:	d0ea      	beq.n	8002404 <recvfrom+0x48>
 800242e:	f00b 0007 	and.w	r0, fp, #7
 8002432:	2803      	cmp	r0, #3
 8002434:	f507 7780 	add.w	r7, r7, #256	; 0x100
 8002438:	f000 8084 	beq.w	8002544 <recvfrom+0x188>
 800243c:	2804      	cmp	r0, #4
 800243e:	d059      	beq.n	80024f4 <recvfrom+0x138>
 8002440:	2802      	cmp	r0, #2
 8002442:	f040 80a6 	bne.w	8002592 <recvfrom+0x1d6>
 8002446:	f836 3014 	ldrh.w	r3, [r6, r4, lsl #1]
 800244a:	bb8b      	cbnz	r3, 80024b0 <recvfrom+0xf4>
 800244c:	2208      	movs	r2, #8
 800244e:	4620      	mov	r0, r4
 8002450:	eb0d 0102 	add.w	r1, sp, r2
 8002454:	f000 fd6b 	bl	8002f2e <wiz_recv_data>
 8002458:	2140      	movs	r1, #64	; 0x40
 800245a:	4638      	mov	r0, r7
 800245c:	f000 fc52 	bl	8002d04 <WIZCHIP_WRITE>
 8002460:	4638      	mov	r0, r7
 8002462:	f000 fc21 	bl	8002ca8 <WIZCHIP_READ>
 8002466:	2800      	cmp	r0, #0
 8002468:	d1fa      	bne.n	8002460 <recvfrom+0xa4>
 800246a:	f89d 3008 	ldrb.w	r3, [sp, #8]
 800246e:	f89d 200c 	ldrb.w	r2, [sp, #12]
 8002472:	f888 3000 	strb.w	r3, [r8]
 8002476:	f89d 3009 	ldrb.w	r3, [sp, #9]
 800247a:	f888 3001 	strb.w	r3, [r8, #1]
 800247e:	f89d 300a 	ldrb.w	r3, [sp, #10]
 8002482:	f888 3002 	strb.w	r3, [r8, #2]
 8002486:	f89d 300b 	ldrb.w	r3, [sp, #11]
 800248a:	f888 3003 	strb.w	r3, [r8, #3]
 800248e:	f89d 300d 	ldrb.w	r3, [sp, #13]
 8002492:	eb03 2302 	add.w	r3, r3, r2, lsl #8
 8002496:	9a0e      	ldr	r2, [sp, #56]	; 0x38
 8002498:	8013      	strh	r3, [r2, #0]
 800249a:	f89d 200e 	ldrb.w	r2, [sp, #14]
 800249e:	f89d 300f 	ldrb.w	r3, [sp, #15]
 80024a2:	eb03 2302 	add.w	r3, r3, r2, lsl #8
 80024a6:	f826 3014 	strh.w	r3, [r6, r4, lsl #1]
 80024aa:	2280      	movs	r2, #128	; 0x80
 80024ac:	4b44      	ldr	r3, [pc, #272]	; (80025c0 <recvfrom+0x204>)
 80024ae:	551a      	strb	r2, [r3, r4]
 80024b0:	f836 5014 	ldrh.w	r5, [r6, r4, lsl #1]
 80024b4:	4651      	mov	r1, sl
 80024b6:	454d      	cmp	r5, r9
 80024b8:	bf28      	it	cs
 80024ba:	464d      	movcs	r5, r9
 80024bc:	4620      	mov	r0, r4
 80024be:	462a      	mov	r2, r5
 80024c0:	f000 fd35 	bl	8002f2e <wiz_recv_data>
 80024c4:	2140      	movs	r1, #64	; 0x40
 80024c6:	4638      	mov	r0, r7
 80024c8:	f000 fc1c 	bl	8002d04 <WIZCHIP_WRITE>
 80024cc:	4638      	mov	r0, r7
 80024ce:	f000 fbeb 	bl	8002ca8 <WIZCHIP_READ>
 80024d2:	2800      	cmp	r0, #0
 80024d4:	d1fa      	bne.n	80024cc <recvfrom+0x110>
 80024d6:	f836 3014 	ldrh.w	r3, [r6, r4, lsl #1]
 80024da:	4a39      	ldr	r2, [pc, #228]	; (80025c0 <recvfrom+0x204>)
 80024dc:	1b5b      	subs	r3, r3, r5
 80024de:	b29b      	uxth	r3, r3
 80024e0:	f826 3014 	strh.w	r3, [r6, r4, lsl #1]
 80024e4:	b113      	cbz	r3, 80024ec <recvfrom+0x130>
 80024e6:	5d10      	ldrb	r0, [r2, r4]
 80024e8:	f040 0001 	orr.w	r0, r0, #1
 80024ec:	5510      	strb	r0, [r2, r4]
 80024ee:	e79a      	b.n	8002426 <recvfrom+0x6a>
 80024f0:	2500      	movs	r5, #0
 80024f2:	e79c      	b.n	800242e <recvfrom+0x72>
 80024f4:	f836 3014 	ldrh.w	r3, [r6, r4, lsl #1]
 80024f8:	2b00      	cmp	r3, #0
 80024fa:	d1d9      	bne.n	80024b0 <recvfrom+0xf4>
 80024fc:	4620      	mov	r0, r4
 80024fe:	a902      	add	r1, sp, #8
 8002500:	2202      	movs	r2, #2
 8002502:	f000 fd14 	bl	8002f2e <wiz_recv_data>
 8002506:	2140      	movs	r1, #64	; 0x40
 8002508:	4638      	mov	r0, r7
 800250a:	f000 fbfb 	bl	8002d04 <WIZCHIP_WRITE>
 800250e:	4638      	mov	r0, r7
 8002510:	f000 fbca 	bl	8002ca8 <WIZCHIP_READ>
 8002514:	2800      	cmp	r0, #0
 8002516:	d1fa      	bne.n	800250e <recvfrom+0x152>
 8002518:	f89d 3009 	ldrb.w	r3, [sp, #9]
 800251c:	f89d 2008 	ldrb.w	r2, [sp, #8]
 8002520:	3b02      	subs	r3, #2
 8002522:	eb03 2302 	add.w	r3, r3, r2, lsl #8
 8002526:	f240 52ea 	movw	r2, #1514	; 0x5ea
 800252a:	b29b      	uxth	r3, r3
 800252c:	4293      	cmp	r3, r2
 800252e:	f826 3014 	strh.w	r3, [r6, r4, lsl #1]
 8002532:	d9ba      	bls.n	80024aa <recvfrom+0xee>
 8002534:	4620      	mov	r0, r4
 8002536:	f7ff fdc1 	bl	80020bc <close>
 800253a:	f46f 707a 	mvn.w	r0, #1000	; 0x3e8
 800253e:	b005      	add	sp, #20
 8002540:	e8bd 8ff0 	ldmia.w	sp!, {r4, r5, r6, r7, r8, r9, sl, fp, pc}
 8002544:	f836 3014 	ldrh.w	r3, [r6, r4, lsl #1]
 8002548:	2b00      	cmp	r3, #0
 800254a:	d1b1      	bne.n	80024b0 <recvfrom+0xf4>
 800254c:	4620      	mov	r0, r4
 800254e:	a902      	add	r1, sp, #8
 8002550:	2206      	movs	r2, #6
 8002552:	f000 fcec 	bl	8002f2e <wiz_recv_data>
 8002556:	2140      	movs	r1, #64	; 0x40
 8002558:	4638      	mov	r0, r7
 800255a:	f000 fbd3 	bl	8002d04 <WIZCHIP_WRITE>
 800255e:	4638      	mov	r0, r7
 8002560:	f000 fba2 	bl	8002ca8 <WIZCHIP_READ>
 8002564:	2800      	cmp	r0, #0
 8002566:	d1fa      	bne.n	800255e <recvfrom+0x1a2>
 8002568:	f89d 3008 	ldrb.w	r3, [sp, #8]
 800256c:	f89d 200c 	ldrb.w	r2, [sp, #12]
 8002570:	f888 3000 	strb.w	r3, [r8]
 8002574:	f89d 3009 	ldrb.w	r3, [sp, #9]
 8002578:	f888 3001 	strb.w	r3, [r8, #1]
 800257c:	f89d 300a 	ldrb.w	r3, [sp, #10]
 8002580:	f888 3002 	strb.w	r3, [r8, #2]
 8002584:	f89d 300b 	ldrb.w	r3, [sp, #11]
 8002588:	f888 3003 	strb.w	r3, [r8, #3]
 800258c:	f89d 300d 	ldrb.w	r3, [sp, #13]
 8002590:	e787      	b.n	80024a2 <recvfrom+0xe6>
 8002592:	4629      	mov	r1, r5
 8002594:	4620      	mov	r0, r4
 8002596:	f000 fcf7 	bl	8002f88 <wiz_recv_ignore>
 800259a:	f826 5014 	strh.w	r5, [r6, r4, lsl #1]
 800259e:	e791      	b.n	80024c4 <recvfrom+0x108>
 80025a0:	f04f 30ff 	mov.w	r0, #4294967295	; 0xffffffff
 80025a4:	e7cb      	b.n	800253e <recvfrom+0x182>
 80025a6:	f06f 0004 	mvn.w	r0, #4
 80025aa:	e7c8      	b.n	800253e <recvfrom+0x182>
 80025ac:	f06f 000d 	mvn.w	r0, #13
 80025b0:	e7c5      	b.n	800253e <recvfrom+0x182>
 80025b2:	f06f 0003 	mvn.w	r0, #3
 80025b6:	e7c2      	b.n	800253e <recvfrom+0x182>
 80025b8:	200002d8 	.word	0x200002d8
 80025bc:	200002cc 	.word	0x200002cc
 80025c0:	200002d0 	.word	0x200002d0

080025c4 <HAL_MspInit>:
 80025c4:	4b0e      	ldr	r3, [pc, #56]	; (8002600 <HAL_MspInit+0x3c>)
 80025c6:	b082      	sub	sp, #8
 80025c8:	699a      	ldr	r2, [r3, #24]
 80025ca:	f042 0201 	orr.w	r2, r2, #1
 80025ce:	619a      	str	r2, [r3, #24]
 80025d0:	699a      	ldr	r2, [r3, #24]
 80025d2:	f002 0201 	and.w	r2, r2, #1
 80025d6:	9200      	str	r2, [sp, #0]
 80025d8:	9a00      	ldr	r2, [sp, #0]
 80025da:	69da      	ldr	r2, [r3, #28]
 80025dc:	f042 5280 	orr.w	r2, r2, #268435456	; 0x10000000
 80025e0:	61da      	str	r2, [r3, #28]
 80025e2:	69db      	ldr	r3, [r3, #28]
 80025e4:	4a07      	ldr	r2, [pc, #28]	; (8002604 <HAL_MspInit+0x40>)
 80025e6:	f003 5380 	and.w	r3, r3, #268435456	; 0x10000000
 80025ea:	9301      	str	r3, [sp, #4]
 80025ec:	9b01      	ldr	r3, [sp, #4]
 80025ee:	6853      	ldr	r3, [r2, #4]
 80025f0:	f023 63e0 	bic.w	r3, r3, #117440512	; 0x7000000
 80025f4:	f043 6380 	orr.w	r3, r3, #67108864	; 0x4000000
 80025f8:	6053      	str	r3, [r2, #4]
 80025fa:	b002      	add	sp, #8
 80025fc:	4770      	bx	lr
 80025fe:	bf00      	nop
 8002600:	40021000 	.word	0x40021000
 8002604:	40010000 	.word	0x40010000

08002608 <HAL_I2C_MspInit>:
 8002608:	b510      	push	{r4, lr}
 800260a:	4604      	mov	r4, r0
 800260c:	b086      	sub	sp, #24
 800260e:	2210      	movs	r2, #16
 8002610:	2100      	movs	r1, #0
 8002612:	a802      	add	r0, sp, #8
 8002614:	f003 fa84 	bl	8005b20 <memset>
 8002618:	6822      	ldr	r2, [r4, #0]
 800261a:	4b15      	ldr	r3, [pc, #84]	; (8002670 <HAL_I2C_MspInit+0x68>)
 800261c:	429a      	cmp	r2, r3
 800261e:	d124      	bne.n	800266a <HAL_I2C_MspInit+0x62>
 8002620:	4c14      	ldr	r4, [pc, #80]	; (8002674 <HAL_I2C_MspInit+0x6c>)
 8002622:	f44f 7240 	mov.w	r2, #768	; 0x300
 8002626:	69a3      	ldr	r3, [r4, #24]
 8002628:	4813      	ldr	r0, [pc, #76]	; (8002678 <HAL_I2C_MspInit+0x70>)
 800262a:	f043 0308 	orr.w	r3, r3, #8
 800262e:	61a3      	str	r3, [r4, #24]
 8002630:	69a3      	ldr	r3, [r4, #24]
 8002632:	a902      	add	r1, sp, #8
 8002634:	f003 0308 	and.w	r3, r3, #8
 8002638:	9300      	str	r3, [sp, #0]
 800263a:	9b00      	ldr	r3, [sp, #0]
 800263c:	2312      	movs	r3, #18
 800263e:	e9cd 2302 	strd	r2, r3, [sp, #8]
 8002642:	2303      	movs	r3, #3
 8002644:	9305      	str	r3, [sp, #20]
 8002646:	f000 ffdf 	bl	8003608 <HAL_GPIO_Init>
 800264a:	4a0c      	ldr	r2, [pc, #48]	; (800267c <HAL_I2C_MspInit+0x74>)
 800264c:	6853      	ldr	r3, [r2, #4]
 800264e:	f043 63e0 	orr.w	r3, r3, #117440512	; 0x7000000
 8002652:	f043 0302 	orr.w	r3, r3, #2
 8002656:	6053      	str	r3, [r2, #4]
 8002658:	69e3      	ldr	r3, [r4, #28]
 800265a:	f443 1300 	orr.w	r3, r3, #2097152	; 0x200000
 800265e:	61e3      	str	r3, [r4, #28]
 8002660:	69e3      	ldr	r3, [r4, #28]
 8002662:	f403 1300 	and.w	r3, r3, #2097152	; 0x200000
 8002666:	9301      	str	r3, [sp, #4]
 8002668:	9b01      	ldr	r3, [sp, #4]
 800266a:	b006      	add	sp, #24
 800266c:	bd10      	pop	{r4, pc}
 800266e:	bf00      	nop
 8002670:	40005400 	.word	0x40005400
 8002674:	40021000 	.word	0x40021000
 8002678:	40010c00 	.word	0x40010c00
 800267c:	40010000 	.word	0x40010000

08002680 <HAL_SPI_MspInit>:
 8002680:	b510      	push	{r4, lr}
 8002682:	4604      	mov	r4, r0
 8002684:	b086      	sub	sp, #24
 8002686:	2210      	movs	r2, #16
 8002688:	2100      	movs	r1, #0
 800268a:	a802      	add	r0, sp, #8
 800268c:	f003 fa48 	bl	8005b20 <memset>
 8002690:	6822      	ldr	r2, [r4, #0]
 8002692:	4b17      	ldr	r3, [pc, #92]	; (80026f0 <HAL_SPI_MspInit+0x70>)
 8002694:	429a      	cmp	r2, r3
 8002696:	d128      	bne.n	80026ea <HAL_SPI_MspInit+0x6a>
 8002698:	f503 33ec 	add.w	r3, r3, #120832	; 0x1d800
 800269c:	69da      	ldr	r2, [r3, #28]
 800269e:	4815      	ldr	r0, [pc, #84]	; (80026f4 <HAL_SPI_MspInit+0x74>)
 80026a0:	f442 4280 	orr.w	r2, r2, #16384	; 0x4000
 80026a4:	61da      	str	r2, [r3, #28]
 80026a6:	69da      	ldr	r2, [r3, #28]
 80026a8:	a902      	add	r1, sp, #8
 80026aa:	f402 4280 	and.w	r2, r2, #16384	; 0x4000
 80026ae:	9200      	str	r2, [sp, #0]
 80026b0:	9a00      	ldr	r2, [sp, #0]
 80026b2:	699a      	ldr	r2, [r3, #24]
 80026b4:	f042 0208 	orr.w	r2, r2, #8
 80026b8:	619a      	str	r2, [r3, #24]
 80026ba:	699b      	ldr	r3, [r3, #24]
 80026bc:	f44f 4220 	mov.w	r2, #40960	; 0xa000
 80026c0:	f003 0308 	and.w	r3, r3, #8
 80026c4:	9301      	str	r3, [sp, #4]
 80026c6:	9b01      	ldr	r3, [sp, #4]
 80026c8:	2302      	movs	r3, #2
 80026ca:	e9cd 2302 	strd	r2, r3, [sp, #8]
 80026ce:	2303      	movs	r3, #3
 80026d0:	9305      	str	r3, [sp, #20]
 80026d2:	f000 ff99 	bl	8003608 <HAL_GPIO_Init>
 80026d6:	f44f 4180 	mov.w	r1, #16384	; 0x4000
 80026da:	2300      	movs	r3, #0
 80026dc:	4805      	ldr	r0, [pc, #20]	; (80026f4 <HAL_SPI_MspInit+0x74>)
 80026de:	e9cd 1302 	strd	r1, r3, [sp, #8]
 80026e2:	a902      	add	r1, sp, #8
 80026e4:	9304      	str	r3, [sp, #16]
 80026e6:	f000 ff8f 	bl	8003608 <HAL_GPIO_Init>
 80026ea:	b006      	add	sp, #24
 80026ec:	bd10      	pop	{r4, pc}
 80026ee:	bf00      	nop
 80026f0:	40003800 	.word	0x40003800
 80026f4:	40010c00 	.word	0x40010c00

080026f8 <HAL_TIM_Base_MspInit>:
 80026f8:	b570      	push	{r4, r5, r6, lr}
 80026fa:	4606      	mov	r6, r0
 80026fc:	b08a      	sub	sp, #40	; 0x28
 80026fe:	2210      	movs	r2, #16
 8002700:	2100      	movs	r1, #0
 8002702:	a806      	add	r0, sp, #24
 8002704:	f003 fa0c 	bl	8005b20 <memset>
 8002708:	6833      	ldr	r3, [r6, #0]
 800270a:	4a38      	ldr	r2, [pc, #224]	; (80027ec <HAL_TIM_Base_MspInit+0xf4>)
 800270c:	4293      	cmp	r3, r2
 800270e:	d10b      	bne.n	8002728 <HAL_TIM_Base_MspInit+0x30>
 8002710:	4b37      	ldr	r3, [pc, #220]	; (80027f0 <HAL_TIM_Base_MspInit+0xf8>)
 8002712:	699a      	ldr	r2, [r3, #24]
 8002714:	f442 6200 	orr.w	r2, r2, #2048	; 0x800
 8002718:	619a      	str	r2, [r3, #24]
 800271a:	699b      	ldr	r3, [r3, #24]
 800271c:	f403 6300 	and.w	r3, r3, #2048	; 0x800
 8002720:	9301      	str	r3, [sp, #4]
 8002722:	9b01      	ldr	r3, [sp, #4]
 8002724:	b00a      	add	sp, #40	; 0x28
 8002726:	bd70      	pop	{r4, r5, r6, pc}
 8002728:	f1b3 4f80 	cmp.w	r3, #1073741824	; 0x40000000
 800272c:	d134      	bne.n	8002798 <HAL_TIM_Base_MspInit+0xa0>
 800272e:	f503 3304 	add.w	r3, r3, #135168	; 0x21000
 8002732:	69da      	ldr	r2, [r3, #28]
 8002734:	2500      	movs	r5, #0
 8002736:	f042 0201 	orr.w	r2, r2, #1
 800273a:	61da      	str	r2, [r3, #28]
 800273c:	69da      	ldr	r2, [r3, #28]
 800273e:	482d      	ldr	r0, [pc, #180]	; (80027f4 <HAL_TIM_Base_MspInit+0xfc>)
 8002740:	f002 0201 	and.w	r2, r2, #1
 8002744:	9202      	str	r2, [sp, #8]
 8002746:	9a02      	ldr	r2, [sp, #8]
 8002748:	699a      	ldr	r2, [r3, #24]
 800274a:	a906      	add	r1, sp, #24
 800274c:	f042 0204 	orr.w	r2, r2, #4
 8002750:	619a      	str	r2, [r3, #24]
 8002752:	699b      	ldr	r3, [r3, #24]
 8002754:	4c28      	ldr	r4, [pc, #160]	; (80027f8 <HAL_TIM_Base_MspInit+0x100>)
 8002756:	f003 0304 	and.w	r3, r3, #4
 800275a:	9303      	str	r3, [sp, #12]
 800275c:	9b03      	ldr	r3, [sp, #12]
 800275e:	2301      	movs	r3, #1
 8002760:	9508      	str	r5, [sp, #32]
 8002762:	e9cd 3506 	strd	r3, r5, [sp, #24]
 8002766:	f000 ff4f 	bl	8003608 <HAL_GPIO_Init>
 800276a:	4b24      	ldr	r3, [pc, #144]	; (80027fc <HAL_TIM_Base_MspInit+0x104>)
 800276c:	f44f 7280 	mov.w	r2, #256	; 0x100
 8002770:	e9c4 3500 	strd	r3, r5, [r4]
 8002774:	f44f 6380 	mov.w	r3, #1024	; 0x400
 8002778:	e9c4 2304 	strd	r2, r3, [r4, #16]
 800277c:	2320      	movs	r3, #32
 800277e:	4620      	mov	r0, r4
 8002780:	e9c4 5502 	strd	r5, r5, [r4, #8]
 8002784:	e9c4 3506 	strd	r3, r5, [r4, #24]
 8002788:	f000 fdfc 	bl	8003384 <HAL_DMA_Init>
 800278c:	b108      	cbz	r0, 8002792 <HAL_TIM_Base_MspInit+0x9a>
 800278e:	f7ff fc93 	bl	80020b8 <Error_Handler>
 8002792:	6274      	str	r4, [r6, #36]	; 0x24
 8002794:	6266      	str	r6, [r4, #36]	; 0x24
 8002796:	e7c5      	b.n	8002724 <HAL_TIM_Base_MspInit+0x2c>
 8002798:	4a19      	ldr	r2, [pc, #100]	; (8002800 <HAL_TIM_Base_MspInit+0x108>)
 800279a:	4293      	cmp	r3, r2
 800279c:	d112      	bne.n	80027c4 <HAL_TIM_Base_MspInit+0xcc>
 800279e:	4b14      	ldr	r3, [pc, #80]	; (80027f0 <HAL_TIM_Base_MspInit+0xf8>)
 80027a0:	201d      	movs	r0, #29
 80027a2:	69da      	ldr	r2, [r3, #28]
 80027a4:	f042 0202 	orr.w	r2, r2, #2
 80027a8:	61da      	str	r2, [r3, #28]
 80027aa:	2200      	movs	r2, #0
 80027ac:	69db      	ldr	r3, [r3, #28]
 80027ae:	4611      	mov	r1, r2
 80027b0:	f003 0302 	and.w	r3, r3, #2
 80027b4:	9304      	str	r3, [sp, #16]
 80027b6:	9b04      	ldr	r3, [sp, #16]
 80027b8:	f000 fd8e 	bl	80032d8 <HAL_NVIC_SetPriority>
 80027bc:	201d      	movs	r0, #29
 80027be:	f000 fdbd 	bl	800333c <HAL_NVIC_EnableIRQ>
 80027c2:	e7af      	b.n	8002724 <HAL_TIM_Base_MspInit+0x2c>
 80027c4:	4a0f      	ldr	r2, [pc, #60]	; (8002804 <HAL_TIM_Base_MspInit+0x10c>)
 80027c6:	4293      	cmp	r3, r2
 80027c8:	d1ac      	bne.n	8002724 <HAL_TIM_Base_MspInit+0x2c>
 80027ca:	4b09      	ldr	r3, [pc, #36]	; (80027f0 <HAL_TIM_Base_MspInit+0xf8>)
 80027cc:	201e      	movs	r0, #30
 80027ce:	69da      	ldr	r2, [r3, #28]
 80027d0:	f042 0204 	orr.w	r2, r2, #4
 80027d4:	61da      	str	r2, [r3, #28]
 80027d6:	2200      	movs	r2, #0
 80027d8:	69db      	ldr	r3, [r3, #28]
 80027da:	4611      	mov	r1, r2
 80027dc:	f003 0304 	and.w	r3, r3, #4
 80027e0:	9305      	str	r3, [sp, #20]
 80027e2:	9b05      	ldr	r3, [sp, #20]
 80027e4:	f000 fd78 	bl	80032d8 <HAL_NVIC_SetPriority>
 80027e8:	201e      	movs	r0, #30
 80027ea:	e7e8      	b.n	80027be <HAL_TIM_Base_MspInit+0xc6>
 80027ec:	40012c00 	.word	0x40012c00
 80027f0:	40021000 	.word	0x40021000
 80027f4:	40010800 	.word	0x40010800
 80027f8:	20000330 	.word	0x20000330
 80027fc:	40020058 	.word	0x40020058
 8002800:	40000400 	.word	0x40000400
 8002804:	40000800 	.word	0x40000800

08002808 <HAL_TIM_MspPostInit>:
 8002808:	b510      	push	{r4, lr}
 800280a:	4604      	mov	r4, r0
 800280c:	b086      	sub	sp, #24
 800280e:	2210      	movs	r2, #16
 8002810:	2100      	movs	r1, #0
 8002812:	a802      	add	r0, sp, #8
 8002814:	f003 f984 	bl	8005b20 <memset>
 8002818:	6822      	ldr	r2, [r4, #0]
 800281a:	4b0d      	ldr	r3, [pc, #52]	; (8002850 <HAL_TIM_MspPostInit+0x48>)
 800281c:	429a      	cmp	r2, r3
 800281e:	d115      	bne.n	800284c <HAL_TIM_MspPostInit+0x44>
 8002820:	f503 4364 	add.w	r3, r3, #58368	; 0xe400
 8002824:	699a      	ldr	r2, [r3, #24]
 8002826:	480b      	ldr	r0, [pc, #44]	; (8002854 <HAL_TIM_MspPostInit+0x4c>)
 8002828:	f042 0204 	orr.w	r2, r2, #4
 800282c:	619a      	str	r2, [r3, #24]
 800282e:	699b      	ldr	r3, [r3, #24]
 8002830:	f44f 6270 	mov.w	r2, #3840	; 0xf00
 8002834:	f003 0304 	and.w	r3, r3, #4
 8002838:	9301      	str	r3, [sp, #4]
 800283a:	9b01      	ldr	r3, [sp, #4]
 800283c:	2302      	movs	r3, #2
 800283e:	e9cd 2302 	strd	r2, r3, [sp, #8]
 8002842:	2303      	movs	r3, #3
 8002844:	a902      	add	r1, sp, #8
 8002846:	9305      	str	r3, [sp, #20]
 8002848:	f000 fede 	bl	8003608 <HAL_GPIO_Init>
 800284c:	b006      	add	sp, #24
 800284e:	bd10      	pop	{r4, pc}
 8002850:	40012c00 	.word	0x40012c00
 8002854:	40010800 	.word	0x40010800

08002858 <HAL_UART_MspInit>:
 8002858:	b510      	push	{r4, lr}
 800285a:	4604      	mov	r4, r0
 800285c:	b086      	sub	sp, #24
 800285e:	2210      	movs	r2, #16
 8002860:	2100      	movs	r1, #0
 8002862:	a802      	add	r0, sp, #8
 8002864:	f003 f95c 	bl	8005b20 <memset>
 8002868:	6822      	ldr	r2, [r4, #0]
 800286a:	4b19      	ldr	r3, [pc, #100]	; (80028d0 <HAL_UART_MspInit+0x78>)
 800286c:	429a      	cmp	r2, r3
 800286e:	d12d      	bne.n	80028cc <HAL_UART_MspInit+0x74>
 8002870:	f503 4358 	add.w	r3, r3, #55296	; 0xd800
 8002874:	699a      	ldr	r2, [r3, #24]
 8002876:	4817      	ldr	r0, [pc, #92]	; (80028d4 <HAL_UART_MspInit+0x7c>)
 8002878:	f442 4280 	orr.w	r2, r2, #16384	; 0x4000
 800287c:	619a      	str	r2, [r3, #24]
 800287e:	699a      	ldr	r2, [r3, #24]
 8002880:	a902      	add	r1, sp, #8
 8002882:	f402 4280 	and.w	r2, r2, #16384	; 0x4000
 8002886:	9200      	str	r2, [sp, #0]
 8002888:	9a00      	ldr	r2, [sp, #0]
 800288a:	699a      	ldr	r2, [r3, #24]
 800288c:	f042 0208 	orr.w	r2, r2, #8
 8002890:	619a      	str	r2, [r3, #24]
 8002892:	699b      	ldr	r3, [r3, #24]
 8002894:	2240      	movs	r2, #64	; 0x40
 8002896:	f003 0308 	and.w	r3, r3, #8
 800289a:	9301      	str	r3, [sp, #4]
 800289c:	9b01      	ldr	r3, [sp, #4]
 800289e:	2302      	movs	r3, #2
 80028a0:	e9cd 2302 	strd	r2, r3, [sp, #8]
 80028a4:	2303      	movs	r3, #3
 80028a6:	9305      	str	r3, [sp, #20]
 80028a8:	f000 feae 	bl	8003608 <HAL_GPIO_Init>
 80028ac:	2300      	movs	r3, #0
 80028ae:	2180      	movs	r1, #128	; 0x80
 80028b0:	4808      	ldr	r0, [pc, #32]	; (80028d4 <HAL_UART_MspInit+0x7c>)
 80028b2:	e9cd 1302 	strd	r1, r3, [sp, #8]
 80028b6:	a902      	add	r1, sp, #8
 80028b8:	9304      	str	r3, [sp, #16]
 80028ba:	f000 fea5 	bl	8003608 <HAL_GPIO_Init>
 80028be:	4a06      	ldr	r2, [pc, #24]	; (80028d8 <HAL_UART_MspInit+0x80>)
 80028c0:	6853      	ldr	r3, [r2, #4]
 80028c2:	f043 63e0 	orr.w	r3, r3, #117440512	; 0x7000000
 80028c6:	f043 0304 	orr.w	r3, r3, #4
 80028ca:	6053      	str	r3, [r2, #4]
 80028cc:	b006      	add	sp, #24
 80028ce:	bd10      	pop	{r4, pc}
 80028d0:	40013800 	.word	0x40013800
 80028d4:	40010c00 	.word	0x40010c00
 80028d8:	40010000 	.word	0x40010000

080028dc <NMI_Handler>:
 80028dc:	e7fe      	b.n	80028dc <NMI_Handler>

080028de <HardFault_Handler>:
 80028de:	e7fe      	b.n	80028de <HardFault_Handler>

080028e0 <MemManage_Handler>:
 80028e0:	e7fe      	b.n	80028e0 <MemManage_Handler>

080028e2 <BusFault_Handler>:
 80028e2:	e7fe      	b.n	80028e2 <BusFault_Handler>

080028e4 <UsageFault_Handler>:
 80028e4:	e7fe      	b.n	80028e4 <UsageFault_Handler>

080028e6 <SVC_Handler>:
 80028e6:	4770      	bx	lr

080028e8 <DebugMon_Handler>:
 80028e8:	4770      	bx	lr

080028ea <PendSV_Handler>:
 80028ea:	4770      	bx	lr

080028ec <SysTick_Handler>:
 80028ec:	b510      	push	{r4, lr}
 80028ee:	4c08      	ldr	r4, [pc, #32]	; (8002910 <SysTick_Handler+0x24>)
 80028f0:	8823      	ldrh	r3, [r4, #0]
 80028f2:	3301      	adds	r3, #1
 80028f4:	b29b      	uxth	r3, r3
 80028f6:	f5b3 7f7a 	cmp.w	r3, #1000	; 0x3e8
 80028fa:	8023      	strh	r3, [r4, #0]
 80028fc:	d103      	bne.n	8002906 <SysTick_Handler+0x1a>
 80028fe:	f7fe fb9b 	bl	8001038 <DHCP_time_handler>
 8002902:	2300      	movs	r3, #0
 8002904:	8023      	strh	r3, [r4, #0]
 8002906:	e8bd 4010 	ldmia.w	sp!, {r4, lr}
 800290a:	f000 bcaf 	b.w	800326c <HAL_IncTick>
 800290e:	bf00      	nop
 8002910:	200002e8 	.word	0x200002e8

08002914 <DMA1_Channel5_IRQHandler>:
 8002914:	b508      	push	{r3, lr}
 8002916:	4b25      	ldr	r3, [pc, #148]	; (80029ac <DMA1_Channel5_IRQHandler+0x98>)
 8002918:	781b      	ldrb	r3, [r3, #0]
 800291a:	b32b      	cbz	r3, 8002968 <DMA1_Channel5_IRQHandler+0x54>
 800291c:	2100      	movs	r1, #0
 800291e:	4824      	ldr	r0, [pc, #144]	; (80029b0 <DMA1_Channel5_IRQHandler+0x9c>)
 8002920:	f002 fbe8 	bl	80050f4 <HAL_TIM_IC_Stop_DMA>
 8002924:	4a23      	ldr	r2, [pc, #140]	; (80029b4 <DMA1_Channel5_IRQHandler+0xa0>)
 8002926:	68d3      	ldr	r3, [r2, #12]
 8002928:	f423 6340 	bic.w	r3, r3, #3072	; 0xc00
 800292c:	f023 0306 	bic.w	r3, r3, #6
 8002930:	60d3      	str	r3, [r2, #12]
 8002932:	4b21      	ldr	r3, [pc, #132]	; (80029b8 <DMA1_Channel5_IRQHandler+0xa4>)
 8002934:	881b      	ldrh	r3, [r3, #0]
 8002936:	3b01      	subs	r3, #1
 8002938:	2b07      	cmp	r3, #7
 800293a:	d809      	bhi.n	8002950 <DMA1_Channel5_IRQHandler+0x3c>
 800293c:	e8df f003 	tbb	[pc, r3]
 8002940:	211d1904 	.word	0x211d1904
 8002944:	312d2925 	.word	0x312d2925
 8002948:	4b1c      	ldr	r3, [pc, #112]	; (80029bc <DMA1_Channel5_IRQHandler+0xa8>)
 800294a:	681a      	ldr	r2, [r3, #0]
 800294c:	4b1c      	ldr	r3, [pc, #112]	; (80029c0 <DMA1_Channel5_IRQHandler+0xac>)
 800294e:	801a      	strh	r2, [r3, #0]
 8002950:	2201      	movs	r2, #1
 8002952:	f44f 5180 	mov.w	r1, #4096	; 0x1000
 8002956:	481b      	ldr	r0, [pc, #108]	; (80029c4 <DMA1_Channel5_IRQHandler+0xb0>)
 8002958:	f000 ff32 	bl	80037c0 <HAL_GPIO_WritePin>
 800295c:	2200      	movs	r2, #0
 800295e:	f44f 5180 	mov.w	r1, #4096	; 0x1000
 8002962:	4818      	ldr	r0, [pc, #96]	; (80029c4 <DMA1_Channel5_IRQHandler+0xb0>)
 8002964:	f000 ff2c 	bl	80037c0 <HAL_GPIO_WritePin>
 8002968:	e8bd 4008 	ldmia.w	sp!, {r3, lr}
 800296c:	4816      	ldr	r0, [pc, #88]	; (80029c8 <DMA1_Channel5_IRQHandler+0xb4>)
 800296e:	f000 bdb9 	b.w	80034e4 <HAL_DMA_IRQHandler>
 8002972:	4b12      	ldr	r3, [pc, #72]	; (80029bc <DMA1_Channel5_IRQHandler+0xa8>)
 8002974:	681a      	ldr	r2, [r3, #0]
 8002976:	4b15      	ldr	r3, [pc, #84]	; (80029cc <DMA1_Channel5_IRQHandler+0xb8>)
 8002978:	e7e9      	b.n	800294e <DMA1_Channel5_IRQHandler+0x3a>
 800297a:	4b10      	ldr	r3, [pc, #64]	; (80029bc <DMA1_Channel5_IRQHandler+0xa8>)
 800297c:	681a      	ldr	r2, [r3, #0]
 800297e:	4b14      	ldr	r3, [pc, #80]	; (80029d0 <DMA1_Channel5_IRQHandler+0xbc>)
 8002980:	e7e5      	b.n	800294e <DMA1_Channel5_IRQHandler+0x3a>
 8002982:	4b0e      	ldr	r3, [pc, #56]	; (80029bc <DMA1_Channel5_IRQHandler+0xa8>)
 8002984:	681a      	ldr	r2, [r3, #0]
 8002986:	4b13      	ldr	r3, [pc, #76]	; (80029d4 <DMA1_Channel5_IRQHandler+0xc0>)
 8002988:	e7e1      	b.n	800294e <DMA1_Channel5_IRQHandler+0x3a>
 800298a:	4b0c      	ldr	r3, [pc, #48]	; (80029bc <DMA1_Channel5_IRQHandler+0xa8>)
 800298c:	681a      	ldr	r2, [r3, #0]
 800298e:	4b12      	ldr	r3, [pc, #72]	; (80029d8 <DMA1_Channel5_IRQHandler+0xc4>)
 8002990:	e7dd      	b.n	800294e <DMA1_Channel5_IRQHandler+0x3a>
 8002992:	4b0a      	ldr	r3, [pc, #40]	; (80029bc <DMA1_Channel5_IRQHandler+0xa8>)
 8002994:	681a      	ldr	r2, [r3, #0]
 8002996:	4b11      	ldr	r3, [pc, #68]	; (80029dc <DMA1_Channel5_IRQHandler+0xc8>)
 8002998:	e7d9      	b.n	800294e <DMA1_Channel5_IRQHandler+0x3a>
 800299a:	4b08      	ldr	r3, [pc, #32]	; (80029bc <DMA1_Channel5_IRQHandler+0xa8>)
 800299c:	681a      	ldr	r2, [r3, #0]
 800299e:	4b10      	ldr	r3, [pc, #64]	; (80029e0 <DMA1_Channel5_IRQHandler+0xcc>)
 80029a0:	e7d5      	b.n	800294e <DMA1_Channel5_IRQHandler+0x3a>
 80029a2:	4b06      	ldr	r3, [pc, #24]	; (80029bc <DMA1_Channel5_IRQHandler+0xa8>)
 80029a4:	681a      	ldr	r2, [r3, #0]
 80029a6:	4b0f      	ldr	r3, [pc, #60]	; (80029e4 <DMA1_Channel5_IRQHandler+0xd0>)
 80029a8:	e7d1      	b.n	800294e <DMA1_Channel5_IRQHandler+0x3a>
 80029aa:	bf00      	nop
 80029ac:	2000052c 	.word	0x2000052c
 80029b0:	2000058c 	.word	0x2000058c
 80029b4:	40010c00 	.word	0x40010c00
 80029b8:	20000586 	.word	0x20000586
 80029bc:	200004d8 	.word	0x200004d8
 80029c0:	2000052e 	.word	0x2000052e
 80029c4:	40010800 	.word	0x40010800
 80029c8:	20000330 	.word	0x20000330
 80029cc:	20000478 	.word	0x20000478
 80029d0:	20000588 	.word	0x20000588
 80029d4:	20000584 	.word	0x20000584
 80029d8:	20000488 	.word	0x20000488
 80029dc:	20000538 	.word	0x20000538
 80029e0:	2000047a 	.word	0x2000047a
 80029e4:	20000414 	.word	0x20000414

080029e8 <TIM3_IRQHandler>:
 80029e8:	2201      	movs	r2, #1
 80029ea:	b510      	push	{r4, lr}
 80029ec:	4c09      	ldr	r4, [pc, #36]	; (8002a14 <TIM3_IRQHandler+0x2c>)
 80029ee:	4b0a      	ldr	r3, [pc, #40]	; (8002a18 <TIM3_IRQHandler+0x30>)
 80029f0:	4620      	mov	r0, r4
 80029f2:	f44f 5180 	mov.w	r1, #4096	; 0x1000
 80029f6:	701a      	strb	r2, [r3, #0]
 80029f8:	f000 fee2 	bl	80037c0 <HAL_GPIO_WritePin>
 80029fc:	4620      	mov	r0, r4
 80029fe:	2200      	movs	r2, #0
 8002a00:	f44f 5180 	mov.w	r1, #4096	; 0x1000
 8002a04:	f000 fedc 	bl	80037c0 <HAL_GPIO_WritePin>
 8002a08:	e8bd 4010 	ldmia.w	sp!, {r4, lr}
 8002a0c:	4803      	ldr	r0, [pc, #12]	; (8002a1c <TIM3_IRQHandler+0x34>)
 8002a0e:	f001 be31 	b.w	8004674 <HAL_TIM_IRQHandler>
 8002a12:	bf00      	nop
 8002a14:	40010800 	.word	0x40010800
 8002a18:	2000052c 	.word	0x2000052c
 8002a1c:	20000490 	.word	0x20000490

08002a20 <TIM4_IRQHandler>:
 8002a20:	b538      	push	{r3, r4, r5, lr}
 8002a22:	4d62      	ldr	r5, [pc, #392]	; (8002bac <TIM4_IRQHandler+0x18c>)
 8002a24:	2100      	movs	r1, #0
 8002a26:	68ea      	ldr	r2, [r5, #12]
 8002a28:	4861      	ldr	r0, [pc, #388]	; (8002bb0 <TIM4_IRQHandler+0x190>)
 8002a2a:	f422 6240 	bic.w	r2, r2, #3072	; 0xc00
 8002a2e:	f022 0206 	bic.w	r2, r2, #6
 8002a32:	60ea      	str	r2, [r5, #12]
 8002a34:	f002 fb5e 	bl	80050f4 <HAL_TIM_IC_Stop_DMA>
 8002a38:	2100      	movs	r1, #0
 8002a3a:	485e      	ldr	r0, [pc, #376]	; (8002bb4 <TIM4_IRQHandler+0x194>)
 8002a3c:	f002 fa4a 	bl	8004ed4 <HAL_TIM_OC_Stop>
 8002a40:	2104      	movs	r1, #4
 8002a42:	485c      	ldr	r0, [pc, #368]	; (8002bb4 <TIM4_IRQHandler+0x194>)
 8002a44:	f002 fa46 	bl	8004ed4 <HAL_TIM_OC_Stop>
 8002a48:	2108      	movs	r1, #8
 8002a4a:	485a      	ldr	r0, [pc, #360]	; (8002bb4 <TIM4_IRQHandler+0x194>)
 8002a4c:	f002 fa42 	bl	8004ed4 <HAL_TIM_OC_Stop>
 8002a50:	210c      	movs	r1, #12
 8002a52:	4858      	ldr	r0, [pc, #352]	; (8002bb4 <TIM4_IRQHandler+0x194>)
 8002a54:	f002 fa3e 	bl	8004ed4 <HAL_TIM_OC_Stop>
 8002a58:	4a57      	ldr	r2, [pc, #348]	; (8002bb8 <TIM4_IRQHandler+0x198>)
 8002a5a:	4c58      	ldr	r4, [pc, #352]	; (8002bbc <TIM4_IRQHandler+0x19c>)
 8002a5c:	6851      	ldr	r1, [r2, #4]
 8002a5e:	0c09      	lsrs	r1, r1, #16
 8002a60:	0409      	lsls	r1, r1, #16
 8002a62:	f441 4188 	orr.w	r1, r1, #17408	; 0x4400
 8002a66:	f041 0144 	orr.w	r1, r1, #68	; 0x44
 8002a6a:	6051      	str	r1, [r2, #4]
 8002a6c:	8821      	ldrh	r1, [r4, #0]
 8002a6e:	1c4b      	adds	r3, r1, #1
 8002a70:	8023      	strh	r3, [r4, #0]
 8002a72:	462b      	mov	r3, r5
 8002a74:	2908      	cmp	r1, #8
 8002a76:	d820      	bhi.n	8002aba <TIM4_IRQHandler+0x9a>
 8002a78:	e8df f001 	tbb	[pc, r1]
 8002a7c:	362c1105 	.word	0x362c1105
 8002a80:	62584c42 	.word	0x62584c42
 8002a84:	6c          	.byte	0x6c
 8002a85:	00          	.byte	0x00
 8002a86:	6851      	ldr	r1, [r2, #4]
 8002a88:	f021 010e 	bic.w	r1, r1, #14
 8002a8c:	f041 010a 	orr.w	r1, r1, #10
 8002a90:	6051      	str	r1, [r2, #4]
 8002a92:	68ea      	ldr	r2, [r5, #12]
 8002a94:	f042 0204 	orr.w	r2, r2, #4
 8002a98:	2100      	movs	r1, #0
 8002a9a:	60da      	str	r2, [r3, #12]
 8002a9c:	e00a      	b.n	8002ab4 <TIM4_IRQHandler+0x94>
 8002a9e:	6851      	ldr	r1, [r2, #4]
 8002aa0:	f021 01e0 	bic.w	r1, r1, #224	; 0xe0
 8002aa4:	f041 01a0 	orr.w	r1, r1, #160	; 0xa0
 8002aa8:	6051      	str	r1, [r2, #4]
 8002aaa:	68ea      	ldr	r2, [r5, #12]
 8002aac:	f042 0202 	orr.w	r2, r2, #2
 8002ab0:	2104      	movs	r1, #4
 8002ab2:	60da      	str	r2, [r3, #12]
 8002ab4:	483f      	ldr	r0, [pc, #252]	; (8002bb4 <TIM4_IRQHandler+0x194>)
 8002ab6:	f002 f9bf 	bl	8004e38 <HAL_TIM_OC_Start>
 8002aba:	2100      	movs	r1, #0
 8002abc:	4b40      	ldr	r3, [pc, #256]	; (8002bc0 <TIM4_IRQHandler+0x1a0>)
 8002abe:	4a41      	ldr	r2, [pc, #260]	; (8002bc4 <TIM4_IRQHandler+0x1a4>)
 8002ac0:	7019      	strb	r1, [r3, #0]
 8002ac2:	483b      	ldr	r0, [pc, #236]	; (8002bb0 <TIM4_IRQHandler+0x190>)
 8002ac4:	2301      	movs	r3, #1
 8002ac6:	f002 fa41 	bl	8004f4c <HAL_TIM_IC_Start_DMA>
 8002aca:	e8bd 4038 	ldmia.w	sp!, {r3, r4, r5, lr}
 8002ace:	483e      	ldr	r0, [pc, #248]	; (8002bc8 <TIM4_IRQHandler+0x1a8>)
 8002ad0:	f001 bdd0 	b.w	8004674 <HAL_TIM_IRQHandler>
 8002ad4:	6851      	ldr	r1, [r2, #4]
 8002ad6:	f021 01e0 	bic.w	r1, r1, #224	; 0xe0
 8002ada:	f041 01a0 	orr.w	r1, r1, #160	; 0xa0
 8002ade:	6051      	str	r1, [r2, #4]
 8002ae0:	68ea      	ldr	r2, [r5, #12]
 8002ae2:	f442 6280 	orr.w	r2, r2, #1024	; 0x400
 8002ae6:	e7e3      	b.n	8002ab0 <TIM4_IRQHandler+0x90>
 8002ae8:	6851      	ldr	r1, [r2, #4]
 8002aea:	f421 6160 	bic.w	r1, r1, #3584	; 0xe00
 8002aee:	f441 6120 	orr.w	r1, r1, #2560	; 0xa00
 8002af2:	6051      	str	r1, [r2, #4]
 8002af4:	68ea      	ldr	r2, [r5, #12]
 8002af6:	f042 0204 	orr.w	r2, r2, #4
 8002afa:	2108      	movs	r1, #8
 8002afc:	60da      	str	r2, [r3, #12]
 8002afe:	e7d9      	b.n	8002ab4 <TIM4_IRQHandler+0x94>
 8002b00:	6851      	ldr	r1, [r2, #4]
 8002b02:	f421 6160 	bic.w	r1, r1, #3584	; 0xe00
 8002b06:	f441 6120 	orr.w	r1, r1, #2560	; 0xa00
 8002b0a:	6051      	str	r1, [r2, #4]
 8002b0c:	68ea      	ldr	r2, [r5, #12]
 8002b0e:	f442 6200 	orr.w	r2, r2, #2048	; 0x800
 8002b12:	e7f2      	b.n	8002afa <TIM4_IRQHandler+0xda>
 8002b14:	6851      	ldr	r1, [r2, #4]
 8002b16:	f421 4160 	bic.w	r1, r1, #57344	; 0xe000
 8002b1a:	f441 4120 	orr.w	r1, r1, #40960	; 0xa000
 8002b1e:	6051      	str	r1, [r2, #4]
 8002b20:	68ea      	ldr	r2, [r5, #12]
 8002b22:	f442 6280 	orr.w	r2, r2, #1024	; 0x400
 8002b26:	210c      	movs	r1, #12
 8002b28:	60da      	str	r2, [r3, #12]
 8002b2a:	e7c3      	b.n	8002ab4 <TIM4_IRQHandler+0x94>
 8002b2c:	6851      	ldr	r1, [r2, #4]
 8002b2e:	f421 4160 	bic.w	r1, r1, #57344	; 0xe000
 8002b32:	f441 4120 	orr.w	r1, r1, #40960	; 0xa000
 8002b36:	6051      	str	r1, [r2, #4]
 8002b38:	68ea      	ldr	r2, [r5, #12]
 8002b3a:	f042 0202 	orr.w	r2, r2, #2
 8002b3e:	e7f2      	b.n	8002b26 <TIM4_IRQHandler+0x106>
 8002b40:	6851      	ldr	r1, [r2, #4]
 8002b42:	f021 010e 	bic.w	r1, r1, #14
 8002b46:	f041 010a 	orr.w	r1, r1, #10
 8002b4a:	6051      	str	r1, [r2, #4]
 8002b4c:	68ea      	ldr	r2, [r5, #12]
 8002b4e:	f442 6200 	orr.w	r2, r2, #2048	; 0x800
 8002b52:	e7a1      	b.n	8002a98 <TIM4_IRQHandler+0x78>
 8002b54:	2201      	movs	r2, #1
 8002b56:	4b1d      	ldr	r3, [pc, #116]	; (8002bcc <TIM4_IRQHandler+0x1ac>)
 8002b58:	701a      	strb	r2, [r3, #0]
 8002b5a:	4b1d      	ldr	r3, [pc, #116]	; (8002bd0 <TIM4_IRQHandler+0x1b0>)
 8002b5c:	8818      	ldrh	r0, [r3, #0]
 8002b5e:	4b1d      	ldr	r3, [pc, #116]	; (8002bd4 <TIM4_IRQHandler+0x1b4>)
 8002b60:	881b      	ldrh	r3, [r3, #0]
 8002b62:	1ac0      	subs	r0, r0, r3
 8002b64:	4b1c      	ldr	r3, [pc, #112]	; (8002bd8 <TIM4_IRQHandler+0x1b8>)
 8002b66:	881b      	ldrh	r3, [r3, #0]
 8002b68:	4418      	add	r0, r3
 8002b6a:	4b1c      	ldr	r3, [pc, #112]	; (8002bdc <TIM4_IRQHandler+0x1bc>)
 8002b6c:	881b      	ldrh	r3, [r3, #0]
 8002b6e:	1ac0      	subs	r0, r0, r3
 8002b70:	eb00 70d0 	add.w	r0, r0, r0, lsr #31
 8002b74:	4110      	asrs	r0, r2
 8002b76:	f7fd fc45 	bl	8000404 <__aeabi_i2d>
 8002b7a:	4b19      	ldr	r3, [pc, #100]	; (8002be0 <TIM4_IRQHandler+0x1c0>)
 8002b7c:	e9c3 0100 	strd	r0, r1, [r3]
 8002b80:	4b18      	ldr	r3, [pc, #96]	; (8002be4 <TIM4_IRQHandler+0x1c4>)
 8002b82:	8818      	ldrh	r0, [r3, #0]
 8002b84:	4b18      	ldr	r3, [pc, #96]	; (8002be8 <TIM4_IRQHandler+0x1c8>)
 8002b86:	881b      	ldrh	r3, [r3, #0]
 8002b88:	1ac0      	subs	r0, r0, r3
 8002b8a:	4b18      	ldr	r3, [pc, #96]	; (8002bec <TIM4_IRQHandler+0x1cc>)
 8002b8c:	881b      	ldrh	r3, [r3, #0]
 8002b8e:	4418      	add	r0, r3
 8002b90:	4b17      	ldr	r3, [pc, #92]	; (8002bf0 <TIM4_IRQHandler+0x1d0>)
 8002b92:	881b      	ldrh	r3, [r3, #0]
 8002b94:	1ac0      	subs	r0, r0, r3
 8002b96:	eb00 70d0 	add.w	r0, r0, r0, lsr #31
 8002b9a:	1040      	asrs	r0, r0, #1
 8002b9c:	f7fd fc32 	bl	8000404 <__aeabi_i2d>
 8002ba0:	4b14      	ldr	r3, [pc, #80]	; (8002bf4 <TIM4_IRQHandler+0x1d4>)
 8002ba2:	e9c3 0100 	strd	r0, r1, [r3]
 8002ba6:	2300      	movs	r3, #0
 8002ba8:	8023      	strh	r3, [r4, #0]
 8002baa:	e786      	b.n	8002aba <TIM4_IRQHandler+0x9a>
 8002bac:	40010c00 	.word	0x40010c00
 8002bb0:	2000058c 	.word	0x2000058c
 8002bb4:	2000053c 	.word	0x2000053c
 8002bb8:	40010800 	.word	0x40010800
 8002bbc:	20000586 	.word	0x20000586
 8002bc0:	2000052c 	.word	0x2000052c
 8002bc4:	200004d8 	.word	0x200004d8
 8002bc8:	200003cc 	.word	0x200003cc
 8002bcc:	20000320 	.word	0x20000320
 8002bd0:	2000052e 	.word	0x2000052e
 8002bd4:	20000478 	.word	0x20000478
 8002bd8:	20000538 	.word	0x20000538
 8002bdc:	20000488 	.word	0x20000488
 8002be0:	200005d8 	.word	0x200005d8
 8002be4:	20000588 	.word	0x20000588
 8002be8:	20000584 	.word	0x20000584
 8002bec:	20000414 	.word	0x20000414
 8002bf0:	2000047a 	.word	0x2000047a
 8002bf4:	20000480 	.word	0x20000480

08002bf8 <_getpid>:
 8002bf8:	2001      	movs	r0, #1
 8002bfa:	4770      	bx	lr

08002bfc <_kill>:
 8002bfc:	b508      	push	{r3, lr}
 8002bfe:	f002 ff65 	bl	8005acc <__errno>
 8002c02:	2316      	movs	r3, #22
 8002c04:	6003      	str	r3, [r0, #0]
 8002c06:	f04f 30ff 	mov.w	r0, #4294967295	; 0xffffffff
 8002c0a:	bd08      	pop	{r3, pc}

08002c0c <_exit>:
 8002c0c:	b508      	push	{r3, lr}
 8002c0e:	f002 ff5d 	bl	8005acc <__errno>
 8002c12:	2316      	movs	r3, #22
 8002c14:	6003      	str	r3, [r0, #0]
 8002c16:	e7fe      	b.n	8002c16 <_exit+0xa>

08002c18 <_read>:
 8002c18:	b570      	push	{r4, r5, r6, lr}
 8002c1a:	460e      	mov	r6, r1
 8002c1c:	4614      	mov	r4, r2
 8002c1e:	2500      	movs	r5, #0
 8002c20:	42a5      	cmp	r5, r4
 8002c22:	db01      	blt.n	8002c28 <_read+0x10>
 8002c24:	4620      	mov	r0, r4
 8002c26:	bd70      	pop	{r4, r5, r6, pc}
 8002c28:	f3af 8000 	nop.w
 8002c2c:	5570      	strb	r0, [r6, r5]
 8002c2e:	3501      	adds	r5, #1
 8002c30:	e7f6      	b.n	8002c20 <_read+0x8>

08002c32 <_write>:
 8002c32:	b570      	push	{r4, r5, r6, lr}
 8002c34:	460e      	mov	r6, r1
 8002c36:	4614      	mov	r4, r2
 8002c38:	2500      	movs	r5, #0
 8002c3a:	42a5      	cmp	r5, r4
 8002c3c:	db01      	blt.n	8002c42 <_write+0x10>
 8002c3e:	4620      	mov	r0, r4
 8002c40:	bd70      	pop	{r4, r5, r6, pc}
 8002c42:	5d70      	ldrb	r0, [r6, r5]
 8002c44:	f3af 8000 	nop.w
 8002c48:	3501      	adds	r5, #1
 8002c4a:	e7f6      	b.n	8002c3a <_write+0x8>

08002c4c <_close>:
 8002c4c:	f04f 30ff 	mov.w	r0, #4294967295	; 0xffffffff
 8002c50:	4770      	bx	lr

08002c52 <_fstat>:
 8002c52:	f44f 5300 	mov.w	r3, #8192	; 0x2000
 8002c56:	2000      	movs	r0, #0
 8002c58:	604b      	str	r3, [r1, #4]
 8002c5a:	4770      	bx	lr

08002c5c <_isatty>:
 8002c5c:	2001      	movs	r0, #1
 8002c5e:	4770      	bx	lr

08002c60 <_lseek>:
 8002c60:	2000      	movs	r0, #0
 8002c62:	4770      	bx	lr

08002c64 <_sbrk>:
 8002c64:	4b0b      	ldr	r3, [pc, #44]	; (8002c94 <_sbrk+0x30>)
 8002c66:	4602      	mov	r2, r0
 8002c68:	6819      	ldr	r1, [r3, #0]
 8002c6a:	b510      	push	{r4, lr}
 8002c6c:	b909      	cbnz	r1, 8002c72 <_sbrk+0xe>
 8002c6e:	490a      	ldr	r1, [pc, #40]	; (8002c98 <_sbrk+0x34>)
 8002c70:	6019      	str	r1, [r3, #0]
 8002c72:	6818      	ldr	r0, [r3, #0]
 8002c74:	4909      	ldr	r1, [pc, #36]	; (8002c9c <_sbrk+0x38>)
 8002c76:	4c0a      	ldr	r4, [pc, #40]	; (8002ca0 <_sbrk+0x3c>)
 8002c78:	4402      	add	r2, r0
 8002c7a:	1b09      	subs	r1, r1, r4
 8002c7c:	428a      	cmp	r2, r1
 8002c7e:	d906      	bls.n	8002c8e <_sbrk+0x2a>
 8002c80:	f002 ff24 	bl	8005acc <__errno>
 8002c84:	230c      	movs	r3, #12
 8002c86:	6003      	str	r3, [r0, #0]
 8002c88:	f04f 30ff 	mov.w	r0, #4294967295	; 0xffffffff
 8002c8c:	bd10      	pop	{r4, pc}
 8002c8e:	601a      	str	r2, [r3, #0]
 8002c90:	e7fc      	b.n	8002c8c <_sbrk+0x28>
 8002c92:	bf00      	nop
 8002c94:	200002ec 	.word	0x200002ec
 8002c98:	200005f8 	.word	0x200005f8
 8002c9c:	20005000 	.word	0x20005000
 8002ca0:	00000400 	.word	0x00000400

08002ca4 <SystemInit>:
 8002ca4:	4770      	bx	lr
	...

08002ca8 <WIZCHIP_READ>:
 8002ca8:	b573      	push	{r0, r1, r4, r5, r6, lr}
 8002caa:	4605      	mov	r5, r0
 8002cac:	4c14      	ldr	r4, [pc, #80]	; (8002d00 <WIZCHIP_READ+0x58>)
 8002cae:	f3c5 2607 	ubfx	r6, r5, #8, #8
 8002cb2:	68e3      	ldr	r3, [r4, #12]
 8002cb4:	4798      	blx	r3
 8002cb6:	6963      	ldr	r3, [r4, #20]
 8002cb8:	4798      	blx	r3
 8002cba:	6a63      	ldr	r3, [r4, #36]	; 0x24
 8002cbc:	f3c5 4007 	ubfx	r0, r5, #16, #8
 8002cc0:	b2ed      	uxtb	r5, r5
 8002cc2:	b10b      	cbz	r3, 8002cc8 <WIZCHIP_READ+0x20>
 8002cc4:	6aa3      	ldr	r3, [r4, #40]	; 0x28
 8002cc6:	b98b      	cbnz	r3, 8002cec <WIZCHIP_READ+0x44>
 8002cc8:	6a23      	ldr	r3, [r4, #32]
 8002cca:	4798      	blx	r3
 8002ccc:	4630      	mov	r0, r6
 8002cce:	6a23      	ldr	r3, [r4, #32]
 8002cd0:	4798      	blx	r3
 8002cd2:	4628      	mov	r0, r5
 8002cd4:	6a23      	ldr	r3, [r4, #32]
 8002cd6:	4798      	blx	r3
 8002cd8:	69e3      	ldr	r3, [r4, #28]
 8002cda:	4798      	blx	r3
 8002cdc:	4605      	mov	r5, r0
 8002cde:	69a3      	ldr	r3, [r4, #24]
 8002ce0:	4798      	blx	r3
 8002ce2:	6923      	ldr	r3, [r4, #16]
 8002ce4:	4798      	blx	r3
 8002ce6:	4628      	mov	r0, r5
 8002ce8:	b002      	add	sp, #8
 8002cea:	bd70      	pop	{r4, r5, r6, pc}
 8002cec:	f88d 0004 	strb.w	r0, [sp, #4]
 8002cf0:	2103      	movs	r1, #3
 8002cf2:	f88d 6005 	strb.w	r6, [sp, #5]
 8002cf6:	f88d 5006 	strb.w	r5, [sp, #6]
 8002cfa:	a801      	add	r0, sp, #4
 8002cfc:	4798      	blx	r3
 8002cfe:	e7eb      	b.n	8002cd8 <WIZCHIP_READ+0x30>
 8002d00:	20000024 	.word	0x20000024

08002d04 <WIZCHIP_WRITE>:
 8002d04:	b5f7      	push	{r0, r1, r2, r4, r5, r6, r7, lr}
 8002d06:	4605      	mov	r5, r0
 8002d08:	4c16      	ldr	r4, [pc, #88]	; (8002d64 <WIZCHIP_WRITE+0x60>)
 8002d0a:	460f      	mov	r7, r1
 8002d0c:	68e3      	ldr	r3, [r4, #12]
 8002d0e:	4798      	blx	r3
 8002d10:	6963      	ldr	r3, [r4, #20]
 8002d12:	4798      	blx	r3
 8002d14:	6aa3      	ldr	r3, [r4, #40]	; 0x28
 8002d16:	f045 0604 	orr.w	r6, r5, #4
 8002d1a:	f3c5 4007 	ubfx	r0, r5, #16, #8
 8002d1e:	b2f6      	uxtb	r6, r6
 8002d20:	f3c5 2507 	ubfx	r5, r5, #8, #8
 8002d24:	b983      	cbnz	r3, 8002d48 <WIZCHIP_WRITE+0x44>
 8002d26:	6a23      	ldr	r3, [r4, #32]
 8002d28:	4798      	blx	r3
 8002d2a:	4628      	mov	r0, r5
 8002d2c:	6a23      	ldr	r3, [r4, #32]
 8002d2e:	4798      	blx	r3
 8002d30:	4630      	mov	r0, r6
 8002d32:	6a23      	ldr	r3, [r4, #32]
 8002d34:	4798      	blx	r3
 8002d36:	4638      	mov	r0, r7
 8002d38:	6a23      	ldr	r3, [r4, #32]
 8002d3a:	4798      	blx	r3
 8002d3c:	69a3      	ldr	r3, [r4, #24]
 8002d3e:	4798      	blx	r3
 8002d40:	6923      	ldr	r3, [r4, #16]
 8002d42:	4798      	blx	r3
 8002d44:	b003      	add	sp, #12
 8002d46:	bdf0      	pop	{r4, r5, r6, r7, pc}
 8002d48:	2104      	movs	r1, #4
 8002d4a:	f88d 0004 	strb.w	r0, [sp, #4]
 8002d4e:	f88d 5005 	strb.w	r5, [sp, #5]
 8002d52:	f88d 6006 	strb.w	r6, [sp, #6]
 8002d56:	f88d 7007 	strb.w	r7, [sp, #7]
 8002d5a:	eb0d 0001 	add.w	r0, sp, r1
 8002d5e:	4798      	blx	r3
 8002d60:	e7ec      	b.n	8002d3c <WIZCHIP_WRITE+0x38>
 8002d62:	bf00      	nop
 8002d64:	20000024 	.word	0x20000024

08002d68 <WIZCHIP_READ_BUF>:
 8002d68:	e92d 41f3 	stmdb	sp!, {r0, r1, r4, r5, r6, r7, r8, lr}
 8002d6c:	4605      	mov	r5, r0
 8002d6e:	4c1a      	ldr	r4, [pc, #104]	; (8002dd8 <WIZCHIP_READ_BUF+0x70>)
 8002d70:	460e      	mov	r6, r1
 8002d72:	68e3      	ldr	r3, [r4, #12]
 8002d74:	4617      	mov	r7, r2
 8002d76:	4798      	blx	r3
 8002d78:	6963      	ldr	r3, [r4, #20]
 8002d7a:	4798      	blx	r3
 8002d7c:	6a63      	ldr	r3, [r4, #36]	; 0x24
 8002d7e:	f3c5 4007 	ubfx	r0, r5, #16, #8
 8002d82:	f3c5 2807 	ubfx	r8, r5, #8, #8
 8002d86:	b2ed      	uxtb	r5, r5
 8002d88:	b10b      	cbz	r3, 8002d8e <WIZCHIP_READ_BUF+0x26>
 8002d8a:	6aa3      	ldr	r3, [r4, #40]	; 0x28
 8002d8c:	b9b3      	cbnz	r3, 8002dbc <WIZCHIP_READ_BUF+0x54>
 8002d8e:	6a23      	ldr	r3, [r4, #32]
 8002d90:	4798      	blx	r3
 8002d92:	4640      	mov	r0, r8
 8002d94:	6a23      	ldr	r3, [r4, #32]
 8002d96:	4798      	blx	r3
 8002d98:	4628      	mov	r0, r5
 8002d9a:	6a23      	ldr	r3, [r4, #32]
 8002d9c:	4798      	blx	r3
 8002d9e:	4437      	add	r7, r6
 8002da0:	42b7      	cmp	r7, r6
 8002da2:	d106      	bne.n	8002db2 <WIZCHIP_READ_BUF+0x4a>
 8002da4:	69a3      	ldr	r3, [r4, #24]
 8002da6:	4798      	blx	r3
 8002da8:	6923      	ldr	r3, [r4, #16]
 8002daa:	4798      	blx	r3
 8002dac:	b002      	add	sp, #8
 8002dae:	e8bd 81f0 	ldmia.w	sp!, {r4, r5, r6, r7, r8, pc}
 8002db2:	69e3      	ldr	r3, [r4, #28]
 8002db4:	4798      	blx	r3
 8002db6:	f806 0b01 	strb.w	r0, [r6], #1
 8002dba:	e7f1      	b.n	8002da0 <WIZCHIP_READ_BUF+0x38>
 8002dbc:	f88d 0004 	strb.w	r0, [sp, #4]
 8002dc0:	2103      	movs	r1, #3
 8002dc2:	a801      	add	r0, sp, #4
 8002dc4:	f88d 8005 	strb.w	r8, [sp, #5]
 8002dc8:	f88d 5006 	strb.w	r5, [sp, #6]
 8002dcc:	4798      	blx	r3
 8002dce:	4639      	mov	r1, r7
 8002dd0:	4630      	mov	r0, r6
 8002dd2:	6a63      	ldr	r3, [r4, #36]	; 0x24
 8002dd4:	4798      	blx	r3
 8002dd6:	e7e5      	b.n	8002da4 <WIZCHIP_READ_BUF+0x3c>
 8002dd8:	20000024 	.word	0x20000024

08002ddc <WIZCHIP_WRITE_BUF>:
 8002ddc:	e92d 41f3 	stmdb	sp!, {r0, r1, r4, r5, r6, r7, r8, lr}
 8002de0:	4605      	mov	r5, r0
 8002de2:	4c1a      	ldr	r4, [pc, #104]	; (8002e4c <WIZCHIP_WRITE_BUF+0x70>)
 8002de4:	4688      	mov	r8, r1
 8002de6:	68e3      	ldr	r3, [r4, #12]
 8002de8:	4617      	mov	r7, r2
 8002dea:	4798      	blx	r3
 8002dec:	6963      	ldr	r3, [r4, #20]
 8002dee:	4798      	blx	r3
 8002df0:	6aa3      	ldr	r3, [r4, #40]	; 0x28
 8002df2:	f045 0604 	orr.w	r6, r5, #4
 8002df6:	f3c5 4007 	ubfx	r0, r5, #16, #8
 8002dfa:	b2f6      	uxtb	r6, r6
 8002dfc:	f3c5 2507 	ubfx	r5, r5, #8, #8
 8002e00:	b9b3      	cbnz	r3, 8002e30 <WIZCHIP_WRITE_BUF+0x54>
 8002e02:	6a23      	ldr	r3, [r4, #32]
 8002e04:	4798      	blx	r3
 8002e06:	4628      	mov	r0, r5
 8002e08:	6a23      	ldr	r3, [r4, #32]
 8002e0a:	4798      	blx	r3
 8002e0c:	4630      	mov	r0, r6
 8002e0e:	6a23      	ldr	r3, [r4, #32]
 8002e10:	4798      	blx	r3
 8002e12:	4447      	add	r7, r8
 8002e14:	4547      	cmp	r7, r8
 8002e16:	d106      	bne.n	8002e26 <WIZCHIP_WRITE_BUF+0x4a>
 8002e18:	69a3      	ldr	r3, [r4, #24]
 8002e1a:	4798      	blx	r3
 8002e1c:	6923      	ldr	r3, [r4, #16]
 8002e1e:	4798      	blx	r3
 8002e20:	b002      	add	sp, #8
 8002e22:	e8bd 81f0 	ldmia.w	sp!, {r4, r5, r6, r7, r8, pc}
 8002e26:	6a23      	ldr	r3, [r4, #32]
 8002e28:	f818 0b01 	ldrb.w	r0, [r8], #1
 8002e2c:	4798      	blx	r3
 8002e2e:	e7f1      	b.n	8002e14 <WIZCHIP_WRITE_BUF+0x38>
 8002e30:	f88d 0004 	strb.w	r0, [sp, #4]
 8002e34:	2103      	movs	r1, #3
 8002e36:	a801      	add	r0, sp, #4
 8002e38:	f88d 5005 	strb.w	r5, [sp, #5]
 8002e3c:	f88d 6006 	strb.w	r6, [sp, #6]
 8002e40:	4798      	blx	r3
 8002e42:	4639      	mov	r1, r7
 8002e44:	4640      	mov	r0, r8
 8002e46:	6aa3      	ldr	r3, [r4, #40]	; 0x28
 8002e48:	4798      	blx	r3
 8002e4a:	e7e5      	b.n	8002e18 <WIZCHIP_WRITE_BUF+0x3c>
 8002e4c:	20000024 	.word	0x20000024

08002e50 <getSn_TX_FSR>:
 8002e50:	b5f8      	push	{r3, r4, r5, r6, r7, lr}
 8002e52:	2400      	movs	r4, #0
 8002e54:	0146      	lsls	r6, r0, #5
 8002e56:	3608      	adds	r6, #8
 8002e58:	f506 5700 	add.w	r7, r6, #8192	; 0x2000
 8002e5c:	f506 5604 	add.w	r6, r6, #8448	; 0x2100
 8002e60:	4638      	mov	r0, r7
 8002e62:	f7ff ff21 	bl	8002ca8 <WIZCHIP_READ>
 8002e66:	0205      	lsls	r5, r0, #8
 8002e68:	4630      	mov	r0, r6
 8002e6a:	f7ff ff1d 	bl	8002ca8 <WIZCHIP_READ>
 8002e6e:	b2ad      	uxth	r5, r5
 8002e70:	4405      	add	r5, r0
 8002e72:	b2ad      	uxth	r5, r5
 8002e74:	b14d      	cbz	r5, 8002e8a <getSn_TX_FSR+0x3a>
 8002e76:	4638      	mov	r0, r7
 8002e78:	f7ff ff16 	bl	8002ca8 <WIZCHIP_READ>
 8002e7c:	0204      	lsls	r4, r0, #8
 8002e7e:	4630      	mov	r0, r6
 8002e80:	f7ff ff12 	bl	8002ca8 <WIZCHIP_READ>
 8002e84:	b2a4      	uxth	r4, r4
 8002e86:	4404      	add	r4, r0
 8002e88:	b2a4      	uxth	r4, r4
 8002e8a:	42ac      	cmp	r4, r5
 8002e8c:	d1e8      	bne.n	8002e60 <getSn_TX_FSR+0x10>
 8002e8e:	4620      	mov	r0, r4
 8002e90:	bdf8      	pop	{r3, r4, r5, r6, r7, pc}

08002e92 <getSn_RX_RSR>:
 8002e92:	b5f8      	push	{r3, r4, r5, r6, r7, lr}
 8002e94:	2400      	movs	r4, #0
 8002e96:	0146      	lsls	r6, r0, #5
 8002e98:	3608      	adds	r6, #8
 8002e9a:	f506 5718 	add.w	r7, r6, #9728	; 0x2600
 8002e9e:	f506 561c 	add.w	r6, r6, #9984	; 0x2700
 8002ea2:	4638      	mov	r0, r7
 8002ea4:	f7ff ff00 	bl	8002ca8 <WIZCHIP_READ>
 8002ea8:	0205      	lsls	r5, r0, #8
 8002eaa:	4630      	mov	r0, r6
 8002eac:	f7ff fefc 	bl	8002ca8 <WIZCHIP_READ>
 8002eb0:	b2ad      	uxth	r5, r5
 8002eb2:	4405      	add	r5, r0
 8002eb4:	b2ad      	uxth	r5, r5
 8002eb6:	b14d      	cbz	r5, 8002ecc <getSn_RX_RSR+0x3a>
 8002eb8:	4638      	mov	r0, r7
 8002eba:	f7ff fef5 	bl	8002ca8 <WIZCHIP_READ>
 8002ebe:	0204      	lsls	r4, r0, #8
 8002ec0:	4630      	mov	r0, r6
 8002ec2:	f7ff fef1 	bl	8002ca8 <WIZCHIP_READ>
 8002ec6:	b2a4      	uxth	r4, r4
 8002ec8:	4404      	add	r4, r0
 8002eca:	b2a4      	uxth	r4, r4
 8002ecc:	42ac      	cmp	r4, r5
 8002ece:	d1e8      	bne.n	8002ea2 <getSn_RX_RSR+0x10>
 8002ed0:	4620      	mov	r0, r4
 8002ed2:	bdf8      	pop	{r3, r4, r5, r6, r7, pc}

08002ed4 <wiz_send_data>:
 8002ed4:	e92d 43f8 	stmdb	sp!, {r3, r4, r5, r6, r7, r8, r9, lr}
 8002ed8:	4689      	mov	r9, r1
 8002eda:	4614      	mov	r4, r2
 8002edc:	b32a      	cbz	r2, 8002f2a <wiz_send_data+0x56>
 8002ede:	0085      	lsls	r5, r0, #2
 8002ee0:	1c6f      	adds	r7, r5, #1
 8002ee2:	00ff      	lsls	r7, r7, #3
 8002ee4:	f507 5810 	add.w	r8, r7, #9216	; 0x2400
 8002ee8:	4640      	mov	r0, r8
 8002eea:	f7ff fedd 	bl	8002ca8 <WIZCHIP_READ>
 8002eee:	f507 5714 	add.w	r7, r7, #9472	; 0x2500
 8002ef2:	4606      	mov	r6, r0
 8002ef4:	4638      	mov	r0, r7
 8002ef6:	f7ff fed7 	bl	8002ca8 <WIZCHIP_READ>
 8002efa:	eb00 2006 	add.w	r0, r0, r6, lsl #8
 8002efe:	b286      	uxth	r6, r0
 8002f00:	3502      	adds	r5, #2
 8002f02:	0230      	lsls	r0, r6, #8
 8002f04:	4622      	mov	r2, r4
 8002f06:	4649      	mov	r1, r9
 8002f08:	eb00 00c5 	add.w	r0, r0, r5, lsl #3
 8002f0c:	f7ff ff66 	bl	8002ddc <WIZCHIP_WRITE_BUF>
 8002f10:	19a1      	adds	r1, r4, r6
 8002f12:	4640      	mov	r0, r8
 8002f14:	b28c      	uxth	r4, r1
 8002f16:	f3c1 2107 	ubfx	r1, r1, #8, #8
 8002f1a:	f7ff fef3 	bl	8002d04 <WIZCHIP_WRITE>
 8002f1e:	4638      	mov	r0, r7
 8002f20:	b2e1      	uxtb	r1, r4
 8002f22:	e8bd 43f8 	ldmia.w	sp!, {r3, r4, r5, r6, r7, r8, r9, lr}
 8002f26:	f7ff beed 	b.w	8002d04 <WIZCHIP_WRITE>
 8002f2a:	e8bd 83f8 	ldmia.w	sp!, {r3, r4, r5, r6, r7, r8, r9, pc}

08002f2e <wiz_recv_data>:
 8002f2e:	e92d 43f8 	stmdb	sp!, {r3, r4, r5, r6, r7, r8, r9, lr}
 8002f32:	4689      	mov	r9, r1
 8002f34:	4614      	mov	r4, r2
 8002f36:	b32a      	cbz	r2, 8002f84 <wiz_recv_data+0x56>
 8002f38:	0085      	lsls	r5, r0, #2
 8002f3a:	1c6f      	adds	r7, r5, #1
 8002f3c:	00ff      	lsls	r7, r7, #3
 8002f3e:	f507 5820 	add.w	r8, r7, #10240	; 0x2800
 8002f42:	4640      	mov	r0, r8
 8002f44:	f7ff feb0 	bl	8002ca8 <WIZCHIP_READ>
 8002f48:	f507 5724 	add.w	r7, r7, #10496	; 0x2900
 8002f4c:	4606      	mov	r6, r0
 8002f4e:	4638      	mov	r0, r7
 8002f50:	f7ff feaa 	bl	8002ca8 <WIZCHIP_READ>
 8002f54:	eb00 2006 	add.w	r0, r0, r6, lsl #8
 8002f58:	b286      	uxth	r6, r0
 8002f5a:	3503      	adds	r5, #3
 8002f5c:	0230      	lsls	r0, r6, #8
 8002f5e:	4622      	mov	r2, r4
 8002f60:	4649      	mov	r1, r9
 8002f62:	eb00 00c5 	add.w	r0, r0, r5, lsl #3
 8002f66:	f7ff feff 	bl	8002d68 <WIZCHIP_READ_BUF>
 8002f6a:	19a1      	adds	r1, r4, r6
 8002f6c:	4640      	mov	r0, r8
 8002f6e:	b28c      	uxth	r4, r1
 8002f70:	f3c1 2107 	ubfx	r1, r1, #8, #8
 8002f74:	f7ff fec6 	bl	8002d04 <WIZCHIP_WRITE>
 8002f78:	4638      	mov	r0, r7
 8002f7a:	b2e1      	uxtb	r1, r4
 8002f7c:	e8bd 43f8 	ldmia.w	sp!, {r3, r4, r5, r6, r7, r8, r9, lr}
 8002f80:	f7ff bec0 	b.w	8002d04 <WIZCHIP_WRITE>
 8002f84:	e8bd 83f8 	ldmia.w	sp!, {r3, r4, r5, r6, r7, r8, r9, pc}

08002f88 <wiz_recv_ignore>:
 8002f88:	b5f8      	push	{r3, r4, r5, r6, r7, lr}
 8002f8a:	0144      	lsls	r4, r0, #5
 8002f8c:	3408      	adds	r4, #8
 8002f8e:	f504 5720 	add.w	r7, r4, #10240	; 0x2800
 8002f92:	4638      	mov	r0, r7
 8002f94:	460d      	mov	r5, r1
 8002f96:	f7ff fe87 	bl	8002ca8 <WIZCHIP_READ>
 8002f9a:	f504 5424 	add.w	r4, r4, #10496	; 0x2900
 8002f9e:	4606      	mov	r6, r0
 8002fa0:	4620      	mov	r0, r4
 8002fa2:	f7ff fe81 	bl	8002ca8 <WIZCHIP_READ>
 8002fa6:	1829      	adds	r1, r5, r0
 8002fa8:	eb01 2106 	add.w	r1, r1, r6, lsl #8
 8002fac:	4638      	mov	r0, r7
 8002fae:	b28d      	uxth	r5, r1
 8002fb0:	f3c1 2107 	ubfx	r1, r1, #8, #8
 8002fb4:	f7ff fea6 	bl	8002d04 <WIZCHIP_WRITE>
 8002fb8:	4620      	mov	r0, r4
 8002fba:	b2e9      	uxtb	r1, r5
 8002fbc:	e8bd 40f8 	ldmia.w	sp!, {r3, r4, r5, r6, r7, lr}
 8002fc0:	f7ff bea0 	b.w	8002d04 <WIZCHIP_WRITE>

08002fc4 <wizchip_cris_enter>:
 8002fc4:	4770      	bx	lr

08002fc6 <wizchip_bus_readdata>:
 8002fc6:	7800      	ldrb	r0, [r0, #0]
 8002fc8:	4770      	bx	lr

08002fca <wizchip_bus_writedata>:
 8002fca:	7001      	strb	r1, [r0, #0]
 8002fcc:	4770      	bx	lr

08002fce <wizchip_spi_readbyte>:
 8002fce:	2000      	movs	r0, #0
 8002fd0:	4770      	bx	lr

08002fd2 <wizchip_spi_writebyte>:
 8002fd2:	4770      	bx	lr

08002fd4 <wizchip_spi_readburst>:
 8002fd4:	4770      	bx	lr

08002fd6 <wizchip_spi_writeburst>:
 8002fd6:	4770      	bx	lr

08002fd8 <wizchip_cris_exit>:
 8002fd8:	4770      	bx	lr

08002fda <wizchip_cs_select>:
 8002fda:	4770      	bx	lr

08002fdc <wizchip_cs_deselect>:
 8002fdc:	4770      	bx	lr
	...

08002fe0 <reg_wizchip_cs_cbfunc>:
 8002fe0:	4b05      	ldr	r3, [pc, #20]	; (8002ff8 <reg_wizchip_cs_cbfunc+0x18>)
 8002fe2:	b100      	cbz	r0, 8002fe6 <reg_wizchip_cs_cbfunc+0x6>
 8002fe4:	b921      	cbnz	r1, 8002ff0 <reg_wizchip_cs_cbfunc+0x10>
 8002fe6:	4a05      	ldr	r2, [pc, #20]	; (8002ffc <reg_wizchip_cs_cbfunc+0x1c>)
 8002fe8:	615a      	str	r2, [r3, #20]
 8002fea:	4a05      	ldr	r2, [pc, #20]	; (8003000 <reg_wizchip_cs_cbfunc+0x20>)
 8002fec:	619a      	str	r2, [r3, #24]
 8002fee:	4770      	bx	lr
 8002ff0:	e9c3 0105 	strd	r0, r1, [r3, #20]
 8002ff4:	4770      	bx	lr
 8002ff6:	bf00      	nop
 8002ff8:	20000024 	.word	0x20000024
 8002ffc:	08002fdb 	.word	0x08002fdb
 8003000:	08002fdd 	.word	0x08002fdd

08003004 <reg_wizchip_spi_cbfunc>:
 8003004:	4b08      	ldr	r3, [pc, #32]	; (8003028 <reg_wizchip_spi_cbfunc+0x24>)
 8003006:	b510      	push	{r4, lr}
 8003008:	881c      	ldrh	r4, [r3, #0]
 800300a:	461a      	mov	r2, r3
 800300c:	05a4      	lsls	r4, r4, #22
 800300e:	d400      	bmi.n	8003012 <reg_wizchip_spi_cbfunc+0xe>
 8003010:	e7fe      	b.n	8003010 <reg_wizchip_spi_cbfunc+0xc>
 8003012:	b100      	cbz	r0, 8003016 <reg_wizchip_spi_cbfunc+0x12>
 8003014:	b921      	cbnz	r1, 8003020 <reg_wizchip_spi_cbfunc+0x1c>
 8003016:	4b05      	ldr	r3, [pc, #20]	; (800302c <reg_wizchip_spi_cbfunc+0x28>)
 8003018:	61d3      	str	r3, [r2, #28]
 800301a:	4b05      	ldr	r3, [pc, #20]	; (8003030 <reg_wizchip_spi_cbfunc+0x2c>)
 800301c:	6213      	str	r3, [r2, #32]
 800301e:	bd10      	pop	{r4, pc}
 8003020:	e9c3 0107 	strd	r0, r1, [r3, #28]
 8003024:	e7fb      	b.n	800301e <reg_wizchip_spi_cbfunc+0x1a>
 8003026:	bf00      	nop
 8003028:	20000024 	.word	0x20000024
 800302c:	08002fcf 	.word	0x08002fcf
 8003030:	08002fd3 	.word	0x08002fd3

08003034 <reg_wizchip_spiburst_cbfunc>:
 8003034:	4b08      	ldr	r3, [pc, #32]	; (8003058 <reg_wizchip_spiburst_cbfunc+0x24>)
 8003036:	b510      	push	{r4, lr}
 8003038:	881c      	ldrh	r4, [r3, #0]
 800303a:	461a      	mov	r2, r3
 800303c:	05a4      	lsls	r4, r4, #22
 800303e:	d400      	bmi.n	8003042 <reg_wizchip_spiburst_cbfunc+0xe>
 8003040:	e7fe      	b.n	8003040 <reg_wizchip_spiburst_cbfunc+0xc>
 8003042:	b100      	cbz	r0, 8003046 <reg_wizchip_spiburst_cbfunc+0x12>
 8003044:	b921      	cbnz	r1, 8003050 <reg_wizchip_spiburst_cbfunc+0x1c>
 8003046:	4b05      	ldr	r3, [pc, #20]	; (800305c <reg_wizchip_spiburst_cbfunc+0x28>)
 8003048:	6253      	str	r3, [r2, #36]	; 0x24
 800304a:	4b05      	ldr	r3, [pc, #20]	; (8003060 <reg_wizchip_spiburst_cbfunc+0x2c>)
 800304c:	6293      	str	r3, [r2, #40]	; 0x28
 800304e:	bd10      	pop	{r4, pc}
 8003050:	e9c3 0109 	strd	r0, r1, [r3, #36]	; 0x24
 8003054:	e7fb      	b.n	800304e <reg_wizchip_spiburst_cbfunc+0x1a>
 8003056:	bf00      	nop
 8003058:	20000024 	.word	0x20000024
 800305c:	08002fd5 	.word	0x08002fd5
 8003060:	08002fd7 	.word	0x08002fd7

08003064 <wizchip_sw_reset>:
 8003064:	b57f      	push	{r0, r1, r2, r3, r4, r5, r6, lr}
 8003066:	2206      	movs	r2, #6
 8003068:	a904      	add	r1, sp, #16
 800306a:	f44f 6010 	mov.w	r0, #2304	; 0x900
 800306e:	f7ff fe7b 	bl	8002d68 <WIZCHIP_READ_BUF>
 8003072:	2204      	movs	r2, #4
 8003074:	f44f 7080 	mov.w	r0, #256	; 0x100
 8003078:	eb0d 0102 	add.w	r1, sp, r2
 800307c:	f7ff fe74 	bl	8002d68 <WIZCHIP_READ_BUF>
 8003080:	a902      	add	r1, sp, #8
 8003082:	2204      	movs	r2, #4
 8003084:	f44f 60a0 	mov.w	r0, #1280	; 0x500
 8003088:	f7ff fe6e 	bl	8002d68 <WIZCHIP_READ_BUF>
 800308c:	2204      	movs	r2, #4
 800308e:	a903      	add	r1, sp, #12
 8003090:	f44f 6070 	mov.w	r0, #3840	; 0xf00
 8003094:	f7ff fe68 	bl	8002d68 <WIZCHIP_READ_BUF>
 8003098:	2180      	movs	r1, #128	; 0x80
 800309a:	2000      	movs	r0, #0
 800309c:	f7ff fe32 	bl	8002d04 <WIZCHIP_WRITE>
 80030a0:	2000      	movs	r0, #0
 80030a2:	f7ff fe01 	bl	8002ca8 <WIZCHIP_READ>
 80030a6:	a904      	add	r1, sp, #16
 80030a8:	2206      	movs	r2, #6
 80030aa:	f44f 6010 	mov.w	r0, #2304	; 0x900
 80030ae:	f7ff fe95 	bl	8002ddc <WIZCHIP_WRITE_BUF>
 80030b2:	2204      	movs	r2, #4
 80030b4:	f44f 7080 	mov.w	r0, #256	; 0x100
 80030b8:	eb0d 0102 	add.w	r1, sp, r2
 80030bc:	f7ff fe8e 	bl	8002ddc <WIZCHIP_WRITE_BUF>
 80030c0:	a902      	add	r1, sp, #8
 80030c2:	2204      	movs	r2, #4
 80030c4:	f44f 60a0 	mov.w	r0, #1280	; 0x500
 80030c8:	f7ff fe88 	bl	8002ddc <WIZCHIP_WRITE_BUF>
 80030cc:	2204      	movs	r2, #4
 80030ce:	f44f 6070 	mov.w	r0, #3840	; 0xf00
 80030d2:	a903      	add	r1, sp, #12
 80030d4:	f7ff fe82 	bl	8002ddc <WIZCHIP_WRITE_BUF>
 80030d8:	b007      	add	sp, #28
 80030da:	f85d fb04 	ldr.w	pc, [sp], #4

080030de <wizchip_init>:
 80030de:	b5f8      	push	{r3, r4, r5, r6, r7, lr}
 80030e0:	4605      	mov	r5, r0
 80030e2:	460c      	mov	r4, r1
 80030e4:	f7ff ffbe 	bl	8003064 <wizchip_sw_reset>
 80030e8:	b1bd      	cbz	r5, 800311a <wizchip_init+0x3c>
 80030ea:	1e6e      	subs	r6, r5, #1
 80030ec:	4632      	mov	r2, r6
 80030ee:	2300      	movs	r3, #0
 80030f0:	3507      	adds	r5, #7
 80030f2:	f812 1f01 	ldrb.w	r1, [r2, #1]!
 80030f6:	440b      	add	r3, r1
 80030f8:	b25b      	sxtb	r3, r3
 80030fa:	2b10      	cmp	r3, #16
 80030fc:	dc29      	bgt.n	8003152 <wizchip_init+0x74>
 80030fe:	42aa      	cmp	r2, r5
 8003100:	d1f7      	bne.n	80030f2 <wizchip_init+0x14>
 8003102:	f641 7508 	movw	r5, #7944	; 0x1f08
 8003106:	f242 0708 	movw	r7, #8200	; 0x2008
 800310a:	4628      	mov	r0, r5
 800310c:	f816 1f01 	ldrb.w	r1, [r6, #1]!
 8003110:	3520      	adds	r5, #32
 8003112:	f7ff fdf7 	bl	8002d04 <WIZCHIP_WRITE>
 8003116:	42bd      	cmp	r5, r7
 8003118:	d1f7      	bne.n	800310a <wizchip_init+0x2c>
 800311a:	b90c      	cbnz	r4, 8003120 <wizchip_init+0x42>
 800311c:	2000      	movs	r0, #0
 800311e:	bdf8      	pop	{r3, r4, r5, r6, r7, pc}
 8003120:	1e65      	subs	r5, r4, #1
 8003122:	462a      	mov	r2, r5
 8003124:	2300      	movs	r3, #0
 8003126:	3407      	adds	r4, #7
 8003128:	f812 1f01 	ldrb.w	r1, [r2, #1]!
 800312c:	440b      	add	r3, r1
 800312e:	b25b      	sxtb	r3, r3
 8003130:	2b10      	cmp	r3, #16
 8003132:	dc0e      	bgt.n	8003152 <wizchip_init+0x74>
 8003134:	4294      	cmp	r4, r2
 8003136:	d1f7      	bne.n	8003128 <wizchip_init+0x4a>
 8003138:	f641 6408 	movw	r4, #7688	; 0x1e08
 800313c:	f641 7608 	movw	r6, #7944	; 0x1f08
 8003140:	4620      	mov	r0, r4
 8003142:	f815 1f01 	ldrb.w	r1, [r5, #1]!
 8003146:	3420      	adds	r4, #32
 8003148:	f7ff fddc 	bl	8002d04 <WIZCHIP_WRITE>
 800314c:	42b4      	cmp	r4, r6
 800314e:	d1f7      	bne.n	8003140 <wizchip_init+0x62>
 8003150:	e7e4      	b.n	800311c <wizchip_init+0x3e>
 8003152:	f04f 30ff 	mov.w	r0, #4294967295	; 0xffffffff
 8003156:	e7e2      	b.n	800311e <wizchip_init+0x40>

08003158 <wizchip_setnetinfo>:
 8003158:	b510      	push	{r4, lr}
 800315a:	4604      	mov	r4, r0
 800315c:	4601      	mov	r1, r0
 800315e:	2206      	movs	r2, #6
 8003160:	f44f 6010 	mov.w	r0, #2304	; 0x900
 8003164:	f7ff fe3a 	bl	8002ddc <WIZCHIP_WRITE_BUF>
 8003168:	2204      	movs	r2, #4
 800316a:	f44f 7080 	mov.w	r0, #256	; 0x100
 800316e:	f104 010e 	add.w	r1, r4, #14
 8003172:	f7ff fe33 	bl	8002ddc <WIZCHIP_WRITE_BUF>
 8003176:	2204      	movs	r2, #4
 8003178:	f44f 60a0 	mov.w	r0, #1280	; 0x500
 800317c:	f104 010a 	add.w	r1, r4, #10
 8003180:	f7ff fe2c 	bl	8002ddc <WIZCHIP_WRITE_BUF>
 8003184:	2204      	movs	r2, #4
 8003186:	f44f 6070 	mov.w	r0, #3840	; 0xf00
 800318a:	1da1      	adds	r1, r4, #6
 800318c:	f7ff fe26 	bl	8002ddc <WIZCHIP_WRITE_BUF>
 8003190:	4b06      	ldr	r3, [pc, #24]	; (80031ac <wizchip_setnetinfo+0x54>)
 8003192:	7ca2      	ldrb	r2, [r4, #18]
 8003194:	701a      	strb	r2, [r3, #0]
 8003196:	7ce2      	ldrb	r2, [r4, #19]
 8003198:	705a      	strb	r2, [r3, #1]
 800319a:	7d22      	ldrb	r2, [r4, #20]
 800319c:	709a      	strb	r2, [r3, #2]
 800319e:	7d62      	ldrb	r2, [r4, #21]
 80031a0:	70da      	strb	r2, [r3, #3]
 80031a2:	7da2      	ldrb	r2, [r4, #22]
 80031a4:	4b02      	ldr	r3, [pc, #8]	; (80031b0 <wizchip_setnetinfo+0x58>)
 80031a6:	701a      	strb	r2, [r3, #0]
 80031a8:	bd10      	pop	{r4, pc}
 80031aa:	bf00      	nop
 80031ac:	200002f1 	.word	0x200002f1
 80031b0:	200002f0 	.word	0x200002f0

080031b4 <Reset_Handler>:
 80031b4:	480c      	ldr	r0, [pc, #48]	; (80031e8 <LoopFillZerobss+0x12>)
 80031b6:	490d      	ldr	r1, [pc, #52]	; (80031ec <LoopFillZerobss+0x16>)
 80031b8:	4a0d      	ldr	r2, [pc, #52]	; (80031f0 <LoopFillZerobss+0x1a>)
 80031ba:	2300      	movs	r3, #0
 80031bc:	e002      	b.n	80031c4 <LoopCopyDataInit>

080031be <CopyDataInit>:
 80031be:	58d4      	ldr	r4, [r2, r3]
 80031c0:	50c4      	str	r4, [r0, r3]
 80031c2:	3304      	adds	r3, #4

080031c4 <LoopCopyDataInit>:
 80031c4:	18c4      	adds	r4, r0, r3
 80031c6:	428c      	cmp	r4, r1
 80031c8:	d3f9      	bcc.n	80031be <CopyDataInit>
 80031ca:	4a0a      	ldr	r2, [pc, #40]	; (80031f4 <LoopFillZerobss+0x1e>)
 80031cc:	4c0a      	ldr	r4, [pc, #40]	; (80031f8 <LoopFillZerobss+0x22>)
 80031ce:	2300      	movs	r3, #0
 80031d0:	e001      	b.n	80031d6 <LoopFillZerobss>

080031d2 <FillZerobss>:
 80031d2:	6013      	str	r3, [r2, #0]
 80031d4:	3204      	adds	r2, #4

080031d6 <LoopFillZerobss>:
 80031d6:	42a2      	cmp	r2, r4
 80031d8:	d3fb      	bcc.n	80031d2 <FillZerobss>
 80031da:	f7ff fd63 	bl	8002ca4 <SystemInit>
 80031de:	f002 fc7b 	bl	8005ad8 <__libc_init_array>
 80031e2:	f7fe fb15 	bl	8001810 <main>
 80031e6:	4770      	bx	lr
 80031e8:	20000000 	.word	0x20000000
 80031ec:	2000022c 	.word	0x2000022c
 80031f0:	08008efc 	.word	0x08008efc
 80031f4:	20000230 	.word	0x20000230
 80031f8:	200005f4 	.word	0x200005f4

080031fc <ADC1_2_IRQHandler>:
 80031fc:	e7fe      	b.n	80031fc <ADC1_2_IRQHandler>
	...

08003200 <HAL_InitTick>:
 8003200:	b538      	push	{r3, r4, r5, lr}
 8003202:	4b0e      	ldr	r3, [pc, #56]	; (800323c <HAL_InitTick+0x3c>)
 8003204:	4605      	mov	r5, r0
 8003206:	7818      	ldrb	r0, [r3, #0]
 8003208:	f44f 737a 	mov.w	r3, #1000	; 0x3e8
 800320c:	fbb3 f3f0 	udiv	r3, r3, r0
 8003210:	4a0b      	ldr	r2, [pc, #44]	; (8003240 <HAL_InitTick+0x40>)
 8003212:	6810      	ldr	r0, [r2, #0]
 8003214:	fbb0 f0f3 	udiv	r0, r0, r3
 8003218:	f000 f89e 	bl	8003358 <HAL_SYSTICK_Config>
 800321c:	4604      	mov	r4, r0
 800321e:	b958      	cbnz	r0, 8003238 <HAL_InitTick+0x38>
 8003220:	2d0f      	cmp	r5, #15
 8003222:	d809      	bhi.n	8003238 <HAL_InitTick+0x38>
 8003224:	4602      	mov	r2, r0
 8003226:	4629      	mov	r1, r5
 8003228:	f04f 30ff 	mov.w	r0, #4294967295	; 0xffffffff
 800322c:	f000 f854 	bl	80032d8 <HAL_NVIC_SetPriority>
 8003230:	4620      	mov	r0, r4
 8003232:	4b04      	ldr	r3, [pc, #16]	; (8003244 <HAL_InitTick+0x44>)
 8003234:	601d      	str	r5, [r3, #0]
 8003236:	bd38      	pop	{r3, r4, r5, pc}
 8003238:	2001      	movs	r0, #1
 800323a:	e7fc      	b.n	8003236 <HAL_InitTick+0x36>
 800323c:	20000050 	.word	0x20000050
 8003240:	20000020 	.word	0x20000020
 8003244:	20000054 	.word	0x20000054

08003248 <HAL_Init>:
 8003248:	4a07      	ldr	r2, [pc, #28]	; (8003268 <HAL_Init+0x20>)
 800324a:	b508      	push	{r3, lr}
 800324c:	6813      	ldr	r3, [r2, #0]
 800324e:	2003      	movs	r0, #3
 8003250:	f043 0310 	orr.w	r3, r3, #16
 8003254:	6013      	str	r3, [r2, #0]
 8003256:	f000 f82d 	bl	80032b4 <HAL_NVIC_SetPriorityGrouping>
 800325a:	2000      	movs	r0, #0
 800325c:	f7ff ffd0 	bl	8003200 <HAL_InitTick>
 8003260:	f7ff f9b0 	bl	80025c4 <HAL_MspInit>
 8003264:	2000      	movs	r0, #0
 8003266:	bd08      	pop	{r3, pc}
 8003268:	40022000 	.word	0x40022000

0800326c <HAL_IncTick>:
 800326c:	4a03      	ldr	r2, [pc, #12]	; (800327c <HAL_IncTick+0x10>)
 800326e:	4b04      	ldr	r3, [pc, #16]	; (8003280 <HAL_IncTick+0x14>)
 8003270:	6811      	ldr	r1, [r2, #0]
 8003272:	781b      	ldrb	r3, [r3, #0]
 8003274:	440b      	add	r3, r1
 8003276:	6013      	str	r3, [r2, #0]
 8003278:	4770      	bx	lr
 800327a:	bf00      	nop
 800327c:	200005e0 	.word	0x200005e0
 8003280:	20000050 	.word	0x20000050

08003284 <HAL_GetTick>:
 8003284:	4b01      	ldr	r3, [pc, #4]	; (800328c <HAL_GetTick+0x8>)
 8003286:	6818      	ldr	r0, [r3, #0]
 8003288:	4770      	bx	lr
 800328a:	bf00      	nop
 800328c:	200005e0 	.word	0x200005e0

08003290 <HAL_Delay>:
 8003290:	b538      	push	{r3, r4, r5, lr}
 8003292:	4604      	mov	r4, r0
 8003294:	f7ff fff6 	bl	8003284 <HAL_GetTick>
 8003298:	4605      	mov	r5, r0
 800329a:	1c63      	adds	r3, r4, #1
 800329c:	bf1e      	ittt	ne
 800329e:	4b04      	ldrne	r3, [pc, #16]	; (80032b0 <HAL_Delay+0x20>)
 80032a0:	781b      	ldrbne	r3, [r3, #0]
 80032a2:	18e4      	addne	r4, r4, r3
 80032a4:	f7ff ffee 	bl	8003284 <HAL_GetTick>
 80032a8:	1b43      	subs	r3, r0, r5
 80032aa:	42a3      	cmp	r3, r4
 80032ac:	d3fa      	bcc.n	80032a4 <HAL_Delay+0x14>
 80032ae:	bd38      	pop	{r3, r4, r5, pc}
 80032b0:	20000050 	.word	0x20000050

080032b4 <HAL_NVIC_SetPriorityGrouping>:
 80032b4:	4907      	ldr	r1, [pc, #28]	; (80032d4 <HAL_NVIC_SetPriorityGrouping+0x20>)
 80032b6:	0203      	lsls	r3, r0, #8
 80032b8:	68ca      	ldr	r2, [r1, #12]
 80032ba:	f403 63e0 	and.w	r3, r3, #1792	; 0x700
 80032be:	f422 62e0 	bic.w	r2, r2, #1792	; 0x700
 80032c2:	0412      	lsls	r2, r2, #16
 80032c4:	0c12      	lsrs	r2, r2, #16
 80032c6:	4313      	orrs	r3, r2
 80032c8:	f043 63bf 	orr.w	r3, r3, #100139008	; 0x5f80000
 80032cc:	f443 3300 	orr.w	r3, r3, #131072	; 0x20000
 80032d0:	60cb      	str	r3, [r1, #12]
 80032d2:	4770      	bx	lr
 80032d4:	e000ed00 	.word	0xe000ed00

080032d8 <HAL_NVIC_SetPriority>:
 80032d8:	4b16      	ldr	r3, [pc, #88]	; (8003334 <HAL_NVIC_SetPriority+0x5c>)
 80032da:	b530      	push	{r4, r5, lr}
 80032dc:	68dc      	ldr	r4, [r3, #12]
 80032de:	f3c4 2402 	ubfx	r4, r4, #8, #3
 80032e2:	f1c4 0307 	rsb	r3, r4, #7
 80032e6:	1d25      	adds	r5, r4, #4
 80032e8:	2b04      	cmp	r3, #4
 80032ea:	bf28      	it	cs
 80032ec:	2304      	movcs	r3, #4
 80032ee:	2d06      	cmp	r5, #6
 80032f0:	f04f 35ff 	mov.w	r5, #4294967295	; 0xffffffff
 80032f4:	bf98      	it	ls
 80032f6:	2400      	movls	r4, #0
 80032f8:	fa05 f303 	lsl.w	r3, r5, r3
 80032fc:	bf88      	it	hi
 80032fe:	3c03      	subhi	r4, #3
 8003300:	ea21 0303 	bic.w	r3, r1, r3
 8003304:	40a3      	lsls	r3, r4
 8003306:	fa05 f404 	lsl.w	r4, r5, r4
 800330a:	ea22 0204 	bic.w	r2, r2, r4
 800330e:	2800      	cmp	r0, #0
 8003310:	ea43 0302 	orr.w	r3, r3, r2
 8003314:	bfac      	ite	ge
 8003316:	f100 4060 	addge.w	r0, r0, #3758096384	; 0xe0000000
 800331a:	4a07      	ldrlt	r2, [pc, #28]	; (8003338 <HAL_NVIC_SetPriority+0x60>)
 800331c:	ea4f 1303 	mov.w	r3, r3, lsl #4
 8003320:	b2db      	uxtb	r3, r3
 8003322:	bfab      	itete	ge
 8003324:	f500 4061 	addge.w	r0, r0, #57600	; 0xe100
 8003328:	f000 000f 	andlt.w	r0, r0, #15
 800332c:	f880 3300 	strbge.w	r3, [r0, #768]	; 0x300
 8003330:	5413      	strblt	r3, [r2, r0]
 8003332:	bd30      	pop	{r4, r5, pc}
 8003334:	e000ed00 	.word	0xe000ed00
 8003338:	e000ed14 	.word	0xe000ed14

0800333c <HAL_NVIC_EnableIRQ>:
 800333c:	2800      	cmp	r0, #0
 800333e:	db08      	blt.n	8003352 <HAL_NVIC_EnableIRQ+0x16>
 8003340:	2301      	movs	r3, #1
 8003342:	0942      	lsrs	r2, r0, #5
 8003344:	f000 001f 	and.w	r0, r0, #31
 8003348:	fa03 f000 	lsl.w	r0, r3, r0
 800334c:	4b01      	ldr	r3, [pc, #4]	; (8003354 <HAL_NVIC_EnableIRQ+0x18>)
 800334e:	f843 0022 	str.w	r0, [r3, r2, lsl #2]
 8003352:	4770      	bx	lr
 8003354:	e000e100 	.word	0xe000e100

08003358 <HAL_SYSTICK_Config>:
 8003358:	3801      	subs	r0, #1
 800335a:	f1b0 7f80 	cmp.w	r0, #16777216	; 0x1000000
 800335e:	d20a      	bcs.n	8003376 <HAL_SYSTICK_Config+0x1e>
 8003360:	21f0      	movs	r1, #240	; 0xf0
 8003362:	4b06      	ldr	r3, [pc, #24]	; (800337c <HAL_SYSTICK_Config+0x24>)
 8003364:	4a06      	ldr	r2, [pc, #24]	; (8003380 <HAL_SYSTICK_Config+0x28>)
 8003366:	6058      	str	r0, [r3, #4]
 8003368:	f882 1023 	strb.w	r1, [r2, #35]	; 0x23
 800336c:	2000      	movs	r0, #0
 800336e:	2207      	movs	r2, #7
 8003370:	6098      	str	r0, [r3, #8]
 8003372:	601a      	str	r2, [r3, #0]
 8003374:	4770      	bx	lr
 8003376:	2001      	movs	r0, #1
 8003378:	4770      	bx	lr
 800337a:	bf00      	nop
 800337c:	e000e010 	.word	0xe000e010
 8003380:	e000ed00 	.word	0xe000ed00

08003384 <HAL_DMA_Init>:
 8003384:	b510      	push	{r4, lr}
 8003386:	b320      	cbz	r0, 80033d2 <HAL_DMA_Init+0x4e>
 8003388:	2214      	movs	r2, #20
 800338a:	6801      	ldr	r1, [r0, #0]
 800338c:	4b12      	ldr	r3, [pc, #72]	; (80033d8 <HAL_DMA_Init+0x54>)
 800338e:	440b      	add	r3, r1
 8003390:	fbb3 f3f2 	udiv	r3, r3, r2
 8003394:	009b      	lsls	r3, r3, #2
 8003396:	6403      	str	r3, [r0, #64]	; 0x40
 8003398:	4b10      	ldr	r3, [pc, #64]	; (80033dc <HAL_DMA_Init+0x58>)
 800339a:	680a      	ldr	r2, [r1, #0]
 800339c:	63c3      	str	r3, [r0, #60]	; 0x3c
 800339e:	e9d0 3401 	ldrd	r3, r4, [r0, #4]
 80033a2:	4323      	orrs	r3, r4
 80033a4:	68c4      	ldr	r4, [r0, #12]
 80033a6:	f422 527f 	bic.w	r2, r2, #16320	; 0x3fc0
 80033aa:	4323      	orrs	r3, r4
 80033ac:	6904      	ldr	r4, [r0, #16]
 80033ae:	f022 0230 	bic.w	r2, r2, #48	; 0x30
 80033b2:	4323      	orrs	r3, r4
 80033b4:	6944      	ldr	r4, [r0, #20]
 80033b6:	4323      	orrs	r3, r4
 80033b8:	6984      	ldr	r4, [r0, #24]
 80033ba:	4323      	orrs	r3, r4
 80033bc:	69c4      	ldr	r4, [r0, #28]
 80033be:	4323      	orrs	r3, r4
 80033c0:	4313      	orrs	r3, r2
 80033c2:	600b      	str	r3, [r1, #0]
 80033c4:	f44f 7280 	mov.w	r2, #256	; 0x100
 80033c8:	2300      	movs	r3, #0
 80033ca:	8402      	strh	r2, [r0, #32]
 80033cc:	6383      	str	r3, [r0, #56]	; 0x38
 80033ce:	4618      	mov	r0, r3
 80033d0:	bd10      	pop	{r4, pc}
 80033d2:	2001      	movs	r0, #1
 80033d4:	e7fc      	b.n	80033d0 <HAL_DMA_Init+0x4c>
 80033d6:	bf00      	nop
 80033d8:	bffdfff8 	.word	0xbffdfff8
 80033dc:	40020000 	.word	0x40020000

080033e0 <HAL_DMA_Start_IT>:
 80033e0:	b5f0      	push	{r4, r5, r6, r7, lr}
 80033e2:	f890 4020 	ldrb.w	r4, [r0, #32]
 80033e6:	2c01      	cmp	r4, #1
 80033e8:	d034      	beq.n	8003454 <HAL_DMA_Start_IT+0x74>
 80033ea:	2401      	movs	r4, #1
 80033ec:	f890 5021 	ldrb.w	r5, [r0, #33]	; 0x21
 80033f0:	f880 4020 	strb.w	r4, [r0, #32]
 80033f4:	42a5      	cmp	r5, r4
 80033f6:	f04f 0600 	mov.w	r6, #0
 80033fa:	f04f 0402 	mov.w	r4, #2
 80033fe:	d127      	bne.n	8003450 <HAL_DMA_Start_IT+0x70>
 8003400:	f880 4021 	strb.w	r4, [r0, #33]	; 0x21
 8003404:	6804      	ldr	r4, [r0, #0]
 8003406:	6386      	str	r6, [r0, #56]	; 0x38
 8003408:	6826      	ldr	r6, [r4, #0]
 800340a:	f026 0601 	bic.w	r6, r6, #1
 800340e:	6026      	str	r6, [r4, #0]
 8003410:	e9d0 670f 	ldrd	r6, r7, [r0, #60]	; 0x3c
 8003414:	40bd      	lsls	r5, r7
 8003416:	6075      	str	r5, [r6, #4]
 8003418:	6063      	str	r3, [r4, #4]
 800341a:	6843      	ldr	r3, [r0, #4]
 800341c:	2b10      	cmp	r3, #16
 800341e:	6ac3      	ldr	r3, [r0, #44]	; 0x2c
 8003420:	bf0b      	itete	eq
 8003422:	60a2      	streq	r2, [r4, #8]
 8003424:	60a1      	strne	r1, [r4, #8]
 8003426:	60e1      	streq	r1, [r4, #12]
 8003428:	60e2      	strne	r2, [r4, #12]
 800342a:	b14b      	cbz	r3, 8003440 <HAL_DMA_Start_IT+0x60>
 800342c:	6823      	ldr	r3, [r4, #0]
 800342e:	f043 030e 	orr.w	r3, r3, #14
 8003432:	2000      	movs	r0, #0
 8003434:	6023      	str	r3, [r4, #0]
 8003436:	6823      	ldr	r3, [r4, #0]
 8003438:	f043 0301 	orr.w	r3, r3, #1
 800343c:	6023      	str	r3, [r4, #0]
 800343e:	bdf0      	pop	{r4, r5, r6, r7, pc}
 8003440:	6823      	ldr	r3, [r4, #0]
 8003442:	f023 0304 	bic.w	r3, r3, #4
 8003446:	6023      	str	r3, [r4, #0]
 8003448:	6823      	ldr	r3, [r4, #0]
 800344a:	f043 030a 	orr.w	r3, r3, #10
 800344e:	e7f0      	b.n	8003432 <HAL_DMA_Start_IT+0x52>
 8003450:	f880 6020 	strb.w	r6, [r0, #32]
 8003454:	2002      	movs	r0, #2
 8003456:	e7f2      	b.n	800343e <HAL_DMA_Start_IT+0x5e>

08003458 <HAL_DMA_Abort_IT>:
 8003458:	b508      	push	{r3, lr}
 800345a:	f890 3021 	ldrb.w	r3, [r0, #33]	; 0x21
 800345e:	2b02      	cmp	r3, #2
 8003460:	d003      	beq.n	800346a <HAL_DMA_Abort_IT+0x12>
 8003462:	2304      	movs	r3, #4
 8003464:	6383      	str	r3, [r0, #56]	; 0x38
 8003466:	2001      	movs	r0, #1
 8003468:	bd08      	pop	{r3, pc}
 800346a:	6803      	ldr	r3, [r0, #0]
 800346c:	681a      	ldr	r2, [r3, #0]
 800346e:	f022 020e 	bic.w	r2, r2, #14
 8003472:	601a      	str	r2, [r3, #0]
 8003474:	681a      	ldr	r2, [r3, #0]
 8003476:	f022 0201 	bic.w	r2, r2, #1
 800347a:	601a      	str	r2, [r3, #0]
 800347c:	4a17      	ldr	r2, [pc, #92]	; (80034dc <HAL_DMA_Abort_IT+0x84>)
 800347e:	4293      	cmp	r3, r2
 8003480:	d01c      	beq.n	80034bc <HAL_DMA_Abort_IT+0x64>
 8003482:	3214      	adds	r2, #20
 8003484:	4293      	cmp	r3, r2
 8003486:	d01b      	beq.n	80034c0 <HAL_DMA_Abort_IT+0x68>
 8003488:	3214      	adds	r2, #20
 800348a:	4293      	cmp	r3, r2
 800348c:	d01a      	beq.n	80034c4 <HAL_DMA_Abort_IT+0x6c>
 800348e:	3214      	adds	r2, #20
 8003490:	4293      	cmp	r3, r2
 8003492:	d01a      	beq.n	80034ca <HAL_DMA_Abort_IT+0x72>
 8003494:	3214      	adds	r2, #20
 8003496:	4293      	cmp	r3, r2
 8003498:	d01a      	beq.n	80034d0 <HAL_DMA_Abort_IT+0x78>
 800349a:	3214      	adds	r2, #20
 800349c:	4293      	cmp	r3, r2
 800349e:	bf0c      	ite	eq
 80034a0:	f44f 1380 	moveq.w	r3, #1048576	; 0x100000
 80034a4:	f04f 7380 	movne.w	r3, #16777216	; 0x1000000
 80034a8:	4a0d      	ldr	r2, [pc, #52]	; (80034e0 <HAL_DMA_Abort_IT+0x88>)
 80034aa:	6053      	str	r3, [r2, #4]
 80034ac:	f44f 7380 	mov.w	r3, #256	; 0x100
 80034b0:	8403      	strh	r3, [r0, #32]
 80034b2:	6b43      	ldr	r3, [r0, #52]	; 0x34
 80034b4:	b17b      	cbz	r3, 80034d6 <HAL_DMA_Abort_IT+0x7e>
 80034b6:	4798      	blx	r3
 80034b8:	2000      	movs	r0, #0
 80034ba:	e7d5      	b.n	8003468 <HAL_DMA_Abort_IT+0x10>
 80034bc:	2301      	movs	r3, #1
 80034be:	e7f3      	b.n	80034a8 <HAL_DMA_Abort_IT+0x50>
 80034c0:	2310      	movs	r3, #16
 80034c2:	e7f1      	b.n	80034a8 <HAL_DMA_Abort_IT+0x50>
 80034c4:	f44f 7380 	mov.w	r3, #256	; 0x100
 80034c8:	e7ee      	b.n	80034a8 <HAL_DMA_Abort_IT+0x50>
 80034ca:	f44f 5380 	mov.w	r3, #4096	; 0x1000
 80034ce:	e7eb      	b.n	80034a8 <HAL_DMA_Abort_IT+0x50>
 80034d0:	f44f 3380 	mov.w	r3, #65536	; 0x10000
 80034d4:	e7e8      	b.n	80034a8 <HAL_DMA_Abort_IT+0x50>
 80034d6:	4618      	mov	r0, r3
 80034d8:	e7c6      	b.n	8003468 <HAL_DMA_Abort_IT+0x10>
 80034da:	bf00      	nop
 80034dc:	40020008 	.word	0x40020008
 80034e0:	40020000 	.word	0x40020000

080034e4 <HAL_DMA_IRQHandler>:
 80034e4:	b470      	push	{r4, r5, r6}
 80034e6:	2504      	movs	r5, #4
 80034e8:	6bc6      	ldr	r6, [r0, #60]	; 0x3c
 80034ea:	6c02      	ldr	r2, [r0, #64]	; 0x40
 80034ec:	6834      	ldr	r4, [r6, #0]
 80034ee:	6803      	ldr	r3, [r0, #0]
 80034f0:	4095      	lsls	r5, r2
 80034f2:	4225      	tst	r5, r4
 80034f4:	6819      	ldr	r1, [r3, #0]
 80034f6:	d032      	beq.n	800355e <HAL_DMA_IRQHandler+0x7a>
 80034f8:	074d      	lsls	r5, r1, #29
 80034fa:	d530      	bpl.n	800355e <HAL_DMA_IRQHandler+0x7a>
 80034fc:	681a      	ldr	r2, [r3, #0]
 80034fe:	0696      	lsls	r6, r2, #26
 8003500:	bf5e      	ittt	pl
 8003502:	681a      	ldrpl	r2, [r3, #0]
 8003504:	f022 0204 	bicpl.w	r2, r2, #4
 8003508:	601a      	strpl	r2, [r3, #0]
 800350a:	4a3d      	ldr	r2, [pc, #244]	; (8003600 <HAL_DMA_IRQHandler+0x11c>)
 800350c:	4293      	cmp	r3, r2
 800350e:	d019      	beq.n	8003544 <HAL_DMA_IRQHandler+0x60>
 8003510:	3214      	adds	r2, #20
 8003512:	4293      	cmp	r3, r2
 8003514:	d018      	beq.n	8003548 <HAL_DMA_IRQHandler+0x64>
 8003516:	3214      	adds	r2, #20
 8003518:	4293      	cmp	r3, r2
 800351a:	d017      	beq.n	800354c <HAL_DMA_IRQHandler+0x68>
 800351c:	3214      	adds	r2, #20
 800351e:	4293      	cmp	r3, r2
 8003520:	d017      	beq.n	8003552 <HAL_DMA_IRQHandler+0x6e>
 8003522:	3214      	adds	r2, #20
 8003524:	4293      	cmp	r3, r2
 8003526:	d017      	beq.n	8003558 <HAL_DMA_IRQHandler+0x74>
 8003528:	3214      	adds	r2, #20
 800352a:	4293      	cmp	r3, r2
 800352c:	bf0c      	ite	eq
 800352e:	f44f 0380 	moveq.w	r3, #4194304	; 0x400000
 8003532:	f04f 6380 	movne.w	r3, #67108864	; 0x4000000
 8003536:	4a33      	ldr	r2, [pc, #204]	; (8003604 <HAL_DMA_IRQHandler+0x120>)
 8003538:	6053      	str	r3, [r2, #4]
 800353a:	6ac3      	ldr	r3, [r0, #44]	; 0x2c
 800353c:	2b00      	cmp	r3, #0
 800353e:	d05c      	beq.n	80035fa <HAL_DMA_IRQHandler+0x116>
 8003540:	bc70      	pop	{r4, r5, r6}
 8003542:	4718      	bx	r3
 8003544:	2304      	movs	r3, #4
 8003546:	e7f6      	b.n	8003536 <HAL_DMA_IRQHandler+0x52>
 8003548:	2340      	movs	r3, #64	; 0x40
 800354a:	e7f4      	b.n	8003536 <HAL_DMA_IRQHandler+0x52>
 800354c:	f44f 6380 	mov.w	r3, #1024	; 0x400
 8003550:	e7f1      	b.n	8003536 <HAL_DMA_IRQHandler+0x52>
 8003552:	f44f 4380 	mov.w	r3, #16384	; 0x4000
 8003556:	e7ee      	b.n	8003536 <HAL_DMA_IRQHandler+0x52>
 8003558:	f44f 2380 	mov.w	r3, #262144	; 0x40000
 800355c:	e7eb      	b.n	8003536 <HAL_DMA_IRQHandler+0x52>
 800355e:	2502      	movs	r5, #2
 8003560:	4095      	lsls	r5, r2
 8003562:	4225      	tst	r5, r4
 8003564:	d035      	beq.n	80035d2 <HAL_DMA_IRQHandler+0xee>
 8003566:	078d      	lsls	r5, r1, #30
 8003568:	d533      	bpl.n	80035d2 <HAL_DMA_IRQHandler+0xee>
 800356a:	681a      	ldr	r2, [r3, #0]
 800356c:	0694      	lsls	r4, r2, #26
 800356e:	d406      	bmi.n	800357e <HAL_DMA_IRQHandler+0x9a>
 8003570:	681a      	ldr	r2, [r3, #0]
 8003572:	f022 020a 	bic.w	r2, r2, #10
 8003576:	601a      	str	r2, [r3, #0]
 8003578:	2201      	movs	r2, #1
 800357a:	f880 2021 	strb.w	r2, [r0, #33]	; 0x21
 800357e:	4a20      	ldr	r2, [pc, #128]	; (8003600 <HAL_DMA_IRQHandler+0x11c>)
 8003580:	4293      	cmp	r3, r2
 8003582:	d019      	beq.n	80035b8 <HAL_DMA_IRQHandler+0xd4>
 8003584:	3214      	adds	r2, #20
 8003586:	4293      	cmp	r3, r2
 8003588:	d018      	beq.n	80035bc <HAL_DMA_IRQHandler+0xd8>
 800358a:	3214      	adds	r2, #20
 800358c:	4293      	cmp	r3, r2
 800358e:	d017      	beq.n	80035c0 <HAL_DMA_IRQHandler+0xdc>
 8003590:	3214      	adds	r2, #20
 8003592:	4293      	cmp	r3, r2
 8003594:	d017      	beq.n	80035c6 <HAL_DMA_IRQHandler+0xe2>
 8003596:	3214      	adds	r2, #20
 8003598:	4293      	cmp	r3, r2
 800359a:	d017      	beq.n	80035cc <HAL_DMA_IRQHandler+0xe8>
 800359c:	3214      	adds	r2, #20
 800359e:	4293      	cmp	r3, r2
 80035a0:	bf0c      	ite	eq
 80035a2:	f44f 1300 	moveq.w	r3, #2097152	; 0x200000
 80035a6:	f04f 7300 	movne.w	r3, #33554432	; 0x2000000
 80035aa:	4a16      	ldr	r2, [pc, #88]	; (8003604 <HAL_DMA_IRQHandler+0x120>)
 80035ac:	6053      	str	r3, [r2, #4]
 80035ae:	2300      	movs	r3, #0
 80035b0:	f880 3020 	strb.w	r3, [r0, #32]
 80035b4:	6a83      	ldr	r3, [r0, #40]	; 0x28
 80035b6:	e7c1      	b.n	800353c <HAL_DMA_IRQHandler+0x58>
 80035b8:	2302      	movs	r3, #2
 80035ba:	e7f6      	b.n	80035aa <HAL_DMA_IRQHandler+0xc6>
 80035bc:	2320      	movs	r3, #32
 80035be:	e7f4      	b.n	80035aa <HAL_DMA_IRQHandler+0xc6>
 80035c0:	f44f 7300 	mov.w	r3, #512	; 0x200
 80035c4:	e7f1      	b.n	80035aa <HAL_DMA_IRQHandler+0xc6>
 80035c6:	f44f 5300 	mov.w	r3, #8192	; 0x2000
 80035ca:	e7ee      	b.n	80035aa <HAL_DMA_IRQHandler+0xc6>
 80035cc:	f44f 3300 	mov.w	r3, #131072	; 0x20000
 80035d0:	e7eb      	b.n	80035aa <HAL_DMA_IRQHandler+0xc6>
 80035d2:	2508      	movs	r5, #8
 80035d4:	4095      	lsls	r5, r2
 80035d6:	4225      	tst	r5, r4
 80035d8:	d00f      	beq.n	80035fa <HAL_DMA_IRQHandler+0x116>
 80035da:	0709      	lsls	r1, r1, #28
 80035dc:	d50d      	bpl.n	80035fa <HAL_DMA_IRQHandler+0x116>
 80035de:	6819      	ldr	r1, [r3, #0]
 80035e0:	f021 010e 	bic.w	r1, r1, #14
 80035e4:	6019      	str	r1, [r3, #0]
 80035e6:	2301      	movs	r3, #1
 80035e8:	fa03 f202 	lsl.w	r2, r3, r2
 80035ec:	6072      	str	r2, [r6, #4]
 80035ee:	6383      	str	r3, [r0, #56]	; 0x38
 80035f0:	f44f 7380 	mov.w	r3, #256	; 0x100
 80035f4:	8403      	strh	r3, [r0, #32]
 80035f6:	6b03      	ldr	r3, [r0, #48]	; 0x30
 80035f8:	e7a0      	b.n	800353c <HAL_DMA_IRQHandler+0x58>
 80035fa:	bc70      	pop	{r4, r5, r6}
 80035fc:	4770      	bx	lr
 80035fe:	bf00      	nop
 8003600:	40020008 	.word	0x40020008
 8003604:	40020000 	.word	0x40020000

08003608 <HAL_GPIO_Init>:
 8003608:	e92d 4ff7 	stmdb	sp!, {r0, r1, r2, r4, r5, r6, r7, r8, r9, sl, fp, lr}
 800360c:	2200      	movs	r2, #0
 800360e:	4616      	mov	r6, r2
 8003610:	4b64      	ldr	r3, [pc, #400]	; (80037a4 <HAL_GPIO_Init+0x19c>)
 8003612:	f8df c1a0 	ldr.w	ip, [pc, #416]	; 80037b4 <HAL_GPIO_Init+0x1ac>
 8003616:	f8df e1a0 	ldr.w	lr, [pc, #416]	; 80037b8 <HAL_GPIO_Init+0x1b0>
 800361a:	680d      	ldr	r5, [r1, #0]
 800361c:	fa35 f406 	lsrs.w	r4, r5, r6
 8003620:	d102      	bne.n	8003628 <HAL_GPIO_Init+0x20>
 8003622:	b003      	add	sp, #12
 8003624:	e8bd 8ff0 	ldmia.w	sp!, {r4, r5, r6, r7, r8, r9, sl, fp, pc}
 8003628:	f04f 0801 	mov.w	r8, #1
 800362c:	fa08 f806 	lsl.w	r8, r8, r6
 8003630:	ea05 0408 	and.w	r4, r5, r8
 8003634:	ea38 0505 	bics.w	r5, r8, r5
 8003638:	d17c      	bne.n	8003734 <HAL_GPIO_Init+0x12c>
 800363a:	684d      	ldr	r5, [r1, #4]
 800363c:	2d03      	cmp	r5, #3
 800363e:	d807      	bhi.n	8003650 <HAL_GPIO_Init+0x48>
 8003640:	3d01      	subs	r5, #1
 8003642:	2d02      	cmp	r5, #2
 8003644:	f200 8088 	bhi.w	8003758 <HAL_GPIO_Init+0x150>
 8003648:	e8df f005 	tbb	[pc, r5]
 800364c:	9b96      	.short	0x9b96
 800364e:	a1          	.byte	0xa1
 800364f:	00          	.byte	0x00
 8003650:	2d12      	cmp	r5, #18
 8003652:	f000 8099 	beq.w	8003788 <HAL_GPIO_Init+0x180>
 8003656:	d86f      	bhi.n	8003738 <HAL_GPIO_Init+0x130>
 8003658:	2d11      	cmp	r5, #17
 800365a:	f000 808f 	beq.w	800377c <HAL_GPIO_Init+0x174>
 800365e:	2cff      	cmp	r4, #255	; 0xff
 8003660:	bf98      	it	ls
 8003662:	4682      	movls	sl, r0
 8003664:	f04f 090f 	mov.w	r9, #15
 8003668:	bf88      	it	hi
 800366a:	f100 0a04 	addhi.w	sl, r0, #4
 800366e:	ea4f 0586 	mov.w	r5, r6, lsl #2
 8003672:	f8da 8000 	ldr.w	r8, [sl]
 8003676:	bf88      	it	hi
 8003678:	3d20      	subhi	r5, #32
 800367a:	fa09 fb05 	lsl.w	fp, r9, r5
 800367e:	ea28 080b 	bic.w	r8, r8, fp
 8003682:	fa02 f505 	lsl.w	r5, r2, r5
 8003686:	ea48 0505 	orr.w	r5, r8, r5
 800368a:	f8ca 5000 	str.w	r5, [sl]
 800368e:	f8d1 a004 	ldr.w	sl, [r1, #4]
 8003692:	f01a 5f80 	tst.w	sl, #268435456	; 0x10000000
 8003696:	d04d      	beq.n	8003734 <HAL_GPIO_Init+0x12c>
 8003698:	4f43      	ldr	r7, [pc, #268]	; (80037a8 <HAL_GPIO_Init+0x1a0>)
 800369a:	f026 0803 	bic.w	r8, r6, #3
 800369e:	69bd      	ldr	r5, [r7, #24]
 80036a0:	f108 4880 	add.w	r8, r8, #1073741824	; 0x40000000
 80036a4:	f045 0501 	orr.w	r5, r5, #1
 80036a8:	61bd      	str	r5, [r7, #24]
 80036aa:	69bd      	ldr	r5, [r7, #24]
 80036ac:	f508 3880 	add.w	r8, r8, #65536	; 0x10000
 80036b0:	f005 0501 	and.w	r5, r5, #1
 80036b4:	9501      	str	r5, [sp, #4]
 80036b6:	f006 0b03 	and.w	fp, r6, #3
 80036ba:	9d01      	ldr	r5, [sp, #4]
 80036bc:	ea4f 0b8b 	mov.w	fp, fp, lsl #2
 80036c0:	f8d8 5008 	ldr.w	r5, [r8, #8]
 80036c4:	fa09 f90b 	lsl.w	r9, r9, fp
 80036c8:	ea25 0909 	bic.w	r9, r5, r9
 80036cc:	4d37      	ldr	r5, [pc, #220]	; (80037ac <HAL_GPIO_Init+0x1a4>)
 80036ce:	42a8      	cmp	r0, r5
 80036d0:	d061      	beq.n	8003796 <HAL_GPIO_Init+0x18e>
 80036d2:	f505 6580 	add.w	r5, r5, #1024	; 0x400
 80036d6:	42a8      	cmp	r0, r5
 80036d8:	d05f      	beq.n	800379a <HAL_GPIO_Init+0x192>
 80036da:	f505 6580 	add.w	r5, r5, #1024	; 0x400
 80036de:	42a8      	cmp	r0, r5
 80036e0:	d05d      	beq.n	800379e <HAL_GPIO_Init+0x196>
 80036e2:	f505 6580 	add.w	r5, r5, #1024	; 0x400
 80036e6:	42a8      	cmp	r0, r5
 80036e8:	bf0c      	ite	eq
 80036ea:	2503      	moveq	r5, #3
 80036ec:	2504      	movne	r5, #4
 80036ee:	fa05 f50b 	lsl.w	r5, r5, fp
 80036f2:	ea45 0509 	orr.w	r5, r5, r9
 80036f6:	f8c8 5008 	str.w	r5, [r8, #8]
 80036fa:	681d      	ldr	r5, [r3, #0]
 80036fc:	f41a 3f80 	tst.w	sl, #65536	; 0x10000
 8003700:	bf14      	ite	ne
 8003702:	4325      	orrne	r5, r4
 8003704:	43a5      	biceq	r5, r4
 8003706:	601d      	str	r5, [r3, #0]
 8003708:	685d      	ldr	r5, [r3, #4]
 800370a:	f41a 3f00 	tst.w	sl, #131072	; 0x20000
 800370e:	bf14      	ite	ne
 8003710:	4325      	orrne	r5, r4
 8003712:	43a5      	biceq	r5, r4
 8003714:	605d      	str	r5, [r3, #4]
 8003716:	689d      	ldr	r5, [r3, #8]
 8003718:	f41a 1f80 	tst.w	sl, #1048576	; 0x100000
 800371c:	bf14      	ite	ne
 800371e:	4325      	orrne	r5, r4
 8003720:	43a5      	biceq	r5, r4
 8003722:	609d      	str	r5, [r3, #8]
 8003724:	68dd      	ldr	r5, [r3, #12]
 8003726:	f41a 1f00 	tst.w	sl, #2097152	; 0x200000
 800372a:	bf14      	ite	ne
 800372c:	432c      	orrne	r4, r5
 800372e:	ea25 0404 	biceq.w	r4, r5, r4
 8003732:	60dc      	str	r4, [r3, #12]
 8003734:	3601      	adds	r6, #1
 8003736:	e770      	b.n	800361a <HAL_GPIO_Init+0x12>
 8003738:	4f1d      	ldr	r7, [pc, #116]	; (80037b0 <HAL_GPIO_Init+0x1a8>)
 800373a:	42bd      	cmp	r5, r7
 800373c:	d00c      	beq.n	8003758 <HAL_GPIO_Init+0x150>
 800373e:	d817      	bhi.n	8003770 <HAL_GPIO_Init+0x168>
 8003740:	f8df 9078 	ldr.w	r9, [pc, #120]	; 80037bc <HAL_GPIO_Init+0x1b4>
 8003744:	454d      	cmp	r5, r9
 8003746:	d007      	beq.n	8003758 <HAL_GPIO_Init+0x150>
 8003748:	f509 2970 	add.w	r9, r9, #983040	; 0xf0000
 800374c:	454d      	cmp	r5, r9
 800374e:	d003      	beq.n	8003758 <HAL_GPIO_Init+0x150>
 8003750:	f5a9 1980 	sub.w	r9, r9, #1048576	; 0x100000
 8003754:	454d      	cmp	r5, r9
 8003756:	d182      	bne.n	800365e <HAL_GPIO_Init+0x56>
 8003758:	688a      	ldr	r2, [r1, #8]
 800375a:	b1d2      	cbz	r2, 8003792 <HAL_GPIO_Init+0x18a>
 800375c:	2a01      	cmp	r2, #1
 800375e:	bf08      	it	eq
 8003760:	f8c0 8010 	streq.w	r8, [r0, #16]
 8003764:	f04f 0208 	mov.w	r2, #8
 8003768:	bf18      	it	ne
 800376a:	f8c0 8014 	strne.w	r8, [r0, #20]
 800376e:	e776      	b.n	800365e <HAL_GPIO_Init+0x56>
 8003770:	4565      	cmp	r5, ip
 8003772:	d0f1      	beq.n	8003758 <HAL_GPIO_Init+0x150>
 8003774:	4575      	cmp	r5, lr
 8003776:	e7ee      	b.n	8003756 <HAL_GPIO_Init+0x14e>
 8003778:	68ca      	ldr	r2, [r1, #12]
 800377a:	e770      	b.n	800365e <HAL_GPIO_Init+0x56>
 800377c:	68ca      	ldr	r2, [r1, #12]
 800377e:	3204      	adds	r2, #4
 8003780:	e76d      	b.n	800365e <HAL_GPIO_Init+0x56>
 8003782:	68ca      	ldr	r2, [r1, #12]
 8003784:	3208      	adds	r2, #8
 8003786:	e76a      	b.n	800365e <HAL_GPIO_Init+0x56>
 8003788:	68ca      	ldr	r2, [r1, #12]
 800378a:	320c      	adds	r2, #12
 800378c:	e767      	b.n	800365e <HAL_GPIO_Init+0x56>
 800378e:	2200      	movs	r2, #0
 8003790:	e765      	b.n	800365e <HAL_GPIO_Init+0x56>
 8003792:	2204      	movs	r2, #4
 8003794:	e763      	b.n	800365e <HAL_GPIO_Init+0x56>
 8003796:	2500      	movs	r5, #0
 8003798:	e7a9      	b.n	80036ee <HAL_GPIO_Init+0xe6>
 800379a:	2501      	movs	r5, #1
 800379c:	e7a7      	b.n	80036ee <HAL_GPIO_Init+0xe6>
 800379e:	2502      	movs	r5, #2
 80037a0:	e7a5      	b.n	80036ee <HAL_GPIO_Init+0xe6>
 80037a2:	bf00      	nop
 80037a4:	40010400 	.word	0x40010400
 80037a8:	40021000 	.word	0x40021000
 80037ac:	40010800 	.word	0x40010800
 80037b0:	10220000 	.word	0x10220000
 80037b4:	10310000 	.word	0x10310000
 80037b8:	10320000 	.word	0x10320000
 80037bc:	10120000 	.word	0x10120000

080037c0 <HAL_GPIO_WritePin>:
 80037c0:	b10a      	cbz	r2, 80037c6 <HAL_GPIO_WritePin+0x6>
 80037c2:	6101      	str	r1, [r0, #16]
 80037c4:	4770      	bx	lr
 80037c6:	0409      	lsls	r1, r1, #16
 80037c8:	e7fb      	b.n	80037c2 <HAL_GPIO_WritePin+0x2>
	...

080037cc <HAL_I2C_Init>:
 80037cc:	b570      	push	{r4, r5, r6, lr}
 80037ce:	4604      	mov	r4, r0
 80037d0:	b908      	cbnz	r0, 80037d6 <HAL_I2C_Init+0xa>
 80037d2:	2001      	movs	r0, #1
 80037d4:	bd70      	pop	{r4, r5, r6, pc}
 80037d6:	f890 303d 	ldrb.w	r3, [r0, #61]	; 0x3d
 80037da:	f003 02ff 	and.w	r2, r3, #255	; 0xff
 80037de:	b91b      	cbnz	r3, 80037e8 <HAL_I2C_Init+0x1c>
 80037e0:	f880 203c 	strb.w	r2, [r0, #60]	; 0x3c
 80037e4:	f7fe ff10 	bl	8002608 <HAL_I2C_MspInit>
 80037e8:	2324      	movs	r3, #36	; 0x24
 80037ea:	f884 303d 	strb.w	r3, [r4, #61]	; 0x3d
 80037ee:	6823      	ldr	r3, [r4, #0]
 80037f0:	681a      	ldr	r2, [r3, #0]
 80037f2:	f022 0201 	bic.w	r2, r2, #1
 80037f6:	601a      	str	r2, [r3, #0]
 80037f8:	681a      	ldr	r2, [r3, #0]
 80037fa:	f442 4200 	orr.w	r2, r2, #32768	; 0x8000
 80037fe:	601a      	str	r2, [r3, #0]
 8003800:	681a      	ldr	r2, [r3, #0]
 8003802:	f422 4200 	bic.w	r2, r2, #32768	; 0x8000
 8003806:	601a      	str	r2, [r3, #0]
 8003808:	f000 fafa 	bl	8003e00 <HAL_RCC_GetPCLK1Freq>
 800380c:	4a3f      	ldr	r2, [pc, #252]	; (800390c <HAL_I2C_Init+0x140>)
 800380e:	6863      	ldr	r3, [r4, #4]
 8003810:	4293      	cmp	r3, r2
 8003812:	bf94      	ite	ls
 8003814:	4a3e      	ldrls	r2, [pc, #248]	; (8003910 <HAL_I2C_Init+0x144>)
 8003816:	4a3f      	ldrhi	r2, [pc, #252]	; (8003914 <HAL_I2C_Init+0x148>)
 8003818:	4290      	cmp	r0, r2
 800381a:	bf8c      	ite	hi
 800381c:	2200      	movhi	r2, #0
 800381e:	2201      	movls	r2, #1
 8003820:	2a00      	cmp	r2, #0
 8003822:	d1d6      	bne.n	80037d2 <HAL_I2C_Init+0x6>
 8003824:	4e3c      	ldr	r6, [pc, #240]	; (8003918 <HAL_I2C_Init+0x14c>)
 8003826:	6822      	ldr	r2, [r4, #0]
 8003828:	fbb0 f6f6 	udiv	r6, r0, r6
 800382c:	6851      	ldr	r1, [r2, #4]
 800382e:	3801      	subs	r0, #1
 8003830:	f021 013f 	bic.w	r1, r1, #63	; 0x3f
 8003834:	4331      	orrs	r1, r6
 8003836:	6051      	str	r1, [r2, #4]
 8003838:	4934      	ldr	r1, [pc, #208]	; (800390c <HAL_I2C_Init+0x140>)
 800383a:	6a15      	ldr	r5, [r2, #32]
 800383c:	428b      	cmp	r3, r1
 800383e:	bf81      	itttt	hi
 8003840:	f44f 7196 	movhi.w	r1, #300	; 0x12c
 8003844:	4371      	mulhi	r1, r6
 8003846:	f44f 767a 	movhi.w	r6, #1000	; 0x3e8
 800384a:	fbb1 f1f6 	udivhi	r1, r1, r6
 800384e:	f025 053f 	bic.w	r5, r5, #63	; 0x3f
 8003852:	bf94      	ite	ls
 8003854:	1c71      	addls	r1, r6, #1
 8003856:	3101      	addhi	r1, #1
 8003858:	4329      	orrs	r1, r5
 800385a:	6211      	str	r1, [r2, #32]
 800385c:	69d1      	ldr	r1, [r2, #28]
 800385e:	4d2b      	ldr	r5, [pc, #172]	; (800390c <HAL_I2C_Init+0x140>)
 8003860:	f421 414f 	bic.w	r1, r1, #52992	; 0xcf00
 8003864:	42ab      	cmp	r3, r5
 8003866:	f021 01ff 	bic.w	r1, r1, #255	; 0xff
 800386a:	d832      	bhi.n	80038d2 <HAL_I2C_Init+0x106>
 800386c:	005b      	lsls	r3, r3, #1
 800386e:	fbb0 f0f3 	udiv	r0, r0, r3
 8003872:	1c43      	adds	r3, r0, #1
 8003874:	f640 70fc 	movw	r0, #4092	; 0xffc
 8003878:	4203      	tst	r3, r0
 800387a:	d042      	beq.n	8003902 <HAL_I2C_Init+0x136>
 800387c:	f3c3 030b 	ubfx	r3, r3, #0, #12
 8003880:	430b      	orrs	r3, r1
 8003882:	61d3      	str	r3, [r2, #28]
 8003884:	6811      	ldr	r1, [r2, #0]
 8003886:	e9d4 3007 	ldrd	r3, r0, [r4, #28]
 800388a:	f021 01c0 	bic.w	r1, r1, #192	; 0xc0
 800388e:	4303      	orrs	r3, r0
 8003890:	430b      	orrs	r3, r1
 8003892:	6013      	str	r3, [r2, #0]
 8003894:	6891      	ldr	r1, [r2, #8]
 8003896:	e9d4 0303 	ldrd	r0, r3, [r4, #12]
 800389a:	f421 4103 	bic.w	r1, r1, #33536	; 0x8300
 800389e:	4303      	orrs	r3, r0
 80038a0:	f021 01ff 	bic.w	r1, r1, #255	; 0xff
 80038a4:	430b      	orrs	r3, r1
 80038a6:	6093      	str	r3, [r2, #8]
 80038a8:	68d1      	ldr	r1, [r2, #12]
 80038aa:	e9d4 3005 	ldrd	r3, r0, [r4, #20]
 80038ae:	f021 01ff 	bic.w	r1, r1, #255	; 0xff
 80038b2:	4303      	orrs	r3, r0
 80038b4:	430b      	orrs	r3, r1
 80038b6:	60d3      	str	r3, [r2, #12]
 80038b8:	6813      	ldr	r3, [r2, #0]
 80038ba:	2000      	movs	r0, #0
 80038bc:	f043 0301 	orr.w	r3, r3, #1
 80038c0:	6013      	str	r3, [r2, #0]
 80038c2:	2320      	movs	r3, #32
 80038c4:	6420      	str	r0, [r4, #64]	; 0x40
 80038c6:	f884 303d 	strb.w	r3, [r4, #61]	; 0x3d
 80038ca:	6320      	str	r0, [r4, #48]	; 0x30
 80038cc:	f884 003e 	strb.w	r0, [r4, #62]	; 0x3e
 80038d0:	e780      	b.n	80037d4 <HAL_I2C_Init+0x8>
 80038d2:	68a5      	ldr	r5, [r4, #8]
 80038d4:	b955      	cbnz	r5, 80038ec <HAL_I2C_Init+0x120>
 80038d6:	eb03 0343 	add.w	r3, r3, r3, lsl #1
 80038da:	fbb0 f3f3 	udiv	r3, r0, r3
 80038de:	3301      	adds	r3, #1
 80038e0:	f3c3 030b 	ubfx	r3, r3, #0, #12
 80038e4:	b17b      	cbz	r3, 8003906 <HAL_I2C_Init+0x13a>
 80038e6:	f443 4300 	orr.w	r3, r3, #32768	; 0x8000
 80038ea:	e7c9      	b.n	8003880 <HAL_I2C_Init+0xb4>
 80038ec:	2519      	movs	r5, #25
 80038ee:	436b      	muls	r3, r5
 80038f0:	fbb0 f3f3 	udiv	r3, r0, r3
 80038f4:	3301      	adds	r3, #1
 80038f6:	f3c3 030b 	ubfx	r3, r3, #0, #12
 80038fa:	b123      	cbz	r3, 8003906 <HAL_I2C_Init+0x13a>
 80038fc:	f443 4340 	orr.w	r3, r3, #49152	; 0xc000
 8003900:	e7be      	b.n	8003880 <HAL_I2C_Init+0xb4>
 8003902:	2304      	movs	r3, #4
 8003904:	e7bc      	b.n	8003880 <HAL_I2C_Init+0xb4>
 8003906:	2301      	movs	r3, #1
 8003908:	e7ba      	b.n	8003880 <HAL_I2C_Init+0xb4>
 800390a:	bf00      	nop
 800390c:	000186a0 	.word	0x000186a0
 8003910:	001e847f 	.word	0x001e847f
 8003914:	003d08ff 	.word	0x003d08ff
 8003918:	000f4240 	.word	0x000f4240

0800391c <HAL_RCC_OscConfig>:
 800391c:	e92d 41f3 	stmdb	sp!, {r0, r1, r4, r5, r6, r7, r8, lr}
 8003920:	4605      	mov	r5, r0
 8003922:	b338      	cbz	r0, 8003974 <HAL_RCC_OscConfig+0x58>
 8003924:	6803      	ldr	r3, [r0, #0]
 8003926:	07db      	lsls	r3, r3, #31
 8003928:	d410      	bmi.n	800394c <HAL_RCC_OscConfig+0x30>
 800392a:	682b      	ldr	r3, [r5, #0]
 800392c:	079f      	lsls	r7, r3, #30
 800392e:	d45e      	bmi.n	80039ee <HAL_RCC_OscConfig+0xd2>
 8003930:	682b      	ldr	r3, [r5, #0]
 8003932:	0719      	lsls	r1, r3, #28
 8003934:	f100 8095 	bmi.w	8003a62 <HAL_RCC_OscConfig+0x146>
 8003938:	682b      	ldr	r3, [r5, #0]
 800393a:	075a      	lsls	r2, r3, #29
 800393c:	f100 80bf 	bmi.w	8003abe <HAL_RCC_OscConfig+0x1a2>
 8003940:	69e8      	ldr	r0, [r5, #28]
 8003942:	2800      	cmp	r0, #0
 8003944:	f040 812c 	bne.w	8003ba0 <HAL_RCC_OscConfig+0x284>
 8003948:	2000      	movs	r0, #0
 800394a:	e029      	b.n	80039a0 <HAL_RCC_OscConfig+0x84>
 800394c:	4c8f      	ldr	r4, [pc, #572]	; (8003b8c <HAL_RCC_OscConfig+0x270>)
 800394e:	6863      	ldr	r3, [r4, #4]
 8003950:	f003 030c 	and.w	r3, r3, #12
 8003954:	2b04      	cmp	r3, #4
 8003956:	d007      	beq.n	8003968 <HAL_RCC_OscConfig+0x4c>
 8003958:	6863      	ldr	r3, [r4, #4]
 800395a:	f003 030c 	and.w	r3, r3, #12
 800395e:	2b08      	cmp	r3, #8
 8003960:	d10a      	bne.n	8003978 <HAL_RCC_OscConfig+0x5c>
 8003962:	6863      	ldr	r3, [r4, #4]
 8003964:	03de      	lsls	r6, r3, #15
 8003966:	d507      	bpl.n	8003978 <HAL_RCC_OscConfig+0x5c>
 8003968:	6823      	ldr	r3, [r4, #0]
 800396a:	039c      	lsls	r4, r3, #14
 800396c:	d5dd      	bpl.n	800392a <HAL_RCC_OscConfig+0xe>
 800396e:	686b      	ldr	r3, [r5, #4]
 8003970:	2b00      	cmp	r3, #0
 8003972:	d1da      	bne.n	800392a <HAL_RCC_OscConfig+0xe>
 8003974:	2001      	movs	r0, #1
 8003976:	e013      	b.n	80039a0 <HAL_RCC_OscConfig+0x84>
 8003978:	686b      	ldr	r3, [r5, #4]
 800397a:	f5b3 3f80 	cmp.w	r3, #65536	; 0x10000
 800397e:	d112      	bne.n	80039a6 <HAL_RCC_OscConfig+0x8a>
 8003980:	6823      	ldr	r3, [r4, #0]
 8003982:	f443 3380 	orr.w	r3, r3, #65536	; 0x10000
 8003986:	6023      	str	r3, [r4, #0]
 8003988:	f7ff fc7c 	bl	8003284 <HAL_GetTick>
 800398c:	4606      	mov	r6, r0
 800398e:	6823      	ldr	r3, [r4, #0]
 8003990:	0398      	lsls	r0, r3, #14
 8003992:	d4ca      	bmi.n	800392a <HAL_RCC_OscConfig+0xe>
 8003994:	f7ff fc76 	bl	8003284 <HAL_GetTick>
 8003998:	1b80      	subs	r0, r0, r6
 800399a:	2864      	cmp	r0, #100	; 0x64
 800399c:	d9f7      	bls.n	800398e <HAL_RCC_OscConfig+0x72>
 800399e:	2003      	movs	r0, #3
 80039a0:	b002      	add	sp, #8
 80039a2:	e8bd 81f0 	ldmia.w	sp!, {r4, r5, r6, r7, r8, pc}
 80039a6:	b99b      	cbnz	r3, 80039d0 <HAL_RCC_OscConfig+0xb4>
 80039a8:	6823      	ldr	r3, [r4, #0]
 80039aa:	f423 3380 	bic.w	r3, r3, #65536	; 0x10000
 80039ae:	6023      	str	r3, [r4, #0]
 80039b0:	6823      	ldr	r3, [r4, #0]
 80039b2:	f423 2380 	bic.w	r3, r3, #262144	; 0x40000
 80039b6:	6023      	str	r3, [r4, #0]
 80039b8:	f7ff fc64 	bl	8003284 <HAL_GetTick>
 80039bc:	4606      	mov	r6, r0
 80039be:	6823      	ldr	r3, [r4, #0]
 80039c0:	0399      	lsls	r1, r3, #14
 80039c2:	d5b2      	bpl.n	800392a <HAL_RCC_OscConfig+0xe>
 80039c4:	f7ff fc5e 	bl	8003284 <HAL_GetTick>
 80039c8:	1b80      	subs	r0, r0, r6
 80039ca:	2864      	cmp	r0, #100	; 0x64
 80039cc:	d9f7      	bls.n	80039be <HAL_RCC_OscConfig+0xa2>
 80039ce:	e7e6      	b.n	800399e <HAL_RCC_OscConfig+0x82>
 80039d0:	f5b3 2fa0 	cmp.w	r3, #327680	; 0x50000
 80039d4:	6823      	ldr	r3, [r4, #0]
 80039d6:	d103      	bne.n	80039e0 <HAL_RCC_OscConfig+0xc4>
 80039d8:	f443 2380 	orr.w	r3, r3, #262144	; 0x40000
 80039dc:	6023      	str	r3, [r4, #0]
 80039de:	e7cf      	b.n	8003980 <HAL_RCC_OscConfig+0x64>
 80039e0:	f423 3380 	bic.w	r3, r3, #65536	; 0x10000
 80039e4:	6023      	str	r3, [r4, #0]
 80039e6:	6823      	ldr	r3, [r4, #0]
 80039e8:	f423 2380 	bic.w	r3, r3, #262144	; 0x40000
 80039ec:	e7cb      	b.n	8003986 <HAL_RCC_OscConfig+0x6a>
 80039ee:	4c67      	ldr	r4, [pc, #412]	; (8003b8c <HAL_RCC_OscConfig+0x270>)
 80039f0:	6863      	ldr	r3, [r4, #4]
 80039f2:	f013 0f0c 	tst.w	r3, #12
 80039f6:	d007      	beq.n	8003a08 <HAL_RCC_OscConfig+0xec>
 80039f8:	6863      	ldr	r3, [r4, #4]
 80039fa:	f003 030c 	and.w	r3, r3, #12
 80039fe:	2b08      	cmp	r3, #8
 8003a00:	d110      	bne.n	8003a24 <HAL_RCC_OscConfig+0x108>
 8003a02:	6863      	ldr	r3, [r4, #4]
 8003a04:	03da      	lsls	r2, r3, #15
 8003a06:	d40d      	bmi.n	8003a24 <HAL_RCC_OscConfig+0x108>
 8003a08:	6823      	ldr	r3, [r4, #0]
 8003a0a:	079b      	lsls	r3, r3, #30
 8003a0c:	d502      	bpl.n	8003a14 <HAL_RCC_OscConfig+0xf8>
 8003a0e:	692b      	ldr	r3, [r5, #16]
 8003a10:	2b01      	cmp	r3, #1
 8003a12:	d1af      	bne.n	8003974 <HAL_RCC_OscConfig+0x58>
 8003a14:	6823      	ldr	r3, [r4, #0]
 8003a16:	696a      	ldr	r2, [r5, #20]
 8003a18:	f023 03f8 	bic.w	r3, r3, #248	; 0xf8
 8003a1c:	ea43 03c2 	orr.w	r3, r3, r2, lsl #3
 8003a20:	6023      	str	r3, [r4, #0]
 8003a22:	e785      	b.n	8003930 <HAL_RCC_OscConfig+0x14>
 8003a24:	692a      	ldr	r2, [r5, #16]
 8003a26:	4b5a      	ldr	r3, [pc, #360]	; (8003b90 <HAL_RCC_OscConfig+0x274>)
 8003a28:	b16a      	cbz	r2, 8003a46 <HAL_RCC_OscConfig+0x12a>
 8003a2a:	2201      	movs	r2, #1
 8003a2c:	601a      	str	r2, [r3, #0]
 8003a2e:	f7ff fc29 	bl	8003284 <HAL_GetTick>
 8003a32:	4606      	mov	r6, r0
 8003a34:	6823      	ldr	r3, [r4, #0]
 8003a36:	079f      	lsls	r7, r3, #30
 8003a38:	d4ec      	bmi.n	8003a14 <HAL_RCC_OscConfig+0xf8>
 8003a3a:	f7ff fc23 	bl	8003284 <HAL_GetTick>
 8003a3e:	1b80      	subs	r0, r0, r6
 8003a40:	2802      	cmp	r0, #2
 8003a42:	d9f7      	bls.n	8003a34 <HAL_RCC_OscConfig+0x118>
 8003a44:	e7ab      	b.n	800399e <HAL_RCC_OscConfig+0x82>
 8003a46:	601a      	str	r2, [r3, #0]
 8003a48:	f7ff fc1c 	bl	8003284 <HAL_GetTick>
 8003a4c:	4606      	mov	r6, r0
 8003a4e:	6823      	ldr	r3, [r4, #0]
 8003a50:	0798      	lsls	r0, r3, #30
 8003a52:	f57f af6d 	bpl.w	8003930 <HAL_RCC_OscConfig+0x14>
 8003a56:	f7ff fc15 	bl	8003284 <HAL_GetTick>
 8003a5a:	1b80      	subs	r0, r0, r6
 8003a5c:	2802      	cmp	r0, #2
 8003a5e:	d9f6      	bls.n	8003a4e <HAL_RCC_OscConfig+0x132>
 8003a60:	e79d      	b.n	800399e <HAL_RCC_OscConfig+0x82>
 8003a62:	69aa      	ldr	r2, [r5, #24]
 8003a64:	4e49      	ldr	r6, [pc, #292]	; (8003b8c <HAL_RCC_OscConfig+0x270>)
 8003a66:	4b4b      	ldr	r3, [pc, #300]	; (8003b94 <HAL_RCC_OscConfig+0x278>)
 8003a68:	b1da      	cbz	r2, 8003aa2 <HAL_RCC_OscConfig+0x186>
 8003a6a:	2201      	movs	r2, #1
 8003a6c:	601a      	str	r2, [r3, #0]
 8003a6e:	f7ff fc09 	bl	8003284 <HAL_GetTick>
 8003a72:	4604      	mov	r4, r0
 8003a74:	6a73      	ldr	r3, [r6, #36]	; 0x24
 8003a76:	079b      	lsls	r3, r3, #30
 8003a78:	d50d      	bpl.n	8003a96 <HAL_RCC_OscConfig+0x17a>
 8003a7a:	f44f 52fa 	mov.w	r2, #8000	; 0x1f40
 8003a7e:	4b46      	ldr	r3, [pc, #280]	; (8003b98 <HAL_RCC_OscConfig+0x27c>)
 8003a80:	681b      	ldr	r3, [r3, #0]
 8003a82:	fbb3 f3f2 	udiv	r3, r3, r2
 8003a86:	9301      	str	r3, [sp, #4]
 8003a88:	bf00      	nop
 8003a8a:	9b01      	ldr	r3, [sp, #4]
 8003a8c:	1e5a      	subs	r2, r3, #1
 8003a8e:	9201      	str	r2, [sp, #4]
 8003a90:	2b00      	cmp	r3, #0
 8003a92:	d1f9      	bne.n	8003a88 <HAL_RCC_OscConfig+0x16c>
 8003a94:	e750      	b.n	8003938 <HAL_RCC_OscConfig+0x1c>
 8003a96:	f7ff fbf5 	bl	8003284 <HAL_GetTick>
 8003a9a:	1b00      	subs	r0, r0, r4
 8003a9c:	2802      	cmp	r0, #2
 8003a9e:	d9e9      	bls.n	8003a74 <HAL_RCC_OscConfig+0x158>
 8003aa0:	e77d      	b.n	800399e <HAL_RCC_OscConfig+0x82>
 8003aa2:	601a      	str	r2, [r3, #0]
 8003aa4:	f7ff fbee 	bl	8003284 <HAL_GetTick>
 8003aa8:	4604      	mov	r4, r0
 8003aaa:	6a73      	ldr	r3, [r6, #36]	; 0x24
 8003aac:	079f      	lsls	r7, r3, #30
 8003aae:	f57f af43 	bpl.w	8003938 <HAL_RCC_OscConfig+0x1c>
 8003ab2:	f7ff fbe7 	bl	8003284 <HAL_GetTick>
 8003ab6:	1b00      	subs	r0, r0, r4
 8003ab8:	2802      	cmp	r0, #2
 8003aba:	d9f6      	bls.n	8003aaa <HAL_RCC_OscConfig+0x18e>
 8003abc:	e76f      	b.n	800399e <HAL_RCC_OscConfig+0x82>
 8003abe:	4c33      	ldr	r4, [pc, #204]	; (8003b8c <HAL_RCC_OscConfig+0x270>)
 8003ac0:	69e3      	ldr	r3, [r4, #28]
 8003ac2:	00d8      	lsls	r0, r3, #3
 8003ac4:	d424      	bmi.n	8003b10 <HAL_RCC_OscConfig+0x1f4>
 8003ac6:	2701      	movs	r7, #1
 8003ac8:	69e3      	ldr	r3, [r4, #28]
 8003aca:	f043 5380 	orr.w	r3, r3, #268435456	; 0x10000000
 8003ace:	61e3      	str	r3, [r4, #28]
 8003ad0:	69e3      	ldr	r3, [r4, #28]
 8003ad2:	f003 5380 	and.w	r3, r3, #268435456	; 0x10000000
 8003ad6:	9300      	str	r3, [sp, #0]
 8003ad8:	9b00      	ldr	r3, [sp, #0]
 8003ada:	4e30      	ldr	r6, [pc, #192]	; (8003b9c <HAL_RCC_OscConfig+0x280>)
 8003adc:	6833      	ldr	r3, [r6, #0]
 8003ade:	05d9      	lsls	r1, r3, #23
 8003ae0:	d518      	bpl.n	8003b14 <HAL_RCC_OscConfig+0x1f8>
 8003ae2:	68eb      	ldr	r3, [r5, #12]
 8003ae4:	2b01      	cmp	r3, #1
 8003ae6:	d126      	bne.n	8003b36 <HAL_RCC_OscConfig+0x21a>
 8003ae8:	6a23      	ldr	r3, [r4, #32]
 8003aea:	f043 0301 	orr.w	r3, r3, #1
 8003aee:	6223      	str	r3, [r4, #32]
 8003af0:	f7ff fbc8 	bl	8003284 <HAL_GetTick>
 8003af4:	f241 3888 	movw	r8, #5000	; 0x1388
 8003af8:	4606      	mov	r6, r0
 8003afa:	6a23      	ldr	r3, [r4, #32]
 8003afc:	079b      	lsls	r3, r3, #30
 8003afe:	d53f      	bpl.n	8003b80 <HAL_RCC_OscConfig+0x264>
 8003b00:	2f00      	cmp	r7, #0
 8003b02:	f43f af1d 	beq.w	8003940 <HAL_RCC_OscConfig+0x24>
 8003b06:	69e3      	ldr	r3, [r4, #28]
 8003b08:	f023 5380 	bic.w	r3, r3, #268435456	; 0x10000000
 8003b0c:	61e3      	str	r3, [r4, #28]
 8003b0e:	e717      	b.n	8003940 <HAL_RCC_OscConfig+0x24>
 8003b10:	2700      	movs	r7, #0
 8003b12:	e7e2      	b.n	8003ada <HAL_RCC_OscConfig+0x1be>
 8003b14:	6833      	ldr	r3, [r6, #0]
 8003b16:	f443 7380 	orr.w	r3, r3, #256	; 0x100
 8003b1a:	6033      	str	r3, [r6, #0]
 8003b1c:	f7ff fbb2 	bl	8003284 <HAL_GetTick>
 8003b20:	4680      	mov	r8, r0
 8003b22:	6833      	ldr	r3, [r6, #0]
 8003b24:	05da      	lsls	r2, r3, #23
 8003b26:	d4dc      	bmi.n	8003ae2 <HAL_RCC_OscConfig+0x1c6>
 8003b28:	f7ff fbac 	bl	8003284 <HAL_GetTick>
 8003b2c:	eba0 0008 	sub.w	r0, r0, r8
 8003b30:	2864      	cmp	r0, #100	; 0x64
 8003b32:	d9f6      	bls.n	8003b22 <HAL_RCC_OscConfig+0x206>
 8003b34:	e733      	b.n	800399e <HAL_RCC_OscConfig+0x82>
 8003b36:	b9ab      	cbnz	r3, 8003b64 <HAL_RCC_OscConfig+0x248>
 8003b38:	6a23      	ldr	r3, [r4, #32]
 8003b3a:	f241 3888 	movw	r8, #5000	; 0x1388
 8003b3e:	f023 0301 	bic.w	r3, r3, #1
 8003b42:	6223      	str	r3, [r4, #32]
 8003b44:	6a23      	ldr	r3, [r4, #32]
 8003b46:	f023 0304 	bic.w	r3, r3, #4
 8003b4a:	6223      	str	r3, [r4, #32]
 8003b4c:	f7ff fb9a 	bl	8003284 <HAL_GetTick>
 8003b50:	4606      	mov	r6, r0
 8003b52:	6a23      	ldr	r3, [r4, #32]
 8003b54:	0798      	lsls	r0, r3, #30
 8003b56:	d5d3      	bpl.n	8003b00 <HAL_RCC_OscConfig+0x1e4>
 8003b58:	f7ff fb94 	bl	8003284 <HAL_GetTick>
 8003b5c:	1b80      	subs	r0, r0, r6
 8003b5e:	4540      	cmp	r0, r8
 8003b60:	d9f7      	bls.n	8003b52 <HAL_RCC_OscConfig+0x236>
 8003b62:	e71c      	b.n	800399e <HAL_RCC_OscConfig+0x82>
 8003b64:	2b05      	cmp	r3, #5
 8003b66:	6a23      	ldr	r3, [r4, #32]
 8003b68:	d103      	bne.n	8003b72 <HAL_RCC_OscConfig+0x256>
 8003b6a:	f043 0304 	orr.w	r3, r3, #4
 8003b6e:	6223      	str	r3, [r4, #32]
 8003b70:	e7ba      	b.n	8003ae8 <HAL_RCC_OscConfig+0x1cc>
 8003b72:	f023 0301 	bic.w	r3, r3, #1
 8003b76:	6223      	str	r3, [r4, #32]
 8003b78:	6a23      	ldr	r3, [r4, #32]
 8003b7a:	f023 0304 	bic.w	r3, r3, #4
 8003b7e:	e7b6      	b.n	8003aee <HAL_RCC_OscConfig+0x1d2>
 8003b80:	f7ff fb80 	bl	8003284 <HAL_GetTick>
 8003b84:	1b80      	subs	r0, r0, r6
 8003b86:	4540      	cmp	r0, r8
 8003b88:	d9b7      	bls.n	8003afa <HAL_RCC_OscConfig+0x1de>
 8003b8a:	e708      	b.n	800399e <HAL_RCC_OscConfig+0x82>
 8003b8c:	40021000 	.word	0x40021000
 8003b90:	42420000 	.word	0x42420000
 8003b94:	42420480 	.word	0x42420480
 8003b98:	20000020 	.word	0x20000020
 8003b9c:	40007000 	.word	0x40007000
 8003ba0:	4b2a      	ldr	r3, [pc, #168]	; (8003c4c <HAL_RCC_OscConfig+0x330>)
 8003ba2:	685a      	ldr	r2, [r3, #4]
 8003ba4:	461c      	mov	r4, r3
 8003ba6:	f002 020c 	and.w	r2, r2, #12
 8003baa:	2a08      	cmp	r2, #8
 8003bac:	d03d      	beq.n	8003c2a <HAL_RCC_OscConfig+0x30e>
 8003bae:	2300      	movs	r3, #0
 8003bb0:	4e27      	ldr	r6, [pc, #156]	; (8003c50 <HAL_RCC_OscConfig+0x334>)
 8003bb2:	2802      	cmp	r0, #2
 8003bb4:	6033      	str	r3, [r6, #0]
 8003bb6:	d12b      	bne.n	8003c10 <HAL_RCC_OscConfig+0x2f4>
 8003bb8:	f7ff fb64 	bl	8003284 <HAL_GetTick>
 8003bbc:	4607      	mov	r7, r0
 8003bbe:	6823      	ldr	r3, [r4, #0]
 8003bc0:	0199      	lsls	r1, r3, #6
 8003bc2:	d41f      	bmi.n	8003c04 <HAL_RCC_OscConfig+0x2e8>
 8003bc4:	6a2b      	ldr	r3, [r5, #32]
 8003bc6:	f5b3 3f80 	cmp.w	r3, #65536	; 0x10000
 8003bca:	d105      	bne.n	8003bd8 <HAL_RCC_OscConfig+0x2bc>
 8003bcc:	6862      	ldr	r2, [r4, #4]
 8003bce:	68a9      	ldr	r1, [r5, #8]
 8003bd0:	f422 3200 	bic.w	r2, r2, #131072	; 0x20000
 8003bd4:	430a      	orrs	r2, r1
 8003bd6:	6062      	str	r2, [r4, #4]
 8003bd8:	6a69      	ldr	r1, [r5, #36]	; 0x24
 8003bda:	6862      	ldr	r2, [r4, #4]
 8003bdc:	430b      	orrs	r3, r1
 8003bde:	f422 1274 	bic.w	r2, r2, #3997696	; 0x3d0000
 8003be2:	4313      	orrs	r3, r2
 8003be4:	6063      	str	r3, [r4, #4]
 8003be6:	2301      	movs	r3, #1
 8003be8:	6033      	str	r3, [r6, #0]
 8003bea:	f7ff fb4b 	bl	8003284 <HAL_GetTick>
 8003bee:	4605      	mov	r5, r0
 8003bf0:	6823      	ldr	r3, [r4, #0]
 8003bf2:	019a      	lsls	r2, r3, #6
 8003bf4:	f53f aea8 	bmi.w	8003948 <HAL_RCC_OscConfig+0x2c>
 8003bf8:	f7ff fb44 	bl	8003284 <HAL_GetTick>
 8003bfc:	1b40      	subs	r0, r0, r5
 8003bfe:	2802      	cmp	r0, #2
 8003c00:	d9f6      	bls.n	8003bf0 <HAL_RCC_OscConfig+0x2d4>
 8003c02:	e6cc      	b.n	800399e <HAL_RCC_OscConfig+0x82>
 8003c04:	f7ff fb3e 	bl	8003284 <HAL_GetTick>
 8003c08:	1bc0      	subs	r0, r0, r7
 8003c0a:	2802      	cmp	r0, #2
 8003c0c:	d9d7      	bls.n	8003bbe <HAL_RCC_OscConfig+0x2a2>
 8003c0e:	e6c6      	b.n	800399e <HAL_RCC_OscConfig+0x82>
 8003c10:	f7ff fb38 	bl	8003284 <HAL_GetTick>
 8003c14:	4605      	mov	r5, r0
 8003c16:	6823      	ldr	r3, [r4, #0]
 8003c18:	019b      	lsls	r3, r3, #6
 8003c1a:	f57f ae95 	bpl.w	8003948 <HAL_RCC_OscConfig+0x2c>
 8003c1e:	f7ff fb31 	bl	8003284 <HAL_GetTick>
 8003c22:	1b40      	subs	r0, r0, r5
 8003c24:	2802      	cmp	r0, #2
 8003c26:	d9f6      	bls.n	8003c16 <HAL_RCC_OscConfig+0x2fa>
 8003c28:	e6b9      	b.n	800399e <HAL_RCC_OscConfig+0x82>
 8003c2a:	2801      	cmp	r0, #1
 8003c2c:	f43f aeb8 	beq.w	80039a0 <HAL_RCC_OscConfig+0x84>
 8003c30:	685b      	ldr	r3, [r3, #4]
 8003c32:	6a2a      	ldr	r2, [r5, #32]
 8003c34:	f403 3180 	and.w	r1, r3, #65536	; 0x10000
 8003c38:	4291      	cmp	r1, r2
 8003c3a:	f47f ae9b 	bne.w	8003974 <HAL_RCC_OscConfig+0x58>
 8003c3e:	6a6a      	ldr	r2, [r5, #36]	; 0x24
 8003c40:	f403 1370 	and.w	r3, r3, #3932160	; 0x3c0000
 8003c44:	4293      	cmp	r3, r2
 8003c46:	f43f ae7f 	beq.w	8003948 <HAL_RCC_OscConfig+0x2c>
 8003c4a:	e693      	b.n	8003974 <HAL_RCC_OscConfig+0x58>
 8003c4c:	40021000 	.word	0x40021000
 8003c50:	42420060 	.word	0x42420060

08003c54 <HAL_RCC_GetSysClockFreq>:
 8003c54:	b530      	push	{r4, r5, lr}
 8003c56:	4b18      	ldr	r3, [pc, #96]	; (8003cb8 <HAL_RCC_GetSysClockFreq+0x64>)
 8003c58:	b087      	sub	sp, #28
 8003c5a:	ac02      	add	r4, sp, #8
 8003c5c:	f103 0510 	add.w	r5, r3, #16
 8003c60:	4622      	mov	r2, r4
 8003c62:	6818      	ldr	r0, [r3, #0]
 8003c64:	6859      	ldr	r1, [r3, #4]
 8003c66:	3308      	adds	r3, #8
 8003c68:	c203      	stmia	r2!, {r0, r1}
 8003c6a:	42ab      	cmp	r3, r5
 8003c6c:	4614      	mov	r4, r2
 8003c6e:	d1f7      	bne.n	8003c60 <HAL_RCC_GetSysClockFreq+0xc>
 8003c70:	f240 2301 	movw	r3, #513	; 0x201
 8003c74:	4911      	ldr	r1, [pc, #68]	; (8003cbc <HAL_RCC_GetSysClockFreq+0x68>)
 8003c76:	f8ad 3004 	strh.w	r3, [sp, #4]
 8003c7a:	684b      	ldr	r3, [r1, #4]
 8003c7c:	f003 020c 	and.w	r2, r3, #12
 8003c80:	2a08      	cmp	r2, #8
 8003c82:	d117      	bne.n	8003cb4 <HAL_RCC_GetSysClockFreq+0x60>
 8003c84:	f3c3 4283 	ubfx	r2, r3, #18, #4
 8003c88:	a806      	add	r0, sp, #24
 8003c8a:	4402      	add	r2, r0
 8003c8c:	03db      	lsls	r3, r3, #15
 8003c8e:	f812 2c10 	ldrb.w	r2, [r2, #-16]
 8003c92:	d50c      	bpl.n	8003cae <HAL_RCC_GetSysClockFreq+0x5a>
 8003c94:	684b      	ldr	r3, [r1, #4]
 8003c96:	480a      	ldr	r0, [pc, #40]	; (8003cc0 <HAL_RCC_GetSysClockFreq+0x6c>)
 8003c98:	f3c3 4340 	ubfx	r3, r3, #17, #1
 8003c9c:	4350      	muls	r0, r2
 8003c9e:	aa06      	add	r2, sp, #24
 8003ca0:	4413      	add	r3, r2
 8003ca2:	f813 3c14 	ldrb.w	r3, [r3, #-20]
 8003ca6:	fbb0 f0f3 	udiv	r0, r0, r3
 8003caa:	b007      	add	sp, #28
 8003cac:	bd30      	pop	{r4, r5, pc}
 8003cae:	4805      	ldr	r0, [pc, #20]	; (8003cc4 <HAL_RCC_GetSysClockFreq+0x70>)
 8003cb0:	4350      	muls	r0, r2
 8003cb2:	e7fa      	b.n	8003caa <HAL_RCC_GetSysClockFreq+0x56>
 8003cb4:	4802      	ldr	r0, [pc, #8]	; (8003cc0 <HAL_RCC_GetSysClockFreq+0x6c>)
 8003cb6:	e7f8      	b.n	8003caa <HAL_RCC_GetSysClockFreq+0x56>
 8003cb8:	08008b01 	.word	0x08008b01
 8003cbc:	40021000 	.word	0x40021000
 8003cc0:	007a1200 	.word	0x007a1200
 8003cc4:	003d0900 	.word	0x003d0900

08003cc8 <HAL_RCC_ClockConfig>:
 8003cc8:	e92d 41f0 	stmdb	sp!, {r4, r5, r6, r7, r8, lr}
 8003ccc:	460d      	mov	r5, r1
 8003cce:	4604      	mov	r4, r0
 8003cd0:	b910      	cbnz	r0, 8003cd8 <HAL_RCC_ClockConfig+0x10>
 8003cd2:	2001      	movs	r0, #1
 8003cd4:	e8bd 81f0 	ldmia.w	sp!, {r4, r5, r6, r7, r8, pc}
 8003cd8:	4a44      	ldr	r2, [pc, #272]	; (8003dec <HAL_RCC_ClockConfig+0x124>)
 8003cda:	6813      	ldr	r3, [r2, #0]
 8003cdc:	f003 0307 	and.w	r3, r3, #7
 8003ce0:	428b      	cmp	r3, r1
 8003ce2:	d328      	bcc.n	8003d36 <HAL_RCC_ClockConfig+0x6e>
 8003ce4:	6821      	ldr	r1, [r4, #0]
 8003ce6:	078e      	lsls	r6, r1, #30
 8003ce8:	d430      	bmi.n	8003d4c <HAL_RCC_ClockConfig+0x84>
 8003cea:	07ca      	lsls	r2, r1, #31
 8003cec:	d443      	bmi.n	8003d76 <HAL_RCC_ClockConfig+0xae>
 8003cee:	4a3f      	ldr	r2, [pc, #252]	; (8003dec <HAL_RCC_ClockConfig+0x124>)
 8003cf0:	6813      	ldr	r3, [r2, #0]
 8003cf2:	f003 0307 	and.w	r3, r3, #7
 8003cf6:	42ab      	cmp	r3, r5
 8003cf8:	d865      	bhi.n	8003dc6 <HAL_RCC_ClockConfig+0xfe>
 8003cfa:	6822      	ldr	r2, [r4, #0]
 8003cfc:	4d3c      	ldr	r5, [pc, #240]	; (8003df0 <HAL_RCC_ClockConfig+0x128>)
 8003cfe:	f012 0f04 	tst.w	r2, #4
 8003d02:	d16c      	bne.n	8003dde <HAL_RCC_ClockConfig+0x116>
 8003d04:	0713      	lsls	r3, r2, #28
 8003d06:	d506      	bpl.n	8003d16 <HAL_RCC_ClockConfig+0x4e>
 8003d08:	686b      	ldr	r3, [r5, #4]
 8003d0a:	6922      	ldr	r2, [r4, #16]
 8003d0c:	f423 5360 	bic.w	r3, r3, #14336	; 0x3800
 8003d10:	ea43 03c2 	orr.w	r3, r3, r2, lsl #3
 8003d14:	606b      	str	r3, [r5, #4]
 8003d16:	f7ff ff9d 	bl	8003c54 <HAL_RCC_GetSysClockFreq>
 8003d1a:	686b      	ldr	r3, [r5, #4]
 8003d1c:	4a35      	ldr	r2, [pc, #212]	; (8003df4 <HAL_RCC_ClockConfig+0x12c>)
 8003d1e:	f3c3 1303 	ubfx	r3, r3, #4, #4
 8003d22:	5cd3      	ldrb	r3, [r2, r3]
 8003d24:	40d8      	lsrs	r0, r3
 8003d26:	4b34      	ldr	r3, [pc, #208]	; (8003df8 <HAL_RCC_ClockConfig+0x130>)
 8003d28:	6018      	str	r0, [r3, #0]
 8003d2a:	4b34      	ldr	r3, [pc, #208]	; (8003dfc <HAL_RCC_ClockConfig+0x134>)
 8003d2c:	6818      	ldr	r0, [r3, #0]
 8003d2e:	f7ff fa67 	bl	8003200 <HAL_InitTick>
 8003d32:	2000      	movs	r0, #0
 8003d34:	e7ce      	b.n	8003cd4 <HAL_RCC_ClockConfig+0xc>
 8003d36:	6813      	ldr	r3, [r2, #0]
 8003d38:	f023 0307 	bic.w	r3, r3, #7
 8003d3c:	430b      	orrs	r3, r1
 8003d3e:	6013      	str	r3, [r2, #0]
 8003d40:	6813      	ldr	r3, [r2, #0]
 8003d42:	f003 0307 	and.w	r3, r3, #7
 8003d46:	428b      	cmp	r3, r1
 8003d48:	d1c3      	bne.n	8003cd2 <HAL_RCC_ClockConfig+0xa>
 8003d4a:	e7cb      	b.n	8003ce4 <HAL_RCC_ClockConfig+0x1c>
 8003d4c:	4b28      	ldr	r3, [pc, #160]	; (8003df0 <HAL_RCC_ClockConfig+0x128>)
 8003d4e:	f011 0f04 	tst.w	r1, #4
 8003d52:	bf1e      	ittt	ne
 8003d54:	685a      	ldrne	r2, [r3, #4]
 8003d56:	f442 62e0 	orrne.w	r2, r2, #1792	; 0x700
 8003d5a:	605a      	strne	r2, [r3, #4]
 8003d5c:	0708      	lsls	r0, r1, #28
 8003d5e:	bf42      	ittt	mi
 8003d60:	685a      	ldrmi	r2, [r3, #4]
 8003d62:	f442 5260 	orrmi.w	r2, r2, #14336	; 0x3800
 8003d66:	605a      	strmi	r2, [r3, #4]
 8003d68:	685a      	ldr	r2, [r3, #4]
 8003d6a:	68a0      	ldr	r0, [r4, #8]
 8003d6c:	f022 02f0 	bic.w	r2, r2, #240	; 0xf0
 8003d70:	4302      	orrs	r2, r0
 8003d72:	605a      	str	r2, [r3, #4]
 8003d74:	e7b9      	b.n	8003cea <HAL_RCC_ClockConfig+0x22>
 8003d76:	6862      	ldr	r2, [r4, #4]
 8003d78:	4e1d      	ldr	r6, [pc, #116]	; (8003df0 <HAL_RCC_ClockConfig+0x128>)
 8003d7a:	2a01      	cmp	r2, #1
 8003d7c:	6833      	ldr	r3, [r6, #0]
 8003d7e:	d11a      	bne.n	8003db6 <HAL_RCC_ClockConfig+0xee>
 8003d80:	f413 3f00 	tst.w	r3, #131072	; 0x20000
 8003d84:	d0a5      	beq.n	8003cd2 <HAL_RCC_ClockConfig+0xa>
 8003d86:	6873      	ldr	r3, [r6, #4]
 8003d88:	f241 3888 	movw	r8, #5000	; 0x1388
 8003d8c:	f023 0303 	bic.w	r3, r3, #3
 8003d90:	4313      	orrs	r3, r2
 8003d92:	6073      	str	r3, [r6, #4]
 8003d94:	f7ff fa76 	bl	8003284 <HAL_GetTick>
 8003d98:	4607      	mov	r7, r0
 8003d9a:	6873      	ldr	r3, [r6, #4]
 8003d9c:	6862      	ldr	r2, [r4, #4]
 8003d9e:	f003 030c 	and.w	r3, r3, #12
 8003da2:	ebb3 0f82 	cmp.w	r3, r2, lsl #2
 8003da6:	d0a2      	beq.n	8003cee <HAL_RCC_ClockConfig+0x26>
 8003da8:	f7ff fa6c 	bl	8003284 <HAL_GetTick>
 8003dac:	1bc0      	subs	r0, r0, r7
 8003dae:	4540      	cmp	r0, r8
 8003db0:	d9f3      	bls.n	8003d9a <HAL_RCC_ClockConfig+0xd2>
 8003db2:	2003      	movs	r0, #3
 8003db4:	e78e      	b.n	8003cd4 <HAL_RCC_ClockConfig+0xc>
 8003db6:	2a02      	cmp	r2, #2
 8003db8:	d102      	bne.n	8003dc0 <HAL_RCC_ClockConfig+0xf8>
 8003dba:	f013 7f00 	tst.w	r3, #33554432	; 0x2000000
 8003dbe:	e7e1      	b.n	8003d84 <HAL_RCC_ClockConfig+0xbc>
 8003dc0:	f013 0f02 	tst.w	r3, #2
 8003dc4:	e7de      	b.n	8003d84 <HAL_RCC_ClockConfig+0xbc>
 8003dc6:	6813      	ldr	r3, [r2, #0]
 8003dc8:	f023 0307 	bic.w	r3, r3, #7
 8003dcc:	432b      	orrs	r3, r5
 8003dce:	6013      	str	r3, [r2, #0]
 8003dd0:	6813      	ldr	r3, [r2, #0]
 8003dd2:	f003 0307 	and.w	r3, r3, #7
 8003dd6:	42ab      	cmp	r3, r5
 8003dd8:	f47f af7b 	bne.w	8003cd2 <HAL_RCC_ClockConfig+0xa>
 8003ddc:	e78d      	b.n	8003cfa <HAL_RCC_ClockConfig+0x32>
 8003dde:	686b      	ldr	r3, [r5, #4]
 8003de0:	68e1      	ldr	r1, [r4, #12]
 8003de2:	f423 63e0 	bic.w	r3, r3, #1792	; 0x700
 8003de6:	430b      	orrs	r3, r1
 8003de8:	606b      	str	r3, [r5, #4]
 8003dea:	e78b      	b.n	8003d04 <HAL_RCC_ClockConfig+0x3c>
 8003dec:	40022000 	.word	0x40022000
 8003df0:	40021000 	.word	0x40021000
 8003df4:	08008ae9 	.word	0x08008ae9
 8003df8:	20000020 	.word	0x20000020
 8003dfc:	20000054 	.word	0x20000054

08003e00 <HAL_RCC_GetPCLK1Freq>:
 8003e00:	4b04      	ldr	r3, [pc, #16]	; (8003e14 <HAL_RCC_GetPCLK1Freq+0x14>)
 8003e02:	4a05      	ldr	r2, [pc, #20]	; (8003e18 <HAL_RCC_GetPCLK1Freq+0x18>)
 8003e04:	685b      	ldr	r3, [r3, #4]
 8003e06:	f3c3 2302 	ubfx	r3, r3, #8, #3
 8003e0a:	5cd3      	ldrb	r3, [r2, r3]
 8003e0c:	4a03      	ldr	r2, [pc, #12]	; (8003e1c <HAL_RCC_GetPCLK1Freq+0x1c>)
 8003e0e:	6810      	ldr	r0, [r2, #0]
 8003e10:	40d8      	lsrs	r0, r3
 8003e12:	4770      	bx	lr
 8003e14:	40021000 	.word	0x40021000
 8003e18:	08008af9 	.word	0x08008af9
 8003e1c:	20000020 	.word	0x20000020

08003e20 <HAL_RCC_GetPCLK2Freq>:
 8003e20:	4b04      	ldr	r3, [pc, #16]	; (8003e34 <HAL_RCC_GetPCLK2Freq+0x14>)
 8003e22:	4a05      	ldr	r2, [pc, #20]	; (8003e38 <HAL_RCC_GetPCLK2Freq+0x18>)
 8003e24:	685b      	ldr	r3, [r3, #4]
 8003e26:	f3c3 23c2 	ubfx	r3, r3, #11, #3
 8003e2a:	5cd3      	ldrb	r3, [r2, r3]
 8003e2c:	4a03      	ldr	r2, [pc, #12]	; (8003e3c <HAL_RCC_GetPCLK2Freq+0x1c>)
 8003e2e:	6810      	ldr	r0, [r2, #0]
 8003e30:	40d8      	lsrs	r0, r3
 8003e32:	4770      	bx	lr
 8003e34:	40021000 	.word	0x40021000
 8003e38:	08008af9 	.word	0x08008af9
 8003e3c:	20000020 	.word	0x20000020

08003e40 <SPI_WaitFlagStateUntilTimeout.constprop.0>:
 8003e40:	e92d 41f3 	stmdb	sp!, {r0, r1, r4, r5, r6, r7, r8, lr}
 8003e44:	461c      	mov	r4, r3
 8003e46:	4616      	mov	r6, r2
 8003e48:	460f      	mov	r7, r1
 8003e4a:	4605      	mov	r5, r0
 8003e4c:	f7ff fa1a 	bl	8003284 <HAL_GetTick>
 8003e50:	4434      	add	r4, r6
 8003e52:	1a24      	subs	r4, r4, r0
 8003e54:	f7ff fa16 	bl	8003284 <HAL_GetTick>
 8003e58:	4680      	mov	r8, r0
 8003e5a:	4b23      	ldr	r3, [pc, #140]	; (8003ee8 <SPI_WaitFlagStateUntilTimeout.constprop.0+0xa8>)
 8003e5c:	681b      	ldr	r3, [r3, #0]
 8003e5e:	f3c3 33cb 	ubfx	r3, r3, #15, #12
 8003e62:	4363      	muls	r3, r4
 8003e64:	682a      	ldr	r2, [r5, #0]
 8003e66:	9301      	str	r3, [sp, #4]
 8003e68:	6893      	ldr	r3, [r2, #8]
 8003e6a:	ea37 0303 	bics.w	r3, r7, r3
 8003e6e:	d001      	beq.n	8003e74 <SPI_WaitFlagStateUntilTimeout.constprop.0+0x34>
 8003e70:	2000      	movs	r0, #0
 8003e72:	e02e      	b.n	8003ed2 <SPI_WaitFlagStateUntilTimeout.constprop.0+0x92>
 8003e74:	1c73      	adds	r3, r6, #1
 8003e76:	d0f7      	beq.n	8003e68 <SPI_WaitFlagStateUntilTimeout.constprop.0+0x28>
 8003e78:	f7ff fa04 	bl	8003284 <HAL_GetTick>
 8003e7c:	eba0 0008 	sub.w	r0, r0, r8
 8003e80:	42a0      	cmp	r0, r4
 8003e82:	d329      	bcc.n	8003ed8 <SPI_WaitFlagStateUntilTimeout.constprop.0+0x98>
 8003e84:	682b      	ldr	r3, [r5, #0]
 8003e86:	685a      	ldr	r2, [r3, #4]
 8003e88:	f022 02e0 	bic.w	r2, r2, #224	; 0xe0
 8003e8c:	605a      	str	r2, [r3, #4]
 8003e8e:	686a      	ldr	r2, [r5, #4]
 8003e90:	f5b2 7f82 	cmp.w	r2, #260	; 0x104
 8003e94:	d10a      	bne.n	8003eac <SPI_WaitFlagStateUntilTimeout.constprop.0+0x6c>
 8003e96:	68aa      	ldr	r2, [r5, #8]
 8003e98:	f5b2 4f00 	cmp.w	r2, #32768	; 0x8000
 8003e9c:	d002      	beq.n	8003ea4 <SPI_WaitFlagStateUntilTimeout.constprop.0+0x64>
 8003e9e:	f5b2 6f80 	cmp.w	r2, #1024	; 0x400
 8003ea2:	d103      	bne.n	8003eac <SPI_WaitFlagStateUntilTimeout.constprop.0+0x6c>
 8003ea4:	681a      	ldr	r2, [r3, #0]
 8003ea6:	f022 0240 	bic.w	r2, r2, #64	; 0x40
 8003eaa:	601a      	str	r2, [r3, #0]
 8003eac:	6aaa      	ldr	r2, [r5, #40]	; 0x28
 8003eae:	f5b2 5f00 	cmp.w	r2, #8192	; 0x2000
 8003eb2:	d107      	bne.n	8003ec4 <SPI_WaitFlagStateUntilTimeout.constprop.0+0x84>
 8003eb4:	681a      	ldr	r2, [r3, #0]
 8003eb6:	f422 5200 	bic.w	r2, r2, #8192	; 0x2000
 8003eba:	601a      	str	r2, [r3, #0]
 8003ebc:	681a      	ldr	r2, [r3, #0]
 8003ebe:	f442 5200 	orr.w	r2, r2, #8192	; 0x2000
 8003ec2:	601a      	str	r2, [r3, #0]
 8003ec4:	2301      	movs	r3, #1
 8003ec6:	f885 3051 	strb.w	r3, [r5, #81]	; 0x51
 8003eca:	2300      	movs	r3, #0
 8003ecc:	2003      	movs	r0, #3
 8003ece:	f885 3050 	strb.w	r3, [r5, #80]	; 0x50
 8003ed2:	b002      	add	sp, #8
 8003ed4:	e8bd 81f0 	ldmia.w	sp!, {r4, r5, r6, r7, r8, pc}
 8003ed8:	9b01      	ldr	r3, [sp, #4]
 8003eda:	2b00      	cmp	r3, #0
 8003edc:	9b01      	ldr	r3, [sp, #4]
 8003ede:	bf08      	it	eq
 8003ee0:	2400      	moveq	r4, #0
 8003ee2:	3b01      	subs	r3, #1
 8003ee4:	e7be      	b.n	8003e64 <SPI_WaitFlagStateUntilTimeout.constprop.0+0x24>
 8003ee6:	bf00      	nop
 8003ee8:	20000020 	.word	0x20000020

08003eec <SPI_EndRxTransaction>:
 8003eec:	b538      	push	{r3, r4, r5, lr}
 8003eee:	4613      	mov	r3, r2
 8003ef0:	6842      	ldr	r2, [r0, #4]
 8003ef2:	4604      	mov	r4, r0
 8003ef4:	f5b2 7f82 	cmp.w	r2, #260	; 0x104
 8003ef8:	d116      	bne.n	8003f28 <SPI_EndRxTransaction+0x3c>
 8003efa:	6882      	ldr	r2, [r0, #8]
 8003efc:	f5b2 4f00 	cmp.w	r2, #32768	; 0x8000
 8003f00:	d002      	beq.n	8003f08 <SPI_EndRxTransaction+0x1c>
 8003f02:	f5b2 6f80 	cmp.w	r2, #1024	; 0x400
 8003f06:	d10f      	bne.n	8003f28 <SPI_EndRxTransaction+0x3c>
 8003f08:	6825      	ldr	r5, [r4, #0]
 8003f0a:	f5b2 6f80 	cmp.w	r2, #1024	; 0x400
 8003f0e:	6828      	ldr	r0, [r5, #0]
 8003f10:	f020 0040 	bic.w	r0, r0, #64	; 0x40
 8003f14:	6028      	str	r0, [r5, #0]
 8003f16:	d107      	bne.n	8003f28 <SPI_EndRxTransaction+0x3c>
 8003f18:	460a      	mov	r2, r1
 8003f1a:	2101      	movs	r1, #1
 8003f1c:	4620      	mov	r0, r4
 8003f1e:	f7ff ff8f 	bl	8003e40 <SPI_WaitFlagStateUntilTimeout.constprop.0>
 8003f22:	b920      	cbnz	r0, 8003f2e <SPI_EndRxTransaction+0x42>
 8003f24:	2000      	movs	r0, #0
 8003f26:	bd38      	pop	{r3, r4, r5, pc}
 8003f28:	460a      	mov	r2, r1
 8003f2a:	2180      	movs	r1, #128	; 0x80
 8003f2c:	e7f6      	b.n	8003f1c <SPI_EndRxTransaction+0x30>
 8003f2e:	6d63      	ldr	r3, [r4, #84]	; 0x54
 8003f30:	2003      	movs	r0, #3
 8003f32:	f043 0320 	orr.w	r3, r3, #32
 8003f36:	6563      	str	r3, [r4, #84]	; 0x54
 8003f38:	e7f5      	b.n	8003f26 <SPI_EndRxTransaction+0x3a>

08003f3a <SPI_EndRxTxTransaction>:
 8003f3a:	b510      	push	{r4, lr}
 8003f3c:	4613      	mov	r3, r2
 8003f3e:	460a      	mov	r2, r1
 8003f40:	2180      	movs	r1, #128	; 0x80
 8003f42:	4604      	mov	r4, r0
 8003f44:	f7ff ff7c 	bl	8003e40 <SPI_WaitFlagStateUntilTimeout.constprop.0>
 8003f48:	b120      	cbz	r0, 8003f54 <SPI_EndRxTxTransaction+0x1a>
 8003f4a:	2003      	movs	r0, #3
 8003f4c:	6d63      	ldr	r3, [r4, #84]	; 0x54
 8003f4e:	f043 0320 	orr.w	r3, r3, #32
 8003f52:	6563      	str	r3, [r4, #84]	; 0x54
 8003f54:	bd10      	pop	{r4, pc}

08003f56 <HAL_SPI_Init>:
 8003f56:	b510      	push	{r4, lr}
 8003f58:	4604      	mov	r4, r0
 8003f5a:	2800      	cmp	r0, #0
 8003f5c:	d051      	beq.n	8004002 <HAL_SPI_Init+0xac>
 8003f5e:	6a43      	ldr	r3, [r0, #36]	; 0x24
 8003f60:	2b00      	cmp	r3, #0
 8003f62:	d14a      	bne.n	8003ffa <HAL_SPI_Init+0xa4>
 8003f64:	6842      	ldr	r2, [r0, #4]
 8003f66:	f5b2 7f82 	cmp.w	r2, #260	; 0x104
 8003f6a:	d000      	beq.n	8003f6e <HAL_SPI_Init+0x18>
 8003f6c:	61c3      	str	r3, [r0, #28]
 8003f6e:	2300      	movs	r3, #0
 8003f70:	62a3      	str	r3, [r4, #40]	; 0x28
 8003f72:	f894 3051 	ldrb.w	r3, [r4, #81]	; 0x51
 8003f76:	f003 02ff 	and.w	r2, r3, #255	; 0xff
 8003f7a:	b923      	cbnz	r3, 8003f86 <HAL_SPI_Init+0x30>
 8003f7c:	4620      	mov	r0, r4
 8003f7e:	f884 2050 	strb.w	r2, [r4, #80]	; 0x50
 8003f82:	f7fe fb7d 	bl	8002680 <HAL_SPI_MspInit>
 8003f86:	2302      	movs	r3, #2
 8003f88:	6822      	ldr	r2, [r4, #0]
 8003f8a:	f884 3051 	strb.w	r3, [r4, #81]	; 0x51
 8003f8e:	6813      	ldr	r3, [r2, #0]
 8003f90:	68a0      	ldr	r0, [r4, #8]
 8003f92:	f023 0340 	bic.w	r3, r3, #64	; 0x40
 8003f96:	6013      	str	r3, [r2, #0]
 8003f98:	6863      	ldr	r3, [r4, #4]
 8003f9a:	f400 4004 	and.w	r0, r0, #33792	; 0x8400
 8003f9e:	f403 7382 	and.w	r3, r3, #260	; 0x104
 8003fa2:	4303      	orrs	r3, r0
 8003fa4:	68e0      	ldr	r0, [r4, #12]
 8003fa6:	69a1      	ldr	r1, [r4, #24]
 8003fa8:	f400 6000 	and.w	r0, r0, #2048	; 0x800
 8003fac:	4303      	orrs	r3, r0
 8003fae:	6920      	ldr	r0, [r4, #16]
 8003fb0:	f000 0002 	and.w	r0, r0, #2
 8003fb4:	4303      	orrs	r3, r0
 8003fb6:	6960      	ldr	r0, [r4, #20]
 8003fb8:	f000 0001 	and.w	r0, r0, #1
 8003fbc:	4303      	orrs	r3, r0
 8003fbe:	f401 7000 	and.w	r0, r1, #512	; 0x200
 8003fc2:	4303      	orrs	r3, r0
 8003fc4:	69e0      	ldr	r0, [r4, #28]
 8003fc6:	0c09      	lsrs	r1, r1, #16
 8003fc8:	f000 0038 	and.w	r0, r0, #56	; 0x38
 8003fcc:	4303      	orrs	r3, r0
 8003fce:	6a20      	ldr	r0, [r4, #32]
 8003fd0:	f001 0104 	and.w	r1, r1, #4
 8003fd4:	f000 0080 	and.w	r0, r0, #128	; 0x80
 8003fd8:	4303      	orrs	r3, r0
 8003fda:	6aa0      	ldr	r0, [r4, #40]	; 0x28
 8003fdc:	f400 5000 	and.w	r0, r0, #8192	; 0x2000
 8003fe0:	4303      	orrs	r3, r0
 8003fe2:	6013      	str	r3, [r2, #0]
 8003fe4:	6051      	str	r1, [r2, #4]
 8003fe6:	69d3      	ldr	r3, [r2, #28]
 8003fe8:	2000      	movs	r0, #0
 8003fea:	f423 6300 	bic.w	r3, r3, #2048	; 0x800
 8003fee:	61d3      	str	r3, [r2, #28]
 8003ff0:	2301      	movs	r3, #1
 8003ff2:	6560      	str	r0, [r4, #84]	; 0x54
 8003ff4:	f884 3051 	strb.w	r3, [r4, #81]	; 0x51
 8003ff8:	bd10      	pop	{r4, pc}
 8003ffa:	2300      	movs	r3, #0
 8003ffc:	e9c0 3304 	strd	r3, r3, [r0, #16]
 8004000:	e7b5      	b.n	8003f6e <HAL_SPI_Init+0x18>
 8004002:	2001      	movs	r0, #1
 8004004:	e7f8      	b.n	8003ff8 <HAL_SPI_Init+0xa2>

08004006 <HAL_SPI_Transmit>:
 8004006:	e92d 43f7 	stmdb	sp!, {r0, r1, r2, r4, r5, r6, r7, r8, r9, lr}
 800400a:	461f      	mov	r7, r3
 800400c:	f890 3050 	ldrb.w	r3, [r0, #80]	; 0x50
 8004010:	4604      	mov	r4, r0
 8004012:	2b01      	cmp	r3, #1
 8004014:	460d      	mov	r5, r1
 8004016:	4690      	mov	r8, r2
 8004018:	f000 80a0 	beq.w	800415c <HAL_SPI_Transmit+0x156>
 800401c:	2301      	movs	r3, #1
 800401e:	f880 3050 	strb.w	r3, [r0, #80]	; 0x50
 8004022:	f7ff f92f 	bl	8003284 <HAL_GetTick>
 8004026:	f894 3051 	ldrb.w	r3, [r4, #81]	; 0x51
 800402a:	4681      	mov	r9, r0
 800402c:	2b01      	cmp	r3, #1
 800402e:	b2d8      	uxtb	r0, r3
 8004030:	f040 8092 	bne.w	8004158 <HAL_SPI_Transmit+0x152>
 8004034:	2d00      	cmp	r5, #0
 8004036:	d061      	beq.n	80040fc <HAL_SPI_Transmit+0xf6>
 8004038:	f1b8 0f00 	cmp.w	r8, #0
 800403c:	d05e      	beq.n	80040fc <HAL_SPI_Transmit+0xf6>
 800403e:	2303      	movs	r3, #3
 8004040:	f884 3051 	strb.w	r3, [r4, #81]	; 0x51
 8004044:	2300      	movs	r3, #0
 8004046:	6563      	str	r3, [r4, #84]	; 0x54
 8004048:	e9c4 3310 	strd	r3, r3, [r4, #64]	; 0x40
 800404c:	f8a4 8036 	strh.w	r8, [r4, #54]	; 0x36
 8004050:	63a3      	str	r3, [r4, #56]	; 0x38
 8004052:	87a3      	strh	r3, [r4, #60]	; 0x3c
 8004054:	87e3      	strh	r3, [r4, #62]	; 0x3e
 8004056:	68a3      	ldr	r3, [r4, #8]
 8004058:	6826      	ldr	r6, [r4, #0]
 800405a:	f5b3 4f00 	cmp.w	r3, #32768	; 0x8000
 800405e:	6325      	str	r5, [r4, #48]	; 0x30
 8004060:	f8a4 8034 	strh.w	r8, [r4, #52]	; 0x34
 8004064:	d107      	bne.n	8004076 <HAL_SPI_Transmit+0x70>
 8004066:	6833      	ldr	r3, [r6, #0]
 8004068:	f023 0340 	bic.w	r3, r3, #64	; 0x40
 800406c:	6033      	str	r3, [r6, #0]
 800406e:	6833      	ldr	r3, [r6, #0]
 8004070:	f443 4380 	orr.w	r3, r3, #16384	; 0x4000
 8004074:	6033      	str	r3, [r6, #0]
 8004076:	6833      	ldr	r3, [r6, #0]
 8004078:	68e2      	ldr	r2, [r4, #12]
 800407a:	065b      	lsls	r3, r3, #25
 800407c:	bf5e      	ittt	pl
 800407e:	6833      	ldrpl	r3, [r6, #0]
 8004080:	f043 0340 	orrpl.w	r3, r3, #64	; 0x40
 8004084:	6033      	strpl	r3, [r6, #0]
 8004086:	f5b2 6f00 	cmp.w	r2, #2048	; 0x800
 800408a:	6863      	ldr	r3, [r4, #4]
 800408c:	d13f      	bne.n	800410e <HAL_SPI_Transmit+0x108>
 800408e:	b113      	cbz	r3, 8004096 <HAL_SPI_Transmit+0x90>
 8004090:	f1b8 0f01 	cmp.w	r8, #1
 8004094:	d107      	bne.n	80040a6 <HAL_SPI_Transmit+0xa0>
 8004096:	f835 3b02 	ldrh.w	r3, [r5], #2
 800409a:	60f3      	str	r3, [r6, #12]
 800409c:	6325      	str	r5, [r4, #48]	; 0x30
 800409e:	8ee3      	ldrh	r3, [r4, #54]	; 0x36
 80040a0:	3b01      	subs	r3, #1
 80040a2:	b29b      	uxth	r3, r3
 80040a4:	86e3      	strh	r3, [r4, #54]	; 0x36
 80040a6:	8ee3      	ldrh	r3, [r4, #54]	; 0x36
 80040a8:	b29b      	uxth	r3, r3
 80040aa:	b9a3      	cbnz	r3, 80040d6 <HAL_SPI_Transmit+0xd0>
 80040ac:	464a      	mov	r2, r9
 80040ae:	4639      	mov	r1, r7
 80040b0:	4620      	mov	r0, r4
 80040b2:	f7ff ff42 	bl	8003f3a <SPI_EndRxTxTransaction>
 80040b6:	2800      	cmp	r0, #0
 80040b8:	d14b      	bne.n	8004152 <HAL_SPI_Transmit+0x14c>
 80040ba:	68a3      	ldr	r3, [r4, #8]
 80040bc:	b933      	cbnz	r3, 80040cc <HAL_SPI_Transmit+0xc6>
 80040be:	9301      	str	r3, [sp, #4]
 80040c0:	6823      	ldr	r3, [r4, #0]
 80040c2:	68da      	ldr	r2, [r3, #12]
 80040c4:	9201      	str	r2, [sp, #4]
 80040c6:	689b      	ldr	r3, [r3, #8]
 80040c8:	9301      	str	r3, [sp, #4]
 80040ca:	9b01      	ldr	r3, [sp, #4]
 80040cc:	6d60      	ldr	r0, [r4, #84]	; 0x54
 80040ce:	3800      	subs	r0, #0
 80040d0:	bf18      	it	ne
 80040d2:	2001      	movne	r0, #1
 80040d4:	e012      	b.n	80040fc <HAL_SPI_Transmit+0xf6>
 80040d6:	6822      	ldr	r2, [r4, #0]
 80040d8:	6893      	ldr	r3, [r2, #8]
 80040da:	0798      	lsls	r0, r3, #30
 80040dc:	d505      	bpl.n	80040ea <HAL_SPI_Transmit+0xe4>
 80040de:	6b23      	ldr	r3, [r4, #48]	; 0x30
 80040e0:	f833 1b02 	ldrh.w	r1, [r3], #2
 80040e4:	60d1      	str	r1, [r2, #12]
 80040e6:	6323      	str	r3, [r4, #48]	; 0x30
 80040e8:	e7d9      	b.n	800409e <HAL_SPI_Transmit+0x98>
 80040ea:	f7ff f8cb 	bl	8003284 <HAL_GetTick>
 80040ee:	eba0 0009 	sub.w	r0, r0, r9
 80040f2:	42b8      	cmp	r0, r7
 80040f4:	d3d7      	bcc.n	80040a6 <HAL_SPI_Transmit+0xa0>
 80040f6:	1c79      	adds	r1, r7, #1
 80040f8:	d0d5      	beq.n	80040a6 <HAL_SPI_Transmit+0xa0>
 80040fa:	2003      	movs	r0, #3
 80040fc:	2301      	movs	r3, #1
 80040fe:	f884 3051 	strb.w	r3, [r4, #81]	; 0x51
 8004102:	2300      	movs	r3, #0
 8004104:	f884 3050 	strb.w	r3, [r4, #80]	; 0x50
 8004108:	b003      	add	sp, #12
 800410a:	e8bd 83f0 	ldmia.w	sp!, {r4, r5, r6, r7, r8, r9, pc}
 800410e:	b113      	cbz	r3, 8004116 <HAL_SPI_Transmit+0x110>
 8004110:	f1b8 0f01 	cmp.w	r8, #1
 8004114:	d108      	bne.n	8004128 <HAL_SPI_Transmit+0x122>
 8004116:	782b      	ldrb	r3, [r5, #0]
 8004118:	7333      	strb	r3, [r6, #12]
 800411a:	6b23      	ldr	r3, [r4, #48]	; 0x30
 800411c:	3301      	adds	r3, #1
 800411e:	6323      	str	r3, [r4, #48]	; 0x30
 8004120:	8ee3      	ldrh	r3, [r4, #54]	; 0x36
 8004122:	3b01      	subs	r3, #1
 8004124:	b29b      	uxth	r3, r3
 8004126:	86e3      	strh	r3, [r4, #54]	; 0x36
 8004128:	8ee3      	ldrh	r3, [r4, #54]	; 0x36
 800412a:	b29b      	uxth	r3, r3
 800412c:	2b00      	cmp	r3, #0
 800412e:	d0bd      	beq.n	80040ac <HAL_SPI_Transmit+0xa6>
 8004130:	6823      	ldr	r3, [r4, #0]
 8004132:	689a      	ldr	r2, [r3, #8]
 8004134:	0792      	lsls	r2, r2, #30
 8004136:	d503      	bpl.n	8004140 <HAL_SPI_Transmit+0x13a>
 8004138:	6b22      	ldr	r2, [r4, #48]	; 0x30
 800413a:	7812      	ldrb	r2, [r2, #0]
 800413c:	731a      	strb	r2, [r3, #12]
 800413e:	e7ec      	b.n	800411a <HAL_SPI_Transmit+0x114>
 8004140:	f7ff f8a0 	bl	8003284 <HAL_GetTick>
 8004144:	eba0 0009 	sub.w	r0, r0, r9
 8004148:	42b8      	cmp	r0, r7
 800414a:	d3ed      	bcc.n	8004128 <HAL_SPI_Transmit+0x122>
 800414c:	1c7b      	adds	r3, r7, #1
 800414e:	d0eb      	beq.n	8004128 <HAL_SPI_Transmit+0x122>
 8004150:	e7d3      	b.n	80040fa <HAL_SPI_Transmit+0xf4>
 8004152:	2320      	movs	r3, #32
 8004154:	6563      	str	r3, [r4, #84]	; 0x54
 8004156:	e7b0      	b.n	80040ba <HAL_SPI_Transmit+0xb4>
 8004158:	2002      	movs	r0, #2
 800415a:	e7cf      	b.n	80040fc <HAL_SPI_Transmit+0xf6>
 800415c:	2002      	movs	r0, #2
 800415e:	e7d3      	b.n	8004108 <HAL_SPI_Transmit+0x102>

08004160 <HAL_SPI_TransmitReceive>:
 8004160:	e92d 43f7 	stmdb	sp!, {r0, r1, r2, r4, r5, r6, r7, r8, r9, lr}
 8004164:	461e      	mov	r6, r3
 8004166:	f890 3050 	ldrb.w	r3, [r0, #80]	; 0x50
 800416a:	4604      	mov	r4, r0
 800416c:	2b01      	cmp	r3, #1
 800416e:	460d      	mov	r5, r1
 8004170:	4691      	mov	r9, r2
 8004172:	f8dd 8028 	ldr.w	r8, [sp, #40]	; 0x28
 8004176:	f000 80e0 	beq.w	800433a <HAL_SPI_TransmitReceive+0x1da>
 800417a:	2301      	movs	r3, #1
 800417c:	f880 3050 	strb.w	r3, [r0, #80]	; 0x50
 8004180:	f7ff f880 	bl	8003284 <HAL_GetTick>
 8004184:	f894 3051 	ldrb.w	r3, [r4, #81]	; 0x51
 8004188:	4607      	mov	r7, r0
 800418a:	2b01      	cmp	r3, #1
 800418c:	6862      	ldr	r2, [r4, #4]
 800418e:	b2d9      	uxtb	r1, r3
 8004190:	d00a      	beq.n	80041a8 <HAL_SPI_TransmitReceive+0x48>
 8004192:	f5b2 7f82 	cmp.w	r2, #260	; 0x104
 8004196:	f040 80ce 	bne.w	8004336 <HAL_SPI_TransmitReceive+0x1d6>
 800419a:	68a3      	ldr	r3, [r4, #8]
 800419c:	2b00      	cmp	r3, #0
 800419e:	f040 80ca 	bne.w	8004336 <HAL_SPI_TransmitReceive+0x1d6>
 80041a2:	2904      	cmp	r1, #4
 80041a4:	f040 80c7 	bne.w	8004336 <HAL_SPI_TransmitReceive+0x1d6>
 80041a8:	2d00      	cmp	r5, #0
 80041aa:	d03f      	beq.n	800422c <HAL_SPI_TransmitReceive+0xcc>
 80041ac:	f1b9 0f00 	cmp.w	r9, #0
 80041b0:	d03c      	beq.n	800422c <HAL_SPI_TransmitReceive+0xcc>
 80041b2:	2e00      	cmp	r6, #0
 80041b4:	d03a      	beq.n	800422c <HAL_SPI_TransmitReceive+0xcc>
 80041b6:	f894 3051 	ldrb.w	r3, [r4, #81]	; 0x51
 80041ba:	f8c4 9038 	str.w	r9, [r4, #56]	; 0x38
 80041be:	2b04      	cmp	r3, #4
 80041c0:	bf1c      	itt	ne
 80041c2:	2305      	movne	r3, #5
 80041c4:	f884 3051 	strbne.w	r3, [r4, #81]	; 0x51
 80041c8:	2300      	movs	r3, #0
 80041ca:	6563      	str	r3, [r4, #84]	; 0x54
 80041cc:	e9c4 3310 	strd	r3, r3, [r4, #64]	; 0x40
 80041d0:	6823      	ldr	r3, [r4, #0]
 80041d2:	87e6      	strh	r6, [r4, #62]	; 0x3e
 80041d4:	86e6      	strh	r6, [r4, #54]	; 0x36
 80041d6:	6819      	ldr	r1, [r3, #0]
 80041d8:	87a6      	strh	r6, [r4, #60]	; 0x3c
 80041da:	0649      	lsls	r1, r1, #25
 80041dc:	bf58      	it	pl
 80041de:	6819      	ldrpl	r1, [r3, #0]
 80041e0:	6325      	str	r5, [r4, #48]	; 0x30
 80041e2:	bf58      	it	pl
 80041e4:	f041 0140 	orrpl.w	r1, r1, #64	; 0x40
 80041e8:	86a6      	strh	r6, [r4, #52]	; 0x34
 80041ea:	bf58      	it	pl
 80041ec:	6019      	strpl	r1, [r3, #0]
 80041ee:	68e1      	ldr	r1, [r4, #12]
 80041f0:	f5b1 6f00 	cmp.w	r1, #2048	; 0x800
 80041f4:	d151      	bne.n	800429a <HAL_SPI_TransmitReceive+0x13a>
 80041f6:	b10a      	cbz	r2, 80041fc <HAL_SPI_TransmitReceive+0x9c>
 80041f8:	2e01      	cmp	r6, #1
 80041fa:	d107      	bne.n	800420c <HAL_SPI_TransmitReceive+0xac>
 80041fc:	f835 2b02 	ldrh.w	r2, [r5], #2
 8004200:	60da      	str	r2, [r3, #12]
 8004202:	8ee3      	ldrh	r3, [r4, #54]	; 0x36
 8004204:	6325      	str	r5, [r4, #48]	; 0x30
 8004206:	3b01      	subs	r3, #1
 8004208:	b29b      	uxth	r3, r3
 800420a:	86e3      	strh	r3, [r4, #54]	; 0x36
 800420c:	2501      	movs	r5, #1
 800420e:	8ee3      	ldrh	r3, [r4, #54]	; 0x36
 8004210:	b29b      	uxth	r3, r3
 8004212:	b96b      	cbnz	r3, 8004230 <HAL_SPI_TransmitReceive+0xd0>
 8004214:	8fe3      	ldrh	r3, [r4, #62]	; 0x3e
 8004216:	b29b      	uxth	r3, r3
 8004218:	b953      	cbnz	r3, 8004230 <HAL_SPI_TransmitReceive+0xd0>
 800421a:	463a      	mov	r2, r7
 800421c:	4641      	mov	r1, r8
 800421e:	4620      	mov	r0, r4
 8004220:	f7ff fe8b 	bl	8003f3a <SPI_EndRxTxTransaction>
 8004224:	2800      	cmp	r0, #0
 8004226:	d07b      	beq.n	8004320 <HAL_SPI_TransmitReceive+0x1c0>
 8004228:	2320      	movs	r3, #32
 800422a:	6563      	str	r3, [r4, #84]	; 0x54
 800422c:	2001      	movs	r0, #1
 800422e:	e02b      	b.n	8004288 <HAL_SPI_TransmitReceive+0x128>
 8004230:	6821      	ldr	r1, [r4, #0]
 8004232:	688b      	ldr	r3, [r1, #8]
 8004234:	079a      	lsls	r2, r3, #30
 8004236:	d50d      	bpl.n	8004254 <HAL_SPI_TransmitReceive+0xf4>
 8004238:	8ee3      	ldrh	r3, [r4, #54]	; 0x36
 800423a:	b29b      	uxth	r3, r3
 800423c:	b153      	cbz	r3, 8004254 <HAL_SPI_TransmitReceive+0xf4>
 800423e:	b14d      	cbz	r5, 8004254 <HAL_SPI_TransmitReceive+0xf4>
 8004240:	2500      	movs	r5, #0
 8004242:	6b23      	ldr	r3, [r4, #48]	; 0x30
 8004244:	f833 2b02 	ldrh.w	r2, [r3], #2
 8004248:	60ca      	str	r2, [r1, #12]
 800424a:	6323      	str	r3, [r4, #48]	; 0x30
 800424c:	8ee3      	ldrh	r3, [r4, #54]	; 0x36
 800424e:	3b01      	subs	r3, #1
 8004250:	b29b      	uxth	r3, r3
 8004252:	86e3      	strh	r3, [r4, #54]	; 0x36
 8004254:	688a      	ldr	r2, [r1, #8]
 8004256:	f012 0201 	ands.w	r2, r2, #1
 800425a:	d00c      	beq.n	8004276 <HAL_SPI_TransmitReceive+0x116>
 800425c:	8fe3      	ldrh	r3, [r4, #62]	; 0x3e
 800425e:	b29b      	uxth	r3, r3
 8004260:	b14b      	cbz	r3, 8004276 <HAL_SPI_TransmitReceive+0x116>
 8004262:	4615      	mov	r5, r2
 8004264:	68c9      	ldr	r1, [r1, #12]
 8004266:	6ba3      	ldr	r3, [r4, #56]	; 0x38
 8004268:	f823 1b02 	strh.w	r1, [r3], #2
 800426c:	63a3      	str	r3, [r4, #56]	; 0x38
 800426e:	8fe3      	ldrh	r3, [r4, #62]	; 0x3e
 8004270:	3b01      	subs	r3, #1
 8004272:	b29b      	uxth	r3, r3
 8004274:	87e3      	strh	r3, [r4, #62]	; 0x3e
 8004276:	f7ff f805 	bl	8003284 <HAL_GetTick>
 800427a:	1bc0      	subs	r0, r0, r7
 800427c:	4540      	cmp	r0, r8
 800427e:	d3c6      	bcc.n	800420e <HAL_SPI_TransmitReceive+0xae>
 8004280:	f1b8 3fff 	cmp.w	r8, #4294967295	; 0xffffffff
 8004284:	d0c3      	beq.n	800420e <HAL_SPI_TransmitReceive+0xae>
 8004286:	2003      	movs	r0, #3
 8004288:	2301      	movs	r3, #1
 800428a:	f884 3051 	strb.w	r3, [r4, #81]	; 0x51
 800428e:	2300      	movs	r3, #0
 8004290:	f884 3050 	strb.w	r3, [r4, #80]	; 0x50
 8004294:	b003      	add	sp, #12
 8004296:	e8bd 83f0 	ldmia.w	sp!, {r4, r5, r6, r7, r8, r9, pc}
 800429a:	b10a      	cbz	r2, 80042a0 <HAL_SPI_TransmitReceive+0x140>
 800429c:	2e01      	cmp	r6, #1
 800429e:	d108      	bne.n	80042b2 <HAL_SPI_TransmitReceive+0x152>
 80042a0:	782a      	ldrb	r2, [r5, #0]
 80042a2:	731a      	strb	r2, [r3, #12]
 80042a4:	6b23      	ldr	r3, [r4, #48]	; 0x30
 80042a6:	3301      	adds	r3, #1
 80042a8:	6323      	str	r3, [r4, #48]	; 0x30
 80042aa:	8ee3      	ldrh	r3, [r4, #54]	; 0x36
 80042ac:	3b01      	subs	r3, #1
 80042ae:	b29b      	uxth	r3, r3
 80042b0:	86e3      	strh	r3, [r4, #54]	; 0x36
 80042b2:	2501      	movs	r5, #1
 80042b4:	8ee3      	ldrh	r3, [r4, #54]	; 0x36
 80042b6:	b29b      	uxth	r3, r3
 80042b8:	b91b      	cbnz	r3, 80042c2 <HAL_SPI_TransmitReceive+0x162>
 80042ba:	8fe3      	ldrh	r3, [r4, #62]	; 0x3e
 80042bc:	b29b      	uxth	r3, r3
 80042be:	2b00      	cmp	r3, #0
 80042c0:	d0ab      	beq.n	800421a <HAL_SPI_TransmitReceive+0xba>
 80042c2:	6822      	ldr	r2, [r4, #0]
 80042c4:	6893      	ldr	r3, [r2, #8]
 80042c6:	079b      	lsls	r3, r3, #30
 80042c8:	d50e      	bpl.n	80042e8 <HAL_SPI_TransmitReceive+0x188>
 80042ca:	8ee3      	ldrh	r3, [r4, #54]	; 0x36
 80042cc:	b29b      	uxth	r3, r3
 80042ce:	b15b      	cbz	r3, 80042e8 <HAL_SPI_TransmitReceive+0x188>
 80042d0:	b155      	cbz	r5, 80042e8 <HAL_SPI_TransmitReceive+0x188>
 80042d2:	2500      	movs	r5, #0
 80042d4:	6b23      	ldr	r3, [r4, #48]	; 0x30
 80042d6:	781b      	ldrb	r3, [r3, #0]
 80042d8:	7313      	strb	r3, [r2, #12]
 80042da:	6b23      	ldr	r3, [r4, #48]	; 0x30
 80042dc:	3301      	adds	r3, #1
 80042de:	6323      	str	r3, [r4, #48]	; 0x30
 80042e0:	8ee3      	ldrh	r3, [r4, #54]	; 0x36
 80042e2:	3b01      	subs	r3, #1
 80042e4:	b29b      	uxth	r3, r3
 80042e6:	86e3      	strh	r3, [r4, #54]	; 0x36
 80042e8:	6822      	ldr	r2, [r4, #0]
 80042ea:	6891      	ldr	r1, [r2, #8]
 80042ec:	f011 0101 	ands.w	r1, r1, #1
 80042f0:	d00d      	beq.n	800430e <HAL_SPI_TransmitReceive+0x1ae>
 80042f2:	8fe3      	ldrh	r3, [r4, #62]	; 0x3e
 80042f4:	b29b      	uxth	r3, r3
 80042f6:	b153      	cbz	r3, 800430e <HAL_SPI_TransmitReceive+0x1ae>
 80042f8:	460d      	mov	r5, r1
 80042fa:	68d2      	ldr	r2, [r2, #12]
 80042fc:	6ba3      	ldr	r3, [r4, #56]	; 0x38
 80042fe:	701a      	strb	r2, [r3, #0]
 8004300:	6ba3      	ldr	r3, [r4, #56]	; 0x38
 8004302:	3301      	adds	r3, #1
 8004304:	63a3      	str	r3, [r4, #56]	; 0x38
 8004306:	8fe3      	ldrh	r3, [r4, #62]	; 0x3e
 8004308:	3b01      	subs	r3, #1
 800430a:	b29b      	uxth	r3, r3
 800430c:	87e3      	strh	r3, [r4, #62]	; 0x3e
 800430e:	f7fe ffb9 	bl	8003284 <HAL_GetTick>
 8004312:	1bc0      	subs	r0, r0, r7
 8004314:	4540      	cmp	r0, r8
 8004316:	d3cd      	bcc.n	80042b4 <HAL_SPI_TransmitReceive+0x154>
 8004318:	f1b8 3fff 	cmp.w	r8, #4294967295	; 0xffffffff
 800431c:	d0ca      	beq.n	80042b4 <HAL_SPI_TransmitReceive+0x154>
 800431e:	e7b2      	b.n	8004286 <HAL_SPI_TransmitReceive+0x126>
 8004320:	68a3      	ldr	r3, [r4, #8]
 8004322:	2b00      	cmp	r3, #0
 8004324:	d1b0      	bne.n	8004288 <HAL_SPI_TransmitReceive+0x128>
 8004326:	6823      	ldr	r3, [r4, #0]
 8004328:	9001      	str	r0, [sp, #4]
 800432a:	68da      	ldr	r2, [r3, #12]
 800432c:	9201      	str	r2, [sp, #4]
 800432e:	689b      	ldr	r3, [r3, #8]
 8004330:	9301      	str	r3, [sp, #4]
 8004332:	9b01      	ldr	r3, [sp, #4]
 8004334:	e7a8      	b.n	8004288 <HAL_SPI_TransmitReceive+0x128>
 8004336:	2002      	movs	r0, #2
 8004338:	e7a6      	b.n	8004288 <HAL_SPI_TransmitReceive+0x128>
 800433a:	2002      	movs	r0, #2
 800433c:	e7aa      	b.n	8004294 <HAL_SPI_TransmitReceive+0x134>

0800433e <HAL_SPI_Receive>:
 800433e:	e92d 41f3 	stmdb	sp!, {r0, r1, r4, r5, r6, r7, r8, lr}
 8004342:	461d      	mov	r5, r3
 8004344:	6843      	ldr	r3, [r0, #4]
 8004346:	4604      	mov	r4, r0
 8004348:	f5b3 7f82 	cmp.w	r3, #260	; 0x104
 800434c:	4688      	mov	r8, r1
 800434e:	4616      	mov	r6, r2
 8004350:	d10c      	bne.n	800436c <HAL_SPI_Receive+0x2e>
 8004352:	6883      	ldr	r3, [r0, #8]
 8004354:	b953      	cbnz	r3, 800436c <HAL_SPI_Receive+0x2e>
 8004356:	2304      	movs	r3, #4
 8004358:	f880 3051 	strb.w	r3, [r0, #81]	; 0x51
 800435c:	4613      	mov	r3, r2
 800435e:	9500      	str	r5, [sp, #0]
 8004360:	460a      	mov	r2, r1
 8004362:	f7ff fefd 	bl	8004160 <HAL_SPI_TransmitReceive>
 8004366:	b002      	add	sp, #8
 8004368:	e8bd 81f0 	ldmia.w	sp!, {r4, r5, r6, r7, r8, pc}
 800436c:	f894 3050 	ldrb.w	r3, [r4, #80]	; 0x50
 8004370:	2b01      	cmp	r3, #1
 8004372:	d07d      	beq.n	8004470 <HAL_SPI_Receive+0x132>
 8004374:	2301      	movs	r3, #1
 8004376:	f884 3050 	strb.w	r3, [r4, #80]	; 0x50
 800437a:	f7fe ff83 	bl	8003284 <HAL_GetTick>
 800437e:	f894 3051 	ldrb.w	r3, [r4, #81]	; 0x51
 8004382:	4607      	mov	r7, r0
 8004384:	2b01      	cmp	r3, #1
 8004386:	b2d8      	uxtb	r0, r3
 8004388:	d170      	bne.n	800446c <HAL_SPI_Receive+0x12e>
 800438a:	f1b8 0f00 	cmp.w	r8, #0
 800438e:	d05b      	beq.n	8004448 <HAL_SPI_Receive+0x10a>
 8004390:	2e00      	cmp	r6, #0
 8004392:	d059      	beq.n	8004448 <HAL_SPI_Receive+0x10a>
 8004394:	2304      	movs	r3, #4
 8004396:	f884 3051 	strb.w	r3, [r4, #81]	; 0x51
 800439a:	2300      	movs	r3, #0
 800439c:	68a2      	ldr	r2, [r4, #8]
 800439e:	6563      	str	r3, [r4, #84]	; 0x54
 80043a0:	f5b2 4f00 	cmp.w	r2, #32768	; 0x8000
 80043a4:	e9c4 3310 	strd	r3, r3, [r4, #64]	; 0x40
 80043a8:	87e6      	strh	r6, [r4, #62]	; 0x3e
 80043aa:	6323      	str	r3, [r4, #48]	; 0x30
 80043ac:	86a3      	strh	r3, [r4, #52]	; 0x34
 80043ae:	86e3      	strh	r3, [r4, #54]	; 0x36
 80043b0:	f8c4 8038 	str.w	r8, [r4, #56]	; 0x38
 80043b4:	6823      	ldr	r3, [r4, #0]
 80043b6:	87a6      	strh	r6, [r4, #60]	; 0x3c
 80043b8:	d107      	bne.n	80043ca <HAL_SPI_Receive+0x8c>
 80043ba:	681a      	ldr	r2, [r3, #0]
 80043bc:	f022 0240 	bic.w	r2, r2, #64	; 0x40
 80043c0:	601a      	str	r2, [r3, #0]
 80043c2:	681a      	ldr	r2, [r3, #0]
 80043c4:	f422 4280 	bic.w	r2, r2, #16384	; 0x4000
 80043c8:	601a      	str	r2, [r3, #0]
 80043ca:	681a      	ldr	r2, [r3, #0]
 80043cc:	0656      	lsls	r6, r2, #25
 80043ce:	bf5e      	ittt	pl
 80043d0:	681a      	ldrpl	r2, [r3, #0]
 80043d2:	f042 0240 	orrpl.w	r2, r2, #64	; 0x40
 80043d6:	601a      	strpl	r2, [r3, #0]
 80043d8:	68e3      	ldr	r3, [r4, #12]
 80043da:	b1f3      	cbz	r3, 800441a <HAL_SPI_Receive+0xdc>
 80043dc:	8fe3      	ldrh	r3, [r4, #62]	; 0x3e
 80043de:	b29b      	uxth	r3, r3
 80043e0:	b1fb      	cbz	r3, 8004422 <HAL_SPI_Receive+0xe4>
 80043e2:	6823      	ldr	r3, [r4, #0]
 80043e4:	689a      	ldr	r2, [r3, #8]
 80043e6:	07d2      	lsls	r2, r2, #31
 80043e8:	d535      	bpl.n	8004456 <HAL_SPI_Receive+0x118>
 80043ea:	68da      	ldr	r2, [r3, #12]
 80043ec:	6ba3      	ldr	r3, [r4, #56]	; 0x38
 80043ee:	f823 2b02 	strh.w	r2, [r3], #2
 80043f2:	63a3      	str	r3, [r4, #56]	; 0x38
 80043f4:	8fe3      	ldrh	r3, [r4, #62]	; 0x3e
 80043f6:	3b01      	subs	r3, #1
 80043f8:	b29b      	uxth	r3, r3
 80043fa:	87e3      	strh	r3, [r4, #62]	; 0x3e
 80043fc:	e7ee      	b.n	80043dc <HAL_SPI_Receive+0x9e>
 80043fe:	6823      	ldr	r3, [r4, #0]
 8004400:	689a      	ldr	r2, [r3, #8]
 8004402:	07d0      	lsls	r0, r2, #31
 8004404:	d518      	bpl.n	8004438 <HAL_SPI_Receive+0xfa>
 8004406:	7b1b      	ldrb	r3, [r3, #12]
 8004408:	6ba2      	ldr	r2, [r4, #56]	; 0x38
 800440a:	7013      	strb	r3, [r2, #0]
 800440c:	6ba3      	ldr	r3, [r4, #56]	; 0x38
 800440e:	3301      	adds	r3, #1
 8004410:	63a3      	str	r3, [r4, #56]	; 0x38
 8004412:	8fe3      	ldrh	r3, [r4, #62]	; 0x3e
 8004414:	3b01      	subs	r3, #1
 8004416:	b29b      	uxth	r3, r3
 8004418:	87e3      	strh	r3, [r4, #62]	; 0x3e
 800441a:	8fe3      	ldrh	r3, [r4, #62]	; 0x3e
 800441c:	b29b      	uxth	r3, r3
 800441e:	2b00      	cmp	r3, #0
 8004420:	d1ed      	bne.n	80043fe <HAL_SPI_Receive+0xc0>
 8004422:	463a      	mov	r2, r7
 8004424:	4629      	mov	r1, r5
 8004426:	4620      	mov	r0, r4
 8004428:	f7ff fd60 	bl	8003eec <SPI_EndRxTransaction>
 800442c:	b9d8      	cbnz	r0, 8004466 <HAL_SPI_Receive+0x128>
 800442e:	6d60      	ldr	r0, [r4, #84]	; 0x54
 8004430:	3800      	subs	r0, #0
 8004432:	bf18      	it	ne
 8004434:	2001      	movne	r0, #1
 8004436:	e007      	b.n	8004448 <HAL_SPI_Receive+0x10a>
 8004438:	f7fe ff24 	bl	8003284 <HAL_GetTick>
 800443c:	1bc0      	subs	r0, r0, r7
 800443e:	42a8      	cmp	r0, r5
 8004440:	d3eb      	bcc.n	800441a <HAL_SPI_Receive+0xdc>
 8004442:	1c69      	adds	r1, r5, #1
 8004444:	d0e9      	beq.n	800441a <HAL_SPI_Receive+0xdc>
 8004446:	2003      	movs	r0, #3
 8004448:	2301      	movs	r3, #1
 800444a:	f884 3051 	strb.w	r3, [r4, #81]	; 0x51
 800444e:	2300      	movs	r3, #0
 8004450:	f884 3050 	strb.w	r3, [r4, #80]	; 0x50
 8004454:	e787      	b.n	8004366 <HAL_SPI_Receive+0x28>
 8004456:	f7fe ff15 	bl	8003284 <HAL_GetTick>
 800445a:	1bc0      	subs	r0, r0, r7
 800445c:	42a8      	cmp	r0, r5
 800445e:	d3bd      	bcc.n	80043dc <HAL_SPI_Receive+0x9e>
 8004460:	1c6b      	adds	r3, r5, #1
 8004462:	d0bb      	beq.n	80043dc <HAL_SPI_Receive+0x9e>
 8004464:	e7ef      	b.n	8004446 <HAL_SPI_Receive+0x108>
 8004466:	2320      	movs	r3, #32
 8004468:	6563      	str	r3, [r4, #84]	; 0x54
 800446a:	e7e0      	b.n	800442e <HAL_SPI_Receive+0xf0>
 800446c:	2002      	movs	r0, #2
 800446e:	e7eb      	b.n	8004448 <HAL_SPI_Receive+0x10a>
 8004470:	2002      	movs	r0, #2
 8004472:	e778      	b.n	8004366 <HAL_SPI_Receive+0x28>

08004474 <TIM_OC1_SetConfig>:
 8004474:	6a03      	ldr	r3, [r0, #32]
 8004476:	b570      	push	{r4, r5, r6, lr}
 8004478:	f023 0301 	bic.w	r3, r3, #1
 800447c:	6203      	str	r3, [r0, #32]
 800447e:	6a03      	ldr	r3, [r0, #32]
 8004480:	6844      	ldr	r4, [r0, #4]
 8004482:	6982      	ldr	r2, [r0, #24]
 8004484:	680d      	ldr	r5, [r1, #0]
 8004486:	f022 0273 	bic.w	r2, r2, #115	; 0x73
 800448a:	432a      	orrs	r2, r5
 800448c:	688d      	ldr	r5, [r1, #8]
 800448e:	f023 0302 	bic.w	r3, r3, #2
 8004492:	432b      	orrs	r3, r5
 8004494:	4d0a      	ldr	r5, [pc, #40]	; (80044c0 <TIM_OC1_SetConfig+0x4c>)
 8004496:	42a8      	cmp	r0, r5
 8004498:	d10b      	bne.n	80044b2 <TIM_OC1_SetConfig+0x3e>
 800449a:	68cd      	ldr	r5, [r1, #12]
 800449c:	f023 0308 	bic.w	r3, r3, #8
 80044a0:	432b      	orrs	r3, r5
 80044a2:	f424 7440 	bic.w	r4, r4, #768	; 0x300
 80044a6:	e9d1 5605 	ldrd	r5, r6, [r1, #20]
 80044aa:	4335      	orrs	r5, r6
 80044ac:	f023 0304 	bic.w	r3, r3, #4
 80044b0:	432c      	orrs	r4, r5
 80044b2:	6044      	str	r4, [r0, #4]
 80044b4:	6182      	str	r2, [r0, #24]
 80044b6:	684a      	ldr	r2, [r1, #4]
 80044b8:	6342      	str	r2, [r0, #52]	; 0x34
 80044ba:	6203      	str	r3, [r0, #32]
 80044bc:	bd70      	pop	{r4, r5, r6, pc}
 80044be:	bf00      	nop
 80044c0:	40012c00 	.word	0x40012c00

080044c4 <TIM_OC3_SetConfig>:
 80044c4:	6a03      	ldr	r3, [r0, #32]
 80044c6:	b570      	push	{r4, r5, r6, lr}
 80044c8:	f423 7380 	bic.w	r3, r3, #256	; 0x100
 80044cc:	6203      	str	r3, [r0, #32]
 80044ce:	6a03      	ldr	r3, [r0, #32]
 80044d0:	6844      	ldr	r4, [r0, #4]
 80044d2:	69c2      	ldr	r2, [r0, #28]
 80044d4:	680d      	ldr	r5, [r1, #0]
 80044d6:	f022 0273 	bic.w	r2, r2, #115	; 0x73
 80044da:	432a      	orrs	r2, r5
 80044dc:	688d      	ldr	r5, [r1, #8]
 80044de:	f423 7300 	bic.w	r3, r3, #512	; 0x200
 80044e2:	ea43 2305 	orr.w	r3, r3, r5, lsl #8
 80044e6:	4d0b      	ldr	r5, [pc, #44]	; (8004514 <TIM_OC3_SetConfig+0x50>)
 80044e8:	42a8      	cmp	r0, r5
 80044ea:	d10d      	bne.n	8004508 <TIM_OC3_SetConfig+0x44>
 80044ec:	68cd      	ldr	r5, [r1, #12]
 80044ee:	f423 6300 	bic.w	r3, r3, #2048	; 0x800
 80044f2:	ea43 2305 	orr.w	r3, r3, r5, lsl #8
 80044f6:	f424 5440 	bic.w	r4, r4, #12288	; 0x3000
 80044fa:	e9d1 5605 	ldrd	r5, r6, [r1, #20]
 80044fe:	4335      	orrs	r5, r6
 8004500:	f423 6380 	bic.w	r3, r3, #1024	; 0x400
 8004504:	ea44 1405 	orr.w	r4, r4, r5, lsl #4
 8004508:	6044      	str	r4, [r0, #4]
 800450a:	61c2      	str	r2, [r0, #28]
 800450c:	684a      	ldr	r2, [r1, #4]
 800450e:	63c2      	str	r2, [r0, #60]	; 0x3c
 8004510:	6203      	str	r3, [r0, #32]
 8004512:	bd70      	pop	{r4, r5, r6, pc}
 8004514:	40012c00 	.word	0x40012c00

08004518 <TIM_OC4_SetConfig>:
 8004518:	6a03      	ldr	r3, [r0, #32]
 800451a:	b530      	push	{r4, r5, lr}
 800451c:	f423 5380 	bic.w	r3, r3, #4096	; 0x1000
 8004520:	6203      	str	r3, [r0, #32]
 8004522:	6a03      	ldr	r3, [r0, #32]
 8004524:	6844      	ldr	r4, [r0, #4]
 8004526:	69c2      	ldr	r2, [r0, #28]
 8004528:	680d      	ldr	r5, [r1, #0]
 800452a:	f422 42e6 	bic.w	r2, r2, #29440	; 0x7300
 800452e:	ea42 2205 	orr.w	r2, r2, r5, lsl #8
 8004532:	688d      	ldr	r5, [r1, #8]
 8004534:	f423 5300 	bic.w	r3, r3, #8192	; 0x2000
 8004538:	ea43 3305 	orr.w	r3, r3, r5, lsl #12
 800453c:	4d06      	ldr	r5, [pc, #24]	; (8004558 <TIM_OC4_SetConfig+0x40>)
 800453e:	42a8      	cmp	r0, r5
 8004540:	bf02      	ittt	eq
 8004542:	694d      	ldreq	r5, [r1, #20]
 8004544:	f424 4480 	biceq.w	r4, r4, #16384	; 0x4000
 8004548:	ea44 1485 	orreq.w	r4, r4, r5, lsl #6
 800454c:	6044      	str	r4, [r0, #4]
 800454e:	61c2      	str	r2, [r0, #28]
 8004550:	684a      	ldr	r2, [r1, #4]
 8004552:	6402      	str	r2, [r0, #64]	; 0x40
 8004554:	6203      	str	r3, [r0, #32]
 8004556:	bd30      	pop	{r4, r5, pc}
 8004558:	40012c00 	.word	0x40012c00

0800455c <HAL_TIM_Base_Start_IT>:
 800455c:	f890 303d 	ldrb.w	r3, [r0, #61]	; 0x3d
 8004560:	2b01      	cmp	r3, #1
 8004562:	d120      	bne.n	80045a6 <HAL_TIM_Base_Start_IT+0x4a>
 8004564:	2302      	movs	r3, #2
 8004566:	f880 303d 	strb.w	r3, [r0, #61]	; 0x3d
 800456a:	6803      	ldr	r3, [r0, #0]
 800456c:	68da      	ldr	r2, [r3, #12]
 800456e:	f042 0201 	orr.w	r2, r2, #1
 8004572:	60da      	str	r2, [r3, #12]
 8004574:	4a0d      	ldr	r2, [pc, #52]	; (80045ac <HAL_TIM_Base_Start_IT+0x50>)
 8004576:	4293      	cmp	r3, r2
 8004578:	d00a      	beq.n	8004590 <HAL_TIM_Base_Start_IT+0x34>
 800457a:	f1b3 4f80 	cmp.w	r3, #1073741824	; 0x40000000
 800457e:	d007      	beq.n	8004590 <HAL_TIM_Base_Start_IT+0x34>
 8004580:	f5a2 3294 	sub.w	r2, r2, #75776	; 0x12800
 8004584:	4293      	cmp	r3, r2
 8004586:	d003      	beq.n	8004590 <HAL_TIM_Base_Start_IT+0x34>
 8004588:	f502 6280 	add.w	r2, r2, #1024	; 0x400
 800458c:	4293      	cmp	r3, r2
 800458e:	d104      	bne.n	800459a <HAL_TIM_Base_Start_IT+0x3e>
 8004590:	689a      	ldr	r2, [r3, #8]
 8004592:	f002 0207 	and.w	r2, r2, #7
 8004596:	2a06      	cmp	r2, #6
 8004598:	d003      	beq.n	80045a2 <HAL_TIM_Base_Start_IT+0x46>
 800459a:	681a      	ldr	r2, [r3, #0]
 800459c:	f042 0201 	orr.w	r2, r2, #1
 80045a0:	601a      	str	r2, [r3, #0]
 80045a2:	2000      	movs	r0, #0
 80045a4:	4770      	bx	lr
 80045a6:	2001      	movs	r0, #1
 80045a8:	4770      	bx	lr
 80045aa:	bf00      	nop
 80045ac:	40012c00 	.word	0x40012c00

080045b0 <HAL_TIM_OC_MspInit>:
 80045b0:	4770      	bx	lr

080045b2 <HAL_TIM_IC_MspInit>:
 80045b2:	4770      	bx	lr

080045b4 <HAL_TIM_OnePulse_MspInit>:
 80045b4:	4770      	bx	lr

080045b6 <HAL_TIM_PeriodElapsedCallback>:
 80045b6:	4770      	bx	lr

080045b8 <HAL_TIM_OC_DelayElapsedCallback>:
 80045b8:	4770      	bx	lr

080045ba <HAL_TIM_IC_CaptureCallback>:
 80045ba:	4770      	bx	lr

080045bc <TIM_DMACaptureCplt>:
 80045bc:	b510      	push	{r4, lr}
 80045be:	6a44      	ldr	r4, [r0, #36]	; 0x24
 80045c0:	6a62      	ldr	r2, [r4, #36]	; 0x24
 80045c2:	4282      	cmp	r2, r0
 80045c4:	d10d      	bne.n	80045e2 <TIM_DMACaptureCplt+0x26>
 80045c6:	2301      	movs	r3, #1
 80045c8:	7723      	strb	r3, [r4, #28]
 80045ca:	6992      	ldr	r2, [r2, #24]
 80045cc:	b91a      	cbnz	r2, 80045d6 <TIM_DMACaptureCplt+0x1a>
 80045ce:	f884 303e 	strb.w	r3, [r4, #62]	; 0x3e
 80045d2:	f884 3042 	strb.w	r3, [r4, #66]	; 0x42
 80045d6:	4620      	mov	r0, r4
 80045d8:	f7ff ffef 	bl	80045ba <HAL_TIM_IC_CaptureCallback>
 80045dc:	2300      	movs	r3, #0
 80045de:	7723      	strb	r3, [r4, #28]
 80045e0:	bd10      	pop	{r4, pc}
 80045e2:	6aa3      	ldr	r3, [r4, #40]	; 0x28
 80045e4:	4283      	cmp	r3, r0
 80045e6:	d10a      	bne.n	80045fe <TIM_DMACaptureCplt+0x42>
 80045e8:	2202      	movs	r2, #2
 80045ea:	7722      	strb	r2, [r4, #28]
 80045ec:	699b      	ldr	r3, [r3, #24]
 80045ee:	2b00      	cmp	r3, #0
 80045f0:	d1f1      	bne.n	80045d6 <TIM_DMACaptureCplt+0x1a>
 80045f2:	2301      	movs	r3, #1
 80045f4:	f884 303f 	strb.w	r3, [r4, #63]	; 0x3f
 80045f8:	f884 3043 	strb.w	r3, [r4, #67]	; 0x43
 80045fc:	e7eb      	b.n	80045d6 <TIM_DMACaptureCplt+0x1a>
 80045fe:	6ae3      	ldr	r3, [r4, #44]	; 0x2c
 8004600:	4283      	cmp	r3, r0
 8004602:	d10a      	bne.n	800461a <TIM_DMACaptureCplt+0x5e>
 8004604:	2204      	movs	r2, #4
 8004606:	7722      	strb	r2, [r4, #28]
 8004608:	699b      	ldr	r3, [r3, #24]
 800460a:	2b00      	cmp	r3, #0
 800460c:	d1e3      	bne.n	80045d6 <TIM_DMACaptureCplt+0x1a>
 800460e:	2301      	movs	r3, #1
 8004610:	f884 3040 	strb.w	r3, [r4, #64]	; 0x40
 8004614:	f884 3044 	strb.w	r3, [r4, #68]	; 0x44
 8004618:	e7dd      	b.n	80045d6 <TIM_DMACaptureCplt+0x1a>
 800461a:	6b23      	ldr	r3, [r4, #48]	; 0x30
 800461c:	4283      	cmp	r3, r0
 800461e:	d1da      	bne.n	80045d6 <TIM_DMACaptureCplt+0x1a>
 8004620:	2208      	movs	r2, #8
 8004622:	7722      	strb	r2, [r4, #28]
 8004624:	699b      	ldr	r3, [r3, #24]
 8004626:	2b00      	cmp	r3, #0
 8004628:	d1d5      	bne.n	80045d6 <TIM_DMACaptureCplt+0x1a>
 800462a:	2301      	movs	r3, #1
 800462c:	f884 3041 	strb.w	r3, [r4, #65]	; 0x41
 8004630:	f884 3045 	strb.w	r3, [r4, #69]	; 0x45
 8004634:	e7cf      	b.n	80045d6 <TIM_DMACaptureCplt+0x1a>

08004636 <HAL_TIM_IC_CaptureHalfCpltCallback>:
 8004636:	4770      	bx	lr

08004638 <TIM_DMACaptureHalfCplt>:
 8004638:	b510      	push	{r4, lr}
 800463a:	6a44      	ldr	r4, [r0, #36]	; 0x24
 800463c:	6a63      	ldr	r3, [r4, #36]	; 0x24
 800463e:	4283      	cmp	r3, r0
 8004640:	d107      	bne.n	8004652 <TIM_DMACaptureHalfCplt+0x1a>
 8004642:	2301      	movs	r3, #1
 8004644:	7723      	strb	r3, [r4, #28]
 8004646:	4620      	mov	r0, r4
 8004648:	f7ff fff5 	bl	8004636 <HAL_TIM_IC_CaptureHalfCpltCallback>
 800464c:	2300      	movs	r3, #0
 800464e:	7723      	strb	r3, [r4, #28]
 8004650:	bd10      	pop	{r4, pc}
 8004652:	6aa3      	ldr	r3, [r4, #40]	; 0x28
 8004654:	4283      	cmp	r3, r0
 8004656:	d101      	bne.n	800465c <TIM_DMACaptureHalfCplt+0x24>
 8004658:	2302      	movs	r3, #2
 800465a:	e7f3      	b.n	8004644 <TIM_DMACaptureHalfCplt+0xc>
 800465c:	6ae3      	ldr	r3, [r4, #44]	; 0x2c
 800465e:	4283      	cmp	r3, r0
 8004660:	d101      	bne.n	8004666 <TIM_DMACaptureHalfCplt+0x2e>
 8004662:	2304      	movs	r3, #4
 8004664:	e7ee      	b.n	8004644 <TIM_DMACaptureHalfCplt+0xc>
 8004666:	6b23      	ldr	r3, [r4, #48]	; 0x30
 8004668:	4283      	cmp	r3, r0
 800466a:	d1ec      	bne.n	8004646 <TIM_DMACaptureHalfCplt+0xe>
 800466c:	2308      	movs	r3, #8
 800466e:	e7e9      	b.n	8004644 <TIM_DMACaptureHalfCplt+0xc>

08004670 <HAL_TIM_PWM_PulseFinishedCallback>:
 8004670:	4770      	bx	lr

08004672 <HAL_TIM_TriggerCallback>:
 8004672:	4770      	bx	lr

08004674 <HAL_TIM_IRQHandler>:
 8004674:	6803      	ldr	r3, [r0, #0]
 8004676:	b510      	push	{r4, lr}
 8004678:	691a      	ldr	r2, [r3, #16]
 800467a:	4604      	mov	r4, r0
 800467c:	0791      	lsls	r1, r2, #30
 800467e:	d50e      	bpl.n	800469e <HAL_TIM_IRQHandler+0x2a>
 8004680:	68da      	ldr	r2, [r3, #12]
 8004682:	0792      	lsls	r2, r2, #30
 8004684:	d50b      	bpl.n	800469e <HAL_TIM_IRQHandler+0x2a>
 8004686:	f06f 0202 	mvn.w	r2, #2
 800468a:	611a      	str	r2, [r3, #16]
 800468c:	2201      	movs	r2, #1
 800468e:	7702      	strb	r2, [r0, #28]
 8004690:	699b      	ldr	r3, [r3, #24]
 8004692:	079b      	lsls	r3, r3, #30
 8004694:	d077      	beq.n	8004786 <HAL_TIM_IRQHandler+0x112>
 8004696:	f7ff ff90 	bl	80045ba <HAL_TIM_IC_CaptureCallback>
 800469a:	2300      	movs	r3, #0
 800469c:	7723      	strb	r3, [r4, #28]
 800469e:	6823      	ldr	r3, [r4, #0]
 80046a0:	691a      	ldr	r2, [r3, #16]
 80046a2:	0750      	lsls	r0, r2, #29
 80046a4:	d510      	bpl.n	80046c8 <HAL_TIM_IRQHandler+0x54>
 80046a6:	68da      	ldr	r2, [r3, #12]
 80046a8:	0751      	lsls	r1, r2, #29
 80046aa:	d50d      	bpl.n	80046c8 <HAL_TIM_IRQHandler+0x54>
 80046ac:	f06f 0204 	mvn.w	r2, #4
 80046b0:	611a      	str	r2, [r3, #16]
 80046b2:	2202      	movs	r2, #2
 80046b4:	7722      	strb	r2, [r4, #28]
 80046b6:	699b      	ldr	r3, [r3, #24]
 80046b8:	4620      	mov	r0, r4
 80046ba:	f413 7f40 	tst.w	r3, #768	; 0x300
 80046be:	d068      	beq.n	8004792 <HAL_TIM_IRQHandler+0x11e>
 80046c0:	f7ff ff7b 	bl	80045ba <HAL_TIM_IC_CaptureCallback>
 80046c4:	2300      	movs	r3, #0
 80046c6:	7723      	strb	r3, [r4, #28]
 80046c8:	6823      	ldr	r3, [r4, #0]
 80046ca:	691a      	ldr	r2, [r3, #16]
 80046cc:	0712      	lsls	r2, r2, #28
 80046ce:	d50f      	bpl.n	80046f0 <HAL_TIM_IRQHandler+0x7c>
 80046d0:	68da      	ldr	r2, [r3, #12]
 80046d2:	0710      	lsls	r0, r2, #28
 80046d4:	d50c      	bpl.n	80046f0 <HAL_TIM_IRQHandler+0x7c>
 80046d6:	f06f 0208 	mvn.w	r2, #8
 80046da:	611a      	str	r2, [r3, #16]
 80046dc:	2204      	movs	r2, #4
 80046de:	7722      	strb	r2, [r4, #28]
 80046e0:	69db      	ldr	r3, [r3, #28]
 80046e2:	4620      	mov	r0, r4
 80046e4:	0799      	lsls	r1, r3, #30
 80046e6:	d05a      	beq.n	800479e <HAL_TIM_IRQHandler+0x12a>
 80046e8:	f7ff ff67 	bl	80045ba <HAL_TIM_IC_CaptureCallback>
 80046ec:	2300      	movs	r3, #0
 80046ee:	7723      	strb	r3, [r4, #28]
 80046f0:	6823      	ldr	r3, [r4, #0]
 80046f2:	691a      	ldr	r2, [r3, #16]
 80046f4:	06d2      	lsls	r2, r2, #27
 80046f6:	d510      	bpl.n	800471a <HAL_TIM_IRQHandler+0xa6>
 80046f8:	68da      	ldr	r2, [r3, #12]
 80046fa:	06d0      	lsls	r0, r2, #27
 80046fc:	d50d      	bpl.n	800471a <HAL_TIM_IRQHandler+0xa6>
 80046fe:	f06f 0210 	mvn.w	r2, #16
 8004702:	611a      	str	r2, [r3, #16]
 8004704:	2208      	movs	r2, #8
 8004706:	7722      	strb	r2, [r4, #28]
 8004708:	69db      	ldr	r3, [r3, #28]
 800470a:	4620      	mov	r0, r4
 800470c:	f413 7f40 	tst.w	r3, #768	; 0x300
 8004710:	d04b      	beq.n	80047aa <HAL_TIM_IRQHandler+0x136>
 8004712:	f7ff ff52 	bl	80045ba <HAL_TIM_IC_CaptureCallback>
 8004716:	2300      	movs	r3, #0
 8004718:	7723      	strb	r3, [r4, #28]
 800471a:	6823      	ldr	r3, [r4, #0]
 800471c:	691a      	ldr	r2, [r3, #16]
 800471e:	07d1      	lsls	r1, r2, #31
 8004720:	d508      	bpl.n	8004734 <HAL_TIM_IRQHandler+0xc0>
 8004722:	68da      	ldr	r2, [r3, #12]
 8004724:	07d2      	lsls	r2, r2, #31
 8004726:	d505      	bpl.n	8004734 <HAL_TIM_IRQHandler+0xc0>
 8004728:	f06f 0201 	mvn.w	r2, #1
 800472c:	4620      	mov	r0, r4
 800472e:	611a      	str	r2, [r3, #16]
 8004730:	f7ff ff41 	bl	80045b6 <HAL_TIM_PeriodElapsedCallback>
 8004734:	6823      	ldr	r3, [r4, #0]
 8004736:	691a      	ldr	r2, [r3, #16]
 8004738:	0610      	lsls	r0, r2, #24
 800473a:	d508      	bpl.n	800474e <HAL_TIM_IRQHandler+0xda>
 800473c:	68da      	ldr	r2, [r3, #12]
 800473e:	0611      	lsls	r1, r2, #24
 8004740:	d505      	bpl.n	800474e <HAL_TIM_IRQHandler+0xda>
 8004742:	f06f 0280 	mvn.w	r2, #128	; 0x80
 8004746:	4620      	mov	r0, r4
 8004748:	611a      	str	r2, [r3, #16]
 800474a:	f000 fd7c 	bl	8005246 <HAL_TIMEx_BreakCallback>
 800474e:	6823      	ldr	r3, [r4, #0]
 8004750:	691a      	ldr	r2, [r3, #16]
 8004752:	0652      	lsls	r2, r2, #25
 8004754:	d508      	bpl.n	8004768 <HAL_TIM_IRQHandler+0xf4>
 8004756:	68da      	ldr	r2, [r3, #12]
 8004758:	0650      	lsls	r0, r2, #25
 800475a:	d505      	bpl.n	8004768 <HAL_TIM_IRQHandler+0xf4>
 800475c:	f06f 0240 	mvn.w	r2, #64	; 0x40
 8004760:	4620      	mov	r0, r4
 8004762:	611a      	str	r2, [r3, #16]
 8004764:	f7ff ff85 	bl	8004672 <HAL_TIM_TriggerCallback>
 8004768:	6823      	ldr	r3, [r4, #0]
 800476a:	691a      	ldr	r2, [r3, #16]
 800476c:	0691      	lsls	r1, r2, #26
 800476e:	d522      	bpl.n	80047b6 <HAL_TIM_IRQHandler+0x142>
 8004770:	68da      	ldr	r2, [r3, #12]
 8004772:	0692      	lsls	r2, r2, #26
 8004774:	d51f      	bpl.n	80047b6 <HAL_TIM_IRQHandler+0x142>
 8004776:	f06f 0220 	mvn.w	r2, #32
 800477a:	4620      	mov	r0, r4
 800477c:	e8bd 4010 	ldmia.w	sp!, {r4, lr}
 8004780:	611a      	str	r2, [r3, #16]
 8004782:	f000 bd5f 	b.w	8005244 <HAL_TIMEx_CommutCallback>
 8004786:	f7ff ff17 	bl	80045b8 <HAL_TIM_OC_DelayElapsedCallback>
 800478a:	4620      	mov	r0, r4
 800478c:	f7ff ff70 	bl	8004670 <HAL_TIM_PWM_PulseFinishedCallback>
 8004790:	e783      	b.n	800469a <HAL_TIM_IRQHandler+0x26>
 8004792:	f7ff ff11 	bl	80045b8 <HAL_TIM_OC_DelayElapsedCallback>
 8004796:	4620      	mov	r0, r4
 8004798:	f7ff ff6a 	bl	8004670 <HAL_TIM_PWM_PulseFinishedCallback>
 800479c:	e792      	b.n	80046c4 <HAL_TIM_IRQHandler+0x50>
 800479e:	f7ff ff0b 	bl	80045b8 <HAL_TIM_OC_DelayElapsedCallback>
 80047a2:	4620      	mov	r0, r4
 80047a4:	f7ff ff64 	bl	8004670 <HAL_TIM_PWM_PulseFinishedCallback>
 80047a8:	e7a0      	b.n	80046ec <HAL_TIM_IRQHandler+0x78>
 80047aa:	f7ff ff05 	bl	80045b8 <HAL_TIM_OC_DelayElapsedCallback>
 80047ae:	4620      	mov	r0, r4
 80047b0:	f7ff ff5e 	bl	8004670 <HAL_TIM_PWM_PulseFinishedCallback>
 80047b4:	e7af      	b.n	8004716 <HAL_TIM_IRQHandler+0xa2>
 80047b6:	bd10      	pop	{r4, pc}

080047b8 <HAL_TIM_ErrorCallback>:
 80047b8:	4770      	bx	lr

080047ba <TIM_DMAError>:
 80047ba:	b510      	push	{r4, lr}
 80047bc:	6a44      	ldr	r4, [r0, #36]	; 0x24
 80047be:	6a63      	ldr	r3, [r4, #36]	; 0x24
 80047c0:	4283      	cmp	r3, r0
 80047c2:	d109      	bne.n	80047d8 <TIM_DMAError+0x1e>
 80047c4:	2301      	movs	r3, #1
 80047c6:	7723      	strb	r3, [r4, #28]
 80047c8:	f884 303e 	strb.w	r3, [r4, #62]	; 0x3e
 80047cc:	4620      	mov	r0, r4
 80047ce:	f7ff fff3 	bl	80047b8 <HAL_TIM_ErrorCallback>
 80047d2:	2300      	movs	r3, #0
 80047d4:	7723      	strb	r3, [r4, #28]
 80047d6:	bd10      	pop	{r4, pc}
 80047d8:	6aa3      	ldr	r3, [r4, #40]	; 0x28
 80047da:	4283      	cmp	r3, r0
 80047dc:	d105      	bne.n	80047ea <TIM_DMAError+0x30>
 80047de:	2302      	movs	r3, #2
 80047e0:	7723      	strb	r3, [r4, #28]
 80047e2:	2301      	movs	r3, #1
 80047e4:	f884 303f 	strb.w	r3, [r4, #63]	; 0x3f
 80047e8:	e7f0      	b.n	80047cc <TIM_DMAError+0x12>
 80047ea:	6ae3      	ldr	r3, [r4, #44]	; 0x2c
 80047ec:	4283      	cmp	r3, r0
 80047ee:	f04f 0301 	mov.w	r3, #1
 80047f2:	d104      	bne.n	80047fe <TIM_DMAError+0x44>
 80047f4:	2204      	movs	r2, #4
 80047f6:	f884 3040 	strb.w	r3, [r4, #64]	; 0x40
 80047fa:	7722      	strb	r2, [r4, #28]
 80047fc:	e7e6      	b.n	80047cc <TIM_DMAError+0x12>
 80047fe:	6b22      	ldr	r2, [r4, #48]	; 0x30
 8004800:	4282      	cmp	r2, r0
 8004802:	bf03      	ittte	eq
 8004804:	2208      	moveq	r2, #8
 8004806:	f884 3041 	strbeq.w	r3, [r4, #65]	; 0x41
 800480a:	7722      	strbeq	r2, [r4, #28]
 800480c:	f884 303d 	strbne.w	r3, [r4, #61]	; 0x3d
 8004810:	e7dc      	b.n	80047cc <TIM_DMAError+0x12>
	...

08004814 <TIM_Base_SetConfig>:
 8004814:	4a1a      	ldr	r2, [pc, #104]	; (8004880 <TIM_Base_SetConfig+0x6c>)
 8004816:	6803      	ldr	r3, [r0, #0]
 8004818:	4290      	cmp	r0, r2
 800481a:	d00a      	beq.n	8004832 <TIM_Base_SetConfig+0x1e>
 800481c:	f1b0 4f80 	cmp.w	r0, #1073741824	; 0x40000000
 8004820:	d007      	beq.n	8004832 <TIM_Base_SetConfig+0x1e>
 8004822:	f5a2 3294 	sub.w	r2, r2, #75776	; 0x12800
 8004826:	4290      	cmp	r0, r2
 8004828:	d003      	beq.n	8004832 <TIM_Base_SetConfig+0x1e>
 800482a:	f502 6280 	add.w	r2, r2, #1024	; 0x400
 800482e:	4290      	cmp	r0, r2
 8004830:	d115      	bne.n	800485e <TIM_Base_SetConfig+0x4a>
 8004832:	684a      	ldr	r2, [r1, #4]
 8004834:	f023 0370 	bic.w	r3, r3, #112	; 0x70
 8004838:	4313      	orrs	r3, r2
 800483a:	4a11      	ldr	r2, [pc, #68]	; (8004880 <TIM_Base_SetConfig+0x6c>)
 800483c:	4290      	cmp	r0, r2
 800483e:	d00a      	beq.n	8004856 <TIM_Base_SetConfig+0x42>
 8004840:	f1b0 4f80 	cmp.w	r0, #1073741824	; 0x40000000
 8004844:	d007      	beq.n	8004856 <TIM_Base_SetConfig+0x42>
 8004846:	f5a2 3294 	sub.w	r2, r2, #75776	; 0x12800
 800484a:	4290      	cmp	r0, r2
 800484c:	d003      	beq.n	8004856 <TIM_Base_SetConfig+0x42>
 800484e:	f502 6280 	add.w	r2, r2, #1024	; 0x400
 8004852:	4290      	cmp	r0, r2
 8004854:	d103      	bne.n	800485e <TIM_Base_SetConfig+0x4a>
 8004856:	68ca      	ldr	r2, [r1, #12]
 8004858:	f423 7340 	bic.w	r3, r3, #768	; 0x300
 800485c:	4313      	orrs	r3, r2
 800485e:	694a      	ldr	r2, [r1, #20]
 8004860:	f023 0380 	bic.w	r3, r3, #128	; 0x80
 8004864:	4313      	orrs	r3, r2
 8004866:	6003      	str	r3, [r0, #0]
 8004868:	688b      	ldr	r3, [r1, #8]
 800486a:	62c3      	str	r3, [r0, #44]	; 0x2c
 800486c:	680b      	ldr	r3, [r1, #0]
 800486e:	6283      	str	r3, [r0, #40]	; 0x28
 8004870:	4b03      	ldr	r3, [pc, #12]	; (8004880 <TIM_Base_SetConfig+0x6c>)
 8004872:	4298      	cmp	r0, r3
 8004874:	bf04      	itt	eq
 8004876:	690b      	ldreq	r3, [r1, #16]
 8004878:	6303      	streq	r3, [r0, #48]	; 0x30
 800487a:	2301      	movs	r3, #1
 800487c:	6143      	str	r3, [r0, #20]
 800487e:	4770      	bx	lr
 8004880:	40012c00 	.word	0x40012c00

08004884 <HAL_TIM_Base_Init>:
 8004884:	b510      	push	{r4, lr}
 8004886:	4604      	mov	r4, r0
 8004888:	b330      	cbz	r0, 80048d8 <HAL_TIM_Base_Init+0x54>
 800488a:	f890 303d 	ldrb.w	r3, [r0, #61]	; 0x3d
 800488e:	f003 02ff 	and.w	r2, r3, #255	; 0xff
 8004892:	b91b      	cbnz	r3, 800489c <HAL_TIM_Base_Init+0x18>
 8004894:	f880 203c 	strb.w	r2, [r0, #60]	; 0x3c
 8004898:	f7fd ff2e 	bl	80026f8 <HAL_TIM_Base_MspInit>
 800489c:	2302      	movs	r3, #2
 800489e:	6820      	ldr	r0, [r4, #0]
 80048a0:	f884 303d 	strb.w	r3, [r4, #61]	; 0x3d
 80048a4:	1d21      	adds	r1, r4, #4
 80048a6:	f7ff ffb5 	bl	8004814 <TIM_Base_SetConfig>
 80048aa:	2301      	movs	r3, #1
 80048ac:	2000      	movs	r0, #0
 80048ae:	f884 3046 	strb.w	r3, [r4, #70]	; 0x46
 80048b2:	f884 303e 	strb.w	r3, [r4, #62]	; 0x3e
 80048b6:	f884 303f 	strb.w	r3, [r4, #63]	; 0x3f
 80048ba:	f884 3040 	strb.w	r3, [r4, #64]	; 0x40
 80048be:	f884 3041 	strb.w	r3, [r4, #65]	; 0x41
 80048c2:	f884 3042 	strb.w	r3, [r4, #66]	; 0x42
 80048c6:	f884 3043 	strb.w	r3, [r4, #67]	; 0x43
 80048ca:	f884 3044 	strb.w	r3, [r4, #68]	; 0x44
 80048ce:	f884 3045 	strb.w	r3, [r4, #69]	; 0x45
 80048d2:	f884 303d 	strb.w	r3, [r4, #61]	; 0x3d
 80048d6:	bd10      	pop	{r4, pc}
 80048d8:	2001      	movs	r0, #1
 80048da:	e7fc      	b.n	80048d6 <HAL_TIM_Base_Init+0x52>

080048dc <HAL_TIM_OC_Init>:
 80048dc:	b510      	push	{r4, lr}
 80048de:	4604      	mov	r4, r0
 80048e0:	b330      	cbz	r0, 8004930 <HAL_TIM_OC_Init+0x54>
 80048e2:	f890 303d 	ldrb.w	r3, [r0, #61]	; 0x3d
 80048e6:	f003 02ff 	and.w	r2, r3, #255	; 0xff
 80048ea:	b91b      	cbnz	r3, 80048f4 <HAL_TIM_OC_Init+0x18>
 80048ec:	f880 203c 	strb.w	r2, [r0, #60]	; 0x3c
 80048f0:	f7ff fe5e 	bl	80045b0 <HAL_TIM_OC_MspInit>
 80048f4:	2302      	movs	r3, #2
 80048f6:	6820      	ldr	r0, [r4, #0]
 80048f8:	f884 303d 	strb.w	r3, [r4, #61]	; 0x3d
 80048fc:	1d21      	adds	r1, r4, #4
 80048fe:	f7ff ff89 	bl	8004814 <TIM_Base_SetConfig>
 8004902:	2301      	movs	r3, #1
 8004904:	2000      	movs	r0, #0
 8004906:	f884 3046 	strb.w	r3, [r4, #70]	; 0x46
 800490a:	f884 303e 	strb.w	r3, [r4, #62]	; 0x3e
 800490e:	f884 303f 	strb.w	r3, [r4, #63]	; 0x3f
 8004912:	f884 3040 	strb.w	r3, [r4, #64]	; 0x40
 8004916:	f884 3041 	strb.w	r3, [r4, #65]	; 0x41
 800491a:	f884 3042 	strb.w	r3, [r4, #66]	; 0x42
 800491e:	f884 3043 	strb.w	r3, [r4, #67]	; 0x43
 8004922:	f884 3044 	strb.w	r3, [r4, #68]	; 0x44
 8004926:	f884 3045 	strb.w	r3, [r4, #69]	; 0x45
 800492a:	f884 303d 	strb.w	r3, [r4, #61]	; 0x3d
 800492e:	bd10      	pop	{r4, pc}
 8004930:	2001      	movs	r0, #1
 8004932:	e7fc      	b.n	800492e <HAL_TIM_OC_Init+0x52>

08004934 <HAL_TIM_IC_Init>:
 8004934:	b510      	push	{r4, lr}
 8004936:	4604      	mov	r4, r0
 8004938:	b330      	cbz	r0, 8004988 <HAL_TIM_IC_Init+0x54>
 800493a:	f890 303d 	ldrb.w	r3, [r0, #61]	; 0x3d
 800493e:	f003 02ff 	and.w	r2, r3, #255	; 0xff
 8004942:	b91b      	cbnz	r3, 800494c <HAL_TIM_IC_Init+0x18>
 8004944:	f880 203c 	strb.w	r2, [r0, #60]	; 0x3c
 8004948:	f7ff fe33 	bl	80045b2 <HAL_TIM_IC_MspInit>
 800494c:	2302      	movs	r3, #2
 800494e:	6820      	ldr	r0, [r4, #0]
 8004950:	f884 303d 	strb.w	r3, [r4, #61]	; 0x3d
 8004954:	1d21      	adds	r1, r4, #4
 8004956:	f7ff ff5d 	bl	8004814 <TIM_Base_SetConfig>
 800495a:	2301      	movs	r3, #1
 800495c:	2000      	movs	r0, #0
 800495e:	f884 3046 	strb.w	r3, [r4, #70]	; 0x46
 8004962:	f884 303e 	strb.w	r3, [r4, #62]	; 0x3e
 8004966:	f884 303f 	strb.w	r3, [r4, #63]	; 0x3f
 800496a:	f884 3040 	strb.w	r3, [r4, #64]	; 0x40
 800496e:	f884 3041 	strb.w	r3, [r4, #65]	; 0x41
 8004972:	f884 3042 	strb.w	r3, [r4, #66]	; 0x42
 8004976:	f884 3043 	strb.w	r3, [r4, #67]	; 0x43
 800497a:	f884 3044 	strb.w	r3, [r4, #68]	; 0x44
 800497e:	f884 3045 	strb.w	r3, [r4, #69]	; 0x45
 8004982:	f884 303d 	strb.w	r3, [r4, #61]	; 0x3d
 8004986:	bd10      	pop	{r4, pc}
 8004988:	2001      	movs	r0, #1
 800498a:	e7fc      	b.n	8004986 <HAL_TIM_IC_Init+0x52>

0800498c <HAL_TIM_OnePulse_Init>:
 800498c:	b538      	push	{r3, r4, r5, lr}
 800498e:	460d      	mov	r5, r1
 8004990:	4604      	mov	r4, r0
 8004992:	b330      	cbz	r0, 80049e2 <HAL_TIM_OnePulse_Init+0x56>
 8004994:	f890 303d 	ldrb.w	r3, [r0, #61]	; 0x3d
 8004998:	f003 02ff 	and.w	r2, r3, #255	; 0xff
 800499c:	b91b      	cbnz	r3, 80049a6 <HAL_TIM_OnePulse_Init+0x1a>
 800499e:	f880 203c 	strb.w	r2, [r0, #60]	; 0x3c
 80049a2:	f7ff fe07 	bl	80045b4 <HAL_TIM_OnePulse_MspInit>
 80049a6:	2302      	movs	r3, #2
 80049a8:	6820      	ldr	r0, [r4, #0]
 80049aa:	f884 303d 	strb.w	r3, [r4, #61]	; 0x3d
 80049ae:	1d21      	adds	r1, r4, #4
 80049b0:	f7ff ff30 	bl	8004814 <TIM_Base_SetConfig>
 80049b4:	6823      	ldr	r3, [r4, #0]
 80049b6:	2000      	movs	r0, #0
 80049b8:	681a      	ldr	r2, [r3, #0]
 80049ba:	f022 0208 	bic.w	r2, r2, #8
 80049be:	601a      	str	r2, [r3, #0]
 80049c0:	681a      	ldr	r2, [r3, #0]
 80049c2:	432a      	orrs	r2, r5
 80049c4:	601a      	str	r2, [r3, #0]
 80049c6:	2301      	movs	r3, #1
 80049c8:	f884 3046 	strb.w	r3, [r4, #70]	; 0x46
 80049cc:	f884 303e 	strb.w	r3, [r4, #62]	; 0x3e
 80049d0:	f884 303f 	strb.w	r3, [r4, #63]	; 0x3f
 80049d4:	f884 3042 	strb.w	r3, [r4, #66]	; 0x42
 80049d8:	f884 3043 	strb.w	r3, [r4, #67]	; 0x43
 80049dc:	f884 303d 	strb.w	r3, [r4, #61]	; 0x3d
 80049e0:	bd38      	pop	{r3, r4, r5, pc}
 80049e2:	2001      	movs	r0, #1
 80049e4:	e7fc      	b.n	80049e0 <HAL_TIM_OnePulse_Init+0x54>
	...

080049e8 <TIM_OC2_SetConfig>:
 80049e8:	6a03      	ldr	r3, [r0, #32]
 80049ea:	b570      	push	{r4, r5, r6, lr}
 80049ec:	f023 0310 	bic.w	r3, r3, #16
 80049f0:	6203      	str	r3, [r0, #32]
 80049f2:	6a03      	ldr	r3, [r0, #32]
 80049f4:	6844      	ldr	r4, [r0, #4]
 80049f6:	6982      	ldr	r2, [r0, #24]
 80049f8:	680d      	ldr	r5, [r1, #0]
 80049fa:	f422 42e6 	bic.w	r2, r2, #29440	; 0x7300
 80049fe:	ea42 2205 	orr.w	r2, r2, r5, lsl #8
 8004a02:	688d      	ldr	r5, [r1, #8]
 8004a04:	f023 0320 	bic.w	r3, r3, #32
 8004a08:	ea43 1305 	orr.w	r3, r3, r5, lsl #4
 8004a0c:	4d0b      	ldr	r5, [pc, #44]	; (8004a3c <TIM_OC2_SetConfig+0x54>)
 8004a0e:	42a8      	cmp	r0, r5
 8004a10:	d10d      	bne.n	8004a2e <TIM_OC2_SetConfig+0x46>
 8004a12:	68cd      	ldr	r5, [r1, #12]
 8004a14:	f023 0380 	bic.w	r3, r3, #128	; 0x80
 8004a18:	ea43 1305 	orr.w	r3, r3, r5, lsl #4
 8004a1c:	f424 6440 	bic.w	r4, r4, #3072	; 0xc00
 8004a20:	e9d1 5605 	ldrd	r5, r6, [r1, #20]
 8004a24:	4335      	orrs	r5, r6
 8004a26:	f023 0340 	bic.w	r3, r3, #64	; 0x40
 8004a2a:	ea44 0485 	orr.w	r4, r4, r5, lsl #2
 8004a2e:	6044      	str	r4, [r0, #4]
 8004a30:	6182      	str	r2, [r0, #24]
 8004a32:	684a      	ldr	r2, [r1, #4]
 8004a34:	6382      	str	r2, [r0, #56]	; 0x38
 8004a36:	6203      	str	r3, [r0, #32]
 8004a38:	bd70      	pop	{r4, r5, r6, pc}
 8004a3a:	bf00      	nop
 8004a3c:	40012c00 	.word	0x40012c00

08004a40 <HAL_TIM_OC_ConfigChannel>:
 8004a40:	b510      	push	{r4, lr}
 8004a42:	f890 303c 	ldrb.w	r3, [r0, #60]	; 0x3c
 8004a46:	4604      	mov	r4, r0
 8004a48:	2b01      	cmp	r3, #1
 8004a4a:	d01e      	beq.n	8004a8a <HAL_TIM_OC_ConfigChannel+0x4a>
 8004a4c:	2301      	movs	r3, #1
 8004a4e:	2a08      	cmp	r2, #8
 8004a50:	f880 303c 	strb.w	r3, [r0, #60]	; 0x3c
 8004a54:	d015      	beq.n	8004a82 <HAL_TIM_OC_ConfigChannel+0x42>
 8004a56:	d806      	bhi.n	8004a66 <HAL_TIM_OC_ConfigChannel+0x26>
 8004a58:	b15a      	cbz	r2, 8004a72 <HAL_TIM_OC_ConfigChannel+0x32>
 8004a5a:	2a04      	cmp	r2, #4
 8004a5c:	d00d      	beq.n	8004a7a <HAL_TIM_OC_ConfigChannel+0x3a>
 8004a5e:	2000      	movs	r0, #0
 8004a60:	f884 003c 	strb.w	r0, [r4, #60]	; 0x3c
 8004a64:	bd10      	pop	{r4, pc}
 8004a66:	2a0c      	cmp	r2, #12
 8004a68:	d1f9      	bne.n	8004a5e <HAL_TIM_OC_ConfigChannel+0x1e>
 8004a6a:	6800      	ldr	r0, [r0, #0]
 8004a6c:	f7ff fd54 	bl	8004518 <TIM_OC4_SetConfig>
 8004a70:	e7f5      	b.n	8004a5e <HAL_TIM_OC_ConfigChannel+0x1e>
 8004a72:	6800      	ldr	r0, [r0, #0]
 8004a74:	f7ff fcfe 	bl	8004474 <TIM_OC1_SetConfig>
 8004a78:	e7f1      	b.n	8004a5e <HAL_TIM_OC_ConfigChannel+0x1e>
 8004a7a:	6800      	ldr	r0, [r0, #0]
 8004a7c:	f7ff ffb4 	bl	80049e8 <TIM_OC2_SetConfig>
 8004a80:	e7ed      	b.n	8004a5e <HAL_TIM_OC_ConfigChannel+0x1e>
 8004a82:	6800      	ldr	r0, [r0, #0]
 8004a84:	f7ff fd1e 	bl	80044c4 <TIM_OC3_SetConfig>
 8004a88:	e7e9      	b.n	8004a5e <HAL_TIM_OC_ConfigChannel+0x1e>
 8004a8a:	2002      	movs	r0, #2
 8004a8c:	e7ea      	b.n	8004a64 <HAL_TIM_OC_ConfigChannel+0x24>
	...

08004a90 <TIM_TI1_SetConfig>:
 8004a90:	b570      	push	{r4, r5, r6, lr}
 8004a92:	6a04      	ldr	r4, [r0, #32]
 8004a94:	4e12      	ldr	r6, [pc, #72]	; (8004ae0 <TIM_TI1_SetConfig+0x50>)
 8004a96:	f024 0401 	bic.w	r4, r4, #1
 8004a9a:	6204      	str	r4, [r0, #32]
 8004a9c:	42b0      	cmp	r0, r6
 8004a9e:	6984      	ldr	r4, [r0, #24]
 8004aa0:	6a05      	ldr	r5, [r0, #32]
 8004aa2:	d019      	beq.n	8004ad8 <TIM_TI1_SetConfig+0x48>
 8004aa4:	f1b0 4f80 	cmp.w	r0, #1073741824	; 0x40000000
 8004aa8:	d016      	beq.n	8004ad8 <TIM_TI1_SetConfig+0x48>
 8004aaa:	f5a6 3694 	sub.w	r6, r6, #75776	; 0x12800
 8004aae:	42b0      	cmp	r0, r6
 8004ab0:	d012      	beq.n	8004ad8 <TIM_TI1_SetConfig+0x48>
 8004ab2:	f506 6680 	add.w	r6, r6, #1024	; 0x400
 8004ab6:	42b0      	cmp	r0, r6
 8004ab8:	d00e      	beq.n	8004ad8 <TIM_TI1_SetConfig+0x48>
 8004aba:	f044 0201 	orr.w	r2, r4, #1
 8004abe:	011b      	lsls	r3, r3, #4
 8004ac0:	f022 02f0 	bic.w	r2, r2, #240	; 0xf0
 8004ac4:	b2db      	uxtb	r3, r3
 8004ac6:	4313      	orrs	r3, r2
 8004ac8:	f001 010a 	and.w	r1, r1, #10
 8004acc:	f025 020a 	bic.w	r2, r5, #10
 8004ad0:	4311      	orrs	r1, r2
 8004ad2:	6183      	str	r3, [r0, #24]
 8004ad4:	6201      	str	r1, [r0, #32]
 8004ad6:	bd70      	pop	{r4, r5, r6, pc}
 8004ad8:	f024 0403 	bic.w	r4, r4, #3
 8004adc:	4322      	orrs	r2, r4
 8004ade:	e7ee      	b.n	8004abe <TIM_TI1_SetConfig+0x2e>
 8004ae0:	40012c00 	.word	0x40012c00

08004ae4 <HAL_TIM_IC_ConfigChannel>:
 8004ae4:	b5f8      	push	{r3, r4, r5, r6, r7, lr}
 8004ae6:	f890 303c 	ldrb.w	r3, [r0, #60]	; 0x3c
 8004aea:	4604      	mov	r4, r0
 8004aec:	2b01      	cmp	r3, #1
 8004aee:	460e      	mov	r6, r1
 8004af0:	4615      	mov	r5, r2
 8004af2:	d079      	beq.n	8004be8 <HAL_TIM_IC_ConfigChannel+0x104>
 8004af4:	2301      	movs	r3, #1
 8004af6:	f880 303c 	strb.w	r3, [r0, #60]	; 0x3c
 8004afa:	68f3      	ldr	r3, [r6, #12]
 8004afc:	6800      	ldr	r0, [r0, #0]
 8004afe:	c906      	ldmia	r1, {r1, r2}
 8004b00:	b975      	cbnz	r5, 8004b20 <HAL_TIM_IC_ConfigChannel+0x3c>
 8004b02:	f7ff ffc5 	bl	8004a90 <TIM_TI1_SetConfig>
 8004b06:	6823      	ldr	r3, [r4, #0]
 8004b08:	68b1      	ldr	r1, [r6, #8]
 8004b0a:	699a      	ldr	r2, [r3, #24]
 8004b0c:	f022 020c 	bic.w	r2, r2, #12
 8004b10:	619a      	str	r2, [r3, #24]
 8004b12:	699a      	ldr	r2, [r3, #24]
 8004b14:	430a      	orrs	r2, r1
 8004b16:	619a      	str	r2, [r3, #24]
 8004b18:	2000      	movs	r0, #0
 8004b1a:	f884 003c 	strb.w	r0, [r4, #60]	; 0x3c
 8004b1e:	bdf8      	pop	{r3, r4, r5, r6, r7, pc}
 8004b20:	2d04      	cmp	r5, #4
 8004b22:	68b6      	ldr	r6, [r6, #8]
 8004b24:	d122      	bne.n	8004b6c <HAL_TIM_IC_ConfigChannel+0x88>
 8004b26:	6a05      	ldr	r5, [r0, #32]
 8004b28:	0109      	lsls	r1, r1, #4
 8004b2a:	f025 0510 	bic.w	r5, r5, #16
 8004b2e:	6205      	str	r5, [r0, #32]
 8004b30:	6987      	ldr	r7, [r0, #24]
 8004b32:	f8d0 e020 	ldr.w	lr, [r0, #32]
 8004b36:	f427 7c40 	bic.w	ip, r7, #768	; 0x300
 8004b3a:	031d      	lsls	r5, r3, #12
 8004b3c:	ea4c 2c02 	orr.w	ip, ip, r2, lsl #8
 8004b40:	f42c 4c70 	bic.w	ip, ip, #61440	; 0xf000
 8004b44:	b2ad      	uxth	r5, r5
 8004b46:	f02e 0ea0 	bic.w	lr, lr, #160	; 0xa0
 8004b4a:	f001 01a0 	and.w	r1, r1, #160	; 0xa0
 8004b4e:	ea45 050c 	orr.w	r5, r5, ip
 8004b52:	ea41 010e 	orr.w	r1, r1, lr
 8004b56:	6185      	str	r5, [r0, #24]
 8004b58:	6201      	str	r1, [r0, #32]
 8004b5a:	6983      	ldr	r3, [r0, #24]
 8004b5c:	f423 6340 	bic.w	r3, r3, #3072	; 0xc00
 8004b60:	6183      	str	r3, [r0, #24]
 8004b62:	6983      	ldr	r3, [r0, #24]
 8004b64:	ea43 2606 	orr.w	r6, r3, r6, lsl #8
 8004b68:	6186      	str	r6, [r0, #24]
 8004b6a:	e7d5      	b.n	8004b18 <HAL_TIM_IC_ConfigChannel+0x34>
 8004b6c:	2d08      	cmp	r5, #8
 8004b6e:	6a05      	ldr	r5, [r0, #32]
 8004b70:	d11c      	bne.n	8004bac <HAL_TIM_IC_ConfigChannel+0xc8>
 8004b72:	f425 7580 	bic.w	r5, r5, #256	; 0x100
 8004b76:	6205      	str	r5, [r0, #32]
 8004b78:	69c7      	ldr	r7, [r0, #28]
 8004b7a:	6a05      	ldr	r5, [r0, #32]
 8004b7c:	f027 0703 	bic.w	r7, r7, #3
 8004b80:	4317      	orrs	r7, r2
 8004b82:	011b      	lsls	r3, r3, #4
 8004b84:	0209      	lsls	r1, r1, #8
 8004b86:	b2db      	uxtb	r3, r3
 8004b88:	f027 07f0 	bic.w	r7, r7, #240	; 0xf0
 8004b8c:	f425 7500 	bic.w	r5, r5, #512	; 0x200
 8004b90:	f401 7100 	and.w	r1, r1, #512	; 0x200
 8004b94:	431f      	orrs	r7, r3
 8004b96:	4329      	orrs	r1, r5
 8004b98:	61c7      	str	r7, [r0, #28]
 8004b9a:	6201      	str	r1, [r0, #32]
 8004b9c:	69c3      	ldr	r3, [r0, #28]
 8004b9e:	f023 030c 	bic.w	r3, r3, #12
 8004ba2:	61c3      	str	r3, [r0, #28]
 8004ba4:	69c3      	ldr	r3, [r0, #28]
 8004ba6:	431e      	orrs	r6, r3
 8004ba8:	61c6      	str	r6, [r0, #28]
 8004baa:	e7b5      	b.n	8004b18 <HAL_TIM_IC_ConfigChannel+0x34>
 8004bac:	f425 5580 	bic.w	r5, r5, #4096	; 0x1000
 8004bb0:	6205      	str	r5, [r0, #32]
 8004bb2:	69c5      	ldr	r5, [r0, #28]
 8004bb4:	6a07      	ldr	r7, [r0, #32]
 8004bb6:	f425 7540 	bic.w	r5, r5, #768	; 0x300
 8004bba:	ea45 2502 	orr.w	r5, r5, r2, lsl #8
 8004bbe:	031b      	lsls	r3, r3, #12
 8004bc0:	0309      	lsls	r1, r1, #12
 8004bc2:	f425 4570 	bic.w	r5, r5, #61440	; 0xf000
 8004bc6:	b29b      	uxth	r3, r3
 8004bc8:	f427 5700 	bic.w	r7, r7, #8192	; 0x2000
 8004bcc:	f401 5100 	and.w	r1, r1, #8192	; 0x2000
 8004bd0:	432b      	orrs	r3, r5
 8004bd2:	4339      	orrs	r1, r7
 8004bd4:	61c3      	str	r3, [r0, #28]
 8004bd6:	6201      	str	r1, [r0, #32]
 8004bd8:	69c3      	ldr	r3, [r0, #28]
 8004bda:	f423 6340 	bic.w	r3, r3, #3072	; 0xc00
 8004bde:	61c3      	str	r3, [r0, #28]
 8004be0:	69c3      	ldr	r3, [r0, #28]
 8004be2:	ea43 2606 	orr.w	r6, r3, r6, lsl #8
 8004be6:	e7df      	b.n	8004ba8 <HAL_TIM_IC_ConfigChannel+0xc4>
 8004be8:	2002      	movs	r0, #2
 8004bea:	e798      	b.n	8004b1e <HAL_TIM_IC_ConfigChannel+0x3a>

08004bec <TIM_ETR_SetConfig>:
 8004bec:	b510      	push	{r4, lr}
 8004bee:	6884      	ldr	r4, [r0, #8]
 8004bf0:	430a      	orrs	r2, r1
 8004bf2:	f424 447f 	bic.w	r4, r4, #65280	; 0xff00
 8004bf6:	ea42 2203 	orr.w	r2, r2, r3, lsl #8
 8004bfa:	4322      	orrs	r2, r4
 8004bfc:	6082      	str	r2, [r0, #8]
 8004bfe:	bd10      	pop	{r4, pc}

08004c00 <HAL_TIM_ConfigClockSource>:
 8004c00:	b570      	push	{r4, r5, r6, lr}
 8004c02:	f890 303c 	ldrb.w	r3, [r0, #60]	; 0x3c
 8004c06:	4604      	mov	r4, r0
 8004c08:	2b01      	cmp	r3, #1
 8004c0a:	f04f 0002 	mov.w	r0, #2
 8004c0e:	d027      	beq.n	8004c60 <HAL_TIM_ConfigClockSource+0x60>
 8004c10:	2301      	movs	r3, #1
 8004c12:	f884 003d 	strb.w	r0, [r4, #61]	; 0x3d
 8004c16:	6820      	ldr	r0, [r4, #0]
 8004c18:	f884 303c 	strb.w	r3, [r4, #60]	; 0x3c
 8004c1c:	6883      	ldr	r3, [r0, #8]
 8004c1e:	f423 437f 	bic.w	r3, r3, #65280	; 0xff00
 8004c22:	f023 0377 	bic.w	r3, r3, #119	; 0x77
 8004c26:	6083      	str	r3, [r0, #8]
 8004c28:	680b      	ldr	r3, [r1, #0]
 8004c2a:	2b60      	cmp	r3, #96	; 0x60
 8004c2c:	d04d      	beq.n	8004cca <HAL_TIM_ConfigClockSource+0xca>
 8004c2e:	d832      	bhi.n	8004c96 <HAL_TIM_ConfigClockSource+0x96>
 8004c30:	2b40      	cmp	r3, #64	; 0x40
 8004c32:	d062      	beq.n	8004cfa <HAL_TIM_ConfigClockSource+0xfa>
 8004c34:	d815      	bhi.n	8004c62 <HAL_TIM_ConfigClockSource+0x62>
 8004c36:	2b20      	cmp	r3, #32
 8004c38:	d003      	beq.n	8004c42 <HAL_TIM_ConfigClockSource+0x42>
 8004c3a:	d809      	bhi.n	8004c50 <HAL_TIM_ConfigClockSource+0x50>
 8004c3c:	f033 0210 	bics.w	r2, r3, #16
 8004c40:	d108      	bne.n	8004c54 <HAL_TIM_ConfigClockSource+0x54>
 8004c42:	6882      	ldr	r2, [r0, #8]
 8004c44:	f022 0270 	bic.w	r2, r2, #112	; 0x70
 8004c48:	4313      	orrs	r3, r2
 8004c4a:	f043 0307 	orr.w	r3, r3, #7
 8004c4e:	e020      	b.n	8004c92 <HAL_TIM_ConfigClockSource+0x92>
 8004c50:	2b30      	cmp	r3, #48	; 0x30
 8004c52:	d0f6      	beq.n	8004c42 <HAL_TIM_ConfigClockSource+0x42>
 8004c54:	2301      	movs	r3, #1
 8004c56:	2000      	movs	r0, #0
 8004c58:	f884 303d 	strb.w	r3, [r4, #61]	; 0x3d
 8004c5c:	f884 003c 	strb.w	r0, [r4, #60]	; 0x3c
 8004c60:	bd70      	pop	{r4, r5, r6, pc}
 8004c62:	2b50      	cmp	r3, #80	; 0x50
 8004c64:	d1f6      	bne.n	8004c54 <HAL_TIM_ConfigClockSource+0x54>
 8004c66:	684a      	ldr	r2, [r1, #4]
 8004c68:	68ce      	ldr	r6, [r1, #12]
 8004c6a:	6a01      	ldr	r1, [r0, #32]
 8004c6c:	6a05      	ldr	r5, [r0, #32]
 8004c6e:	f021 010a 	bic.w	r1, r1, #10
 8004c72:	f025 0501 	bic.w	r5, r5, #1
 8004c76:	6205      	str	r5, [r0, #32]
 8004c78:	6983      	ldr	r3, [r0, #24]
 8004c7a:	430a      	orrs	r2, r1
 8004c7c:	f023 03f0 	bic.w	r3, r3, #240	; 0xf0
 8004c80:	ea43 1306 	orr.w	r3, r3, r6, lsl #4
 8004c84:	6183      	str	r3, [r0, #24]
 8004c86:	6202      	str	r2, [r0, #32]
 8004c88:	6883      	ldr	r3, [r0, #8]
 8004c8a:	f023 0370 	bic.w	r3, r3, #112	; 0x70
 8004c8e:	f043 0357 	orr.w	r3, r3, #87	; 0x57
 8004c92:	6083      	str	r3, [r0, #8]
 8004c94:	e7de      	b.n	8004c54 <HAL_TIM_ConfigClockSource+0x54>
 8004c96:	2b70      	cmp	r3, #112	; 0x70
 8004c98:	d00c      	beq.n	8004cb4 <HAL_TIM_ConfigClockSource+0xb4>
 8004c9a:	f5b3 5f00 	cmp.w	r3, #8192	; 0x2000
 8004c9e:	d1d9      	bne.n	8004c54 <HAL_TIM_ConfigClockSource+0x54>
 8004ca0:	68cb      	ldr	r3, [r1, #12]
 8004ca2:	e9d1 2101 	ldrd	r2, r1, [r1, #4]
 8004ca6:	f7ff ffa1 	bl	8004bec <TIM_ETR_SetConfig>
 8004caa:	6822      	ldr	r2, [r4, #0]
 8004cac:	6893      	ldr	r3, [r2, #8]
 8004cae:	f443 4380 	orr.w	r3, r3, #16384	; 0x4000
 8004cb2:	e008      	b.n	8004cc6 <HAL_TIM_ConfigClockSource+0xc6>
 8004cb4:	68cb      	ldr	r3, [r1, #12]
 8004cb6:	e9d1 2101 	ldrd	r2, r1, [r1, #4]
 8004cba:	f7ff ff97 	bl	8004bec <TIM_ETR_SetConfig>
 8004cbe:	6822      	ldr	r2, [r4, #0]
 8004cc0:	6893      	ldr	r3, [r2, #8]
 8004cc2:	f043 0377 	orr.w	r3, r3, #119	; 0x77
 8004cc6:	6093      	str	r3, [r2, #8]
 8004cc8:	e7c4      	b.n	8004c54 <HAL_TIM_ConfigClockSource+0x54>
 8004cca:	684d      	ldr	r5, [r1, #4]
 8004ccc:	68ce      	ldr	r6, [r1, #12]
 8004cce:	6a01      	ldr	r1, [r0, #32]
 8004cd0:	f021 0110 	bic.w	r1, r1, #16
 8004cd4:	6201      	str	r1, [r0, #32]
 8004cd6:	6982      	ldr	r2, [r0, #24]
 8004cd8:	6a03      	ldr	r3, [r0, #32]
 8004cda:	f422 4270 	bic.w	r2, r2, #61440	; 0xf000
 8004cde:	f023 03a0 	bic.w	r3, r3, #160	; 0xa0
 8004ce2:	ea43 1305 	orr.w	r3, r3, r5, lsl #4
 8004ce6:	ea42 3206 	orr.w	r2, r2, r6, lsl #12
 8004cea:	6182      	str	r2, [r0, #24]
 8004cec:	6203      	str	r3, [r0, #32]
 8004cee:	6883      	ldr	r3, [r0, #8]
 8004cf0:	f023 0370 	bic.w	r3, r3, #112	; 0x70
 8004cf4:	f043 0367 	orr.w	r3, r3, #103	; 0x67
 8004cf8:	e7cb      	b.n	8004c92 <HAL_TIM_ConfigClockSource+0x92>
 8004cfa:	684a      	ldr	r2, [r1, #4]
 8004cfc:	68ce      	ldr	r6, [r1, #12]
 8004cfe:	6a01      	ldr	r1, [r0, #32]
 8004d00:	6a05      	ldr	r5, [r0, #32]
 8004d02:	f021 010a 	bic.w	r1, r1, #10
 8004d06:	f025 0501 	bic.w	r5, r5, #1
 8004d0a:	6205      	str	r5, [r0, #32]
 8004d0c:	6983      	ldr	r3, [r0, #24]
 8004d0e:	430a      	orrs	r2, r1
 8004d10:	f023 03f0 	bic.w	r3, r3, #240	; 0xf0
 8004d14:	ea43 1306 	orr.w	r3, r3, r6, lsl #4
 8004d18:	6183      	str	r3, [r0, #24]
 8004d1a:	6202      	str	r2, [r0, #32]
 8004d1c:	6883      	ldr	r3, [r0, #8]
 8004d1e:	f023 0370 	bic.w	r3, r3, #112	; 0x70
 8004d22:	f043 0347 	orr.w	r3, r3, #71	; 0x47
 8004d26:	e7b4      	b.n	8004c92 <HAL_TIM_ConfigClockSource+0x92>

08004d28 <TIM_SlaveTimer_SetConfig>:
 8004d28:	6800      	ldr	r0, [r0, #0]
 8004d2a:	b538      	push	{r3, r4, r5, lr}
 8004d2c:	6883      	ldr	r3, [r0, #8]
 8004d2e:	684a      	ldr	r2, [r1, #4]
 8004d30:	f023 0370 	bic.w	r3, r3, #112	; 0x70
 8004d34:	680c      	ldr	r4, [r1, #0]
 8004d36:	4313      	orrs	r3, r2
 8004d38:	f023 0307 	bic.w	r3, r3, #7
 8004d3c:	4323      	orrs	r3, r4
 8004d3e:	2a60      	cmp	r2, #96	; 0x60
 8004d40:	6083      	str	r3, [r0, #8]
 8004d42:	d02e      	beq.n	8004da2 <TIM_SlaveTimer_SetConfig+0x7a>
 8004d44:	d805      	bhi.n	8004d52 <TIM_SlaveTimer_SetConfig+0x2a>
 8004d46:	2a40      	cmp	r2, #64	; 0x40
 8004d48:	d00b      	beq.n	8004d62 <TIM_SlaveTimer_SetConfig+0x3a>
 8004d4a:	2a50      	cmp	r2, #80	; 0x50
 8004d4c:	d019      	beq.n	8004d82 <TIM_SlaveTimer_SetConfig+0x5a>
 8004d4e:	2000      	movs	r0, #0
 8004d50:	bd38      	pop	{r3, r4, r5, pc}
 8004d52:	2a70      	cmp	r2, #112	; 0x70
 8004d54:	d1fb      	bne.n	8004d4e <TIM_SlaveTimer_SetConfig+0x26>
 8004d56:	690b      	ldr	r3, [r1, #16]
 8004d58:	e9d1 2102 	ldrd	r2, r1, [r1, #8]
 8004d5c:	f7ff ff46 	bl	8004bec <TIM_ETR_SetConfig>
 8004d60:	e7f5      	b.n	8004d4e <TIM_SlaveTimer_SetConfig+0x26>
 8004d62:	2c05      	cmp	r4, #5
 8004d64:	d030      	beq.n	8004dc8 <TIM_SlaveTimer_SetConfig+0xa0>
 8004d66:	6a02      	ldr	r2, [r0, #32]
 8004d68:	6a03      	ldr	r3, [r0, #32]
 8004d6a:	6909      	ldr	r1, [r1, #16]
 8004d6c:	f023 0301 	bic.w	r3, r3, #1
 8004d70:	6203      	str	r3, [r0, #32]
 8004d72:	6983      	ldr	r3, [r0, #24]
 8004d74:	f023 03f0 	bic.w	r3, r3, #240	; 0xf0
 8004d78:	ea43 1301 	orr.w	r3, r3, r1, lsl #4
 8004d7c:	6183      	str	r3, [r0, #24]
 8004d7e:	6202      	str	r2, [r0, #32]
 8004d80:	e7e5      	b.n	8004d4e <TIM_SlaveTimer_SetConfig+0x26>
 8004d82:	688a      	ldr	r2, [r1, #8]
 8004d84:	690d      	ldr	r5, [r1, #16]
 8004d86:	6a01      	ldr	r1, [r0, #32]
 8004d88:	6a04      	ldr	r4, [r0, #32]
 8004d8a:	f021 010a 	bic.w	r1, r1, #10
 8004d8e:	f024 0401 	bic.w	r4, r4, #1
 8004d92:	6204      	str	r4, [r0, #32]
 8004d94:	6983      	ldr	r3, [r0, #24]
 8004d96:	430a      	orrs	r2, r1
 8004d98:	f023 03f0 	bic.w	r3, r3, #240	; 0xf0
 8004d9c:	ea43 1305 	orr.w	r3, r3, r5, lsl #4
 8004da0:	e7ec      	b.n	8004d7c <TIM_SlaveTimer_SetConfig+0x54>
 8004da2:	688c      	ldr	r4, [r1, #8]
 8004da4:	690d      	ldr	r5, [r1, #16]
 8004da6:	6a01      	ldr	r1, [r0, #32]
 8004da8:	f021 0110 	bic.w	r1, r1, #16
 8004dac:	6201      	str	r1, [r0, #32]
 8004dae:	6982      	ldr	r2, [r0, #24]
 8004db0:	6a03      	ldr	r3, [r0, #32]
 8004db2:	f422 4270 	bic.w	r2, r2, #61440	; 0xf000
 8004db6:	f023 03a0 	bic.w	r3, r3, #160	; 0xa0
 8004dba:	ea42 3205 	orr.w	r2, r2, r5, lsl #12
 8004dbe:	ea43 1304 	orr.w	r3, r3, r4, lsl #4
 8004dc2:	6182      	str	r2, [r0, #24]
 8004dc4:	6203      	str	r3, [r0, #32]
 8004dc6:	e7c2      	b.n	8004d4e <TIM_SlaveTimer_SetConfig+0x26>
 8004dc8:	2001      	movs	r0, #1
 8004dca:	e7c1      	b.n	8004d50 <TIM_SlaveTimer_SetConfig+0x28>

08004dcc <HAL_TIM_SlaveConfigSynchro>:
 8004dcc:	b538      	push	{r3, r4, r5, lr}
 8004dce:	f890 303c 	ldrb.w	r3, [r0, #60]	; 0x3c
 8004dd2:	4604      	mov	r4, r0
 8004dd4:	2b01      	cmp	r3, #1
 8004dd6:	f04f 0302 	mov.w	r3, #2
 8004dda:	d01c      	beq.n	8004e16 <HAL_TIM_SlaveConfigSynchro+0x4a>
 8004ddc:	2501      	movs	r5, #1
 8004dde:	f880 303d 	strb.w	r3, [r0, #61]	; 0x3d
 8004de2:	f880 503c 	strb.w	r5, [r0, #60]	; 0x3c
 8004de6:	f7ff ff9f 	bl	8004d28 <TIM_SlaveTimer_SetConfig>
 8004dea:	b130      	cbz	r0, 8004dfa <HAL_TIM_SlaveConfigSynchro+0x2e>
 8004dec:	2300      	movs	r3, #0
 8004dee:	4628      	mov	r0, r5
 8004df0:	f884 503d 	strb.w	r5, [r4, #61]	; 0x3d
 8004df4:	f884 303c 	strb.w	r3, [r4, #60]	; 0x3c
 8004df8:	bd38      	pop	{r3, r4, r5, pc}
 8004dfa:	6823      	ldr	r3, [r4, #0]
 8004dfc:	68da      	ldr	r2, [r3, #12]
 8004dfe:	f022 0240 	bic.w	r2, r2, #64	; 0x40
 8004e02:	60da      	str	r2, [r3, #12]
 8004e04:	68da      	ldr	r2, [r3, #12]
 8004e06:	f422 4280 	bic.w	r2, r2, #16384	; 0x4000
 8004e0a:	60da      	str	r2, [r3, #12]
 8004e0c:	f884 503d 	strb.w	r5, [r4, #61]	; 0x3d
 8004e10:	f884 003c 	strb.w	r0, [r4, #60]	; 0x3c
 8004e14:	e7f0      	b.n	8004df8 <HAL_TIM_SlaveConfigSynchro+0x2c>
 8004e16:	4618      	mov	r0, r3
 8004e18:	e7ee      	b.n	8004df8 <HAL_TIM_SlaveConfigSynchro+0x2c>

08004e1a <TIM_CCxChannelCmd>:
 8004e1a:	b510      	push	{r4, lr}
 8004e1c:	2401      	movs	r4, #1
 8004e1e:	6a03      	ldr	r3, [r0, #32]
 8004e20:	f001 011f 	and.w	r1, r1, #31
 8004e24:	408c      	lsls	r4, r1
 8004e26:	ea23 0304 	bic.w	r3, r3, r4
 8004e2a:	6203      	str	r3, [r0, #32]
 8004e2c:	6a03      	ldr	r3, [r0, #32]
 8004e2e:	408a      	lsls	r2, r1
 8004e30:	431a      	orrs	r2, r3
 8004e32:	6202      	str	r2, [r0, #32]
 8004e34:	bd10      	pop	{r4, pc}
	...

08004e38 <HAL_TIM_OC_Start>:
 8004e38:	b510      	push	{r4, lr}
 8004e3a:	4604      	mov	r4, r0
 8004e3c:	b929      	cbnz	r1, 8004e4a <HAL_TIM_OC_Start+0x12>
 8004e3e:	f890 303e 	ldrb.w	r3, [r0, #62]	; 0x3e
 8004e42:	2b01      	cmp	r3, #1
 8004e44:	d01d      	beq.n	8004e82 <HAL_TIM_OC_Start+0x4a>
 8004e46:	2001      	movs	r0, #1
 8004e48:	bd10      	pop	{r4, pc}
 8004e4a:	2904      	cmp	r1, #4
 8004e4c:	d107      	bne.n	8004e5e <HAL_TIM_OC_Start+0x26>
 8004e4e:	f890 303f 	ldrb.w	r3, [r0, #63]	; 0x3f
 8004e52:	2b01      	cmp	r3, #1
 8004e54:	d1f7      	bne.n	8004e46 <HAL_TIM_OC_Start+0xe>
 8004e56:	2302      	movs	r3, #2
 8004e58:	f880 303f 	strb.w	r3, [r0, #63]	; 0x3f
 8004e5c:	e014      	b.n	8004e88 <HAL_TIM_OC_Start+0x50>
 8004e5e:	2908      	cmp	r1, #8
 8004e60:	d107      	bne.n	8004e72 <HAL_TIM_OC_Start+0x3a>
 8004e62:	f890 3040 	ldrb.w	r3, [r0, #64]	; 0x40
 8004e66:	2b01      	cmp	r3, #1
 8004e68:	d1ed      	bne.n	8004e46 <HAL_TIM_OC_Start+0xe>
 8004e6a:	2302      	movs	r3, #2
 8004e6c:	f880 3040 	strb.w	r3, [r0, #64]	; 0x40
 8004e70:	e00a      	b.n	8004e88 <HAL_TIM_OC_Start+0x50>
 8004e72:	f890 3041 	ldrb.w	r3, [r0, #65]	; 0x41
 8004e76:	2b01      	cmp	r3, #1
 8004e78:	d1e5      	bne.n	8004e46 <HAL_TIM_OC_Start+0xe>
 8004e7a:	2302      	movs	r3, #2
 8004e7c:	f880 3041 	strb.w	r3, [r0, #65]	; 0x41
 8004e80:	e002      	b.n	8004e88 <HAL_TIM_OC_Start+0x50>
 8004e82:	2302      	movs	r3, #2
 8004e84:	f880 303e 	strb.w	r3, [r0, #62]	; 0x3e
 8004e88:	2201      	movs	r2, #1
 8004e8a:	6820      	ldr	r0, [r4, #0]
 8004e8c:	f7ff ffc5 	bl	8004e1a <TIM_CCxChannelCmd>
 8004e90:	6823      	ldr	r3, [r4, #0]
 8004e92:	4a0e      	ldr	r2, [pc, #56]	; (8004ecc <HAL_TIM_OC_Start+0x94>)
 8004e94:	4293      	cmp	r3, r2
 8004e96:	d10a      	bne.n	8004eae <HAL_TIM_OC_Start+0x76>
 8004e98:	6c5a      	ldr	r2, [r3, #68]	; 0x44
 8004e9a:	f442 4200 	orr.w	r2, r2, #32768	; 0x8000
 8004e9e:	645a      	str	r2, [r3, #68]	; 0x44
 8004ea0:	689a      	ldr	r2, [r3, #8]
 8004ea2:	f002 0207 	and.w	r2, r2, #7
 8004ea6:	2a06      	cmp	r2, #6
 8004ea8:	d10b      	bne.n	8004ec2 <HAL_TIM_OC_Start+0x8a>
 8004eaa:	2000      	movs	r0, #0
 8004eac:	e7cc      	b.n	8004e48 <HAL_TIM_OC_Start+0x10>
 8004eae:	f1b3 4f80 	cmp.w	r3, #1073741824	; 0x40000000
 8004eb2:	d0f5      	beq.n	8004ea0 <HAL_TIM_OC_Start+0x68>
 8004eb4:	4a06      	ldr	r2, [pc, #24]	; (8004ed0 <HAL_TIM_OC_Start+0x98>)
 8004eb6:	4293      	cmp	r3, r2
 8004eb8:	d0f2      	beq.n	8004ea0 <HAL_TIM_OC_Start+0x68>
 8004eba:	f502 6280 	add.w	r2, r2, #1024	; 0x400
 8004ebe:	4293      	cmp	r3, r2
 8004ec0:	d0ee      	beq.n	8004ea0 <HAL_TIM_OC_Start+0x68>
 8004ec2:	681a      	ldr	r2, [r3, #0]
 8004ec4:	f042 0201 	orr.w	r2, r2, #1
 8004ec8:	601a      	str	r2, [r3, #0]
 8004eca:	e7ee      	b.n	8004eaa <HAL_TIM_OC_Start+0x72>
 8004ecc:	40012c00 	.word	0x40012c00
 8004ed0:	40000400 	.word	0x40000400

08004ed4 <HAL_TIM_OC_Stop>:
 8004ed4:	b538      	push	{r3, r4, r5, lr}
 8004ed6:	4604      	mov	r4, r0
 8004ed8:	2200      	movs	r2, #0
 8004eda:	6800      	ldr	r0, [r0, #0]
 8004edc:	460d      	mov	r5, r1
 8004ede:	f7ff ff9c 	bl	8004e1a <TIM_CCxChannelCmd>
 8004ee2:	6823      	ldr	r3, [r4, #0]
 8004ee4:	4a18      	ldr	r2, [pc, #96]	; (8004f48 <HAL_TIM_OC_Stop+0x74>)
 8004ee6:	4293      	cmp	r3, r2
 8004ee8:	d10d      	bne.n	8004f06 <HAL_TIM_OC_Stop+0x32>
 8004eea:	f241 1211 	movw	r2, #4369	; 0x1111
 8004eee:	6a19      	ldr	r1, [r3, #32]
 8004ef0:	4211      	tst	r1, r2
 8004ef2:	d108      	bne.n	8004f06 <HAL_TIM_OC_Stop+0x32>
 8004ef4:	f240 4244 	movw	r2, #1092	; 0x444
 8004ef8:	6a19      	ldr	r1, [r3, #32]
 8004efa:	4211      	tst	r1, r2
 8004efc:	bf02      	ittt	eq
 8004efe:	6c5a      	ldreq	r2, [r3, #68]	; 0x44
 8004f00:	f422 4200 	biceq.w	r2, r2, #32768	; 0x8000
 8004f04:	645a      	streq	r2, [r3, #68]	; 0x44
 8004f06:	f241 1211 	movw	r2, #4369	; 0x1111
 8004f0a:	6a19      	ldr	r1, [r3, #32]
 8004f0c:	4211      	tst	r1, r2
 8004f0e:	d108      	bne.n	8004f22 <HAL_TIM_OC_Stop+0x4e>
 8004f10:	f240 4244 	movw	r2, #1092	; 0x444
 8004f14:	6a19      	ldr	r1, [r3, #32]
 8004f16:	4211      	tst	r1, r2
 8004f18:	bf02      	ittt	eq
 8004f1a:	681a      	ldreq	r2, [r3, #0]
 8004f1c:	f022 0201 	biceq.w	r2, r2, #1
 8004f20:	601a      	streq	r2, [r3, #0]
 8004f22:	2301      	movs	r3, #1
 8004f24:	b91d      	cbnz	r5, 8004f2e <HAL_TIM_OC_Stop+0x5a>
 8004f26:	f884 303e 	strb.w	r3, [r4, #62]	; 0x3e
 8004f2a:	2000      	movs	r0, #0
 8004f2c:	bd38      	pop	{r3, r4, r5, pc}
 8004f2e:	2d04      	cmp	r5, #4
 8004f30:	d102      	bne.n	8004f38 <HAL_TIM_OC_Stop+0x64>
 8004f32:	f884 303f 	strb.w	r3, [r4, #63]	; 0x3f
 8004f36:	e7f8      	b.n	8004f2a <HAL_TIM_OC_Stop+0x56>
 8004f38:	2d08      	cmp	r5, #8
 8004f3a:	bf0c      	ite	eq
 8004f3c:	f884 3040 	strbeq.w	r3, [r4, #64]	; 0x40
 8004f40:	f884 3041 	strbne.w	r3, [r4, #65]	; 0x41
 8004f44:	e7f1      	b.n	8004f2a <HAL_TIM_OC_Stop+0x56>
 8004f46:	bf00      	nop
 8004f48:	40012c00 	.word	0x40012c00

08004f4c <HAL_TIM_IC_Start_DMA>:
 8004f4c:	e92d 41f0 	stmdb	sp!, {r4, r5, r6, r7, r8, lr}
 8004f50:	4604      	mov	r4, r0
 8004f52:	4616      	mov	r6, r2
 8004f54:	461f      	mov	r7, r3
 8004f56:	4688      	mov	r8, r1
 8004f58:	b979      	cbnz	r1, 8004f7a <HAL_TIM_IC_Start_DMA+0x2e>
 8004f5a:	f890 003e 	ldrb.w	r0, [r0, #62]	; 0x3e
 8004f5e:	f894 5042 	ldrb.w	r5, [r4, #66]	; 0x42
 8004f62:	b2c0      	uxtb	r0, r0
 8004f64:	2802      	cmp	r0, #2
 8004f66:	b2ed      	uxtb	r5, r5
 8004f68:	d005      	beq.n	8004f76 <HAL_TIM_IC_Start_DMA+0x2a>
 8004f6a:	2d02      	cmp	r5, #2
 8004f6c:	f000 80b8 	beq.w	80050e0 <HAL_TIM_IC_Start_DMA+0x194>
 8004f70:	2801      	cmp	r0, #1
 8004f72:	d018      	beq.n	8004fa6 <HAL_TIM_IC_Start_DMA+0x5a>
 8004f74:	2001      	movs	r0, #1
 8004f76:	e8bd 81f0 	ldmia.w	sp!, {r4, r5, r6, r7, r8, pc}
 8004f7a:	2904      	cmp	r1, #4
 8004f7c:	d105      	bne.n	8004f8a <HAL_TIM_IC_Start_DMA+0x3e>
 8004f7e:	f890 003f 	ldrb.w	r0, [r0, #63]	; 0x3f
 8004f82:	f894 5043 	ldrb.w	r5, [r4, #67]	; 0x43
 8004f86:	b2c0      	uxtb	r0, r0
 8004f88:	e7ec      	b.n	8004f64 <HAL_TIM_IC_Start_DMA+0x18>
 8004f8a:	2908      	cmp	r1, #8
 8004f8c:	bf0b      	itete	eq
 8004f8e:	f890 0040 	ldrbeq.w	r0, [r0, #64]	; 0x40
 8004f92:	f894 0041 	ldrbne.w	r0, [r4, #65]	; 0x41
 8004f96:	f894 5044 	ldrbeq.w	r5, [r4, #68]	; 0x44
 8004f9a:	f894 5045 	ldrbne.w	r5, [r4, #69]	; 0x45
 8004f9e:	bf0c      	ite	eq
 8004fa0:	b2c0      	uxtbeq	r0, r0
 8004fa2:	b2c0      	uxtbne	r0, r0
 8004fa4:	e7de      	b.n	8004f64 <HAL_TIM_IC_Start_DMA+0x18>
 8004fa6:	2d01      	cmp	r5, #1
 8004fa8:	d1e4      	bne.n	8004f74 <HAL_TIM_IC_Start_DMA+0x28>
 8004faa:	b90e      	cbnz	r6, 8004fb0 <HAL_TIM_IC_Start_DMA+0x64>
 8004fac:	2f00      	cmp	r7, #0
 8004fae:	d1e1      	bne.n	8004f74 <HAL_TIM_IC_Start_DMA+0x28>
 8004fb0:	2302      	movs	r3, #2
 8004fb2:	f1b8 0f00 	cmp.w	r8, #0
 8004fb6:	d12c      	bne.n	8005012 <HAL_TIM_IC_Start_DMA+0xc6>
 8004fb8:	f884 303e 	strb.w	r3, [r4, #62]	; 0x3e
 8004fbc:	f884 3042 	strb.w	r3, [r4, #66]	; 0x42
 8004fc0:	4641      	mov	r1, r8
 8004fc2:	2201      	movs	r2, #1
 8004fc4:	6820      	ldr	r0, [r4, #0]
 8004fc6:	f7ff ff28 	bl	8004e1a <TIM_CCxChannelCmd>
 8004fca:	6821      	ldr	r1, [r4, #0]
 8004fcc:	4b45      	ldr	r3, [pc, #276]	; (80050e4 <HAL_TIM_IC_Start_DMA+0x198>)
 8004fce:	4299      	cmp	r1, r3
 8004fd0:	d00a      	beq.n	8004fe8 <HAL_TIM_IC_Start_DMA+0x9c>
 8004fd2:	f1b1 4f80 	cmp.w	r1, #1073741824	; 0x40000000
 8004fd6:	d007      	beq.n	8004fe8 <HAL_TIM_IC_Start_DMA+0x9c>
 8004fd8:	f5a3 3394 	sub.w	r3, r3, #75776	; 0x12800
 8004fdc:	4299      	cmp	r1, r3
 8004fde:	d003      	beq.n	8004fe8 <HAL_TIM_IC_Start_DMA+0x9c>
 8004fe0:	f503 6380 	add.w	r3, r3, #1024	; 0x400
 8004fe4:	4299      	cmp	r1, r3
 8004fe6:	d104      	bne.n	8004ff2 <HAL_TIM_IC_Start_DMA+0xa6>
 8004fe8:	688b      	ldr	r3, [r1, #8]
 8004fea:	f003 0307 	and.w	r3, r3, #7
 8004fee:	2b06      	cmp	r3, #6
 8004ff0:	d003      	beq.n	8004ffa <HAL_TIM_IC_Start_DMA+0xae>
 8004ff2:	680b      	ldr	r3, [r1, #0]
 8004ff4:	f043 0301 	orr.w	r3, r3, #1
 8004ff8:	600b      	str	r3, [r1, #0]
 8004ffa:	f1b8 0f08 	cmp.w	r8, #8
 8004ffe:	d05b      	beq.n	80050b8 <HAL_TIM_IC_Start_DMA+0x16c>
 8005000:	d81b      	bhi.n	800503a <HAL_TIM_IC_Start_DMA+0xee>
 8005002:	f1b8 0f00 	cmp.w	r8, #0
 8005006:	d02e      	beq.n	8005066 <HAL_TIM_IC_Start_DMA+0x11a>
 8005008:	f1b8 0f04 	cmp.w	r8, #4
 800500c:	d040      	beq.n	8005090 <HAL_TIM_IC_Start_DMA+0x144>
 800500e:	2000      	movs	r0, #0
 8005010:	e7b1      	b.n	8004f76 <HAL_TIM_IC_Start_DMA+0x2a>
 8005012:	f1b8 0f04 	cmp.w	r8, #4
 8005016:	d104      	bne.n	8005022 <HAL_TIM_IC_Start_DMA+0xd6>
 8005018:	f884 303f 	strb.w	r3, [r4, #63]	; 0x3f
 800501c:	f884 3043 	strb.w	r3, [r4, #67]	; 0x43
 8005020:	e7ce      	b.n	8004fc0 <HAL_TIM_IC_Start_DMA+0x74>
 8005022:	f1b8 0f08 	cmp.w	r8, #8
 8005026:	bf0b      	itete	eq
 8005028:	f884 3040 	strbeq.w	r3, [r4, #64]	; 0x40
 800502c:	f884 3041 	strbne.w	r3, [r4, #65]	; 0x41
 8005030:	f884 3044 	strbeq.w	r3, [r4, #68]	; 0x44
 8005034:	f884 3045 	strbne.w	r3, [r4, #69]	; 0x45
 8005038:	e7c2      	b.n	8004fc0 <HAL_TIM_IC_Start_DMA+0x74>
 800503a:	f1b8 0f0c 	cmp.w	r8, #12
 800503e:	d1e6      	bne.n	800500e <HAL_TIM_IC_Start_DMA+0xc2>
 8005040:	6b20      	ldr	r0, [r4, #48]	; 0x30
 8005042:	4b29      	ldr	r3, [pc, #164]	; (80050e8 <HAL_TIM_IC_Start_DMA+0x19c>)
 8005044:	4632      	mov	r2, r6
 8005046:	6283      	str	r3, [r0, #40]	; 0x28
 8005048:	4b28      	ldr	r3, [pc, #160]	; (80050ec <HAL_TIM_IC_Start_DMA+0x1a0>)
 800504a:	3140      	adds	r1, #64	; 0x40
 800504c:	62c3      	str	r3, [r0, #44]	; 0x2c
 800504e:	4b28      	ldr	r3, [pc, #160]	; (80050f0 <HAL_TIM_IC_Start_DMA+0x1a4>)
 8005050:	6303      	str	r3, [r0, #48]	; 0x30
 8005052:	463b      	mov	r3, r7
 8005054:	f7fe f9c4 	bl	80033e0 <HAL_DMA_Start_IT>
 8005058:	2800      	cmp	r0, #0
 800505a:	d18b      	bne.n	8004f74 <HAL_TIM_IC_Start_DMA+0x28>
 800505c:	6822      	ldr	r2, [r4, #0]
 800505e:	68d3      	ldr	r3, [r2, #12]
 8005060:	f443 5380 	orr.w	r3, r3, #4096	; 0x1000
 8005064:	e012      	b.n	800508c <HAL_TIM_IC_Start_DMA+0x140>
 8005066:	6a60      	ldr	r0, [r4, #36]	; 0x24
 8005068:	4b1f      	ldr	r3, [pc, #124]	; (80050e8 <HAL_TIM_IC_Start_DMA+0x19c>)
 800506a:	4632      	mov	r2, r6
 800506c:	6283      	str	r3, [r0, #40]	; 0x28
 800506e:	4b1f      	ldr	r3, [pc, #124]	; (80050ec <HAL_TIM_IC_Start_DMA+0x1a0>)
 8005070:	3134      	adds	r1, #52	; 0x34
 8005072:	62c3      	str	r3, [r0, #44]	; 0x2c
 8005074:	4b1e      	ldr	r3, [pc, #120]	; (80050f0 <HAL_TIM_IC_Start_DMA+0x1a4>)
 8005076:	6303      	str	r3, [r0, #48]	; 0x30
 8005078:	463b      	mov	r3, r7
 800507a:	f7fe f9b1 	bl	80033e0 <HAL_DMA_Start_IT>
 800507e:	2800      	cmp	r0, #0
 8005080:	f47f af78 	bne.w	8004f74 <HAL_TIM_IC_Start_DMA+0x28>
 8005084:	6822      	ldr	r2, [r4, #0]
 8005086:	68d3      	ldr	r3, [r2, #12]
 8005088:	f443 7300 	orr.w	r3, r3, #512	; 0x200
 800508c:	60d3      	str	r3, [r2, #12]
 800508e:	e772      	b.n	8004f76 <HAL_TIM_IC_Start_DMA+0x2a>
 8005090:	6aa0      	ldr	r0, [r4, #40]	; 0x28
 8005092:	4b15      	ldr	r3, [pc, #84]	; (80050e8 <HAL_TIM_IC_Start_DMA+0x19c>)
 8005094:	4632      	mov	r2, r6
 8005096:	6283      	str	r3, [r0, #40]	; 0x28
 8005098:	4b14      	ldr	r3, [pc, #80]	; (80050ec <HAL_TIM_IC_Start_DMA+0x1a0>)
 800509a:	3138      	adds	r1, #56	; 0x38
 800509c:	62c3      	str	r3, [r0, #44]	; 0x2c
 800509e:	4b14      	ldr	r3, [pc, #80]	; (80050f0 <HAL_TIM_IC_Start_DMA+0x1a4>)
 80050a0:	6303      	str	r3, [r0, #48]	; 0x30
 80050a2:	463b      	mov	r3, r7
 80050a4:	f7fe f99c 	bl	80033e0 <HAL_DMA_Start_IT>
 80050a8:	2800      	cmp	r0, #0
 80050aa:	f47f af63 	bne.w	8004f74 <HAL_TIM_IC_Start_DMA+0x28>
 80050ae:	6822      	ldr	r2, [r4, #0]
 80050b0:	68d3      	ldr	r3, [r2, #12]
 80050b2:	f443 6380 	orr.w	r3, r3, #1024	; 0x400
 80050b6:	e7e9      	b.n	800508c <HAL_TIM_IC_Start_DMA+0x140>
 80050b8:	6ae0      	ldr	r0, [r4, #44]	; 0x2c
 80050ba:	4b0b      	ldr	r3, [pc, #44]	; (80050e8 <HAL_TIM_IC_Start_DMA+0x19c>)
 80050bc:	4632      	mov	r2, r6
 80050be:	6283      	str	r3, [r0, #40]	; 0x28
 80050c0:	4b0a      	ldr	r3, [pc, #40]	; (80050ec <HAL_TIM_IC_Start_DMA+0x1a0>)
 80050c2:	313c      	adds	r1, #60	; 0x3c
 80050c4:	62c3      	str	r3, [r0, #44]	; 0x2c
 80050c6:	4b0a      	ldr	r3, [pc, #40]	; (80050f0 <HAL_TIM_IC_Start_DMA+0x1a4>)
 80050c8:	6303      	str	r3, [r0, #48]	; 0x30
 80050ca:	463b      	mov	r3, r7
 80050cc:	f7fe f988 	bl	80033e0 <HAL_DMA_Start_IT>
 80050d0:	2800      	cmp	r0, #0
 80050d2:	f47f af4f 	bne.w	8004f74 <HAL_TIM_IC_Start_DMA+0x28>
 80050d6:	6822      	ldr	r2, [r4, #0]
 80050d8:	68d3      	ldr	r3, [r2, #12]
 80050da:	f443 6300 	orr.w	r3, r3, #2048	; 0x800
 80050de:	e7d5      	b.n	800508c <HAL_TIM_IC_Start_DMA+0x140>
 80050e0:	4628      	mov	r0, r5
 80050e2:	e748      	b.n	8004f76 <HAL_TIM_IC_Start_DMA+0x2a>
 80050e4:	40012c00 	.word	0x40012c00
 80050e8:	080045bd 	.word	0x080045bd
 80050ec:	08004639 	.word	0x08004639
 80050f0:	080047bb 	.word	0x080047bb

080050f4 <HAL_TIM_IC_Stop_DMA>:
 80050f4:	b538      	push	{r3, r4, r5, lr}
 80050f6:	460d      	mov	r5, r1
 80050f8:	4604      	mov	r4, r0
 80050fa:	2200      	movs	r2, #0
 80050fc:	6800      	ldr	r0, [r0, #0]
 80050fe:	f7ff fe8c 	bl	8004e1a <TIM_CCxChannelCmd>
 8005102:	2d08      	cmp	r5, #8
 8005104:	6823      	ldr	r3, [r4, #0]
 8005106:	d030      	beq.n	800516a <HAL_TIM_IC_Stop_DMA+0x76>
 8005108:	d819      	bhi.n	800513e <HAL_TIM_IC_Stop_DMA+0x4a>
 800510a:	b305      	cbz	r5, 800514e <HAL_TIM_IC_Stop_DMA+0x5a>
 800510c:	2d04      	cmp	r5, #4
 800510e:	d026      	beq.n	800515e <HAL_TIM_IC_Stop_DMA+0x6a>
 8005110:	f241 1211 	movw	r2, #4369	; 0x1111
 8005114:	6823      	ldr	r3, [r4, #0]
 8005116:	6a19      	ldr	r1, [r3, #32]
 8005118:	4211      	tst	r1, r2
 800511a:	d108      	bne.n	800512e <HAL_TIM_IC_Stop_DMA+0x3a>
 800511c:	f240 4244 	movw	r2, #1092	; 0x444
 8005120:	6a19      	ldr	r1, [r3, #32]
 8005122:	4211      	tst	r1, r2
 8005124:	bf02      	ittt	eq
 8005126:	681a      	ldreq	r2, [r3, #0]
 8005128:	f022 0201 	biceq.w	r2, r2, #1
 800512c:	601a      	streq	r2, [r3, #0]
 800512e:	2301      	movs	r3, #1
 8005130:	bb0d      	cbnz	r5, 8005176 <HAL_TIM_IC_Stop_DMA+0x82>
 8005132:	f884 303e 	strb.w	r3, [r4, #62]	; 0x3e
 8005136:	f884 3042 	strb.w	r3, [r4, #66]	; 0x42
 800513a:	2000      	movs	r0, #0
 800513c:	bd38      	pop	{r3, r4, r5, pc}
 800513e:	2d0c      	cmp	r5, #12
 8005140:	d1e6      	bne.n	8005110 <HAL_TIM_IC_Stop_DMA+0x1c>
 8005142:	68da      	ldr	r2, [r3, #12]
 8005144:	6b20      	ldr	r0, [r4, #48]	; 0x30
 8005146:	f422 5280 	bic.w	r2, r2, #4096	; 0x1000
 800514a:	60da      	str	r2, [r3, #12]
 800514c:	e004      	b.n	8005158 <HAL_TIM_IC_Stop_DMA+0x64>
 800514e:	68da      	ldr	r2, [r3, #12]
 8005150:	6a60      	ldr	r0, [r4, #36]	; 0x24
 8005152:	f422 7200 	bic.w	r2, r2, #512	; 0x200
 8005156:	60da      	str	r2, [r3, #12]
 8005158:	f7fe f97e 	bl	8003458 <HAL_DMA_Abort_IT>
 800515c:	e7d8      	b.n	8005110 <HAL_TIM_IC_Stop_DMA+0x1c>
 800515e:	68da      	ldr	r2, [r3, #12]
 8005160:	6aa0      	ldr	r0, [r4, #40]	; 0x28
 8005162:	f422 6280 	bic.w	r2, r2, #1024	; 0x400
 8005166:	60da      	str	r2, [r3, #12]
 8005168:	e7f6      	b.n	8005158 <HAL_TIM_IC_Stop_DMA+0x64>
 800516a:	68da      	ldr	r2, [r3, #12]
 800516c:	6ae0      	ldr	r0, [r4, #44]	; 0x2c
 800516e:	f422 6200 	bic.w	r2, r2, #2048	; 0x800
 8005172:	60da      	str	r2, [r3, #12]
 8005174:	e7f0      	b.n	8005158 <HAL_TIM_IC_Stop_DMA+0x64>
 8005176:	2d04      	cmp	r5, #4
 8005178:	d104      	bne.n	8005184 <HAL_TIM_IC_Stop_DMA+0x90>
 800517a:	f884 303f 	strb.w	r3, [r4, #63]	; 0x3f
 800517e:	f884 3043 	strb.w	r3, [r4, #67]	; 0x43
 8005182:	e7da      	b.n	800513a <HAL_TIM_IC_Stop_DMA+0x46>
 8005184:	2d08      	cmp	r5, #8
 8005186:	bf0b      	itete	eq
 8005188:	f884 3040 	strbeq.w	r3, [r4, #64]	; 0x40
 800518c:	f884 3041 	strbne.w	r3, [r4, #65]	; 0x41
 8005190:	f884 3044 	strbeq.w	r3, [r4, #68]	; 0x44
 8005194:	f884 3045 	strbne.w	r3, [r4, #69]	; 0x45
 8005198:	e7cf      	b.n	800513a <HAL_TIM_IC_Stop_DMA+0x46>
	...

0800519c <HAL_TIMEx_MasterConfigSynchronization>:
 800519c:	b530      	push	{r4, r5, lr}
 800519e:	f890 303c 	ldrb.w	r3, [r0, #60]	; 0x3c
 80051a2:	4602      	mov	r2, r0
 80051a4:	2b01      	cmp	r3, #1
 80051a6:	f04f 0002 	mov.w	r0, #2
 80051aa:	d022      	beq.n	80051f2 <HAL_TIMEx_MasterConfigSynchronization+0x56>
 80051ac:	6813      	ldr	r3, [r2, #0]
 80051ae:	f882 003d 	strb.w	r0, [r2, #61]	; 0x3d
 80051b2:	685c      	ldr	r4, [r3, #4]
 80051b4:	680d      	ldr	r5, [r1, #0]
 80051b6:	f024 0470 	bic.w	r4, r4, #112	; 0x70
 80051ba:	432c      	orrs	r4, r5
 80051bc:	6898      	ldr	r0, [r3, #8]
 80051be:	605c      	str	r4, [r3, #4]
 80051c0:	4c0c      	ldr	r4, [pc, #48]	; (80051f4 <HAL_TIMEx_MasterConfigSynchronization+0x58>)
 80051c2:	42a3      	cmp	r3, r4
 80051c4:	d00a      	beq.n	80051dc <HAL_TIMEx_MasterConfigSynchronization+0x40>
 80051c6:	f1b3 4f80 	cmp.w	r3, #1073741824	; 0x40000000
 80051ca:	d007      	beq.n	80051dc <HAL_TIMEx_MasterConfigSynchronization+0x40>
 80051cc:	f5a4 3494 	sub.w	r4, r4, #75776	; 0x12800
 80051d0:	42a3      	cmp	r3, r4
 80051d2:	d003      	beq.n	80051dc <HAL_TIMEx_MasterConfigSynchronization+0x40>
 80051d4:	f504 6480 	add.w	r4, r4, #1024	; 0x400
 80051d8:	42a3      	cmp	r3, r4
 80051da:	d104      	bne.n	80051e6 <HAL_TIMEx_MasterConfigSynchronization+0x4a>
 80051dc:	6849      	ldr	r1, [r1, #4]
 80051de:	f020 0080 	bic.w	r0, r0, #128	; 0x80
 80051e2:	4301      	orrs	r1, r0
 80051e4:	6099      	str	r1, [r3, #8]
 80051e6:	2301      	movs	r3, #1
 80051e8:	2000      	movs	r0, #0
 80051ea:	f882 303d 	strb.w	r3, [r2, #61]	; 0x3d
 80051ee:	f882 003c 	strb.w	r0, [r2, #60]	; 0x3c
 80051f2:	bd30      	pop	{r4, r5, pc}
 80051f4:	40012c00 	.word	0x40012c00

080051f8 <HAL_TIMEx_ConfigBreakDeadTime>:
 80051f8:	f890 303c 	ldrb.w	r3, [r0, #60]	; 0x3c
 80051fc:	2b01      	cmp	r3, #1
 80051fe:	d01f      	beq.n	8005240 <HAL_TIMEx_ConfigBreakDeadTime+0x48>
 8005200:	68cb      	ldr	r3, [r1, #12]
 8005202:	688a      	ldr	r2, [r1, #8]
 8005204:	f423 7340 	bic.w	r3, r3, #768	; 0x300
 8005208:	4313      	orrs	r3, r2
 800520a:	684a      	ldr	r2, [r1, #4]
 800520c:	f423 6380 	bic.w	r3, r3, #1024	; 0x400
 8005210:	4313      	orrs	r3, r2
 8005212:	680a      	ldr	r2, [r1, #0]
 8005214:	f423 6300 	bic.w	r3, r3, #2048	; 0x800
 8005218:	4313      	orrs	r3, r2
 800521a:	690a      	ldr	r2, [r1, #16]
 800521c:	f423 5380 	bic.w	r3, r3, #4096	; 0x1000
 8005220:	4313      	orrs	r3, r2
 8005222:	694a      	ldr	r2, [r1, #20]
 8005224:	f423 5300 	bic.w	r3, r3, #8192	; 0x2000
 8005228:	4313      	orrs	r3, r2
 800522a:	69ca      	ldr	r2, [r1, #28]
 800522c:	f423 4380 	bic.w	r3, r3, #16384	; 0x4000
 8005230:	4313      	orrs	r3, r2
 8005232:	6802      	ldr	r2, [r0, #0]
 8005234:	6453      	str	r3, [r2, #68]	; 0x44
 8005236:	2300      	movs	r3, #0
 8005238:	f880 303c 	strb.w	r3, [r0, #60]	; 0x3c
 800523c:	4618      	mov	r0, r3
 800523e:	4770      	bx	lr
 8005240:	2002      	movs	r0, #2
 8005242:	4770      	bx	lr

08005244 <HAL_TIMEx_CommutCallback>:
 8005244:	4770      	bx	lr

08005246 <HAL_TIMEx_BreakCallback>:
 8005246:	4770      	bx	lr

08005248 <UART_SetConfig>:
 8005248:	b510      	push	{r4, lr}
 800524a:	4604      	mov	r4, r0
 800524c:	6803      	ldr	r3, [r0, #0]
 800524e:	68c1      	ldr	r1, [r0, #12]
 8005250:	691a      	ldr	r2, [r3, #16]
 8005252:	f422 5240 	bic.w	r2, r2, #12288	; 0x3000
 8005256:	430a      	orrs	r2, r1
 8005258:	611a      	str	r2, [r3, #16]
 800525a:	6882      	ldr	r2, [r0, #8]
 800525c:	6900      	ldr	r0, [r0, #16]
 800525e:	68d9      	ldr	r1, [r3, #12]
 8005260:	4302      	orrs	r2, r0
 8005262:	6960      	ldr	r0, [r4, #20]
 8005264:	f421 51b0 	bic.w	r1, r1, #5632	; 0x1600
 8005268:	f021 010c 	bic.w	r1, r1, #12
 800526c:	4302      	orrs	r2, r0
 800526e:	430a      	orrs	r2, r1
 8005270:	60da      	str	r2, [r3, #12]
 8005272:	695a      	ldr	r2, [r3, #20]
 8005274:	69a1      	ldr	r1, [r4, #24]
 8005276:	f422 7240 	bic.w	r2, r2, #768	; 0x300
 800527a:	430a      	orrs	r2, r1
 800527c:	615a      	str	r2, [r3, #20]
 800527e:	4a0e      	ldr	r2, [pc, #56]	; (80052b8 <UART_SetConfig+0x70>)
 8005280:	4293      	cmp	r3, r2
 8005282:	d115      	bne.n	80052b0 <UART_SetConfig+0x68>
 8005284:	f7fe fdcc 	bl	8003e20 <HAL_RCC_GetPCLK2Freq>
 8005288:	2319      	movs	r3, #25
 800528a:	4343      	muls	r3, r0
 800528c:	6862      	ldr	r2, [r4, #4]
 800528e:	6820      	ldr	r0, [r4, #0]
 8005290:	0092      	lsls	r2, r2, #2
 8005292:	fbb3 f3f2 	udiv	r3, r3, r2
 8005296:	2264      	movs	r2, #100	; 0x64
 8005298:	fbb3 f1f2 	udiv	r1, r3, r2
 800529c:	fb02 3311 	mls	r3, r2, r1, r3
 80052a0:	011b      	lsls	r3, r3, #4
 80052a2:	3332      	adds	r3, #50	; 0x32
 80052a4:	fbb3 f3f2 	udiv	r3, r3, r2
 80052a8:	eb03 1301 	add.w	r3, r3, r1, lsl #4
 80052ac:	6083      	str	r3, [r0, #8]
 80052ae:	bd10      	pop	{r4, pc}
 80052b0:	f7fe fda6 	bl	8003e00 <HAL_RCC_GetPCLK1Freq>
 80052b4:	e7e8      	b.n	8005288 <UART_SetConfig+0x40>
 80052b6:	bf00      	nop
 80052b8:	40013800 	.word	0x40013800

080052bc <UART_WaitOnFlagUntilTimeout.constprop.0>:
 80052bc:	b5f8      	push	{r3, r4, r5, r6, r7, lr}
 80052be:	4604      	mov	r4, r0
 80052c0:	460e      	mov	r6, r1
 80052c2:	4617      	mov	r7, r2
 80052c4:	461d      	mov	r5, r3
 80052c6:	6822      	ldr	r2, [r4, #0]
 80052c8:	6813      	ldr	r3, [r2, #0]
 80052ca:	ea36 0303 	bics.w	r3, r6, r3
 80052ce:	d101      	bne.n	80052d4 <UART_WaitOnFlagUntilTimeout.constprop.0+0x18>
 80052d0:	2000      	movs	r0, #0
 80052d2:	e014      	b.n	80052fe <UART_WaitOnFlagUntilTimeout.constprop.0+0x42>
 80052d4:	1c6b      	adds	r3, r5, #1
 80052d6:	d0f7      	beq.n	80052c8 <UART_WaitOnFlagUntilTimeout.constprop.0+0xc>
 80052d8:	b995      	cbnz	r5, 8005300 <UART_WaitOnFlagUntilTimeout.constprop.0+0x44>
 80052da:	6823      	ldr	r3, [r4, #0]
 80052dc:	2003      	movs	r0, #3
 80052de:	68da      	ldr	r2, [r3, #12]
 80052e0:	f422 72d0 	bic.w	r2, r2, #416	; 0x1a0
 80052e4:	60da      	str	r2, [r3, #12]
 80052e6:	695a      	ldr	r2, [r3, #20]
 80052e8:	f022 0201 	bic.w	r2, r2, #1
 80052ec:	615a      	str	r2, [r3, #20]
 80052ee:	2320      	movs	r3, #32
 80052f0:	f884 303d 	strb.w	r3, [r4, #61]	; 0x3d
 80052f4:	f884 303e 	strb.w	r3, [r4, #62]	; 0x3e
 80052f8:	2300      	movs	r3, #0
 80052fa:	f884 303c 	strb.w	r3, [r4, #60]	; 0x3c
 80052fe:	bdf8      	pop	{r3, r4, r5, r6, r7, pc}
 8005300:	f7fd ffc0 	bl	8003284 <HAL_GetTick>
 8005304:	1bc0      	subs	r0, r0, r7
 8005306:	4285      	cmp	r5, r0
 8005308:	d2dd      	bcs.n	80052c6 <UART_WaitOnFlagUntilTimeout.constprop.0+0xa>
 800530a:	e7e6      	b.n	80052da <UART_WaitOnFlagUntilTimeout.constprop.0+0x1e>

0800530c <HAL_UART_Init>:
 800530c:	b510      	push	{r4, lr}
 800530e:	4604      	mov	r4, r0
 8005310:	b340      	cbz	r0, 8005364 <HAL_UART_Init+0x58>
 8005312:	f890 303d 	ldrb.w	r3, [r0, #61]	; 0x3d
 8005316:	f003 02ff 	and.w	r2, r3, #255	; 0xff
 800531a:	b91b      	cbnz	r3, 8005324 <HAL_UART_Init+0x18>
 800531c:	f880 203c 	strb.w	r2, [r0, #60]	; 0x3c
 8005320:	f7fd fa9a 	bl	8002858 <HAL_UART_MspInit>
 8005324:	2324      	movs	r3, #36	; 0x24
 8005326:	6822      	ldr	r2, [r4, #0]
 8005328:	f884 303d 	strb.w	r3, [r4, #61]	; 0x3d
 800532c:	68d3      	ldr	r3, [r2, #12]
 800532e:	4620      	mov	r0, r4
 8005330:	f423 5300 	bic.w	r3, r3, #8192	; 0x2000
 8005334:	60d3      	str	r3, [r2, #12]
 8005336:	f7ff ff87 	bl	8005248 <UART_SetConfig>
 800533a:	6823      	ldr	r3, [r4, #0]
 800533c:	2000      	movs	r0, #0
 800533e:	691a      	ldr	r2, [r3, #16]
 8005340:	f422 4290 	bic.w	r2, r2, #18432	; 0x4800
 8005344:	611a      	str	r2, [r3, #16]
 8005346:	695a      	ldr	r2, [r3, #20]
 8005348:	f022 022a 	bic.w	r2, r2, #42	; 0x2a
 800534c:	615a      	str	r2, [r3, #20]
 800534e:	68da      	ldr	r2, [r3, #12]
 8005350:	f442 5200 	orr.w	r2, r2, #8192	; 0x2000
 8005354:	60da      	str	r2, [r3, #12]
 8005356:	2320      	movs	r3, #32
 8005358:	6420      	str	r0, [r4, #64]	; 0x40
 800535a:	f884 303d 	strb.w	r3, [r4, #61]	; 0x3d
 800535e:	f884 303e 	strb.w	r3, [r4, #62]	; 0x3e
 8005362:	bd10      	pop	{r4, pc}
 8005364:	2001      	movs	r0, #1
 8005366:	e7fc      	b.n	8005362 <HAL_UART_Init+0x56>

08005368 <HAL_UART_Transmit>:
 8005368:	e92d 43f8 	stmdb	sp!, {r3, r4, r5, r6, r7, r8, r9, lr}
 800536c:	4699      	mov	r9, r3
 800536e:	f890 303d 	ldrb.w	r3, [r0, #61]	; 0x3d
 8005372:	4604      	mov	r4, r0
 8005374:	2b20      	cmp	r3, #32
 8005376:	460e      	mov	r6, r1
 8005378:	4617      	mov	r7, r2
 800537a:	d148      	bne.n	800540e <HAL_UART_Transmit+0xa6>
 800537c:	2900      	cmp	r1, #0
 800537e:	d044      	beq.n	800540a <HAL_UART_Transmit+0xa2>
 8005380:	2a00      	cmp	r2, #0
 8005382:	d042      	beq.n	800540a <HAL_UART_Transmit+0xa2>
 8005384:	f890 303c 	ldrb.w	r3, [r0, #60]	; 0x3c
 8005388:	2b01      	cmp	r3, #1
 800538a:	d040      	beq.n	800540e <HAL_UART_Transmit+0xa6>
 800538c:	2301      	movs	r3, #1
 800538e:	2500      	movs	r5, #0
 8005390:	f880 303c 	strb.w	r3, [r0, #60]	; 0x3c
 8005394:	2321      	movs	r3, #33	; 0x21
 8005396:	6405      	str	r5, [r0, #64]	; 0x40
 8005398:	f880 303d 	strb.w	r3, [r0, #61]	; 0x3d
 800539c:	f7fd ff72 	bl	8003284 <HAL_GetTick>
 80053a0:	68a3      	ldr	r3, [r4, #8]
 80053a2:	4680      	mov	r8, r0
 80053a4:	f5b3 5f80 	cmp.w	r3, #4096	; 0x1000
 80053a8:	84a7      	strh	r7, [r4, #36]	; 0x24
 80053aa:	84e7      	strh	r7, [r4, #38]	; 0x26
 80053ac:	d103      	bne.n	80053b6 <HAL_UART_Transmit+0x4e>
 80053ae:	6923      	ldr	r3, [r4, #16]
 80053b0:	b90b      	cbnz	r3, 80053b6 <HAL_UART_Transmit+0x4e>
 80053b2:	4635      	mov	r5, r6
 80053b4:	461e      	mov	r6, r3
 80053b6:	2300      	movs	r3, #0
 80053b8:	f884 303c 	strb.w	r3, [r4, #60]	; 0x3c
 80053bc:	8ce3      	ldrh	r3, [r4, #38]	; 0x26
 80053be:	b29b      	uxth	r3, r3
 80053c0:	b953      	cbnz	r3, 80053d8 <HAL_UART_Transmit+0x70>
 80053c2:	464b      	mov	r3, r9
 80053c4:	4642      	mov	r2, r8
 80053c6:	2140      	movs	r1, #64	; 0x40
 80053c8:	4620      	mov	r0, r4
 80053ca:	f7ff ff77 	bl	80052bc <UART_WaitOnFlagUntilTimeout.constprop.0>
 80053ce:	b950      	cbnz	r0, 80053e6 <HAL_UART_Transmit+0x7e>
 80053d0:	2320      	movs	r3, #32
 80053d2:	f884 303d 	strb.w	r3, [r4, #61]	; 0x3d
 80053d6:	e007      	b.n	80053e8 <HAL_UART_Transmit+0x80>
 80053d8:	464b      	mov	r3, r9
 80053da:	4642      	mov	r2, r8
 80053dc:	2180      	movs	r1, #128	; 0x80
 80053de:	4620      	mov	r0, r4
 80053e0:	f7ff ff6c 	bl	80052bc <UART_WaitOnFlagUntilTimeout.constprop.0>
 80053e4:	b110      	cbz	r0, 80053ec <HAL_UART_Transmit+0x84>
 80053e6:	2003      	movs	r0, #3
 80053e8:	e8bd 83f8 	ldmia.w	sp!, {r3, r4, r5, r6, r7, r8, r9, pc}
 80053ec:	6822      	ldr	r2, [r4, #0]
 80053ee:	b94e      	cbnz	r6, 8005404 <HAL_UART_Transmit+0x9c>
 80053f0:	f835 3b02 	ldrh.w	r3, [r5], #2
 80053f4:	f3c3 0308 	ubfx	r3, r3, #0, #9
 80053f8:	6053      	str	r3, [r2, #4]
 80053fa:	8ce1      	ldrh	r1, [r4, #38]	; 0x26
 80053fc:	3901      	subs	r1, #1
 80053fe:	b289      	uxth	r1, r1
 8005400:	84e1      	strh	r1, [r4, #38]	; 0x26
 8005402:	e7db      	b.n	80053bc <HAL_UART_Transmit+0x54>
 8005404:	f816 3b01 	ldrb.w	r3, [r6], #1
 8005408:	e7f6      	b.n	80053f8 <HAL_UART_Transmit+0x90>
 800540a:	2001      	movs	r0, #1
 800540c:	e7ec      	b.n	80053e8 <HAL_UART_Transmit+0x80>
 800540e:	2002      	movs	r0, #2
 8005410:	e7ea      	b.n	80053e8 <HAL_UART_Transmit+0x80>
	...

08005414 <acos>:
 8005414:	b5f8      	push	{r3, r4, r5, r6, r7, lr}
 8005416:	4604      	mov	r4, r0
 8005418:	460d      	mov	r5, r1
 800541a:	f000 f855 	bl	80054c8 <__ieee754_acos>
 800541e:	4b11      	ldr	r3, [pc, #68]	; (8005464 <acos+0x50>)
 8005420:	4606      	mov	r6, r0
 8005422:	f993 3000 	ldrsb.w	r3, [r3]
 8005426:	460f      	mov	r7, r1
 8005428:	3301      	adds	r3, #1
 800542a:	d018      	beq.n	800545e <acos+0x4a>
 800542c:	4622      	mov	r2, r4
 800542e:	462b      	mov	r3, r5
 8005430:	4620      	mov	r0, r4
 8005432:	4629      	mov	r1, r5
 8005434:	f7fb faea 	bl	8000a0c <__aeabi_dcmpun>
 8005438:	b988      	cbnz	r0, 800545e <acos+0x4a>
 800543a:	4620      	mov	r0, r4
 800543c:	4629      	mov	r1, r5
 800543e:	f000 fb3b 	bl	8005ab8 <fabs>
 8005442:	2200      	movs	r2, #0
 8005444:	4b08      	ldr	r3, [pc, #32]	; (8005468 <acos+0x54>)
 8005446:	f7fb fad7 	bl	80009f8 <__aeabi_dcmpgt>
 800544a:	b140      	cbz	r0, 800545e <acos+0x4a>
 800544c:	f000 fb3e 	bl	8005acc <__errno>
 8005450:	2321      	movs	r3, #33	; 0x21
 8005452:	6003      	str	r3, [r0, #0]
 8005454:	4805      	ldr	r0, [pc, #20]	; (800546c <acos+0x58>)
 8005456:	e8bd 40f8 	ldmia.w	sp!, {r3, r4, r5, r6, r7, lr}
 800545a:	f000 bb31 	b.w	8005ac0 <nan>
 800545e:	4630      	mov	r0, r6
 8005460:	4639      	mov	r1, r7
 8005462:	bdf8      	pop	{r3, r4, r5, r6, r7, pc}
 8005464:	20000058 	.word	0x20000058
 8005468:	3ff00000 	.word	0x3ff00000
 800546c:	08008ae8 	.word	0x08008ae8

08005470 <sqrt>:
 8005470:	b5f8      	push	{r3, r4, r5, r6, r7, lr}
 8005472:	4606      	mov	r6, r0
 8005474:	460f      	mov	r7, r1
 8005476:	f000 fa73 	bl	8005960 <__ieee754_sqrt>
 800547a:	4b12      	ldr	r3, [pc, #72]	; (80054c4 <sqrt+0x54>)
 800547c:	4604      	mov	r4, r0
 800547e:	f993 3000 	ldrsb.w	r3, [r3]
 8005482:	460d      	mov	r5, r1
 8005484:	3301      	adds	r3, #1
 8005486:	d019      	beq.n	80054bc <sqrt+0x4c>
 8005488:	4632      	mov	r2, r6
 800548a:	463b      	mov	r3, r7
 800548c:	4630      	mov	r0, r6
 800548e:	4639      	mov	r1, r7
 8005490:	f7fb fabc 	bl	8000a0c <__aeabi_dcmpun>
 8005494:	b990      	cbnz	r0, 80054bc <sqrt+0x4c>
 8005496:	2200      	movs	r2, #0
 8005498:	2300      	movs	r3, #0
 800549a:	4630      	mov	r0, r6
 800549c:	4639      	mov	r1, r7
 800549e:	f7fb fa8d 	bl	80009bc <__aeabi_dcmplt>
 80054a2:	b158      	cbz	r0, 80054bc <sqrt+0x4c>
 80054a4:	f000 fb12 	bl	8005acc <__errno>
 80054a8:	2321      	movs	r3, #33	; 0x21
 80054aa:	2200      	movs	r2, #0
 80054ac:	6003      	str	r3, [r0, #0]
 80054ae:	2300      	movs	r3, #0
 80054b0:	4610      	mov	r0, r2
 80054b2:	4619      	mov	r1, r3
 80054b4:	f7fb f93a 	bl	800072c <__aeabi_ddiv>
 80054b8:	4604      	mov	r4, r0
 80054ba:	460d      	mov	r5, r1
 80054bc:	4620      	mov	r0, r4
 80054be:	4629      	mov	r1, r5
 80054c0:	bdf8      	pop	{r3, r4, r5, r6, r7, pc}
 80054c2:	bf00      	nop
 80054c4:	20000058 	.word	0x20000058

080054c8 <__ieee754_acos>:
 80054c8:	e92d 4ff8 	stmdb	sp!, {r3, r4, r5, r6, r7, r8, r9, sl, fp, lr}
 80054cc:	4cb2      	ldr	r4, [pc, #712]	; (8005798 <__ieee754_acos+0x2d0>)
 80054ce:	f021 4300 	bic.w	r3, r1, #2147483648	; 0x80000000
 80054d2:	42a3      	cmp	r3, r4
 80054d4:	4607      	mov	r7, r0
 80054d6:	460e      	mov	r6, r1
 80054d8:	dd16      	ble.n	8005508 <__ieee754_acos+0x40>
 80054da:	f103 4340 	add.w	r3, r3, #3221225472	; 0xc0000000
 80054de:	f503 1380 	add.w	r3, r3, #1048576	; 0x100000
 80054e2:	4303      	orrs	r3, r0
 80054e4:	d107      	bne.n	80054f6 <__ieee754_acos+0x2e>
 80054e6:	2900      	cmp	r1, #0
 80054e8:	f300 8202 	bgt.w	80058f0 <__ieee754_acos+0x428>
 80054ec:	a190      	add	r1, pc, #576	; (adr r1, 8005730 <__ieee754_acos+0x268>)
 80054ee:	e9d1 0100 	ldrd	r0, r1, [r1]
 80054f2:	e8bd 8ff8 	ldmia.w	sp!, {r3, r4, r5, r6, r7, r8, r9, sl, fp, pc}
 80054f6:	4602      	mov	r2, r0
 80054f8:	460b      	mov	r3, r1
 80054fa:	f7fa fe35 	bl	8000168 <__aeabi_dsub>
 80054fe:	4602      	mov	r2, r0
 8005500:	460b      	mov	r3, r1
 8005502:	f7fb f913 	bl	800072c <__aeabi_ddiv>
 8005506:	e7f4      	b.n	80054f2 <__ieee754_acos+0x2a>
 8005508:	4ca4      	ldr	r4, [pc, #656]	; (800579c <__ieee754_acos+0x2d4>)
 800550a:	42a3      	cmp	r3, r4
 800550c:	f300 8083 	bgt.w	8005616 <__ieee754_acos+0x14e>
 8005510:	4aa3      	ldr	r2, [pc, #652]	; (80057a0 <__ieee754_acos+0x2d8>)
 8005512:	4293      	cmp	r3, r2
 8005514:	f340 81ef 	ble.w	80058f6 <__ieee754_acos+0x42e>
 8005518:	4602      	mov	r2, r0
 800551a:	460b      	mov	r3, r1
 800551c:	f7fa ffdc 	bl	80004d8 <__aeabi_dmul>
 8005520:	a385      	add	r3, pc, #532	; (adr r3, 8005738 <__ieee754_acos+0x270>)
 8005522:	e9d3 2300 	ldrd	r2, r3, [r3]
 8005526:	4604      	mov	r4, r0
 8005528:	460d      	mov	r5, r1
 800552a:	f7fa ffd5 	bl	80004d8 <__aeabi_dmul>
 800552e:	a384      	add	r3, pc, #528	; (adr r3, 8005740 <__ieee754_acos+0x278>)
 8005530:	e9d3 2300 	ldrd	r2, r3, [r3]
 8005534:	f7fa fe1a 	bl	800016c <__adddf3>
 8005538:	4622      	mov	r2, r4
 800553a:	462b      	mov	r3, r5
 800553c:	f7fa ffcc 	bl	80004d8 <__aeabi_dmul>
 8005540:	a381      	add	r3, pc, #516	; (adr r3, 8005748 <__ieee754_acos+0x280>)
 8005542:	e9d3 2300 	ldrd	r2, r3, [r3]
 8005546:	f7fa fe0f 	bl	8000168 <__aeabi_dsub>
 800554a:	4622      	mov	r2, r4
 800554c:	462b      	mov	r3, r5
 800554e:	f7fa ffc3 	bl	80004d8 <__aeabi_dmul>
 8005552:	a37f      	add	r3, pc, #508	; (adr r3, 8005750 <__ieee754_acos+0x288>)
 8005554:	e9d3 2300 	ldrd	r2, r3, [r3]
 8005558:	f7fa fe08 	bl	800016c <__adddf3>
 800555c:	4622      	mov	r2, r4
 800555e:	462b      	mov	r3, r5
 8005560:	f7fa ffba 	bl	80004d8 <__aeabi_dmul>
 8005564:	a37c      	add	r3, pc, #496	; (adr r3, 8005758 <__ieee754_acos+0x290>)
 8005566:	e9d3 2300 	ldrd	r2, r3, [r3]
 800556a:	f7fa fdfd 	bl	8000168 <__aeabi_dsub>
 800556e:	4622      	mov	r2, r4
 8005570:	462b      	mov	r3, r5
 8005572:	f7fa ffb1 	bl	80004d8 <__aeabi_dmul>
 8005576:	a37a      	add	r3, pc, #488	; (adr r3, 8005760 <__ieee754_acos+0x298>)
 8005578:	e9d3 2300 	ldrd	r2, r3, [r3]
 800557c:	f7fa fdf6 	bl	800016c <__adddf3>
 8005580:	4622      	mov	r2, r4
 8005582:	462b      	mov	r3, r5
 8005584:	f7fa ffa8 	bl	80004d8 <__aeabi_dmul>
 8005588:	a377      	add	r3, pc, #476	; (adr r3, 8005768 <__ieee754_acos+0x2a0>)
 800558a:	e9d3 2300 	ldrd	r2, r3, [r3]
 800558e:	4680      	mov	r8, r0
 8005590:	4689      	mov	r9, r1
 8005592:	4620      	mov	r0, r4
 8005594:	4629      	mov	r1, r5
 8005596:	f7fa ff9f 	bl	80004d8 <__aeabi_dmul>
 800559a:	a375      	add	r3, pc, #468	; (adr r3, 8005770 <__ieee754_acos+0x2a8>)
 800559c:	e9d3 2300 	ldrd	r2, r3, [r3]
 80055a0:	f7fa fde2 	bl	8000168 <__aeabi_dsub>
 80055a4:	4622      	mov	r2, r4
 80055a6:	462b      	mov	r3, r5
 80055a8:	f7fa ff96 	bl	80004d8 <__aeabi_dmul>
 80055ac:	a372      	add	r3, pc, #456	; (adr r3, 8005778 <__ieee754_acos+0x2b0>)
 80055ae:	e9d3 2300 	ldrd	r2, r3, [r3]
 80055b2:	f7fa fddb 	bl	800016c <__adddf3>
 80055b6:	4622      	mov	r2, r4
 80055b8:	462b      	mov	r3, r5
 80055ba:	f7fa ff8d 	bl	80004d8 <__aeabi_dmul>
 80055be:	a370      	add	r3, pc, #448	; (adr r3, 8005780 <__ieee754_acos+0x2b8>)
 80055c0:	e9d3 2300 	ldrd	r2, r3, [r3]
 80055c4:	f7fa fdd0 	bl	8000168 <__aeabi_dsub>
 80055c8:	4622      	mov	r2, r4
 80055ca:	462b      	mov	r3, r5
 80055cc:	f7fa ff84 	bl	80004d8 <__aeabi_dmul>
 80055d0:	2200      	movs	r2, #0
 80055d2:	4b74      	ldr	r3, [pc, #464]	; (80057a4 <__ieee754_acos+0x2dc>)
 80055d4:	f7fa fdca 	bl	800016c <__adddf3>
 80055d8:	4602      	mov	r2, r0
 80055da:	460b      	mov	r3, r1
 80055dc:	4640      	mov	r0, r8
 80055de:	4649      	mov	r1, r9
 80055e0:	f7fb f8a4 	bl	800072c <__aeabi_ddiv>
 80055e4:	463a      	mov	r2, r7
 80055e6:	4633      	mov	r3, r6
 80055e8:	f7fa ff76 	bl	80004d8 <__aeabi_dmul>
 80055ec:	4602      	mov	r2, r0
 80055ee:	460b      	mov	r3, r1
 80055f0:	a165      	add	r1, pc, #404	; (adr r1, 8005788 <__ieee754_acos+0x2c0>)
 80055f2:	e9d1 0100 	ldrd	r0, r1, [r1]
 80055f6:	f7fa fdb7 	bl	8000168 <__aeabi_dsub>
 80055fa:	4602      	mov	r2, r0
 80055fc:	460b      	mov	r3, r1
 80055fe:	4638      	mov	r0, r7
 8005600:	4631      	mov	r1, r6
 8005602:	f7fa fdb1 	bl	8000168 <__aeabi_dsub>
 8005606:	4602      	mov	r2, r0
 8005608:	460b      	mov	r3, r1
 800560a:	a161      	add	r1, pc, #388	; (adr r1, 8005790 <__ieee754_acos+0x2c8>)
 800560c:	e9d1 0100 	ldrd	r0, r1, [r1]
 8005610:	f7fa fdaa 	bl	8000168 <__aeabi_dsub>
 8005614:	e76d      	b.n	80054f2 <__ieee754_acos+0x2a>
 8005616:	2900      	cmp	r1, #0
 8005618:	f280 80c8 	bge.w	80057ac <__ieee754_acos+0x2e4>
 800561c:	2200      	movs	r2, #0
 800561e:	4b61      	ldr	r3, [pc, #388]	; (80057a4 <__ieee754_acos+0x2dc>)
 8005620:	f7fa fda4 	bl	800016c <__adddf3>
 8005624:	2200      	movs	r2, #0
 8005626:	4b60      	ldr	r3, [pc, #384]	; (80057a8 <__ieee754_acos+0x2e0>)
 8005628:	f7fa ff56 	bl	80004d8 <__aeabi_dmul>
 800562c:	a342      	add	r3, pc, #264	; (adr r3, 8005738 <__ieee754_acos+0x270>)
 800562e:	e9d3 2300 	ldrd	r2, r3, [r3]
 8005632:	4604      	mov	r4, r0
 8005634:	460d      	mov	r5, r1
 8005636:	f7fa ff4f 	bl	80004d8 <__aeabi_dmul>
 800563a:	a341      	add	r3, pc, #260	; (adr r3, 8005740 <__ieee754_acos+0x278>)
 800563c:	e9d3 2300 	ldrd	r2, r3, [r3]
 8005640:	f7fa fd94 	bl	800016c <__adddf3>
 8005644:	4622      	mov	r2, r4
 8005646:	462b      	mov	r3, r5
 8005648:	f7fa ff46 	bl	80004d8 <__aeabi_dmul>
 800564c:	a33e      	add	r3, pc, #248	; (adr r3, 8005748 <__ieee754_acos+0x280>)
 800564e:	e9d3 2300 	ldrd	r2, r3, [r3]
 8005652:	f7fa fd89 	bl	8000168 <__aeabi_dsub>
 8005656:	4622      	mov	r2, r4
 8005658:	462b      	mov	r3, r5
 800565a:	f7fa ff3d 	bl	80004d8 <__aeabi_dmul>
 800565e:	a33c      	add	r3, pc, #240	; (adr r3, 8005750 <__ieee754_acos+0x288>)
 8005660:	e9d3 2300 	ldrd	r2, r3, [r3]
 8005664:	f7fa fd82 	bl	800016c <__adddf3>
 8005668:	4622      	mov	r2, r4
 800566a:	462b      	mov	r3, r5
 800566c:	f7fa ff34 	bl	80004d8 <__aeabi_dmul>
 8005670:	a339      	add	r3, pc, #228	; (adr r3, 8005758 <__ieee754_acos+0x290>)
 8005672:	e9d3 2300 	ldrd	r2, r3, [r3]
 8005676:	f7fa fd77 	bl	8000168 <__aeabi_dsub>
 800567a:	4622      	mov	r2, r4
 800567c:	462b      	mov	r3, r5
 800567e:	f7fa ff2b 	bl	80004d8 <__aeabi_dmul>
 8005682:	a337      	add	r3, pc, #220	; (adr r3, 8005760 <__ieee754_acos+0x298>)
 8005684:	e9d3 2300 	ldrd	r2, r3, [r3]
 8005688:	f7fa fd70 	bl	800016c <__adddf3>
 800568c:	4622      	mov	r2, r4
 800568e:	462b      	mov	r3, r5
 8005690:	f7fa ff22 	bl	80004d8 <__aeabi_dmul>
 8005694:	4680      	mov	r8, r0
 8005696:	4689      	mov	r9, r1
 8005698:	4620      	mov	r0, r4
 800569a:	4629      	mov	r1, r5
 800569c:	f000 f960 	bl	8005960 <__ieee754_sqrt>
 80056a0:	a331      	add	r3, pc, #196	; (adr r3, 8005768 <__ieee754_acos+0x2a0>)
 80056a2:	e9d3 2300 	ldrd	r2, r3, [r3]
 80056a6:	4606      	mov	r6, r0
 80056a8:	460f      	mov	r7, r1
 80056aa:	4620      	mov	r0, r4
 80056ac:	4629      	mov	r1, r5
 80056ae:	f7fa ff13 	bl	80004d8 <__aeabi_dmul>
 80056b2:	a32f      	add	r3, pc, #188	; (adr r3, 8005770 <__ieee754_acos+0x2a8>)
 80056b4:	e9d3 2300 	ldrd	r2, r3, [r3]
 80056b8:	f7fa fd56 	bl	8000168 <__aeabi_dsub>
 80056bc:	4622      	mov	r2, r4
 80056be:	462b      	mov	r3, r5
 80056c0:	f7fa ff0a 	bl	80004d8 <__aeabi_dmul>
 80056c4:	a32c      	add	r3, pc, #176	; (adr r3, 8005778 <__ieee754_acos+0x2b0>)
 80056c6:	e9d3 2300 	ldrd	r2, r3, [r3]
 80056ca:	f7fa fd4f 	bl	800016c <__adddf3>
 80056ce:	4622      	mov	r2, r4
 80056d0:	462b      	mov	r3, r5
 80056d2:	f7fa ff01 	bl	80004d8 <__aeabi_dmul>
 80056d6:	a32a      	add	r3, pc, #168	; (adr r3, 8005780 <__ieee754_acos+0x2b8>)
 80056d8:	e9d3 2300 	ldrd	r2, r3, [r3]
 80056dc:	f7fa fd44 	bl	8000168 <__aeabi_dsub>
 80056e0:	4622      	mov	r2, r4
 80056e2:	462b      	mov	r3, r5
 80056e4:	f7fa fef8 	bl	80004d8 <__aeabi_dmul>
 80056e8:	2200      	movs	r2, #0
 80056ea:	4b2e      	ldr	r3, [pc, #184]	; (80057a4 <__ieee754_acos+0x2dc>)
 80056ec:	f7fa fd3e 	bl	800016c <__adddf3>
 80056f0:	4602      	mov	r2, r0
 80056f2:	460b      	mov	r3, r1
 80056f4:	4640      	mov	r0, r8
 80056f6:	4649      	mov	r1, r9
 80056f8:	f7fb f818 	bl	800072c <__aeabi_ddiv>
 80056fc:	4632      	mov	r2, r6
 80056fe:	463b      	mov	r3, r7
 8005700:	f7fa feea 	bl	80004d8 <__aeabi_dmul>
 8005704:	a320      	add	r3, pc, #128	; (adr r3, 8005788 <__ieee754_acos+0x2c0>)
 8005706:	e9d3 2300 	ldrd	r2, r3, [r3]
 800570a:	f7fa fd2d 	bl	8000168 <__aeabi_dsub>
 800570e:	4632      	mov	r2, r6
 8005710:	463b      	mov	r3, r7
 8005712:	f7fa fd2b 	bl	800016c <__adddf3>
 8005716:	4602      	mov	r2, r0
 8005718:	460b      	mov	r3, r1
 800571a:	f7fa fd27 	bl	800016c <__adddf3>
 800571e:	4602      	mov	r2, r0
 8005720:	460b      	mov	r3, r1
 8005722:	a103      	add	r1, pc, #12	; (adr r1, 8005730 <__ieee754_acos+0x268>)
 8005724:	e9d1 0100 	ldrd	r0, r1, [r1]
 8005728:	e772      	b.n	8005610 <__ieee754_acos+0x148>
 800572a:	bf00      	nop
 800572c:	f3af 8000 	nop.w
 8005730:	54442d18 	.word	0x54442d18
 8005734:	400921fb 	.word	0x400921fb
 8005738:	0dfdf709 	.word	0x0dfdf709
 800573c:	3f023de1 	.word	0x3f023de1
 8005740:	7501b288 	.word	0x7501b288
 8005744:	3f49efe0 	.word	0x3f49efe0
 8005748:	b5688f3b 	.word	0xb5688f3b
 800574c:	3fa48228 	.word	0x3fa48228
 8005750:	0e884455 	.word	0x0e884455
 8005754:	3fc9c155 	.word	0x3fc9c155
 8005758:	03eb6f7d 	.word	0x03eb6f7d
 800575c:	3fd4d612 	.word	0x3fd4d612
 8005760:	55555555 	.word	0x55555555
 8005764:	3fc55555 	.word	0x3fc55555
 8005768:	b12e9282 	.word	0xb12e9282
 800576c:	3fb3b8c5 	.word	0x3fb3b8c5
 8005770:	1b8d0159 	.word	0x1b8d0159
 8005774:	3fe6066c 	.word	0x3fe6066c
 8005778:	9c598ac8 	.word	0x9c598ac8
 800577c:	40002ae5 	.word	0x40002ae5
 8005780:	1c8a2d4b 	.word	0x1c8a2d4b
 8005784:	40033a27 	.word	0x40033a27
 8005788:	33145c07 	.word	0x33145c07
 800578c:	3c91a626 	.word	0x3c91a626
 8005790:	54442d18 	.word	0x54442d18
 8005794:	3ff921fb 	.word	0x3ff921fb
 8005798:	3fefffff 	.word	0x3fefffff
 800579c:	3fdfffff 	.word	0x3fdfffff
 80057a0:	3c600000 	.word	0x3c600000
 80057a4:	3ff00000 	.word	0x3ff00000
 80057a8:	3fe00000 	.word	0x3fe00000
 80057ac:	4602      	mov	r2, r0
 80057ae:	460b      	mov	r3, r1
 80057b0:	2000      	movs	r0, #0
 80057b2:	4969      	ldr	r1, [pc, #420]	; (8005958 <__ieee754_acos+0x490>)
 80057b4:	f7fa fcd8 	bl	8000168 <__aeabi_dsub>
 80057b8:	2200      	movs	r2, #0
 80057ba:	4b68      	ldr	r3, [pc, #416]	; (800595c <__ieee754_acos+0x494>)
 80057bc:	f7fa fe8c 	bl	80004d8 <__aeabi_dmul>
 80057c0:	4604      	mov	r4, r0
 80057c2:	460d      	mov	r5, r1
 80057c4:	f000 f8cc 	bl	8005960 <__ieee754_sqrt>
 80057c8:	a34d      	add	r3, pc, #308	; (adr r3, 8005900 <__ieee754_acos+0x438>)
 80057ca:	e9d3 2300 	ldrd	r2, r3, [r3]
 80057ce:	4689      	mov	r9, r1
 80057d0:	4680      	mov	r8, r0
 80057d2:	4629      	mov	r1, r5
 80057d4:	4620      	mov	r0, r4
 80057d6:	f7fa fe7f 	bl	80004d8 <__aeabi_dmul>
 80057da:	a34b      	add	r3, pc, #300	; (adr r3, 8005908 <__ieee754_acos+0x440>)
 80057dc:	e9d3 2300 	ldrd	r2, r3, [r3]
 80057e0:	f7fa fcc4 	bl	800016c <__adddf3>
 80057e4:	4622      	mov	r2, r4
 80057e6:	462b      	mov	r3, r5
 80057e8:	f7fa fe76 	bl	80004d8 <__aeabi_dmul>
 80057ec:	a348      	add	r3, pc, #288	; (adr r3, 8005910 <__ieee754_acos+0x448>)
 80057ee:	e9d3 2300 	ldrd	r2, r3, [r3]
 80057f2:	f7fa fcb9 	bl	8000168 <__aeabi_dsub>
 80057f6:	4622      	mov	r2, r4
 80057f8:	462b      	mov	r3, r5
 80057fa:	f7fa fe6d 	bl	80004d8 <__aeabi_dmul>
 80057fe:	a346      	add	r3, pc, #280	; (adr r3, 8005918 <__ieee754_acos+0x450>)
 8005800:	e9d3 2300 	ldrd	r2, r3, [r3]
 8005804:	f7fa fcb2 	bl	800016c <__adddf3>
 8005808:	4622      	mov	r2, r4
 800580a:	462b      	mov	r3, r5
 800580c:	f7fa fe64 	bl	80004d8 <__aeabi_dmul>
 8005810:	a343      	add	r3, pc, #268	; (adr r3, 8005920 <__ieee754_acos+0x458>)
 8005812:	e9d3 2300 	ldrd	r2, r3, [r3]
 8005816:	f7fa fca7 	bl	8000168 <__aeabi_dsub>
 800581a:	4622      	mov	r2, r4
 800581c:	462b      	mov	r3, r5
 800581e:	f7fa fe5b 	bl	80004d8 <__aeabi_dmul>
 8005822:	a341      	add	r3, pc, #260	; (adr r3, 8005928 <__ieee754_acos+0x460>)
 8005824:	e9d3 2300 	ldrd	r2, r3, [r3]
 8005828:	f7fa fca0 	bl	800016c <__adddf3>
 800582c:	4622      	mov	r2, r4
 800582e:	462b      	mov	r3, r5
 8005830:	f7fa fe52 	bl	80004d8 <__aeabi_dmul>
 8005834:	a33e      	add	r3, pc, #248	; (adr r3, 8005930 <__ieee754_acos+0x468>)
 8005836:	e9d3 2300 	ldrd	r2, r3, [r3]
 800583a:	4682      	mov	sl, r0
 800583c:	468b      	mov	fp, r1
 800583e:	4620      	mov	r0, r4
 8005840:	4629      	mov	r1, r5
 8005842:	f7fa fe49 	bl	80004d8 <__aeabi_dmul>
 8005846:	a33c      	add	r3, pc, #240	; (adr r3, 8005938 <__ieee754_acos+0x470>)
 8005848:	e9d3 2300 	ldrd	r2, r3, [r3]
 800584c:	f7fa fc8c 	bl	8000168 <__aeabi_dsub>
 8005850:	4622      	mov	r2, r4
 8005852:	462b      	mov	r3, r5
 8005854:	f7fa fe40 	bl	80004d8 <__aeabi_dmul>
 8005858:	a339      	add	r3, pc, #228	; (adr r3, 8005940 <__ieee754_acos+0x478>)
 800585a:	e9d3 2300 	ldrd	r2, r3, [r3]
 800585e:	f7fa fc85 	bl	800016c <__adddf3>
 8005862:	4622      	mov	r2, r4
 8005864:	462b      	mov	r3, r5
 8005866:	f7fa fe37 	bl	80004d8 <__aeabi_dmul>
 800586a:	a337      	add	r3, pc, #220	; (adr r3, 8005948 <__ieee754_acos+0x480>)
 800586c:	e9d3 2300 	ldrd	r2, r3, [r3]
 8005870:	f7fa fc7a 	bl	8000168 <__aeabi_dsub>
 8005874:	4622      	mov	r2, r4
 8005876:	462b      	mov	r3, r5
 8005878:	f7fa fe2e 	bl	80004d8 <__aeabi_dmul>
 800587c:	2200      	movs	r2, #0
 800587e:	4b36      	ldr	r3, [pc, #216]	; (8005958 <__ieee754_acos+0x490>)
 8005880:	f7fa fc74 	bl	800016c <__adddf3>
 8005884:	4602      	mov	r2, r0
 8005886:	460b      	mov	r3, r1
 8005888:	4650      	mov	r0, sl
 800588a:	4659      	mov	r1, fp
 800588c:	f7fa ff4e 	bl	800072c <__aeabi_ddiv>
 8005890:	4642      	mov	r2, r8
 8005892:	464b      	mov	r3, r9
 8005894:	f7fa fe20 	bl	80004d8 <__aeabi_dmul>
 8005898:	2600      	movs	r6, #0
 800589a:	4682      	mov	sl, r0
 800589c:	468b      	mov	fp, r1
 800589e:	4632      	mov	r2, r6
 80058a0:	464b      	mov	r3, r9
 80058a2:	4630      	mov	r0, r6
 80058a4:	4649      	mov	r1, r9
 80058a6:	f7fa fe17 	bl	80004d8 <__aeabi_dmul>
 80058aa:	4602      	mov	r2, r0
 80058ac:	460b      	mov	r3, r1
 80058ae:	4620      	mov	r0, r4
 80058b0:	4629      	mov	r1, r5
 80058b2:	f7fa fc59 	bl	8000168 <__aeabi_dsub>
 80058b6:	4632      	mov	r2, r6
 80058b8:	4604      	mov	r4, r0
 80058ba:	460d      	mov	r5, r1
 80058bc:	464b      	mov	r3, r9
 80058be:	4640      	mov	r0, r8
 80058c0:	4649      	mov	r1, r9
 80058c2:	f7fa fc53 	bl	800016c <__adddf3>
 80058c6:	4602      	mov	r2, r0
 80058c8:	460b      	mov	r3, r1
 80058ca:	4620      	mov	r0, r4
 80058cc:	4629      	mov	r1, r5
 80058ce:	f7fa ff2d 	bl	800072c <__aeabi_ddiv>
 80058d2:	4602      	mov	r2, r0
 80058d4:	460b      	mov	r3, r1
 80058d6:	4650      	mov	r0, sl
 80058d8:	4659      	mov	r1, fp
 80058da:	f7fa fc47 	bl	800016c <__adddf3>
 80058de:	4632      	mov	r2, r6
 80058e0:	464b      	mov	r3, r9
 80058e2:	f7fa fc43 	bl	800016c <__adddf3>
 80058e6:	4602      	mov	r2, r0
 80058e8:	460b      	mov	r3, r1
 80058ea:	f7fa fc3f 	bl	800016c <__adddf3>
 80058ee:	e600      	b.n	80054f2 <__ieee754_acos+0x2a>
 80058f0:	2000      	movs	r0, #0
 80058f2:	2100      	movs	r1, #0
 80058f4:	e5fd      	b.n	80054f2 <__ieee754_acos+0x2a>
 80058f6:	a116      	add	r1, pc, #88	; (adr r1, 8005950 <__ieee754_acos+0x488>)
 80058f8:	e9d1 0100 	ldrd	r0, r1, [r1]
 80058fc:	e5f9      	b.n	80054f2 <__ieee754_acos+0x2a>
 80058fe:	bf00      	nop
 8005900:	0dfdf709 	.word	0x0dfdf709
 8005904:	3f023de1 	.word	0x3f023de1
 8005908:	7501b288 	.word	0x7501b288
 800590c:	3f49efe0 	.word	0x3f49efe0
 8005910:	b5688f3b 	.word	0xb5688f3b
 8005914:	3fa48228 	.word	0x3fa48228
 8005918:	0e884455 	.word	0x0e884455
 800591c:	3fc9c155 	.word	0x3fc9c155
 8005920:	03eb6f7d 	.word	0x03eb6f7d
 8005924:	3fd4d612 	.word	0x3fd4d612
 8005928:	55555555 	.word	0x55555555
 800592c:	3fc55555 	.word	0x3fc55555
 8005930:	b12e9282 	.word	0xb12e9282
 8005934:	3fb3b8c5 	.word	0x3fb3b8c5
 8005938:	1b8d0159 	.word	0x1b8d0159
 800593c:	3fe6066c 	.word	0x3fe6066c
 8005940:	9c598ac8 	.word	0x9c598ac8
 8005944:	40002ae5 	.word	0x40002ae5
 8005948:	1c8a2d4b 	.word	0x1c8a2d4b
 800594c:	40033a27 	.word	0x40033a27
 8005950:	54442d18 	.word	0x54442d18
 8005954:	3ff921fb 	.word	0x3ff921fb
 8005958:	3ff00000 	.word	0x3ff00000
 800595c:	3fe00000 	.word	0x3fe00000

08005960 <__ieee754_sqrt>:
 8005960:	f8df c150 	ldr.w	ip, [pc, #336]	; 8005ab4 <__ieee754_sqrt+0x154>
 8005964:	e92d 41f0 	stmdb	sp!, {r4, r5, r6, r7, r8, lr}
 8005968:	ea3c 0c01 	bics.w	ip, ip, r1
 800596c:	460b      	mov	r3, r1
 800596e:	4606      	mov	r6, r0
 8005970:	460d      	mov	r5, r1
 8005972:	460a      	mov	r2, r1
 8005974:	4607      	mov	r7, r0
 8005976:	4604      	mov	r4, r0
 8005978:	d10e      	bne.n	8005998 <__ieee754_sqrt+0x38>
 800597a:	4602      	mov	r2, r0
 800597c:	f7fa fdac 	bl	80004d8 <__aeabi_dmul>
 8005980:	4602      	mov	r2, r0
 8005982:	460b      	mov	r3, r1
 8005984:	4630      	mov	r0, r6
 8005986:	4629      	mov	r1, r5
 8005988:	f7fa fbf0 	bl	800016c <__adddf3>
 800598c:	4606      	mov	r6, r0
 800598e:	460d      	mov	r5, r1
 8005990:	4630      	mov	r0, r6
 8005992:	4629      	mov	r1, r5
 8005994:	e8bd 81f0 	ldmia.w	sp!, {r4, r5, r6, r7, r8, pc}
 8005998:	2900      	cmp	r1, #0
 800599a:	dc0d      	bgt.n	80059b8 <__ieee754_sqrt+0x58>
 800599c:	f021 4c00 	bic.w	ip, r1, #2147483648	; 0x80000000
 80059a0:	ea5c 0707 	orrs.w	r7, ip, r7
 80059a4:	d0f4      	beq.n	8005990 <__ieee754_sqrt+0x30>
 80059a6:	b139      	cbz	r1, 80059b8 <__ieee754_sqrt+0x58>
 80059a8:	4602      	mov	r2, r0
 80059aa:	f7fa fbdd 	bl	8000168 <__aeabi_dsub>
 80059ae:	4602      	mov	r2, r0
 80059b0:	460b      	mov	r3, r1
 80059b2:	f7fa febb 	bl	800072c <__aeabi_ddiv>
 80059b6:	e7e9      	b.n	800598c <__ieee754_sqrt+0x2c>
 80059b8:	1512      	asrs	r2, r2, #20
 80059ba:	d074      	beq.n	8005aa6 <__ieee754_sqrt+0x146>
 80059bc:	2000      	movs	r0, #0
 80059be:	07d5      	lsls	r5, r2, #31
 80059c0:	f3c3 0313 	ubfx	r3, r3, #0, #20
 80059c4:	f443 1180 	orr.w	r1, r3, #1048576	; 0x100000
 80059c8:	bf5e      	ittt	pl
 80059ca:	0fe3      	lsrpl	r3, r4, #31
 80059cc:	0064      	lslpl	r4, r4, #1
 80059ce:	eb03 0141 	addpl.w	r1, r3, r1, lsl #1
 80059d2:	0fe3      	lsrs	r3, r4, #31
 80059d4:	f2a2 36ff 	subw	r6, r2, #1023	; 0x3ff
 80059d8:	eb03 0341 	add.w	r3, r3, r1, lsl #1
 80059dc:	2516      	movs	r5, #22
 80059de:	4601      	mov	r1, r0
 80059e0:	f44f 1200 	mov.w	r2, #2097152	; 0x200000
 80059e4:	1076      	asrs	r6, r6, #1
 80059e6:	0064      	lsls	r4, r4, #1
 80059e8:	188f      	adds	r7, r1, r2
 80059ea:	429f      	cmp	r7, r3
 80059ec:	bfde      	ittt	le
 80059ee:	1bdb      	suble	r3, r3, r7
 80059f0:	18b9      	addle	r1, r7, r2
 80059f2:	1880      	addle	r0, r0, r2
 80059f4:	005b      	lsls	r3, r3, #1
 80059f6:	3d01      	subs	r5, #1
 80059f8:	eb03 73d4 	add.w	r3, r3, r4, lsr #31
 80059fc:	ea4f 0252 	mov.w	r2, r2, lsr #1
 8005a00:	ea4f 0444 	mov.w	r4, r4, lsl #1
 8005a04:	d1f0      	bne.n	80059e8 <__ieee754_sqrt+0x88>
 8005a06:	462a      	mov	r2, r5
 8005a08:	f04f 0e20 	mov.w	lr, #32
 8005a0c:	f04f 4700 	mov.w	r7, #2147483648	; 0x80000000
 8005a10:	428b      	cmp	r3, r1
 8005a12:	eb07 0c05 	add.w	ip, r7, r5
 8005a16:	dc02      	bgt.n	8005a1e <__ieee754_sqrt+0xbe>
 8005a18:	d113      	bne.n	8005a42 <__ieee754_sqrt+0xe2>
 8005a1a:	45a4      	cmp	ip, r4
 8005a1c:	d811      	bhi.n	8005a42 <__ieee754_sqrt+0xe2>
 8005a1e:	f1bc 0f00 	cmp.w	ip, #0
 8005a22:	eb0c 0507 	add.w	r5, ip, r7
 8005a26:	da43      	bge.n	8005ab0 <__ieee754_sqrt+0x150>
 8005a28:	2d00      	cmp	r5, #0
 8005a2a:	db41      	blt.n	8005ab0 <__ieee754_sqrt+0x150>
 8005a2c:	f101 0801 	add.w	r8, r1, #1
 8005a30:	1a5b      	subs	r3, r3, r1
 8005a32:	4641      	mov	r1, r8
 8005a34:	45a4      	cmp	ip, r4
 8005a36:	bf88      	it	hi
 8005a38:	f103 33ff 	addhi.w	r3, r3, #4294967295	; 0xffffffff
 8005a3c:	eba4 040c 	sub.w	r4, r4, ip
 8005a40:	443a      	add	r2, r7
 8005a42:	005b      	lsls	r3, r3, #1
 8005a44:	f1be 0e01 	subs.w	lr, lr, #1
 8005a48:	eb03 73d4 	add.w	r3, r3, r4, lsr #31
 8005a4c:	ea4f 0757 	mov.w	r7, r7, lsr #1
 8005a50:	ea4f 0444 	mov.w	r4, r4, lsl #1
 8005a54:	d1dc      	bne.n	8005a10 <__ieee754_sqrt+0xb0>
 8005a56:	4323      	orrs	r3, r4
 8005a58:	d006      	beq.n	8005a68 <__ieee754_sqrt+0x108>
 8005a5a:	1c54      	adds	r4, r2, #1
 8005a5c:	bf0b      	itete	eq
 8005a5e:	4672      	moveq	r2, lr
 8005a60:	3201      	addne	r2, #1
 8005a62:	3001      	addeq	r0, #1
 8005a64:	f022 0201 	bicne.w	r2, r2, #1
 8005a68:	1043      	asrs	r3, r0, #1
 8005a6a:	07c1      	lsls	r1, r0, #31
 8005a6c:	ea4f 0252 	mov.w	r2, r2, lsr #1
 8005a70:	f103 537f 	add.w	r3, r3, #1069547520	; 0x3fc00000
 8005a74:	f503 1300 	add.w	r3, r3, #2097152	; 0x200000
 8005a78:	bf48      	it	mi
 8005a7a:	f042 4200 	orrmi.w	r2, r2, #2147483648	; 0x80000000
 8005a7e:	4610      	mov	r0, r2
 8005a80:	eb03 5106 	add.w	r1, r3, r6, lsl #20
 8005a84:	e782      	b.n	800598c <__ieee754_sqrt+0x2c>
 8005a86:	0ae3      	lsrs	r3, r4, #11
 8005a88:	3915      	subs	r1, #21
 8005a8a:	0564      	lsls	r4, r4, #21
 8005a8c:	2b00      	cmp	r3, #0
 8005a8e:	d0fa      	beq.n	8005a86 <__ieee754_sqrt+0x126>
 8005a90:	02de      	lsls	r6, r3, #11
 8005a92:	d50a      	bpl.n	8005aaa <__ieee754_sqrt+0x14a>
 8005a94:	f1c2 0020 	rsb	r0, r2, #32
 8005a98:	fa24 f000 	lsr.w	r0, r4, r0
 8005a9c:	1e55      	subs	r5, r2, #1
 8005a9e:	4094      	lsls	r4, r2
 8005aa0:	4303      	orrs	r3, r0
 8005aa2:	1b4a      	subs	r2, r1, r5
 8005aa4:	e78a      	b.n	80059bc <__ieee754_sqrt+0x5c>
 8005aa6:	4611      	mov	r1, r2
 8005aa8:	e7f0      	b.n	8005a8c <__ieee754_sqrt+0x12c>
 8005aaa:	005b      	lsls	r3, r3, #1
 8005aac:	3201      	adds	r2, #1
 8005aae:	e7ef      	b.n	8005a90 <__ieee754_sqrt+0x130>
 8005ab0:	4688      	mov	r8, r1
 8005ab2:	e7bd      	b.n	8005a30 <__ieee754_sqrt+0xd0>
 8005ab4:	7ff00000 	.word	0x7ff00000

08005ab8 <fabs>:
 8005ab8:	f021 4100 	bic.w	r1, r1, #2147483648	; 0x80000000
 8005abc:	4770      	bx	lr
	...

08005ac0 <nan>:
 8005ac0:	2000      	movs	r0, #0
 8005ac2:	4901      	ldr	r1, [pc, #4]	; (8005ac8 <nan+0x8>)
 8005ac4:	4770      	bx	lr
 8005ac6:	bf00      	nop
 8005ac8:	7ff80000 	.word	0x7ff80000

08005acc <__errno>:
 8005acc:	4b01      	ldr	r3, [pc, #4]	; (8005ad4 <__errno+0x8>)
 8005ace:	6818      	ldr	r0, [r3, #0]
 8005ad0:	4770      	bx	lr
 8005ad2:	bf00      	nop
 8005ad4:	2000005c 	.word	0x2000005c

08005ad8 <__libc_init_array>:
 8005ad8:	b570      	push	{r4, r5, r6, lr}
 8005ada:	2600      	movs	r6, #0
 8005adc:	4d0c      	ldr	r5, [pc, #48]	; (8005b10 <__libc_init_array+0x38>)
 8005ade:	4c0d      	ldr	r4, [pc, #52]	; (8005b14 <__libc_init_array+0x3c>)
 8005ae0:	1b64      	subs	r4, r4, r5
 8005ae2:	10a4      	asrs	r4, r4, #2
 8005ae4:	42a6      	cmp	r6, r4
 8005ae6:	d109      	bne.n	8005afc <__libc_init_array+0x24>
 8005ae8:	f002 fefc 	bl	80088e4 <_init>
 8005aec:	2600      	movs	r6, #0
 8005aee:	4d0a      	ldr	r5, [pc, #40]	; (8005b18 <__libc_init_array+0x40>)
 8005af0:	4c0a      	ldr	r4, [pc, #40]	; (8005b1c <__libc_init_array+0x44>)
 8005af2:	1b64      	subs	r4, r4, r5
 8005af4:	10a4      	asrs	r4, r4, #2
 8005af6:	42a6      	cmp	r6, r4
 8005af8:	d105      	bne.n	8005b06 <__libc_init_array+0x2e>
 8005afa:	bd70      	pop	{r4, r5, r6, pc}
 8005afc:	f855 3b04 	ldr.w	r3, [r5], #4
 8005b00:	4798      	blx	r3
 8005b02:	3601      	adds	r6, #1
 8005b04:	e7ee      	b.n	8005ae4 <__libc_init_array+0xc>
 8005b06:	f855 3b04 	ldr.w	r3, [r5], #4
 8005b0a:	4798      	blx	r3
 8005b0c:	3601      	adds	r6, #1
 8005b0e:	e7f2      	b.n	8005af6 <__libc_init_array+0x1e>
 8005b10:	08008ef4 	.word	0x08008ef4
 8005b14:	08008ef4 	.word	0x08008ef4
 8005b18:	08008ef4 	.word	0x08008ef4
 8005b1c:	08008ef8 	.word	0x08008ef8

08005b20 <memset>:
 8005b20:	4603      	mov	r3, r0
 8005b22:	4402      	add	r2, r0
 8005b24:	4293      	cmp	r3, r2
 8005b26:	d100      	bne.n	8005b2a <memset+0xa>
 8005b28:	4770      	bx	lr
 8005b2a:	f803 1b01 	strb.w	r1, [r3], #1
 8005b2e:	e7f9      	b.n	8005b24 <memset+0x4>

08005b30 <__cvt>:
 8005b30:	2b00      	cmp	r3, #0
 8005b32:	e92d 47f0 	stmdb	sp!, {r4, r5, r6, r7, r8, r9, sl, lr}
 8005b36:	461f      	mov	r7, r3
 8005b38:	bfbb      	ittet	lt
 8005b3a:	f103 4300 	addlt.w	r3, r3, #2147483648	; 0x80000000
 8005b3e:	461f      	movlt	r7, r3
 8005b40:	2300      	movge	r3, #0
 8005b42:	232d      	movlt	r3, #45	; 0x2d
 8005b44:	b088      	sub	sp, #32
 8005b46:	4614      	mov	r4, r2
 8005b48:	9a12      	ldr	r2, [sp, #72]	; 0x48
 8005b4a:	9d10      	ldr	r5, [sp, #64]	; 0x40
 8005b4c:	7013      	strb	r3, [r2, #0]
 8005b4e:	9b14      	ldr	r3, [sp, #80]	; 0x50
 8005b50:	f8dd a04c 	ldr.w	sl, [sp, #76]	; 0x4c
 8005b54:	f023 0820 	bic.w	r8, r3, #32
 8005b58:	f1b8 0f46 	cmp.w	r8, #70	; 0x46
 8005b5c:	d005      	beq.n	8005b6a <__cvt+0x3a>
 8005b5e:	f1b8 0f45 	cmp.w	r8, #69	; 0x45
 8005b62:	d100      	bne.n	8005b66 <__cvt+0x36>
 8005b64:	3501      	adds	r5, #1
 8005b66:	2302      	movs	r3, #2
 8005b68:	e000      	b.n	8005b6c <__cvt+0x3c>
 8005b6a:	2303      	movs	r3, #3
 8005b6c:	aa07      	add	r2, sp, #28
 8005b6e:	9204      	str	r2, [sp, #16]
 8005b70:	aa06      	add	r2, sp, #24
 8005b72:	e9cd a202 	strd	sl, r2, [sp, #8]
 8005b76:	e9cd 3500 	strd	r3, r5, [sp]
 8005b7a:	4622      	mov	r2, r4
 8005b7c:	463b      	mov	r3, r7
 8005b7e:	f000 fd27 	bl	80065d0 <_dtoa_r>
 8005b82:	f1b8 0f47 	cmp.w	r8, #71	; 0x47
 8005b86:	4606      	mov	r6, r0
 8005b88:	d102      	bne.n	8005b90 <__cvt+0x60>
 8005b8a:	9b11      	ldr	r3, [sp, #68]	; 0x44
 8005b8c:	07db      	lsls	r3, r3, #31
 8005b8e:	d522      	bpl.n	8005bd6 <__cvt+0xa6>
 8005b90:	f1b8 0f46 	cmp.w	r8, #70	; 0x46
 8005b94:	eb06 0905 	add.w	r9, r6, r5
 8005b98:	d110      	bne.n	8005bbc <__cvt+0x8c>
 8005b9a:	7833      	ldrb	r3, [r6, #0]
 8005b9c:	2b30      	cmp	r3, #48	; 0x30
 8005b9e:	d10a      	bne.n	8005bb6 <__cvt+0x86>
 8005ba0:	2200      	movs	r2, #0
 8005ba2:	2300      	movs	r3, #0
 8005ba4:	4620      	mov	r0, r4
 8005ba6:	4639      	mov	r1, r7
 8005ba8:	f7fa fefe 	bl	80009a8 <__aeabi_dcmpeq>
 8005bac:	b918      	cbnz	r0, 8005bb6 <__cvt+0x86>
 8005bae:	f1c5 0501 	rsb	r5, r5, #1
 8005bb2:	f8ca 5000 	str.w	r5, [sl]
 8005bb6:	f8da 3000 	ldr.w	r3, [sl]
 8005bba:	4499      	add	r9, r3
 8005bbc:	2200      	movs	r2, #0
 8005bbe:	2300      	movs	r3, #0
 8005bc0:	4620      	mov	r0, r4
 8005bc2:	4639      	mov	r1, r7
 8005bc4:	f7fa fef0 	bl	80009a8 <__aeabi_dcmpeq>
 8005bc8:	b108      	cbz	r0, 8005bce <__cvt+0x9e>
 8005bca:	f8cd 901c 	str.w	r9, [sp, #28]
 8005bce:	2230      	movs	r2, #48	; 0x30
 8005bd0:	9b07      	ldr	r3, [sp, #28]
 8005bd2:	454b      	cmp	r3, r9
 8005bd4:	d307      	bcc.n	8005be6 <__cvt+0xb6>
 8005bd6:	4630      	mov	r0, r6
 8005bd8:	9b07      	ldr	r3, [sp, #28]
 8005bda:	9a15      	ldr	r2, [sp, #84]	; 0x54
 8005bdc:	1b9b      	subs	r3, r3, r6
 8005bde:	6013      	str	r3, [r2, #0]
 8005be0:	b008      	add	sp, #32
 8005be2:	e8bd 87f0 	ldmia.w	sp!, {r4, r5, r6, r7, r8, r9, sl, pc}
 8005be6:	1c59      	adds	r1, r3, #1
 8005be8:	9107      	str	r1, [sp, #28]
 8005bea:	701a      	strb	r2, [r3, #0]
 8005bec:	e7f0      	b.n	8005bd0 <__cvt+0xa0>

08005bee <__exponent>:
 8005bee:	4603      	mov	r3, r0
 8005bf0:	b5f7      	push	{r0, r1, r2, r4, r5, r6, r7, lr}
 8005bf2:	2900      	cmp	r1, #0
 8005bf4:	f803 2b02 	strb.w	r2, [r3], #2
 8005bf8:	bfb6      	itet	lt
 8005bfa:	222d      	movlt	r2, #45	; 0x2d
 8005bfc:	222b      	movge	r2, #43	; 0x2b
 8005bfe:	4249      	neglt	r1, r1
 8005c00:	2909      	cmp	r1, #9
 8005c02:	7042      	strb	r2, [r0, #1]
 8005c04:	dd2b      	ble.n	8005c5e <__exponent+0x70>
 8005c06:	f10d 0407 	add.w	r4, sp, #7
 8005c0a:	46a4      	mov	ip, r4
 8005c0c:	270a      	movs	r7, #10
 8005c0e:	fb91 f6f7 	sdiv	r6, r1, r7
 8005c12:	460a      	mov	r2, r1
 8005c14:	46a6      	mov	lr, r4
 8005c16:	fb07 1516 	mls	r5, r7, r6, r1
 8005c1a:	2a63      	cmp	r2, #99	; 0x63
 8005c1c:	f105 0530 	add.w	r5, r5, #48	; 0x30
 8005c20:	4631      	mov	r1, r6
 8005c22:	f104 34ff 	add.w	r4, r4, #4294967295	; 0xffffffff
 8005c26:	f80e 5c01 	strb.w	r5, [lr, #-1]
 8005c2a:	dcf0      	bgt.n	8005c0e <__exponent+0x20>
 8005c2c:	3130      	adds	r1, #48	; 0x30
 8005c2e:	f1ae 0502 	sub.w	r5, lr, #2
 8005c32:	f804 1c01 	strb.w	r1, [r4, #-1]
 8005c36:	4629      	mov	r1, r5
 8005c38:	1c44      	adds	r4, r0, #1
 8005c3a:	4561      	cmp	r1, ip
 8005c3c:	d30a      	bcc.n	8005c54 <__exponent+0x66>
 8005c3e:	f10d 0209 	add.w	r2, sp, #9
 8005c42:	eba2 020e 	sub.w	r2, r2, lr
 8005c46:	4565      	cmp	r5, ip
 8005c48:	bf88      	it	hi
 8005c4a:	2200      	movhi	r2, #0
 8005c4c:	4413      	add	r3, r2
 8005c4e:	1a18      	subs	r0, r3, r0
 8005c50:	b003      	add	sp, #12
 8005c52:	bdf0      	pop	{r4, r5, r6, r7, pc}
 8005c54:	f811 2b01 	ldrb.w	r2, [r1], #1
 8005c58:	f804 2f01 	strb.w	r2, [r4, #1]!
 8005c5c:	e7ed      	b.n	8005c3a <__exponent+0x4c>
 8005c5e:	2330      	movs	r3, #48	; 0x30
 8005c60:	3130      	adds	r1, #48	; 0x30
 8005c62:	7083      	strb	r3, [r0, #2]
 8005c64:	70c1      	strb	r1, [r0, #3]
 8005c66:	1d03      	adds	r3, r0, #4
 8005c68:	e7f1      	b.n	8005c4e <__exponent+0x60>
	...

08005c6c <_printf_float>:
 8005c6c:	e92d 4ff0 	stmdb	sp!, {r4, r5, r6, r7, r8, r9, sl, fp, lr}
 8005c70:	b091      	sub	sp, #68	; 0x44
 8005c72:	460c      	mov	r4, r1
 8005c74:	f8dd 8068 	ldr.w	r8, [sp, #104]	; 0x68
 8005c78:	4616      	mov	r6, r2
 8005c7a:	461f      	mov	r7, r3
 8005c7c:	4605      	mov	r5, r0
 8005c7e:	f001 fa95 	bl	80071ac <_localeconv_r>
 8005c82:	6803      	ldr	r3, [r0, #0]
 8005c84:	4618      	mov	r0, r3
 8005c86:	9309      	str	r3, [sp, #36]	; 0x24
 8005c88:	f7fa fa62 	bl	8000150 <strlen>
 8005c8c:	2300      	movs	r3, #0
 8005c8e:	930e      	str	r3, [sp, #56]	; 0x38
 8005c90:	f8d8 3000 	ldr.w	r3, [r8]
 8005c94:	900a      	str	r0, [sp, #40]	; 0x28
 8005c96:	3307      	adds	r3, #7
 8005c98:	f023 0307 	bic.w	r3, r3, #7
 8005c9c:	f103 0208 	add.w	r2, r3, #8
 8005ca0:	f894 9018 	ldrb.w	r9, [r4, #24]
 8005ca4:	f8d4 b000 	ldr.w	fp, [r4]
 8005ca8:	f8c8 2000 	str.w	r2, [r8]
 8005cac:	e9d3 2300 	ldrd	r2, r3, [r3]
 8005cb0:	e9c4 2312 	strd	r2, r3, [r4, #72]	; 0x48
 8005cb4:	e9d4 8a12 	ldrd	r8, sl, [r4, #72]	; 0x48
 8005cb8:	f02a 4300 	bic.w	r3, sl, #2147483648	; 0x80000000
 8005cbc:	930b      	str	r3, [sp, #44]	; 0x2c
 8005cbe:	f04f 32ff 	mov.w	r2, #4294967295	; 0xffffffff
 8005cc2:	4640      	mov	r0, r8
 8005cc4:	4b9c      	ldr	r3, [pc, #624]	; (8005f38 <_printf_float+0x2cc>)
 8005cc6:	990b      	ldr	r1, [sp, #44]	; 0x2c
 8005cc8:	f7fa fea0 	bl	8000a0c <__aeabi_dcmpun>
 8005ccc:	bb70      	cbnz	r0, 8005d2c <_printf_float+0xc0>
 8005cce:	f04f 32ff 	mov.w	r2, #4294967295	; 0xffffffff
 8005cd2:	4640      	mov	r0, r8
 8005cd4:	4b98      	ldr	r3, [pc, #608]	; (8005f38 <_printf_float+0x2cc>)
 8005cd6:	990b      	ldr	r1, [sp, #44]	; 0x2c
 8005cd8:	f7fa fe7a 	bl	80009d0 <__aeabi_dcmple>
 8005cdc:	bb30      	cbnz	r0, 8005d2c <_printf_float+0xc0>
 8005cde:	2200      	movs	r2, #0
 8005ce0:	2300      	movs	r3, #0
 8005ce2:	4640      	mov	r0, r8
 8005ce4:	4651      	mov	r1, sl
 8005ce6:	f7fa fe69 	bl	80009bc <__aeabi_dcmplt>
 8005cea:	b110      	cbz	r0, 8005cf2 <_printf_float+0x86>
 8005cec:	232d      	movs	r3, #45	; 0x2d
 8005cee:	f884 3043 	strb.w	r3, [r4, #67]	; 0x43
 8005cf2:	4b92      	ldr	r3, [pc, #584]	; (8005f3c <_printf_float+0x2d0>)
 8005cf4:	4892      	ldr	r0, [pc, #584]	; (8005f40 <_printf_float+0x2d4>)
 8005cf6:	f1b9 0f47 	cmp.w	r9, #71	; 0x47
 8005cfa:	bf94      	ite	ls
 8005cfc:	4698      	movls	r8, r3
 8005cfe:	4680      	movhi	r8, r0
 8005d00:	2303      	movs	r3, #3
 8005d02:	f04f 0a00 	mov.w	sl, #0
 8005d06:	6123      	str	r3, [r4, #16]
 8005d08:	f02b 0304 	bic.w	r3, fp, #4
 8005d0c:	6023      	str	r3, [r4, #0]
 8005d0e:	4633      	mov	r3, r6
 8005d10:	4621      	mov	r1, r4
 8005d12:	4628      	mov	r0, r5
 8005d14:	9700      	str	r7, [sp, #0]
 8005d16:	aa0f      	add	r2, sp, #60	; 0x3c
 8005d18:	f000 f9d4 	bl	80060c4 <_printf_common>
 8005d1c:	3001      	adds	r0, #1
 8005d1e:	f040 8090 	bne.w	8005e42 <_printf_float+0x1d6>
 8005d22:	f04f 30ff 	mov.w	r0, #4294967295	; 0xffffffff
 8005d26:	b011      	add	sp, #68	; 0x44
 8005d28:	e8bd 8ff0 	ldmia.w	sp!, {r4, r5, r6, r7, r8, r9, sl, fp, pc}
 8005d2c:	4642      	mov	r2, r8
 8005d2e:	4653      	mov	r3, sl
 8005d30:	4640      	mov	r0, r8
 8005d32:	4651      	mov	r1, sl
 8005d34:	f7fa fe6a 	bl	8000a0c <__aeabi_dcmpun>
 8005d38:	b148      	cbz	r0, 8005d4e <_printf_float+0xe2>
 8005d3a:	f1ba 0f00 	cmp.w	sl, #0
 8005d3e:	bfb8      	it	lt
 8005d40:	232d      	movlt	r3, #45	; 0x2d
 8005d42:	4880      	ldr	r0, [pc, #512]	; (8005f44 <_printf_float+0x2d8>)
 8005d44:	bfb8      	it	lt
 8005d46:	f884 3043 	strblt.w	r3, [r4, #67]	; 0x43
 8005d4a:	4b7f      	ldr	r3, [pc, #508]	; (8005f48 <_printf_float+0x2dc>)
 8005d4c:	e7d3      	b.n	8005cf6 <_printf_float+0x8a>
 8005d4e:	6863      	ldr	r3, [r4, #4]
 8005d50:	f009 01df 	and.w	r1, r9, #223	; 0xdf
 8005d54:	1c5a      	adds	r2, r3, #1
 8005d56:	d142      	bne.n	8005dde <_printf_float+0x172>
 8005d58:	2306      	movs	r3, #6
 8005d5a:	6063      	str	r3, [r4, #4]
 8005d5c:	2200      	movs	r2, #0
 8005d5e:	9206      	str	r2, [sp, #24]
 8005d60:	aa0e      	add	r2, sp, #56	; 0x38
 8005d62:	e9cd 9204 	strd	r9, r2, [sp, #16]
 8005d66:	aa0d      	add	r2, sp, #52	; 0x34
 8005d68:	f44b 6380 	orr.w	r3, fp, #1024	; 0x400
 8005d6c:	9203      	str	r2, [sp, #12]
 8005d6e:	f10d 0233 	add.w	r2, sp, #51	; 0x33
 8005d72:	e9cd 3201 	strd	r3, r2, [sp, #4]
 8005d76:	6023      	str	r3, [r4, #0]
 8005d78:	6863      	ldr	r3, [r4, #4]
 8005d7a:	4642      	mov	r2, r8
 8005d7c:	9300      	str	r3, [sp, #0]
 8005d7e:	4628      	mov	r0, r5
 8005d80:	4653      	mov	r3, sl
 8005d82:	910b      	str	r1, [sp, #44]	; 0x2c
 8005d84:	f7ff fed4 	bl	8005b30 <__cvt>
 8005d88:	990b      	ldr	r1, [sp, #44]	; 0x2c
 8005d8a:	4680      	mov	r8, r0
 8005d8c:	2947      	cmp	r1, #71	; 0x47
 8005d8e:	990d      	ldr	r1, [sp, #52]	; 0x34
 8005d90:	d108      	bne.n	8005da4 <_printf_float+0x138>
 8005d92:	1cc8      	adds	r0, r1, #3
 8005d94:	db02      	blt.n	8005d9c <_printf_float+0x130>
 8005d96:	6863      	ldr	r3, [r4, #4]
 8005d98:	4299      	cmp	r1, r3
 8005d9a:	dd40      	ble.n	8005e1e <_printf_float+0x1b2>
 8005d9c:	f1a9 0902 	sub.w	r9, r9, #2
 8005da0:	fa5f f989 	uxtb.w	r9, r9
 8005da4:	f1b9 0f65 	cmp.w	r9, #101	; 0x65
 8005da8:	d81f      	bhi.n	8005dea <_printf_float+0x17e>
 8005daa:	464a      	mov	r2, r9
 8005dac:	3901      	subs	r1, #1
 8005dae:	f104 0050 	add.w	r0, r4, #80	; 0x50
 8005db2:	910d      	str	r1, [sp, #52]	; 0x34
 8005db4:	f7ff ff1b 	bl	8005bee <__exponent>
 8005db8:	9a0e      	ldr	r2, [sp, #56]	; 0x38
 8005dba:	4682      	mov	sl, r0
 8005dbc:	1813      	adds	r3, r2, r0
 8005dbe:	2a01      	cmp	r2, #1
 8005dc0:	6123      	str	r3, [r4, #16]
 8005dc2:	dc02      	bgt.n	8005dca <_printf_float+0x15e>
 8005dc4:	6822      	ldr	r2, [r4, #0]
 8005dc6:	07d2      	lsls	r2, r2, #31
 8005dc8:	d501      	bpl.n	8005dce <_printf_float+0x162>
 8005dca:	3301      	adds	r3, #1
 8005dcc:	6123      	str	r3, [r4, #16]
 8005dce:	f89d 3033 	ldrb.w	r3, [sp, #51]	; 0x33
 8005dd2:	2b00      	cmp	r3, #0
 8005dd4:	d09b      	beq.n	8005d0e <_printf_float+0xa2>
 8005dd6:	232d      	movs	r3, #45	; 0x2d
 8005dd8:	f884 3043 	strb.w	r3, [r4, #67]	; 0x43
 8005ddc:	e797      	b.n	8005d0e <_printf_float+0xa2>
 8005dde:	2947      	cmp	r1, #71	; 0x47
 8005de0:	d1bc      	bne.n	8005d5c <_printf_float+0xf0>
 8005de2:	2b00      	cmp	r3, #0
 8005de4:	d1ba      	bne.n	8005d5c <_printf_float+0xf0>
 8005de6:	2301      	movs	r3, #1
 8005de8:	e7b7      	b.n	8005d5a <_printf_float+0xee>
 8005dea:	f1b9 0f66 	cmp.w	r9, #102	; 0x66
 8005dee:	d118      	bne.n	8005e22 <_printf_float+0x1b6>
 8005df0:	2900      	cmp	r1, #0
 8005df2:	6863      	ldr	r3, [r4, #4]
 8005df4:	dd0b      	ble.n	8005e0e <_printf_float+0x1a2>
 8005df6:	6121      	str	r1, [r4, #16]
 8005df8:	b913      	cbnz	r3, 8005e00 <_printf_float+0x194>
 8005dfa:	6822      	ldr	r2, [r4, #0]
 8005dfc:	07d0      	lsls	r0, r2, #31
 8005dfe:	d502      	bpl.n	8005e06 <_printf_float+0x19a>
 8005e00:	3301      	adds	r3, #1
 8005e02:	440b      	add	r3, r1
 8005e04:	6123      	str	r3, [r4, #16]
 8005e06:	f04f 0a00 	mov.w	sl, #0
 8005e0a:	65a1      	str	r1, [r4, #88]	; 0x58
 8005e0c:	e7df      	b.n	8005dce <_printf_float+0x162>
 8005e0e:	b913      	cbnz	r3, 8005e16 <_printf_float+0x1aa>
 8005e10:	6822      	ldr	r2, [r4, #0]
 8005e12:	07d2      	lsls	r2, r2, #31
 8005e14:	d501      	bpl.n	8005e1a <_printf_float+0x1ae>
 8005e16:	3302      	adds	r3, #2
 8005e18:	e7f4      	b.n	8005e04 <_printf_float+0x198>
 8005e1a:	2301      	movs	r3, #1
 8005e1c:	e7f2      	b.n	8005e04 <_printf_float+0x198>
 8005e1e:	f04f 0967 	mov.w	r9, #103	; 0x67
 8005e22:	9b0e      	ldr	r3, [sp, #56]	; 0x38
 8005e24:	4299      	cmp	r1, r3
 8005e26:	db05      	blt.n	8005e34 <_printf_float+0x1c8>
 8005e28:	6823      	ldr	r3, [r4, #0]
 8005e2a:	6121      	str	r1, [r4, #16]
 8005e2c:	07d8      	lsls	r0, r3, #31
 8005e2e:	d5ea      	bpl.n	8005e06 <_printf_float+0x19a>
 8005e30:	1c4b      	adds	r3, r1, #1
 8005e32:	e7e7      	b.n	8005e04 <_printf_float+0x198>
 8005e34:	2900      	cmp	r1, #0
 8005e36:	bfcc      	ite	gt
 8005e38:	2201      	movgt	r2, #1
 8005e3a:	f1c1 0202 	rsble	r2, r1, #2
 8005e3e:	4413      	add	r3, r2
 8005e40:	e7e0      	b.n	8005e04 <_printf_float+0x198>
 8005e42:	6823      	ldr	r3, [r4, #0]
 8005e44:	055a      	lsls	r2, r3, #21
 8005e46:	d407      	bmi.n	8005e58 <_printf_float+0x1ec>
 8005e48:	6923      	ldr	r3, [r4, #16]
 8005e4a:	4642      	mov	r2, r8
 8005e4c:	4631      	mov	r1, r6
 8005e4e:	4628      	mov	r0, r5
 8005e50:	47b8      	blx	r7
 8005e52:	3001      	adds	r0, #1
 8005e54:	d12b      	bne.n	8005eae <_printf_float+0x242>
 8005e56:	e764      	b.n	8005d22 <_printf_float+0xb6>
 8005e58:	f1b9 0f65 	cmp.w	r9, #101	; 0x65
 8005e5c:	f240 80dd 	bls.w	800601a <_printf_float+0x3ae>
 8005e60:	e9d4 0112 	ldrd	r0, r1, [r4, #72]	; 0x48
 8005e64:	2200      	movs	r2, #0
 8005e66:	2300      	movs	r3, #0
 8005e68:	f7fa fd9e 	bl	80009a8 <__aeabi_dcmpeq>
 8005e6c:	2800      	cmp	r0, #0
 8005e6e:	d033      	beq.n	8005ed8 <_printf_float+0x26c>
 8005e70:	2301      	movs	r3, #1
 8005e72:	4631      	mov	r1, r6
 8005e74:	4628      	mov	r0, r5
 8005e76:	4a35      	ldr	r2, [pc, #212]	; (8005f4c <_printf_float+0x2e0>)
 8005e78:	47b8      	blx	r7
 8005e7a:	3001      	adds	r0, #1
 8005e7c:	f43f af51 	beq.w	8005d22 <_printf_float+0xb6>
 8005e80:	e9dd 230d 	ldrd	r2, r3, [sp, #52]	; 0x34
 8005e84:	429a      	cmp	r2, r3
 8005e86:	db02      	blt.n	8005e8e <_printf_float+0x222>
 8005e88:	6823      	ldr	r3, [r4, #0]
 8005e8a:	07d8      	lsls	r0, r3, #31
 8005e8c:	d50f      	bpl.n	8005eae <_printf_float+0x242>
 8005e8e:	e9dd 2309 	ldrd	r2, r3, [sp, #36]	; 0x24
 8005e92:	4631      	mov	r1, r6
 8005e94:	4628      	mov	r0, r5
 8005e96:	47b8      	blx	r7
 8005e98:	3001      	adds	r0, #1
 8005e9a:	f43f af42 	beq.w	8005d22 <_printf_float+0xb6>
 8005e9e:	f04f 0800 	mov.w	r8, #0
 8005ea2:	f104 091a 	add.w	r9, r4, #26
 8005ea6:	9b0e      	ldr	r3, [sp, #56]	; 0x38
 8005ea8:	3b01      	subs	r3, #1
 8005eaa:	4543      	cmp	r3, r8
 8005eac:	dc09      	bgt.n	8005ec2 <_printf_float+0x256>
 8005eae:	6823      	ldr	r3, [r4, #0]
 8005eb0:	079b      	lsls	r3, r3, #30
 8005eb2:	f100 8102 	bmi.w	80060ba <_printf_float+0x44e>
 8005eb6:	68e0      	ldr	r0, [r4, #12]
 8005eb8:	9b0f      	ldr	r3, [sp, #60]	; 0x3c
 8005eba:	4298      	cmp	r0, r3
 8005ebc:	bfb8      	it	lt
 8005ebe:	4618      	movlt	r0, r3
 8005ec0:	e731      	b.n	8005d26 <_printf_float+0xba>
 8005ec2:	2301      	movs	r3, #1
 8005ec4:	464a      	mov	r2, r9
 8005ec6:	4631      	mov	r1, r6
 8005ec8:	4628      	mov	r0, r5
 8005eca:	47b8      	blx	r7
 8005ecc:	3001      	adds	r0, #1
 8005ece:	f43f af28 	beq.w	8005d22 <_printf_float+0xb6>
 8005ed2:	f108 0801 	add.w	r8, r8, #1
 8005ed6:	e7e6      	b.n	8005ea6 <_printf_float+0x23a>
 8005ed8:	9b0d      	ldr	r3, [sp, #52]	; 0x34
 8005eda:	2b00      	cmp	r3, #0
 8005edc:	dc38      	bgt.n	8005f50 <_printf_float+0x2e4>
 8005ede:	2301      	movs	r3, #1
 8005ee0:	4631      	mov	r1, r6
 8005ee2:	4628      	mov	r0, r5
 8005ee4:	4a19      	ldr	r2, [pc, #100]	; (8005f4c <_printf_float+0x2e0>)
 8005ee6:	47b8      	blx	r7
 8005ee8:	3001      	adds	r0, #1
 8005eea:	f43f af1a 	beq.w	8005d22 <_printf_float+0xb6>
 8005eee:	e9dd 230d 	ldrd	r2, r3, [sp, #52]	; 0x34
 8005ef2:	4313      	orrs	r3, r2
 8005ef4:	d102      	bne.n	8005efc <_printf_float+0x290>
 8005ef6:	6823      	ldr	r3, [r4, #0]
 8005ef8:	07d9      	lsls	r1, r3, #31
 8005efa:	d5d8      	bpl.n	8005eae <_printf_float+0x242>
 8005efc:	e9dd 2309 	ldrd	r2, r3, [sp, #36]	; 0x24
 8005f00:	4631      	mov	r1, r6
 8005f02:	4628      	mov	r0, r5
 8005f04:	47b8      	blx	r7
 8005f06:	3001      	adds	r0, #1
 8005f08:	f43f af0b 	beq.w	8005d22 <_printf_float+0xb6>
 8005f0c:	f04f 0900 	mov.w	r9, #0
 8005f10:	f104 0a1a 	add.w	sl, r4, #26
 8005f14:	9b0d      	ldr	r3, [sp, #52]	; 0x34
 8005f16:	425b      	negs	r3, r3
 8005f18:	454b      	cmp	r3, r9
 8005f1a:	dc01      	bgt.n	8005f20 <_printf_float+0x2b4>
 8005f1c:	9b0e      	ldr	r3, [sp, #56]	; 0x38
 8005f1e:	e794      	b.n	8005e4a <_printf_float+0x1de>
 8005f20:	2301      	movs	r3, #1
 8005f22:	4652      	mov	r2, sl
 8005f24:	4631      	mov	r1, r6
 8005f26:	4628      	mov	r0, r5
 8005f28:	47b8      	blx	r7
 8005f2a:	3001      	adds	r0, #1
 8005f2c:	f43f aef9 	beq.w	8005d22 <_printf_float+0xb6>
 8005f30:	f109 0901 	add.w	r9, r9, #1
 8005f34:	e7ee      	b.n	8005f14 <_printf_float+0x2a8>
 8005f36:	bf00      	nop
 8005f38:	7fefffff 	.word	0x7fefffff
 8005f3c:	08008b18 	.word	0x08008b18
 8005f40:	08008b1c 	.word	0x08008b1c
 8005f44:	08008b24 	.word	0x08008b24
 8005f48:	08008b20 	.word	0x08008b20
 8005f4c:	08008b28 	.word	0x08008b28
 8005f50:	9a0e      	ldr	r2, [sp, #56]	; 0x38
 8005f52:	6da3      	ldr	r3, [r4, #88]	; 0x58
 8005f54:	429a      	cmp	r2, r3
 8005f56:	bfa8      	it	ge
 8005f58:	461a      	movge	r2, r3
 8005f5a:	2a00      	cmp	r2, #0
 8005f5c:	4691      	mov	r9, r2
 8005f5e:	dc37      	bgt.n	8005fd0 <_printf_float+0x364>
 8005f60:	f04f 0b00 	mov.w	fp, #0
 8005f64:	ea29 79e9 	bic.w	r9, r9, r9, asr #31
 8005f68:	f104 021a 	add.w	r2, r4, #26
 8005f6c:	f8d4 a058 	ldr.w	sl, [r4, #88]	; 0x58
 8005f70:	ebaa 0309 	sub.w	r3, sl, r9
 8005f74:	455b      	cmp	r3, fp
 8005f76:	dc33      	bgt.n	8005fe0 <_printf_float+0x374>
 8005f78:	e9dd 230d 	ldrd	r2, r3, [sp, #52]	; 0x34
 8005f7c:	429a      	cmp	r2, r3
 8005f7e:	db3b      	blt.n	8005ff8 <_printf_float+0x38c>
 8005f80:	6823      	ldr	r3, [r4, #0]
 8005f82:	07da      	lsls	r2, r3, #31
 8005f84:	d438      	bmi.n	8005ff8 <_printf_float+0x38c>
 8005f86:	9a0e      	ldr	r2, [sp, #56]	; 0x38
 8005f88:	990d      	ldr	r1, [sp, #52]	; 0x34
 8005f8a:	eba2 030a 	sub.w	r3, r2, sl
 8005f8e:	eba2 0901 	sub.w	r9, r2, r1
 8005f92:	4599      	cmp	r9, r3
 8005f94:	bfa8      	it	ge
 8005f96:	4699      	movge	r9, r3
 8005f98:	f1b9 0f00 	cmp.w	r9, #0
 8005f9c:	dc34      	bgt.n	8006008 <_printf_float+0x39c>
 8005f9e:	f04f 0800 	mov.w	r8, #0
 8005fa2:	ea29 79e9 	bic.w	r9, r9, r9, asr #31
 8005fa6:	f104 0a1a 	add.w	sl, r4, #26
 8005faa:	e9dd 230d 	ldrd	r2, r3, [sp, #52]	; 0x34
 8005fae:	1a9b      	subs	r3, r3, r2
 8005fb0:	eba3 0309 	sub.w	r3, r3, r9
 8005fb4:	4543      	cmp	r3, r8
 8005fb6:	f77f af7a 	ble.w	8005eae <_printf_float+0x242>
 8005fba:	2301      	movs	r3, #1
 8005fbc:	4652      	mov	r2, sl
 8005fbe:	4631      	mov	r1, r6
 8005fc0:	4628      	mov	r0, r5
 8005fc2:	47b8      	blx	r7
 8005fc4:	3001      	adds	r0, #1
 8005fc6:	f43f aeac 	beq.w	8005d22 <_printf_float+0xb6>
 8005fca:	f108 0801 	add.w	r8, r8, #1
 8005fce:	e7ec      	b.n	8005faa <_printf_float+0x33e>
 8005fd0:	4613      	mov	r3, r2
 8005fd2:	4631      	mov	r1, r6
 8005fd4:	4642      	mov	r2, r8
 8005fd6:	4628      	mov	r0, r5
 8005fd8:	47b8      	blx	r7
 8005fda:	3001      	adds	r0, #1
 8005fdc:	d1c0      	bne.n	8005f60 <_printf_float+0x2f4>
 8005fde:	e6a0      	b.n	8005d22 <_printf_float+0xb6>
 8005fe0:	2301      	movs	r3, #1
 8005fe2:	4631      	mov	r1, r6
 8005fe4:	4628      	mov	r0, r5
 8005fe6:	920b      	str	r2, [sp, #44]	; 0x2c
 8005fe8:	47b8      	blx	r7
 8005fea:	3001      	adds	r0, #1
 8005fec:	f43f ae99 	beq.w	8005d22 <_printf_float+0xb6>
 8005ff0:	9a0b      	ldr	r2, [sp, #44]	; 0x2c
 8005ff2:	f10b 0b01 	add.w	fp, fp, #1
 8005ff6:	e7b9      	b.n	8005f6c <_printf_float+0x300>
 8005ff8:	4631      	mov	r1, r6
 8005ffa:	e9dd 2309 	ldrd	r2, r3, [sp, #36]	; 0x24
 8005ffe:	4628      	mov	r0, r5
 8006000:	47b8      	blx	r7
 8006002:	3001      	adds	r0, #1
 8006004:	d1bf      	bne.n	8005f86 <_printf_float+0x31a>
 8006006:	e68c      	b.n	8005d22 <_printf_float+0xb6>
 8006008:	464b      	mov	r3, r9
 800600a:	4631      	mov	r1, r6
 800600c:	4628      	mov	r0, r5
 800600e:	eb08 020a 	add.w	r2, r8, sl
 8006012:	47b8      	blx	r7
 8006014:	3001      	adds	r0, #1
 8006016:	d1c2      	bne.n	8005f9e <_printf_float+0x332>
 8006018:	e683      	b.n	8005d22 <_printf_float+0xb6>
 800601a:	9a0e      	ldr	r2, [sp, #56]	; 0x38
 800601c:	2a01      	cmp	r2, #1
 800601e:	dc01      	bgt.n	8006024 <_printf_float+0x3b8>
 8006020:	07db      	lsls	r3, r3, #31
 8006022:	d537      	bpl.n	8006094 <_printf_float+0x428>
 8006024:	2301      	movs	r3, #1
 8006026:	4642      	mov	r2, r8
 8006028:	4631      	mov	r1, r6
 800602a:	4628      	mov	r0, r5
 800602c:	47b8      	blx	r7
 800602e:	3001      	adds	r0, #1
 8006030:	f43f ae77 	beq.w	8005d22 <_printf_float+0xb6>
 8006034:	e9dd 2309 	ldrd	r2, r3, [sp, #36]	; 0x24
 8006038:	4631      	mov	r1, r6
 800603a:	4628      	mov	r0, r5
 800603c:	47b8      	blx	r7
 800603e:	3001      	adds	r0, #1
 8006040:	f43f ae6f 	beq.w	8005d22 <_printf_float+0xb6>
 8006044:	e9d4 0112 	ldrd	r0, r1, [r4, #72]	; 0x48
 8006048:	2200      	movs	r2, #0
 800604a:	2300      	movs	r3, #0
 800604c:	f7fa fcac 	bl	80009a8 <__aeabi_dcmpeq>
 8006050:	b9d8      	cbnz	r0, 800608a <_printf_float+0x41e>
 8006052:	9b0e      	ldr	r3, [sp, #56]	; 0x38
 8006054:	f108 0201 	add.w	r2, r8, #1
 8006058:	3b01      	subs	r3, #1
 800605a:	4631      	mov	r1, r6
 800605c:	4628      	mov	r0, r5
 800605e:	47b8      	blx	r7
 8006060:	3001      	adds	r0, #1
 8006062:	d10e      	bne.n	8006082 <_printf_float+0x416>
 8006064:	e65d      	b.n	8005d22 <_printf_float+0xb6>
 8006066:	2301      	movs	r3, #1
 8006068:	464a      	mov	r2, r9
 800606a:	4631      	mov	r1, r6
 800606c:	4628      	mov	r0, r5
 800606e:	47b8      	blx	r7
 8006070:	3001      	adds	r0, #1
 8006072:	f43f ae56 	beq.w	8005d22 <_printf_float+0xb6>
 8006076:	f108 0801 	add.w	r8, r8, #1
 800607a:	9b0e      	ldr	r3, [sp, #56]	; 0x38
 800607c:	3b01      	subs	r3, #1
 800607e:	4543      	cmp	r3, r8
 8006080:	dcf1      	bgt.n	8006066 <_printf_float+0x3fa>
 8006082:	4653      	mov	r3, sl
 8006084:	f104 0250 	add.w	r2, r4, #80	; 0x50
 8006088:	e6e0      	b.n	8005e4c <_printf_float+0x1e0>
 800608a:	f04f 0800 	mov.w	r8, #0
 800608e:	f104 091a 	add.w	r9, r4, #26
 8006092:	e7f2      	b.n	800607a <_printf_float+0x40e>
 8006094:	2301      	movs	r3, #1
 8006096:	4642      	mov	r2, r8
 8006098:	e7df      	b.n	800605a <_printf_float+0x3ee>
 800609a:	2301      	movs	r3, #1
 800609c:	464a      	mov	r2, r9
 800609e:	4631      	mov	r1, r6
 80060a0:	4628      	mov	r0, r5
 80060a2:	47b8      	blx	r7
 80060a4:	3001      	adds	r0, #1
 80060a6:	f43f ae3c 	beq.w	8005d22 <_printf_float+0xb6>
 80060aa:	f108 0801 	add.w	r8, r8, #1
 80060ae:	68e3      	ldr	r3, [r4, #12]
 80060b0:	990f      	ldr	r1, [sp, #60]	; 0x3c
 80060b2:	1a5b      	subs	r3, r3, r1
 80060b4:	4543      	cmp	r3, r8
 80060b6:	dcf0      	bgt.n	800609a <_printf_float+0x42e>
 80060b8:	e6fd      	b.n	8005eb6 <_printf_float+0x24a>
 80060ba:	f04f 0800 	mov.w	r8, #0
 80060be:	f104 0919 	add.w	r9, r4, #25
 80060c2:	e7f4      	b.n	80060ae <_printf_float+0x442>

080060c4 <_printf_common>:
 80060c4:	e92d 47f0 	stmdb	sp!, {r4, r5, r6, r7, r8, r9, sl, lr}
 80060c8:	4616      	mov	r6, r2
 80060ca:	4699      	mov	r9, r3
 80060cc:	688a      	ldr	r2, [r1, #8]
 80060ce:	690b      	ldr	r3, [r1, #16]
 80060d0:	4607      	mov	r7, r0
 80060d2:	4293      	cmp	r3, r2
 80060d4:	bfb8      	it	lt
 80060d6:	4613      	movlt	r3, r2
 80060d8:	6033      	str	r3, [r6, #0]
 80060da:	f891 2043 	ldrb.w	r2, [r1, #67]	; 0x43
 80060de:	460c      	mov	r4, r1
 80060e0:	f8dd 8020 	ldr.w	r8, [sp, #32]
 80060e4:	b10a      	cbz	r2, 80060ea <_printf_common+0x26>
 80060e6:	3301      	adds	r3, #1
 80060e8:	6033      	str	r3, [r6, #0]
 80060ea:	6823      	ldr	r3, [r4, #0]
 80060ec:	0699      	lsls	r1, r3, #26
 80060ee:	bf42      	ittt	mi
 80060f0:	6833      	ldrmi	r3, [r6, #0]
 80060f2:	3302      	addmi	r3, #2
 80060f4:	6033      	strmi	r3, [r6, #0]
 80060f6:	6825      	ldr	r5, [r4, #0]
 80060f8:	f015 0506 	ands.w	r5, r5, #6
 80060fc:	d106      	bne.n	800610c <_printf_common+0x48>
 80060fe:	f104 0a19 	add.w	sl, r4, #25
 8006102:	68e3      	ldr	r3, [r4, #12]
 8006104:	6832      	ldr	r2, [r6, #0]
 8006106:	1a9b      	subs	r3, r3, r2
 8006108:	42ab      	cmp	r3, r5
 800610a:	dc28      	bgt.n	800615e <_printf_common+0x9a>
 800610c:	f894 2043 	ldrb.w	r2, [r4, #67]	; 0x43
 8006110:	1e13      	subs	r3, r2, #0
 8006112:	6822      	ldr	r2, [r4, #0]
 8006114:	bf18      	it	ne
 8006116:	2301      	movne	r3, #1
 8006118:	0692      	lsls	r2, r2, #26
 800611a:	d42d      	bmi.n	8006178 <_printf_common+0xb4>
 800611c:	4649      	mov	r1, r9
 800611e:	4638      	mov	r0, r7
 8006120:	f104 0243 	add.w	r2, r4, #67	; 0x43
 8006124:	47c0      	blx	r8
 8006126:	3001      	adds	r0, #1
 8006128:	d020      	beq.n	800616c <_printf_common+0xa8>
 800612a:	6823      	ldr	r3, [r4, #0]
 800612c:	68e5      	ldr	r5, [r4, #12]
 800612e:	f003 0306 	and.w	r3, r3, #6
 8006132:	2b04      	cmp	r3, #4
 8006134:	bf18      	it	ne
 8006136:	2500      	movne	r5, #0
 8006138:	6832      	ldr	r2, [r6, #0]
 800613a:	f04f 0600 	mov.w	r6, #0
 800613e:	68a3      	ldr	r3, [r4, #8]
 8006140:	bf08      	it	eq
 8006142:	1aad      	subeq	r5, r5, r2
 8006144:	6922      	ldr	r2, [r4, #16]
 8006146:	bf08      	it	eq
 8006148:	ea25 75e5 	biceq.w	r5, r5, r5, asr #31
 800614c:	4293      	cmp	r3, r2
 800614e:	bfc4      	itt	gt
 8006150:	1a9b      	subgt	r3, r3, r2
 8006152:	18ed      	addgt	r5, r5, r3
 8006154:	341a      	adds	r4, #26
 8006156:	42b5      	cmp	r5, r6
 8006158:	d11a      	bne.n	8006190 <_printf_common+0xcc>
 800615a:	2000      	movs	r0, #0
 800615c:	e008      	b.n	8006170 <_printf_common+0xac>
 800615e:	2301      	movs	r3, #1
 8006160:	4652      	mov	r2, sl
 8006162:	4649      	mov	r1, r9
 8006164:	4638      	mov	r0, r7
 8006166:	47c0      	blx	r8
 8006168:	3001      	adds	r0, #1
 800616a:	d103      	bne.n	8006174 <_printf_common+0xb0>
 800616c:	f04f 30ff 	mov.w	r0, #4294967295	; 0xffffffff
 8006170:	e8bd 87f0 	ldmia.w	sp!, {r4, r5, r6, r7, r8, r9, sl, pc}
 8006174:	3501      	adds	r5, #1
 8006176:	e7c4      	b.n	8006102 <_printf_common+0x3e>
 8006178:	2030      	movs	r0, #48	; 0x30
 800617a:	18e1      	adds	r1, r4, r3
 800617c:	f881 0043 	strb.w	r0, [r1, #67]	; 0x43
 8006180:	1c5a      	adds	r2, r3, #1
 8006182:	f894 1045 	ldrb.w	r1, [r4, #69]	; 0x45
 8006186:	4422      	add	r2, r4
 8006188:	3302      	adds	r3, #2
 800618a:	f882 1043 	strb.w	r1, [r2, #67]	; 0x43
 800618e:	e7c5      	b.n	800611c <_printf_common+0x58>
 8006190:	2301      	movs	r3, #1
 8006192:	4622      	mov	r2, r4
 8006194:	4649      	mov	r1, r9
 8006196:	4638      	mov	r0, r7
 8006198:	47c0      	blx	r8
 800619a:	3001      	adds	r0, #1
 800619c:	d0e6      	beq.n	800616c <_printf_common+0xa8>
 800619e:	3601      	adds	r6, #1
 80061a0:	e7d9      	b.n	8006156 <_printf_common+0x92>
	...

080061a4 <_printf_i>:
 80061a4:	e92d 47ff 	stmdb	sp!, {r0, r1, r2, r3, r4, r5, r6, r7, r8, r9, sl, lr}
 80061a8:	460c      	mov	r4, r1
 80061aa:	7e27      	ldrb	r7, [r4, #24]
 80061ac:	4691      	mov	r9, r2
 80061ae:	2f78      	cmp	r7, #120	; 0x78
 80061b0:	4680      	mov	r8, r0
 80061b2:	469a      	mov	sl, r3
 80061b4:	990c      	ldr	r1, [sp, #48]	; 0x30
 80061b6:	f104 0243 	add.w	r2, r4, #67	; 0x43
 80061ba:	d807      	bhi.n	80061cc <_printf_i+0x28>
 80061bc:	2f62      	cmp	r7, #98	; 0x62
 80061be:	d80a      	bhi.n	80061d6 <_printf_i+0x32>
 80061c0:	2f00      	cmp	r7, #0
 80061c2:	f000 80d9 	beq.w	8006378 <_printf_i+0x1d4>
 80061c6:	2f58      	cmp	r7, #88	; 0x58
 80061c8:	f000 80a4 	beq.w	8006314 <_printf_i+0x170>
 80061cc:	f104 0642 	add.w	r6, r4, #66	; 0x42
 80061d0:	f884 7042 	strb.w	r7, [r4, #66]	; 0x42
 80061d4:	e03a      	b.n	800624c <_printf_i+0xa8>
 80061d6:	f1a7 0363 	sub.w	r3, r7, #99	; 0x63
 80061da:	2b15      	cmp	r3, #21
 80061dc:	d8f6      	bhi.n	80061cc <_printf_i+0x28>
 80061de:	a001      	add	r0, pc, #4	; (adr r0, 80061e4 <_printf_i+0x40>)
 80061e0:	f850 f023 	ldr.w	pc, [r0, r3, lsl #2]
 80061e4:	0800623d 	.word	0x0800623d
 80061e8:	08006251 	.word	0x08006251
 80061ec:	080061cd 	.word	0x080061cd
 80061f0:	080061cd 	.word	0x080061cd
 80061f4:	080061cd 	.word	0x080061cd
 80061f8:	080061cd 	.word	0x080061cd
 80061fc:	08006251 	.word	0x08006251
 8006200:	080061cd 	.word	0x080061cd
 8006204:	080061cd 	.word	0x080061cd
 8006208:	080061cd 	.word	0x080061cd
 800620c:	080061cd 	.word	0x080061cd
 8006210:	0800635f 	.word	0x0800635f
 8006214:	08006281 	.word	0x08006281
 8006218:	08006341 	.word	0x08006341
 800621c:	080061cd 	.word	0x080061cd
 8006220:	080061cd 	.word	0x080061cd
 8006224:	08006381 	.word	0x08006381
 8006228:	080061cd 	.word	0x080061cd
 800622c:	08006281 	.word	0x08006281
 8006230:	080061cd 	.word	0x080061cd
 8006234:	080061cd 	.word	0x080061cd
 8006238:	08006349 	.word	0x08006349
 800623c:	680b      	ldr	r3, [r1, #0]
 800623e:	f104 0642 	add.w	r6, r4, #66	; 0x42
 8006242:	1d1a      	adds	r2, r3, #4
 8006244:	681b      	ldr	r3, [r3, #0]
 8006246:	600a      	str	r2, [r1, #0]
 8006248:	f884 3042 	strb.w	r3, [r4, #66]	; 0x42
 800624c:	2301      	movs	r3, #1
 800624e:	e0a4      	b.n	800639a <_printf_i+0x1f6>
 8006250:	6825      	ldr	r5, [r4, #0]
 8006252:	6808      	ldr	r0, [r1, #0]
 8006254:	062e      	lsls	r6, r5, #24
 8006256:	f100 0304 	add.w	r3, r0, #4
 800625a:	d50a      	bpl.n	8006272 <_printf_i+0xce>
 800625c:	6805      	ldr	r5, [r0, #0]
 800625e:	600b      	str	r3, [r1, #0]
 8006260:	2d00      	cmp	r5, #0
 8006262:	da03      	bge.n	800626c <_printf_i+0xc8>
 8006264:	232d      	movs	r3, #45	; 0x2d
 8006266:	426d      	negs	r5, r5
 8006268:	f884 3043 	strb.w	r3, [r4, #67]	; 0x43
 800626c:	230a      	movs	r3, #10
 800626e:	485e      	ldr	r0, [pc, #376]	; (80063e8 <_printf_i+0x244>)
 8006270:	e019      	b.n	80062a6 <_printf_i+0x102>
 8006272:	f015 0f40 	tst.w	r5, #64	; 0x40
 8006276:	6805      	ldr	r5, [r0, #0]
 8006278:	600b      	str	r3, [r1, #0]
 800627a:	bf18      	it	ne
 800627c:	b22d      	sxthne	r5, r5
 800627e:	e7ef      	b.n	8006260 <_printf_i+0xbc>
 8006280:	680b      	ldr	r3, [r1, #0]
 8006282:	6825      	ldr	r5, [r4, #0]
 8006284:	1d18      	adds	r0, r3, #4
 8006286:	6008      	str	r0, [r1, #0]
 8006288:	0628      	lsls	r0, r5, #24
 800628a:	d501      	bpl.n	8006290 <_printf_i+0xec>
 800628c:	681d      	ldr	r5, [r3, #0]
 800628e:	e002      	b.n	8006296 <_printf_i+0xf2>
 8006290:	0669      	lsls	r1, r5, #25
 8006292:	d5fb      	bpl.n	800628c <_printf_i+0xe8>
 8006294:	881d      	ldrh	r5, [r3, #0]
 8006296:	2f6f      	cmp	r7, #111	; 0x6f
 8006298:	bf0c      	ite	eq
 800629a:	2308      	moveq	r3, #8
 800629c:	230a      	movne	r3, #10
 800629e:	4852      	ldr	r0, [pc, #328]	; (80063e8 <_printf_i+0x244>)
 80062a0:	2100      	movs	r1, #0
 80062a2:	f884 1043 	strb.w	r1, [r4, #67]	; 0x43
 80062a6:	6866      	ldr	r6, [r4, #4]
 80062a8:	2e00      	cmp	r6, #0
 80062aa:	bfa8      	it	ge
 80062ac:	6821      	ldrge	r1, [r4, #0]
 80062ae:	60a6      	str	r6, [r4, #8]
 80062b0:	bfa4      	itt	ge
 80062b2:	f021 0104 	bicge.w	r1, r1, #4
 80062b6:	6021      	strge	r1, [r4, #0]
 80062b8:	b90d      	cbnz	r5, 80062be <_printf_i+0x11a>
 80062ba:	2e00      	cmp	r6, #0
 80062bc:	d04d      	beq.n	800635a <_printf_i+0x1b6>
 80062be:	4616      	mov	r6, r2
 80062c0:	fbb5 f1f3 	udiv	r1, r5, r3
 80062c4:	fb03 5711 	mls	r7, r3, r1, r5
 80062c8:	5dc7      	ldrb	r7, [r0, r7]
 80062ca:	f806 7d01 	strb.w	r7, [r6, #-1]!
 80062ce:	462f      	mov	r7, r5
 80062d0:	42bb      	cmp	r3, r7
 80062d2:	460d      	mov	r5, r1
 80062d4:	d9f4      	bls.n	80062c0 <_printf_i+0x11c>
 80062d6:	2b08      	cmp	r3, #8
 80062d8:	d10b      	bne.n	80062f2 <_printf_i+0x14e>
 80062da:	6823      	ldr	r3, [r4, #0]
 80062dc:	07df      	lsls	r7, r3, #31
 80062de:	d508      	bpl.n	80062f2 <_printf_i+0x14e>
 80062e0:	6923      	ldr	r3, [r4, #16]
 80062e2:	6861      	ldr	r1, [r4, #4]
 80062e4:	4299      	cmp	r1, r3
 80062e6:	bfde      	ittt	le
 80062e8:	2330      	movle	r3, #48	; 0x30
 80062ea:	f806 3c01 	strble.w	r3, [r6, #-1]
 80062ee:	f106 36ff 	addle.w	r6, r6, #4294967295	; 0xffffffff
 80062f2:	1b92      	subs	r2, r2, r6
 80062f4:	6122      	str	r2, [r4, #16]
 80062f6:	464b      	mov	r3, r9
 80062f8:	4621      	mov	r1, r4
 80062fa:	4640      	mov	r0, r8
 80062fc:	f8cd a000 	str.w	sl, [sp]
 8006300:	aa03      	add	r2, sp, #12
 8006302:	f7ff fedf 	bl	80060c4 <_printf_common>
 8006306:	3001      	adds	r0, #1
 8006308:	d14c      	bne.n	80063a4 <_printf_i+0x200>
 800630a:	f04f 30ff 	mov.w	r0, #4294967295	; 0xffffffff
 800630e:	b004      	add	sp, #16
 8006310:	e8bd 87f0 	ldmia.w	sp!, {r4, r5, r6, r7, r8, r9, sl, pc}
 8006314:	4834      	ldr	r0, [pc, #208]	; (80063e8 <_printf_i+0x244>)
 8006316:	f884 7045 	strb.w	r7, [r4, #69]	; 0x45
 800631a:	680e      	ldr	r6, [r1, #0]
 800631c:	6823      	ldr	r3, [r4, #0]
 800631e:	f856 5b04 	ldr.w	r5, [r6], #4
 8006322:	061f      	lsls	r7, r3, #24
 8006324:	600e      	str	r6, [r1, #0]
 8006326:	d514      	bpl.n	8006352 <_printf_i+0x1ae>
 8006328:	07d9      	lsls	r1, r3, #31
 800632a:	bf44      	itt	mi
 800632c:	f043 0320 	orrmi.w	r3, r3, #32
 8006330:	6023      	strmi	r3, [r4, #0]
 8006332:	b91d      	cbnz	r5, 800633c <_printf_i+0x198>
 8006334:	6823      	ldr	r3, [r4, #0]
 8006336:	f023 0320 	bic.w	r3, r3, #32
 800633a:	6023      	str	r3, [r4, #0]
 800633c:	2310      	movs	r3, #16
 800633e:	e7af      	b.n	80062a0 <_printf_i+0xfc>
 8006340:	6823      	ldr	r3, [r4, #0]
 8006342:	f043 0320 	orr.w	r3, r3, #32
 8006346:	6023      	str	r3, [r4, #0]
 8006348:	2378      	movs	r3, #120	; 0x78
 800634a:	4828      	ldr	r0, [pc, #160]	; (80063ec <_printf_i+0x248>)
 800634c:	f884 3045 	strb.w	r3, [r4, #69]	; 0x45
 8006350:	e7e3      	b.n	800631a <_printf_i+0x176>
 8006352:	065e      	lsls	r6, r3, #25
 8006354:	bf48      	it	mi
 8006356:	b2ad      	uxthmi	r5, r5
 8006358:	e7e6      	b.n	8006328 <_printf_i+0x184>
 800635a:	4616      	mov	r6, r2
 800635c:	e7bb      	b.n	80062d6 <_printf_i+0x132>
 800635e:	680b      	ldr	r3, [r1, #0]
 8006360:	6826      	ldr	r6, [r4, #0]
 8006362:	1d1d      	adds	r5, r3, #4
 8006364:	6960      	ldr	r0, [r4, #20]
 8006366:	600d      	str	r5, [r1, #0]
 8006368:	0635      	lsls	r5, r6, #24
 800636a:	681b      	ldr	r3, [r3, #0]
 800636c:	d501      	bpl.n	8006372 <_printf_i+0x1ce>
 800636e:	6018      	str	r0, [r3, #0]
 8006370:	e002      	b.n	8006378 <_printf_i+0x1d4>
 8006372:	0671      	lsls	r1, r6, #25
 8006374:	d5fb      	bpl.n	800636e <_printf_i+0x1ca>
 8006376:	8018      	strh	r0, [r3, #0]
 8006378:	2300      	movs	r3, #0
 800637a:	4616      	mov	r6, r2
 800637c:	6123      	str	r3, [r4, #16]
 800637e:	e7ba      	b.n	80062f6 <_printf_i+0x152>
 8006380:	680b      	ldr	r3, [r1, #0]
 8006382:	1d1a      	adds	r2, r3, #4
 8006384:	600a      	str	r2, [r1, #0]
 8006386:	681e      	ldr	r6, [r3, #0]
 8006388:	2100      	movs	r1, #0
 800638a:	4630      	mov	r0, r6
 800638c:	6862      	ldr	r2, [r4, #4]
 800638e:	f000 ff19 	bl	80071c4 <memchr>
 8006392:	b108      	cbz	r0, 8006398 <_printf_i+0x1f4>
 8006394:	1b80      	subs	r0, r0, r6
 8006396:	6060      	str	r0, [r4, #4]
 8006398:	6863      	ldr	r3, [r4, #4]
 800639a:	6123      	str	r3, [r4, #16]
 800639c:	2300      	movs	r3, #0
 800639e:	f884 3043 	strb.w	r3, [r4, #67]	; 0x43
 80063a2:	e7a8      	b.n	80062f6 <_printf_i+0x152>
 80063a4:	4632      	mov	r2, r6
 80063a6:	4649      	mov	r1, r9
 80063a8:	4640      	mov	r0, r8
 80063aa:	6923      	ldr	r3, [r4, #16]
 80063ac:	47d0      	blx	sl
 80063ae:	3001      	adds	r0, #1
 80063b0:	d0ab      	beq.n	800630a <_printf_i+0x166>
 80063b2:	6823      	ldr	r3, [r4, #0]
 80063b4:	079b      	lsls	r3, r3, #30
 80063b6:	d413      	bmi.n	80063e0 <_printf_i+0x23c>
 80063b8:	68e0      	ldr	r0, [r4, #12]
 80063ba:	9b03      	ldr	r3, [sp, #12]
 80063bc:	4298      	cmp	r0, r3
 80063be:	bfb8      	it	lt
 80063c0:	4618      	movlt	r0, r3
 80063c2:	e7a4      	b.n	800630e <_printf_i+0x16a>
 80063c4:	2301      	movs	r3, #1
 80063c6:	4632      	mov	r2, r6
 80063c8:	4649      	mov	r1, r9
 80063ca:	4640      	mov	r0, r8
 80063cc:	47d0      	blx	sl
 80063ce:	3001      	adds	r0, #1
 80063d0:	d09b      	beq.n	800630a <_printf_i+0x166>
 80063d2:	3501      	adds	r5, #1
 80063d4:	68e3      	ldr	r3, [r4, #12]
 80063d6:	9903      	ldr	r1, [sp, #12]
 80063d8:	1a5b      	subs	r3, r3, r1
 80063da:	42ab      	cmp	r3, r5
 80063dc:	dcf2      	bgt.n	80063c4 <_printf_i+0x220>
 80063de:	e7eb      	b.n	80063b8 <_printf_i+0x214>
 80063e0:	2500      	movs	r5, #0
 80063e2:	f104 0619 	add.w	r6, r4, #25
 80063e6:	e7f5      	b.n	80063d4 <_printf_i+0x230>
 80063e8:	08008b2a 	.word	0x08008b2a
 80063ec:	08008b3b 	.word	0x08008b3b

080063f0 <siprintf>:
 80063f0:	b40e      	push	{r1, r2, r3}
 80063f2:	f06f 4100 	mvn.w	r1, #2147483648	; 0x80000000
 80063f6:	b500      	push	{lr}
 80063f8:	b09c      	sub	sp, #112	; 0x70
 80063fa:	ab1d      	add	r3, sp, #116	; 0x74
 80063fc:	9002      	str	r0, [sp, #8]
 80063fe:	9006      	str	r0, [sp, #24]
 8006400:	9107      	str	r1, [sp, #28]
 8006402:	9104      	str	r1, [sp, #16]
 8006404:	4808      	ldr	r0, [pc, #32]	; (8006428 <siprintf+0x38>)
 8006406:	4909      	ldr	r1, [pc, #36]	; (800642c <siprintf+0x3c>)
 8006408:	f853 2b04 	ldr.w	r2, [r3], #4
 800640c:	9105      	str	r1, [sp, #20]
 800640e:	6800      	ldr	r0, [r0, #0]
 8006410:	a902      	add	r1, sp, #8
 8006412:	9301      	str	r3, [sp, #4]
 8006414:	f001 fb84 	bl	8007b20 <_svfiprintf_r>
 8006418:	2200      	movs	r2, #0
 800641a:	9b02      	ldr	r3, [sp, #8]
 800641c:	701a      	strb	r2, [r3, #0]
 800641e:	b01c      	add	sp, #112	; 0x70
 8006420:	f85d eb04 	ldr.w	lr, [sp], #4
 8006424:	b003      	add	sp, #12
 8006426:	4770      	bx	lr
 8006428:	2000005c 	.word	0x2000005c
 800642c:	ffff0208 	.word	0xffff0208

08006430 <strcpy>:
 8006430:	4603      	mov	r3, r0
 8006432:	f811 2b01 	ldrb.w	r2, [r1], #1
 8006436:	f803 2b01 	strb.w	r2, [r3], #1
 800643a:	2a00      	cmp	r2, #0
 800643c:	d1f9      	bne.n	8006432 <strcpy+0x2>
 800643e:	4770      	bx	lr

08006440 <_vsniprintf_r>:
 8006440:	b530      	push	{r4, r5, lr}
 8006442:	1e14      	subs	r4, r2, #0
 8006444:	4605      	mov	r5, r0
 8006446:	b09b      	sub	sp, #108	; 0x6c
 8006448:	4618      	mov	r0, r3
 800644a:	da05      	bge.n	8006458 <_vsniprintf_r+0x18>
 800644c:	238b      	movs	r3, #139	; 0x8b
 800644e:	f04f 30ff 	mov.w	r0, #4294967295	; 0xffffffff
 8006452:	602b      	str	r3, [r5, #0]
 8006454:	b01b      	add	sp, #108	; 0x6c
 8006456:	bd30      	pop	{r4, r5, pc}
 8006458:	f44f 7302 	mov.w	r3, #520	; 0x208
 800645c:	f8ad 300c 	strh.w	r3, [sp, #12]
 8006460:	bf0c      	ite	eq
 8006462:	4623      	moveq	r3, r4
 8006464:	f104 33ff 	addne.w	r3, r4, #4294967295	; 0xffffffff
 8006468:	9302      	str	r3, [sp, #8]
 800646a:	9305      	str	r3, [sp, #20]
 800646c:	f64f 73ff 	movw	r3, #65535	; 0xffff
 8006470:	4602      	mov	r2, r0
 8006472:	9100      	str	r1, [sp, #0]
 8006474:	9104      	str	r1, [sp, #16]
 8006476:	f8ad 300e 	strh.w	r3, [sp, #14]
 800647a:	4669      	mov	r1, sp
 800647c:	9b1e      	ldr	r3, [sp, #120]	; 0x78
 800647e:	4628      	mov	r0, r5
 8006480:	f001 fb4e 	bl	8007b20 <_svfiprintf_r>
 8006484:	1c43      	adds	r3, r0, #1
 8006486:	bfbc      	itt	lt
 8006488:	238b      	movlt	r3, #139	; 0x8b
 800648a:	602b      	strlt	r3, [r5, #0]
 800648c:	2c00      	cmp	r4, #0
 800648e:	d0e1      	beq.n	8006454 <_vsniprintf_r+0x14>
 8006490:	2200      	movs	r2, #0
 8006492:	9b00      	ldr	r3, [sp, #0]
 8006494:	701a      	strb	r2, [r3, #0]
 8006496:	e7dd      	b.n	8006454 <_vsniprintf_r+0x14>

08006498 <vsniprintf>:
 8006498:	b507      	push	{r0, r1, r2, lr}
 800649a:	9300      	str	r3, [sp, #0]
 800649c:	4613      	mov	r3, r2
 800649e:	460a      	mov	r2, r1
 80064a0:	4601      	mov	r1, r0
 80064a2:	4803      	ldr	r0, [pc, #12]	; (80064b0 <vsniprintf+0x18>)
 80064a4:	6800      	ldr	r0, [r0, #0]
 80064a6:	f7ff ffcb 	bl	8006440 <_vsniprintf_r>
 80064aa:	b003      	add	sp, #12
 80064ac:	f85d fb04 	ldr.w	pc, [sp], #4
 80064b0:	2000005c 	.word	0x2000005c

080064b4 <quorem>:
 80064b4:	e92d 4ff7 	stmdb	sp!, {r0, r1, r2, r4, r5, r6, r7, r8, r9, sl, fp, lr}
 80064b8:	6903      	ldr	r3, [r0, #16]
 80064ba:	690c      	ldr	r4, [r1, #16]
 80064bc:	4607      	mov	r7, r0
 80064be:	42a3      	cmp	r3, r4
 80064c0:	f2c0 8083 	blt.w	80065ca <quorem+0x116>
 80064c4:	3c01      	subs	r4, #1
 80064c6:	f100 0514 	add.w	r5, r0, #20
 80064ca:	f101 0814 	add.w	r8, r1, #20
 80064ce:	eb05 0384 	add.w	r3, r5, r4, lsl #2
 80064d2:	9301      	str	r3, [sp, #4]
 80064d4:	f858 3024 	ldr.w	r3, [r8, r4, lsl #2]
 80064d8:	f855 2024 	ldr.w	r2, [r5, r4, lsl #2]
 80064dc:	3301      	adds	r3, #1
 80064de:	429a      	cmp	r2, r3
 80064e0:	fbb2 f6f3 	udiv	r6, r2, r3
 80064e4:	ea4f 0b84 	mov.w	fp, r4, lsl #2
 80064e8:	eb08 0984 	add.w	r9, r8, r4, lsl #2
 80064ec:	d332      	bcc.n	8006554 <quorem+0xa0>
 80064ee:	f04f 0e00 	mov.w	lr, #0
 80064f2:	4640      	mov	r0, r8
 80064f4:	46ac      	mov	ip, r5
 80064f6:	46f2      	mov	sl, lr
 80064f8:	f850 2b04 	ldr.w	r2, [r0], #4
 80064fc:	b293      	uxth	r3, r2
 80064fe:	fb06 e303 	mla	r3, r6, r3, lr
 8006502:	0c12      	lsrs	r2, r2, #16
 8006504:	ea4f 4e13 	mov.w	lr, r3, lsr #16
 8006508:	fb06 e202 	mla	r2, r6, r2, lr
 800650c:	b29b      	uxth	r3, r3
 800650e:	ebaa 0303 	sub.w	r3, sl, r3
 8006512:	f8dc a000 	ldr.w	sl, [ip]
 8006516:	ea4f 4e12 	mov.w	lr, r2, lsr #16
 800651a:	fa1f fa8a 	uxth.w	sl, sl
 800651e:	4453      	add	r3, sl
 8006520:	fa1f fa82 	uxth.w	sl, r2
 8006524:	f8dc 2000 	ldr.w	r2, [ip]
 8006528:	4581      	cmp	r9, r0
 800652a:	ebca 4212 	rsb	r2, sl, r2, lsr #16
 800652e:	eb02 4223 	add.w	r2, r2, r3, asr #16
 8006532:	b29b      	uxth	r3, r3
 8006534:	ea43 4302 	orr.w	r3, r3, r2, lsl #16
 8006538:	ea4f 4a22 	mov.w	sl, r2, asr #16
 800653c:	f84c 3b04 	str.w	r3, [ip], #4
 8006540:	d2da      	bcs.n	80064f8 <quorem+0x44>
 8006542:	f855 300b 	ldr.w	r3, [r5, fp]
 8006546:	b92b      	cbnz	r3, 8006554 <quorem+0xa0>
 8006548:	9b01      	ldr	r3, [sp, #4]
 800654a:	3b04      	subs	r3, #4
 800654c:	429d      	cmp	r5, r3
 800654e:	461a      	mov	r2, r3
 8006550:	d32f      	bcc.n	80065b2 <quorem+0xfe>
 8006552:	613c      	str	r4, [r7, #16]
 8006554:	4638      	mov	r0, r7
 8006556:	f001 f8cb 	bl	80076f0 <__mcmp>
 800655a:	2800      	cmp	r0, #0
 800655c:	db25      	blt.n	80065aa <quorem+0xf6>
 800655e:	4628      	mov	r0, r5
 8006560:	f04f 0c00 	mov.w	ip, #0
 8006564:	3601      	adds	r6, #1
 8006566:	f858 1b04 	ldr.w	r1, [r8], #4
 800656a:	f8d0 e000 	ldr.w	lr, [r0]
 800656e:	b28b      	uxth	r3, r1
 8006570:	ebac 0303 	sub.w	r3, ip, r3
 8006574:	fa1f f28e 	uxth.w	r2, lr
 8006578:	4413      	add	r3, r2
 800657a:	0c0a      	lsrs	r2, r1, #16
 800657c:	ebc2 421e 	rsb	r2, r2, lr, lsr #16
 8006580:	eb02 4223 	add.w	r2, r2, r3, asr #16
 8006584:	b29b      	uxth	r3, r3
 8006586:	ea43 4302 	orr.w	r3, r3, r2, lsl #16
 800658a:	45c1      	cmp	r9, r8
 800658c:	ea4f 4c22 	mov.w	ip, r2, asr #16
 8006590:	f840 3b04 	str.w	r3, [r0], #4
 8006594:	d2e7      	bcs.n	8006566 <quorem+0xb2>
 8006596:	f855 2024 	ldr.w	r2, [r5, r4, lsl #2]
 800659a:	eb05 0384 	add.w	r3, r5, r4, lsl #2
 800659e:	b922      	cbnz	r2, 80065aa <quorem+0xf6>
 80065a0:	3b04      	subs	r3, #4
 80065a2:	429d      	cmp	r5, r3
 80065a4:	461a      	mov	r2, r3
 80065a6:	d30a      	bcc.n	80065be <quorem+0x10a>
 80065a8:	613c      	str	r4, [r7, #16]
 80065aa:	4630      	mov	r0, r6
 80065ac:	b003      	add	sp, #12
 80065ae:	e8bd 8ff0 	ldmia.w	sp!, {r4, r5, r6, r7, r8, r9, sl, fp, pc}
 80065b2:	6812      	ldr	r2, [r2, #0]
 80065b4:	3b04      	subs	r3, #4
 80065b6:	2a00      	cmp	r2, #0
 80065b8:	d1cb      	bne.n	8006552 <quorem+0x9e>
 80065ba:	3c01      	subs	r4, #1
 80065bc:	e7c6      	b.n	800654c <quorem+0x98>
 80065be:	6812      	ldr	r2, [r2, #0]
 80065c0:	3b04      	subs	r3, #4
 80065c2:	2a00      	cmp	r2, #0
 80065c4:	d1f0      	bne.n	80065a8 <quorem+0xf4>
 80065c6:	3c01      	subs	r4, #1
 80065c8:	e7eb      	b.n	80065a2 <quorem+0xee>
 80065ca:	2000      	movs	r0, #0
 80065cc:	e7ee      	b.n	80065ac <quorem+0xf8>
	...

080065d0 <_dtoa_r>:
 80065d0:	e92d 4ff0 	stmdb	sp!, {r4, r5, r6, r7, r8, r9, sl, fp, lr}
 80065d4:	4616      	mov	r6, r2
 80065d6:	461f      	mov	r7, r3
 80065d8:	6a44      	ldr	r4, [r0, #36]	; 0x24
 80065da:	b099      	sub	sp, #100	; 0x64
 80065dc:	4605      	mov	r5, r0
 80065de:	e9cd 6704 	strd	r6, r7, [sp, #16]
 80065e2:	f8dd 8094 	ldr.w	r8, [sp, #148]	; 0x94
 80065e6:	b974      	cbnz	r4, 8006606 <_dtoa_r+0x36>
 80065e8:	2010      	movs	r0, #16
 80065ea:	f000 fde3 	bl	80071b4 <malloc>
 80065ee:	4602      	mov	r2, r0
 80065f0:	6268      	str	r0, [r5, #36]	; 0x24
 80065f2:	b920      	cbnz	r0, 80065fe <_dtoa_r+0x2e>
 80065f4:	21ea      	movs	r1, #234	; 0xea
 80065f6:	4bae      	ldr	r3, [pc, #696]	; (80068b0 <_dtoa_r+0x2e0>)
 80065f8:	48ae      	ldr	r0, [pc, #696]	; (80068b4 <_dtoa_r+0x2e4>)
 80065fa:	f001 fba1 	bl	8007d40 <__assert_func>
 80065fe:	e9c0 4401 	strd	r4, r4, [r0, #4]
 8006602:	6004      	str	r4, [r0, #0]
 8006604:	60c4      	str	r4, [r0, #12]
 8006606:	6a6b      	ldr	r3, [r5, #36]	; 0x24
 8006608:	6819      	ldr	r1, [r3, #0]
 800660a:	b151      	cbz	r1, 8006622 <_dtoa_r+0x52>
 800660c:	685a      	ldr	r2, [r3, #4]
 800660e:	2301      	movs	r3, #1
 8006610:	4093      	lsls	r3, r2
 8006612:	604a      	str	r2, [r1, #4]
 8006614:	608b      	str	r3, [r1, #8]
 8006616:	4628      	mov	r0, r5
 8006618:	f000 fe30 	bl	800727c <_Bfree>
 800661c:	2200      	movs	r2, #0
 800661e:	6a6b      	ldr	r3, [r5, #36]	; 0x24
 8006620:	601a      	str	r2, [r3, #0]
 8006622:	1e3b      	subs	r3, r7, #0
 8006624:	bfaf      	iteee	ge
 8006626:	2300      	movge	r3, #0
 8006628:	2201      	movlt	r2, #1
 800662a:	f023 4300 	biclt.w	r3, r3, #2147483648	; 0x80000000
 800662e:	9305      	strlt	r3, [sp, #20]
 8006630:	bfa8      	it	ge
 8006632:	f8c8 3000 	strge.w	r3, [r8]
 8006636:	f8dd 9014 	ldr.w	r9, [sp, #20]
 800663a:	4b9f      	ldr	r3, [pc, #636]	; (80068b8 <_dtoa_r+0x2e8>)
 800663c:	bfb8      	it	lt
 800663e:	f8c8 2000 	strlt.w	r2, [r8]
 8006642:	ea33 0309 	bics.w	r3, r3, r9
 8006646:	d119      	bne.n	800667c <_dtoa_r+0xac>
 8006648:	f242 730f 	movw	r3, #9999	; 0x270f
 800664c:	9a24      	ldr	r2, [sp, #144]	; 0x90
 800664e:	6013      	str	r3, [r2, #0]
 8006650:	f3c9 0313 	ubfx	r3, r9, #0, #20
 8006654:	4333      	orrs	r3, r6
 8006656:	f000 8580 	beq.w	800715a <_dtoa_r+0xb8a>
 800665a:	9b26      	ldr	r3, [sp, #152]	; 0x98
 800665c:	b953      	cbnz	r3, 8006674 <_dtoa_r+0xa4>
 800665e:	4b97      	ldr	r3, [pc, #604]	; (80068bc <_dtoa_r+0x2ec>)
 8006660:	e022      	b.n	80066a8 <_dtoa_r+0xd8>
 8006662:	4b97      	ldr	r3, [pc, #604]	; (80068c0 <_dtoa_r+0x2f0>)
 8006664:	9308      	str	r3, [sp, #32]
 8006666:	3308      	adds	r3, #8
 8006668:	9a26      	ldr	r2, [sp, #152]	; 0x98
 800666a:	6013      	str	r3, [r2, #0]
 800666c:	9808      	ldr	r0, [sp, #32]
 800666e:	b019      	add	sp, #100	; 0x64
 8006670:	e8bd 8ff0 	ldmia.w	sp!, {r4, r5, r6, r7, r8, r9, sl, fp, pc}
 8006674:	4b91      	ldr	r3, [pc, #580]	; (80068bc <_dtoa_r+0x2ec>)
 8006676:	9308      	str	r3, [sp, #32]
 8006678:	3303      	adds	r3, #3
 800667a:	e7f5      	b.n	8006668 <_dtoa_r+0x98>
 800667c:	e9dd 3404 	ldrd	r3, r4, [sp, #16]
 8006680:	e9cd 340c 	strd	r3, r4, [sp, #48]	; 0x30
 8006684:	e9dd 010c 	ldrd	r0, r1, [sp, #48]	; 0x30
 8006688:	2200      	movs	r2, #0
 800668a:	2300      	movs	r3, #0
 800668c:	f7fa f98c 	bl	80009a8 <__aeabi_dcmpeq>
 8006690:	4680      	mov	r8, r0
 8006692:	b158      	cbz	r0, 80066ac <_dtoa_r+0xdc>
 8006694:	2301      	movs	r3, #1
 8006696:	9a24      	ldr	r2, [sp, #144]	; 0x90
 8006698:	6013      	str	r3, [r2, #0]
 800669a:	9b26      	ldr	r3, [sp, #152]	; 0x98
 800669c:	2b00      	cmp	r3, #0
 800669e:	f000 8559 	beq.w	8007154 <_dtoa_r+0xb84>
 80066a2:	4888      	ldr	r0, [pc, #544]	; (80068c4 <_dtoa_r+0x2f4>)
 80066a4:	6018      	str	r0, [r3, #0]
 80066a6:	1e43      	subs	r3, r0, #1
 80066a8:	9308      	str	r3, [sp, #32]
 80066aa:	e7df      	b.n	800666c <_dtoa_r+0x9c>
 80066ac:	ab16      	add	r3, sp, #88	; 0x58
 80066ae:	9301      	str	r3, [sp, #4]
 80066b0:	ab17      	add	r3, sp, #92	; 0x5c
 80066b2:	9300      	str	r3, [sp, #0]
 80066b4:	4628      	mov	r0, r5
 80066b6:	e9dd 230c 	ldrd	r2, r3, [sp, #48]	; 0x30
 80066ba:	f001 f8c5 	bl	8007848 <__d2b>
 80066be:	f3c9 540a 	ubfx	r4, r9, #20, #11
 80066c2:	4682      	mov	sl, r0
 80066c4:	2c00      	cmp	r4, #0
 80066c6:	d07e      	beq.n	80067c6 <_dtoa_r+0x1f6>
 80066c8:	e9dd 010c 	ldrd	r0, r1, [sp, #48]	; 0x30
 80066cc:	9b0d      	ldr	r3, [sp, #52]	; 0x34
 80066ce:	f2a4 34ff 	subw	r4, r4, #1023	; 0x3ff
 80066d2:	f3c3 0313 	ubfx	r3, r3, #0, #20
 80066d6:	f043 517f 	orr.w	r1, r3, #1069547520	; 0x3fc00000
 80066da:	f441 1140 	orr.w	r1, r1, #3145728	; 0x300000
 80066de:	f8cd 804c 	str.w	r8, [sp, #76]	; 0x4c
 80066e2:	2200      	movs	r2, #0
 80066e4:	4b78      	ldr	r3, [pc, #480]	; (80068c8 <_dtoa_r+0x2f8>)
 80066e6:	f7f9 fd3f 	bl	8000168 <__aeabi_dsub>
 80066ea:	a36b      	add	r3, pc, #428	; (adr r3, 8006898 <_dtoa_r+0x2c8>)
 80066ec:	e9d3 2300 	ldrd	r2, r3, [r3]
 80066f0:	f7f9 fef2 	bl	80004d8 <__aeabi_dmul>
 80066f4:	a36a      	add	r3, pc, #424	; (adr r3, 80068a0 <_dtoa_r+0x2d0>)
 80066f6:	e9d3 2300 	ldrd	r2, r3, [r3]
 80066fa:	f7f9 fd37 	bl	800016c <__adddf3>
 80066fe:	4606      	mov	r6, r0
 8006700:	4620      	mov	r0, r4
 8006702:	460f      	mov	r7, r1
 8006704:	f7f9 fe7e 	bl	8000404 <__aeabi_i2d>
 8006708:	a367      	add	r3, pc, #412	; (adr r3, 80068a8 <_dtoa_r+0x2d8>)
 800670a:	e9d3 2300 	ldrd	r2, r3, [r3]
 800670e:	f7f9 fee3 	bl	80004d8 <__aeabi_dmul>
 8006712:	4602      	mov	r2, r0
 8006714:	460b      	mov	r3, r1
 8006716:	4630      	mov	r0, r6
 8006718:	4639      	mov	r1, r7
 800671a:	f7f9 fd27 	bl	800016c <__adddf3>
 800671e:	4606      	mov	r6, r0
 8006720:	460f      	mov	r7, r1
 8006722:	f7fa f989 	bl	8000a38 <__aeabi_d2iz>
 8006726:	2200      	movs	r2, #0
 8006728:	4681      	mov	r9, r0
 800672a:	2300      	movs	r3, #0
 800672c:	4630      	mov	r0, r6
 800672e:	4639      	mov	r1, r7
 8006730:	f7fa f944 	bl	80009bc <__aeabi_dcmplt>
 8006734:	b148      	cbz	r0, 800674a <_dtoa_r+0x17a>
 8006736:	4648      	mov	r0, r9
 8006738:	f7f9 fe64 	bl	8000404 <__aeabi_i2d>
 800673c:	4632      	mov	r2, r6
 800673e:	463b      	mov	r3, r7
 8006740:	f7fa f932 	bl	80009a8 <__aeabi_dcmpeq>
 8006744:	b908      	cbnz	r0, 800674a <_dtoa_r+0x17a>
 8006746:	f109 39ff 	add.w	r9, r9, #4294967295	; 0xffffffff
 800674a:	f1b9 0f16 	cmp.w	r9, #22
 800674e:	d857      	bhi.n	8006800 <_dtoa_r+0x230>
 8006750:	e9dd 010c 	ldrd	r0, r1, [sp, #48]	; 0x30
 8006754:	4b5d      	ldr	r3, [pc, #372]	; (80068cc <_dtoa_r+0x2fc>)
 8006756:	eb03 03c9 	add.w	r3, r3, r9, lsl #3
 800675a:	e9d3 2300 	ldrd	r2, r3, [r3]
 800675e:	f7fa f92d 	bl	80009bc <__aeabi_dcmplt>
 8006762:	2800      	cmp	r0, #0
 8006764:	d04e      	beq.n	8006804 <_dtoa_r+0x234>
 8006766:	2300      	movs	r3, #0
 8006768:	f109 39ff 	add.w	r9, r9, #4294967295	; 0xffffffff
 800676c:	930f      	str	r3, [sp, #60]	; 0x3c
 800676e:	9b16      	ldr	r3, [sp, #88]	; 0x58
 8006770:	1b1c      	subs	r4, r3, r4
 8006772:	1e63      	subs	r3, r4, #1
 8006774:	9309      	str	r3, [sp, #36]	; 0x24
 8006776:	bf49      	itett	mi
 8006778:	f1c4 0301 	rsbmi	r3, r4, #1
 800677c:	2300      	movpl	r3, #0
 800677e:	9306      	strmi	r3, [sp, #24]
 8006780:	2300      	movmi	r3, #0
 8006782:	bf54      	ite	pl
 8006784:	9306      	strpl	r3, [sp, #24]
 8006786:	9309      	strmi	r3, [sp, #36]	; 0x24
 8006788:	f1b9 0f00 	cmp.w	r9, #0
 800678c:	db3c      	blt.n	8006808 <_dtoa_r+0x238>
 800678e:	9b09      	ldr	r3, [sp, #36]	; 0x24
 8006790:	f8cd 9038 	str.w	r9, [sp, #56]	; 0x38
 8006794:	444b      	add	r3, r9
 8006796:	9309      	str	r3, [sp, #36]	; 0x24
 8006798:	2300      	movs	r3, #0
 800679a:	930a      	str	r3, [sp, #40]	; 0x28
 800679c:	9b22      	ldr	r3, [sp, #136]	; 0x88
 800679e:	2b09      	cmp	r3, #9
 80067a0:	d86c      	bhi.n	800687c <_dtoa_r+0x2ac>
 80067a2:	2b05      	cmp	r3, #5
 80067a4:	bfc4      	itt	gt
 80067a6:	3b04      	subgt	r3, #4
 80067a8:	9322      	strgt	r3, [sp, #136]	; 0x88
 80067aa:	9b22      	ldr	r3, [sp, #136]	; 0x88
 80067ac:	bfc8      	it	gt
 80067ae:	2400      	movgt	r4, #0
 80067b0:	f1a3 0302 	sub.w	r3, r3, #2
 80067b4:	bfd8      	it	le
 80067b6:	2401      	movle	r4, #1
 80067b8:	2b03      	cmp	r3, #3
 80067ba:	f200 808b 	bhi.w	80068d4 <_dtoa_r+0x304>
 80067be:	e8df f003 	tbb	[pc, r3]
 80067c2:	4f2d      	.short	0x4f2d
 80067c4:	5b4d      	.short	0x5b4d
 80067c6:	e9dd 4316 	ldrd	r4, r3, [sp, #88]	; 0x58
 80067ca:	441c      	add	r4, r3
 80067cc:	f204 4332 	addw	r3, r4, #1074	; 0x432
 80067d0:	2b20      	cmp	r3, #32
 80067d2:	bfc3      	ittte	gt
 80067d4:	f1c3 0340 	rsbgt	r3, r3, #64	; 0x40
 80067d8:	f204 4012 	addwgt	r0, r4, #1042	; 0x412
 80067dc:	fa09 f303 	lslgt.w	r3, r9, r3
 80067e0:	f1c3 0320 	rsble	r3, r3, #32
 80067e4:	bfc6      	itte	gt
 80067e6:	fa26 f000 	lsrgt.w	r0, r6, r0
 80067ea:	4318      	orrgt	r0, r3
 80067ec:	fa06 f003 	lslle.w	r0, r6, r3
 80067f0:	f7f9 fdf8 	bl	80003e4 <__aeabi_ui2d>
 80067f4:	2301      	movs	r3, #1
 80067f6:	f1a1 71f8 	sub.w	r1, r1, #32505856	; 0x1f00000
 80067fa:	3c01      	subs	r4, #1
 80067fc:	9313      	str	r3, [sp, #76]	; 0x4c
 80067fe:	e770      	b.n	80066e2 <_dtoa_r+0x112>
 8006800:	2301      	movs	r3, #1
 8006802:	e7b3      	b.n	800676c <_dtoa_r+0x19c>
 8006804:	900f      	str	r0, [sp, #60]	; 0x3c
 8006806:	e7b2      	b.n	800676e <_dtoa_r+0x19e>
 8006808:	9b06      	ldr	r3, [sp, #24]
 800680a:	eba3 0309 	sub.w	r3, r3, r9
 800680e:	9306      	str	r3, [sp, #24]
 8006810:	f1c9 0300 	rsb	r3, r9, #0
 8006814:	930a      	str	r3, [sp, #40]	; 0x28
 8006816:	2300      	movs	r3, #0
 8006818:	930e      	str	r3, [sp, #56]	; 0x38
 800681a:	e7bf      	b.n	800679c <_dtoa_r+0x1cc>
 800681c:	2300      	movs	r3, #0
 800681e:	930b      	str	r3, [sp, #44]	; 0x2c
 8006820:	9b23      	ldr	r3, [sp, #140]	; 0x8c
 8006822:	2b00      	cmp	r3, #0
 8006824:	dc59      	bgt.n	80068da <_dtoa_r+0x30a>
 8006826:	f04f 0b01 	mov.w	fp, #1
 800682a:	465b      	mov	r3, fp
 800682c:	f8cd b008 	str.w	fp, [sp, #8]
 8006830:	f8cd b08c 	str.w	fp, [sp, #140]	; 0x8c
 8006834:	2200      	movs	r2, #0
 8006836:	6a68      	ldr	r0, [r5, #36]	; 0x24
 8006838:	6042      	str	r2, [r0, #4]
 800683a:	2204      	movs	r2, #4
 800683c:	f102 0614 	add.w	r6, r2, #20
 8006840:	429e      	cmp	r6, r3
 8006842:	6841      	ldr	r1, [r0, #4]
 8006844:	d94f      	bls.n	80068e6 <_dtoa_r+0x316>
 8006846:	4628      	mov	r0, r5
 8006848:	f000 fcd8 	bl	80071fc <_Balloc>
 800684c:	9008      	str	r0, [sp, #32]
 800684e:	2800      	cmp	r0, #0
 8006850:	d14d      	bne.n	80068ee <_dtoa_r+0x31e>
 8006852:	4602      	mov	r2, r0
 8006854:	f44f 71d5 	mov.w	r1, #426	; 0x1aa
 8006858:	4b1d      	ldr	r3, [pc, #116]	; (80068d0 <_dtoa_r+0x300>)
 800685a:	e6cd      	b.n	80065f8 <_dtoa_r+0x28>
 800685c:	2301      	movs	r3, #1
 800685e:	e7de      	b.n	800681e <_dtoa_r+0x24e>
 8006860:	2300      	movs	r3, #0
 8006862:	930b      	str	r3, [sp, #44]	; 0x2c
 8006864:	9b23      	ldr	r3, [sp, #140]	; 0x8c
 8006866:	eb09 0b03 	add.w	fp, r9, r3
 800686a:	f10b 0301 	add.w	r3, fp, #1
 800686e:	2b01      	cmp	r3, #1
 8006870:	9302      	str	r3, [sp, #8]
 8006872:	bfb8      	it	lt
 8006874:	2301      	movlt	r3, #1
 8006876:	e7dd      	b.n	8006834 <_dtoa_r+0x264>
 8006878:	2301      	movs	r3, #1
 800687a:	e7f2      	b.n	8006862 <_dtoa_r+0x292>
 800687c:	2401      	movs	r4, #1
 800687e:	2300      	movs	r3, #0
 8006880:	940b      	str	r4, [sp, #44]	; 0x2c
 8006882:	9322      	str	r3, [sp, #136]	; 0x88
 8006884:	f04f 3bff 	mov.w	fp, #4294967295	; 0xffffffff
 8006888:	2200      	movs	r2, #0
 800688a:	2312      	movs	r3, #18
 800688c:	f8cd b008 	str.w	fp, [sp, #8]
 8006890:	9223      	str	r2, [sp, #140]	; 0x8c
 8006892:	e7cf      	b.n	8006834 <_dtoa_r+0x264>
 8006894:	f3af 8000 	nop.w
 8006898:	636f4361 	.word	0x636f4361
 800689c:	3fd287a7 	.word	0x3fd287a7
 80068a0:	8b60c8b3 	.word	0x8b60c8b3
 80068a4:	3fc68a28 	.word	0x3fc68a28
 80068a8:	509f79fb 	.word	0x509f79fb
 80068ac:	3fd34413 	.word	0x3fd34413
 80068b0:	08008b59 	.word	0x08008b59
 80068b4:	08008b70 	.word	0x08008b70
 80068b8:	7ff00000 	.word	0x7ff00000
 80068bc:	08008b55 	.word	0x08008b55
 80068c0:	08008b4c 	.word	0x08008b4c
 80068c4:	08008b29 	.word	0x08008b29
 80068c8:	3ff80000 	.word	0x3ff80000
 80068cc:	08008c68 	.word	0x08008c68
 80068d0:	08008bcf 	.word	0x08008bcf
 80068d4:	2301      	movs	r3, #1
 80068d6:	930b      	str	r3, [sp, #44]	; 0x2c
 80068d8:	e7d4      	b.n	8006884 <_dtoa_r+0x2b4>
 80068da:	f8dd b08c 	ldr.w	fp, [sp, #140]	; 0x8c
 80068de:	465b      	mov	r3, fp
 80068e0:	f8cd b008 	str.w	fp, [sp, #8]
 80068e4:	e7a6      	b.n	8006834 <_dtoa_r+0x264>
 80068e6:	3101      	adds	r1, #1
 80068e8:	6041      	str	r1, [r0, #4]
 80068ea:	0052      	lsls	r2, r2, #1
 80068ec:	e7a6      	b.n	800683c <_dtoa_r+0x26c>
 80068ee:	6a6b      	ldr	r3, [r5, #36]	; 0x24
 80068f0:	9a08      	ldr	r2, [sp, #32]
 80068f2:	601a      	str	r2, [r3, #0]
 80068f4:	9b02      	ldr	r3, [sp, #8]
 80068f6:	2b0e      	cmp	r3, #14
 80068f8:	f200 80a8 	bhi.w	8006a4c <_dtoa_r+0x47c>
 80068fc:	2c00      	cmp	r4, #0
 80068fe:	f000 80a5 	beq.w	8006a4c <_dtoa_r+0x47c>
 8006902:	f1b9 0f00 	cmp.w	r9, #0
 8006906:	dd34      	ble.n	8006972 <_dtoa_r+0x3a2>
 8006908:	4a9a      	ldr	r2, [pc, #616]	; (8006b74 <_dtoa_r+0x5a4>)
 800690a:	f009 030f 	and.w	r3, r9, #15
 800690e:	eb02 03c3 	add.w	r3, r2, r3, lsl #3
 8006912:	f419 7f80 	tst.w	r9, #256	; 0x100
 8006916:	e9d3 3400 	ldrd	r3, r4, [r3]
 800691a:	e9cd 3410 	strd	r3, r4, [sp, #64]	; 0x40
 800691e:	ea4f 1429 	mov.w	r4, r9, asr #4
 8006922:	d016      	beq.n	8006952 <_dtoa_r+0x382>
 8006924:	e9dd 010c 	ldrd	r0, r1, [sp, #48]	; 0x30
 8006928:	4b93      	ldr	r3, [pc, #588]	; (8006b78 <_dtoa_r+0x5a8>)
 800692a:	2703      	movs	r7, #3
 800692c:	e9d3 2308 	ldrd	r2, r3, [r3, #32]
 8006930:	f7f9 fefc 	bl	800072c <__aeabi_ddiv>
 8006934:	e9cd 0104 	strd	r0, r1, [sp, #16]
 8006938:	f004 040f 	and.w	r4, r4, #15
 800693c:	4e8e      	ldr	r6, [pc, #568]	; (8006b78 <_dtoa_r+0x5a8>)
 800693e:	b954      	cbnz	r4, 8006956 <_dtoa_r+0x386>
 8006940:	e9dd 2310 	ldrd	r2, r3, [sp, #64]	; 0x40
 8006944:	e9dd 0104 	ldrd	r0, r1, [sp, #16]
 8006948:	f7f9 fef0 	bl	800072c <__aeabi_ddiv>
 800694c:	e9cd 0104 	strd	r0, r1, [sp, #16]
 8006950:	e029      	b.n	80069a6 <_dtoa_r+0x3d6>
 8006952:	2702      	movs	r7, #2
 8006954:	e7f2      	b.n	800693c <_dtoa_r+0x36c>
 8006956:	07e1      	lsls	r1, r4, #31
 8006958:	d508      	bpl.n	800696c <_dtoa_r+0x39c>
 800695a:	e9dd 0110 	ldrd	r0, r1, [sp, #64]	; 0x40
 800695e:	e9d6 2300 	ldrd	r2, r3, [r6]
 8006962:	f7f9 fdb9 	bl	80004d8 <__aeabi_dmul>
 8006966:	e9cd 0110 	strd	r0, r1, [sp, #64]	; 0x40
 800696a:	3701      	adds	r7, #1
 800696c:	1064      	asrs	r4, r4, #1
 800696e:	3608      	adds	r6, #8
 8006970:	e7e5      	b.n	800693e <_dtoa_r+0x36e>
 8006972:	f000 80a5 	beq.w	8006ac0 <_dtoa_r+0x4f0>
 8006976:	e9dd 010c 	ldrd	r0, r1, [sp, #48]	; 0x30
 800697a:	f1c9 0400 	rsb	r4, r9, #0
 800697e:	4b7d      	ldr	r3, [pc, #500]	; (8006b74 <_dtoa_r+0x5a4>)
 8006980:	f004 020f 	and.w	r2, r4, #15
 8006984:	eb03 03c2 	add.w	r3, r3, r2, lsl #3
 8006988:	e9d3 2300 	ldrd	r2, r3, [r3]
 800698c:	f7f9 fda4 	bl	80004d8 <__aeabi_dmul>
 8006990:	2702      	movs	r7, #2
 8006992:	2300      	movs	r3, #0
 8006994:	e9cd 0104 	strd	r0, r1, [sp, #16]
 8006998:	4e77      	ldr	r6, [pc, #476]	; (8006b78 <_dtoa_r+0x5a8>)
 800699a:	1124      	asrs	r4, r4, #4
 800699c:	2c00      	cmp	r4, #0
 800699e:	f040 8084 	bne.w	8006aaa <_dtoa_r+0x4da>
 80069a2:	2b00      	cmp	r3, #0
 80069a4:	d1d2      	bne.n	800694c <_dtoa_r+0x37c>
 80069a6:	9b0f      	ldr	r3, [sp, #60]	; 0x3c
 80069a8:	2b00      	cmp	r3, #0
 80069aa:	f000 808b 	beq.w	8006ac4 <_dtoa_r+0x4f4>
 80069ae:	e9dd 3404 	ldrd	r3, r4, [sp, #16]
 80069b2:	e9cd 3410 	strd	r3, r4, [sp, #64]	; 0x40
 80069b6:	e9dd 0110 	ldrd	r0, r1, [sp, #64]	; 0x40
 80069ba:	2200      	movs	r2, #0
 80069bc:	4b6f      	ldr	r3, [pc, #444]	; (8006b7c <_dtoa_r+0x5ac>)
 80069be:	f7f9 fffd 	bl	80009bc <__aeabi_dcmplt>
 80069c2:	2800      	cmp	r0, #0
 80069c4:	d07e      	beq.n	8006ac4 <_dtoa_r+0x4f4>
 80069c6:	9b02      	ldr	r3, [sp, #8]
 80069c8:	2b00      	cmp	r3, #0
 80069ca:	d07b      	beq.n	8006ac4 <_dtoa_r+0x4f4>
 80069cc:	f1bb 0f00 	cmp.w	fp, #0
 80069d0:	dd38      	ble.n	8006a44 <_dtoa_r+0x474>
 80069d2:	e9dd 0110 	ldrd	r0, r1, [sp, #64]	; 0x40
 80069d6:	2200      	movs	r2, #0
 80069d8:	4b69      	ldr	r3, [pc, #420]	; (8006b80 <_dtoa_r+0x5b0>)
 80069da:	f7f9 fd7d 	bl	80004d8 <__aeabi_dmul>
 80069de:	465c      	mov	r4, fp
 80069e0:	e9cd 0104 	strd	r0, r1, [sp, #16]
 80069e4:	f109 38ff 	add.w	r8, r9, #4294967295	; 0xffffffff
 80069e8:	3701      	adds	r7, #1
 80069ea:	4638      	mov	r0, r7
 80069ec:	f7f9 fd0a 	bl	8000404 <__aeabi_i2d>
 80069f0:	e9dd 2304 	ldrd	r2, r3, [sp, #16]
 80069f4:	f7f9 fd70 	bl	80004d8 <__aeabi_dmul>
 80069f8:	2200      	movs	r2, #0
 80069fa:	4b62      	ldr	r3, [pc, #392]	; (8006b84 <_dtoa_r+0x5b4>)
 80069fc:	f7f9 fbb6 	bl	800016c <__adddf3>
 8006a00:	f1a1 7650 	sub.w	r6, r1, #54525952	; 0x3400000
 8006a04:	e9cd 0110 	strd	r0, r1, [sp, #64]	; 0x40
 8006a08:	9611      	str	r6, [sp, #68]	; 0x44
 8006a0a:	2c00      	cmp	r4, #0
 8006a0c:	d15d      	bne.n	8006aca <_dtoa_r+0x4fa>
 8006a0e:	e9dd 0104 	ldrd	r0, r1, [sp, #16]
 8006a12:	2200      	movs	r2, #0
 8006a14:	4b5c      	ldr	r3, [pc, #368]	; (8006b88 <_dtoa_r+0x5b8>)
 8006a16:	f7f9 fba7 	bl	8000168 <__aeabi_dsub>
 8006a1a:	4602      	mov	r2, r0
 8006a1c:	460b      	mov	r3, r1
 8006a1e:	e9cd 2304 	strd	r2, r3, [sp, #16]
 8006a22:	4633      	mov	r3, r6
 8006a24:	9a10      	ldr	r2, [sp, #64]	; 0x40
 8006a26:	f7f9 ffe7 	bl	80009f8 <__aeabi_dcmpgt>
 8006a2a:	2800      	cmp	r0, #0
 8006a2c:	f040 829e 	bne.w	8006f6c <_dtoa_r+0x99c>
 8006a30:	e9dd 0104 	ldrd	r0, r1, [sp, #16]
 8006a34:	9a10      	ldr	r2, [sp, #64]	; 0x40
 8006a36:	f106 4300 	add.w	r3, r6, #2147483648	; 0x80000000
 8006a3a:	f7f9 ffbf 	bl	80009bc <__aeabi_dcmplt>
 8006a3e:	2800      	cmp	r0, #0
 8006a40:	f040 8292 	bne.w	8006f68 <_dtoa_r+0x998>
 8006a44:	e9dd 340c 	ldrd	r3, r4, [sp, #48]	; 0x30
 8006a48:	e9cd 3404 	strd	r3, r4, [sp, #16]
 8006a4c:	9b17      	ldr	r3, [sp, #92]	; 0x5c
 8006a4e:	2b00      	cmp	r3, #0
 8006a50:	f2c0 8153 	blt.w	8006cfa <_dtoa_r+0x72a>
 8006a54:	f1b9 0f0e 	cmp.w	r9, #14
 8006a58:	f300 814f 	bgt.w	8006cfa <_dtoa_r+0x72a>
 8006a5c:	4b45      	ldr	r3, [pc, #276]	; (8006b74 <_dtoa_r+0x5a4>)
 8006a5e:	eb03 03c9 	add.w	r3, r3, r9, lsl #3
 8006a62:	e9d3 3400 	ldrd	r3, r4, [r3]
 8006a66:	e9cd 3406 	strd	r3, r4, [sp, #24]
 8006a6a:	9b23      	ldr	r3, [sp, #140]	; 0x8c
 8006a6c:	2b00      	cmp	r3, #0
 8006a6e:	f280 80db 	bge.w	8006c28 <_dtoa_r+0x658>
 8006a72:	9b02      	ldr	r3, [sp, #8]
 8006a74:	2b00      	cmp	r3, #0
 8006a76:	f300 80d7 	bgt.w	8006c28 <_dtoa_r+0x658>
 8006a7a:	f040 8274 	bne.w	8006f66 <_dtoa_r+0x996>
 8006a7e:	e9dd 0106 	ldrd	r0, r1, [sp, #24]
 8006a82:	2200      	movs	r2, #0
 8006a84:	4b40      	ldr	r3, [pc, #256]	; (8006b88 <_dtoa_r+0x5b8>)
 8006a86:	f7f9 fd27 	bl	80004d8 <__aeabi_dmul>
 8006a8a:	e9dd 2304 	ldrd	r2, r3, [sp, #16]
 8006a8e:	f7f9 ffa9 	bl	80009e4 <__aeabi_dcmpge>
 8006a92:	9c02      	ldr	r4, [sp, #8]
 8006a94:	4626      	mov	r6, r4
 8006a96:	2800      	cmp	r0, #0
 8006a98:	f040 824a 	bne.w	8006f30 <_dtoa_r+0x960>
 8006a9c:	2331      	movs	r3, #49	; 0x31
 8006a9e:	9f08      	ldr	r7, [sp, #32]
 8006aa0:	f109 0901 	add.w	r9, r9, #1
 8006aa4:	f807 3b01 	strb.w	r3, [r7], #1
 8006aa8:	e246      	b.n	8006f38 <_dtoa_r+0x968>
 8006aaa:	07e2      	lsls	r2, r4, #31
 8006aac:	d505      	bpl.n	8006aba <_dtoa_r+0x4ea>
 8006aae:	e9d6 2300 	ldrd	r2, r3, [r6]
 8006ab2:	f7f9 fd11 	bl	80004d8 <__aeabi_dmul>
 8006ab6:	2301      	movs	r3, #1
 8006ab8:	3701      	adds	r7, #1
 8006aba:	1064      	asrs	r4, r4, #1
 8006abc:	3608      	adds	r6, #8
 8006abe:	e76d      	b.n	800699c <_dtoa_r+0x3cc>
 8006ac0:	2702      	movs	r7, #2
 8006ac2:	e770      	b.n	80069a6 <_dtoa_r+0x3d6>
 8006ac4:	46c8      	mov	r8, r9
 8006ac6:	9c02      	ldr	r4, [sp, #8]
 8006ac8:	e78f      	b.n	80069ea <_dtoa_r+0x41a>
 8006aca:	9908      	ldr	r1, [sp, #32]
 8006acc:	4b29      	ldr	r3, [pc, #164]	; (8006b74 <_dtoa_r+0x5a4>)
 8006ace:	4421      	add	r1, r4
 8006ad0:	9112      	str	r1, [sp, #72]	; 0x48
 8006ad2:	990b      	ldr	r1, [sp, #44]	; 0x2c
 8006ad4:	eb03 03c4 	add.w	r3, r3, r4, lsl #3
 8006ad8:	e9dd 6710 	ldrd	r6, r7, [sp, #64]	; 0x40
 8006adc:	e953 2302 	ldrd	r2, r3, [r3, #-8]
 8006ae0:	2900      	cmp	r1, #0
 8006ae2:	d055      	beq.n	8006b90 <_dtoa_r+0x5c0>
 8006ae4:	2000      	movs	r0, #0
 8006ae6:	4929      	ldr	r1, [pc, #164]	; (8006b8c <_dtoa_r+0x5bc>)
 8006ae8:	f7f9 fe20 	bl	800072c <__aeabi_ddiv>
 8006aec:	463b      	mov	r3, r7
 8006aee:	4632      	mov	r2, r6
 8006af0:	f7f9 fb3a 	bl	8000168 <__aeabi_dsub>
 8006af4:	e9cd 0110 	strd	r0, r1, [sp, #64]	; 0x40
 8006af8:	9f08      	ldr	r7, [sp, #32]
 8006afa:	e9dd 0104 	ldrd	r0, r1, [sp, #16]
 8006afe:	f7f9 ff9b 	bl	8000a38 <__aeabi_d2iz>
 8006b02:	4604      	mov	r4, r0
 8006b04:	f7f9 fc7e 	bl	8000404 <__aeabi_i2d>
 8006b08:	4602      	mov	r2, r0
 8006b0a:	460b      	mov	r3, r1
 8006b0c:	e9dd 0104 	ldrd	r0, r1, [sp, #16]
 8006b10:	f7f9 fb2a 	bl	8000168 <__aeabi_dsub>
 8006b14:	4602      	mov	r2, r0
 8006b16:	460b      	mov	r3, r1
 8006b18:	3430      	adds	r4, #48	; 0x30
 8006b1a:	e9cd 2304 	strd	r2, r3, [sp, #16]
 8006b1e:	e9dd 2310 	ldrd	r2, r3, [sp, #64]	; 0x40
 8006b22:	f807 4b01 	strb.w	r4, [r7], #1
 8006b26:	f7f9 ff49 	bl	80009bc <__aeabi_dcmplt>
 8006b2a:	2800      	cmp	r0, #0
 8006b2c:	d174      	bne.n	8006c18 <_dtoa_r+0x648>
 8006b2e:	e9dd 2304 	ldrd	r2, r3, [sp, #16]
 8006b32:	2000      	movs	r0, #0
 8006b34:	4911      	ldr	r1, [pc, #68]	; (8006b7c <_dtoa_r+0x5ac>)
 8006b36:	f7f9 fb17 	bl	8000168 <__aeabi_dsub>
 8006b3a:	e9dd 2310 	ldrd	r2, r3, [sp, #64]	; 0x40
 8006b3e:	f7f9 ff3d 	bl	80009bc <__aeabi_dcmplt>
 8006b42:	2800      	cmp	r0, #0
 8006b44:	f040 80b6 	bne.w	8006cb4 <_dtoa_r+0x6e4>
 8006b48:	9b12      	ldr	r3, [sp, #72]	; 0x48
 8006b4a:	429f      	cmp	r7, r3
 8006b4c:	f43f af7a 	beq.w	8006a44 <_dtoa_r+0x474>
 8006b50:	e9dd 0110 	ldrd	r0, r1, [sp, #64]	; 0x40
 8006b54:	2200      	movs	r2, #0
 8006b56:	4b0a      	ldr	r3, [pc, #40]	; (8006b80 <_dtoa_r+0x5b0>)
 8006b58:	f7f9 fcbe 	bl	80004d8 <__aeabi_dmul>
 8006b5c:	2200      	movs	r2, #0
 8006b5e:	e9cd 0110 	strd	r0, r1, [sp, #64]	; 0x40
 8006b62:	e9dd 0104 	ldrd	r0, r1, [sp, #16]
 8006b66:	4b06      	ldr	r3, [pc, #24]	; (8006b80 <_dtoa_r+0x5b0>)
 8006b68:	f7f9 fcb6 	bl	80004d8 <__aeabi_dmul>
 8006b6c:	e9cd 0104 	strd	r0, r1, [sp, #16]
 8006b70:	e7c3      	b.n	8006afa <_dtoa_r+0x52a>
 8006b72:	bf00      	nop
 8006b74:	08008c68 	.word	0x08008c68
 8006b78:	08008c40 	.word	0x08008c40
 8006b7c:	3ff00000 	.word	0x3ff00000
 8006b80:	40240000 	.word	0x40240000
 8006b84:	401c0000 	.word	0x401c0000
 8006b88:	40140000 	.word	0x40140000
 8006b8c:	3fe00000 	.word	0x3fe00000
 8006b90:	4630      	mov	r0, r6
 8006b92:	4639      	mov	r1, r7
 8006b94:	f7f9 fca0 	bl	80004d8 <__aeabi_dmul>
 8006b98:	9b12      	ldr	r3, [sp, #72]	; 0x48
 8006b9a:	e9cd 0110 	strd	r0, r1, [sp, #64]	; 0x40
 8006b9e:	9c08      	ldr	r4, [sp, #32]
 8006ba0:	9314      	str	r3, [sp, #80]	; 0x50
 8006ba2:	e9dd 0104 	ldrd	r0, r1, [sp, #16]
 8006ba6:	f7f9 ff47 	bl	8000a38 <__aeabi_d2iz>
 8006baa:	9015      	str	r0, [sp, #84]	; 0x54
 8006bac:	f7f9 fc2a 	bl	8000404 <__aeabi_i2d>
 8006bb0:	4602      	mov	r2, r0
 8006bb2:	460b      	mov	r3, r1
 8006bb4:	e9dd 0104 	ldrd	r0, r1, [sp, #16]
 8006bb8:	f7f9 fad6 	bl	8000168 <__aeabi_dsub>
 8006bbc:	9b15      	ldr	r3, [sp, #84]	; 0x54
 8006bbe:	4606      	mov	r6, r0
 8006bc0:	3330      	adds	r3, #48	; 0x30
 8006bc2:	f804 3b01 	strb.w	r3, [r4], #1
 8006bc6:	9b12      	ldr	r3, [sp, #72]	; 0x48
 8006bc8:	460f      	mov	r7, r1
 8006bca:	429c      	cmp	r4, r3
 8006bcc:	f04f 0200 	mov.w	r2, #0
 8006bd0:	d124      	bne.n	8006c1c <_dtoa_r+0x64c>
 8006bd2:	e9dd 0110 	ldrd	r0, r1, [sp, #64]	; 0x40
 8006bd6:	4bb3      	ldr	r3, [pc, #716]	; (8006ea4 <_dtoa_r+0x8d4>)
 8006bd8:	f7f9 fac8 	bl	800016c <__adddf3>
 8006bdc:	4602      	mov	r2, r0
 8006bde:	460b      	mov	r3, r1
 8006be0:	4630      	mov	r0, r6
 8006be2:	4639      	mov	r1, r7
 8006be4:	f7f9 ff08 	bl	80009f8 <__aeabi_dcmpgt>
 8006be8:	2800      	cmp	r0, #0
 8006bea:	d162      	bne.n	8006cb2 <_dtoa_r+0x6e2>
 8006bec:	e9dd 2310 	ldrd	r2, r3, [sp, #64]	; 0x40
 8006bf0:	2000      	movs	r0, #0
 8006bf2:	49ac      	ldr	r1, [pc, #688]	; (8006ea4 <_dtoa_r+0x8d4>)
 8006bf4:	f7f9 fab8 	bl	8000168 <__aeabi_dsub>
 8006bf8:	4602      	mov	r2, r0
 8006bfa:	460b      	mov	r3, r1
 8006bfc:	4630      	mov	r0, r6
 8006bfe:	4639      	mov	r1, r7
 8006c00:	f7f9 fedc 	bl	80009bc <__aeabi_dcmplt>
 8006c04:	2800      	cmp	r0, #0
 8006c06:	f43f af1d 	beq.w	8006a44 <_dtoa_r+0x474>
 8006c0a:	9f14      	ldr	r7, [sp, #80]	; 0x50
 8006c0c:	1e7b      	subs	r3, r7, #1
 8006c0e:	9314      	str	r3, [sp, #80]	; 0x50
 8006c10:	f817 3c01 	ldrb.w	r3, [r7, #-1]
 8006c14:	2b30      	cmp	r3, #48	; 0x30
 8006c16:	d0f8      	beq.n	8006c0a <_dtoa_r+0x63a>
 8006c18:	46c1      	mov	r9, r8
 8006c1a:	e03a      	b.n	8006c92 <_dtoa_r+0x6c2>
 8006c1c:	4ba2      	ldr	r3, [pc, #648]	; (8006ea8 <_dtoa_r+0x8d8>)
 8006c1e:	f7f9 fc5b 	bl	80004d8 <__aeabi_dmul>
 8006c22:	e9cd 0104 	strd	r0, r1, [sp, #16]
 8006c26:	e7bc      	b.n	8006ba2 <_dtoa_r+0x5d2>
 8006c28:	9f08      	ldr	r7, [sp, #32]
 8006c2a:	e9dd 2306 	ldrd	r2, r3, [sp, #24]
 8006c2e:	e9dd 0104 	ldrd	r0, r1, [sp, #16]
 8006c32:	f7f9 fd7b 	bl	800072c <__aeabi_ddiv>
 8006c36:	f7f9 feff 	bl	8000a38 <__aeabi_d2iz>
 8006c3a:	4604      	mov	r4, r0
 8006c3c:	f7f9 fbe2 	bl	8000404 <__aeabi_i2d>
 8006c40:	e9dd 2306 	ldrd	r2, r3, [sp, #24]
 8006c44:	f7f9 fc48 	bl	80004d8 <__aeabi_dmul>
 8006c48:	f104 0630 	add.w	r6, r4, #48	; 0x30
 8006c4c:	460b      	mov	r3, r1
 8006c4e:	4602      	mov	r2, r0
 8006c50:	e9dd 0104 	ldrd	r0, r1, [sp, #16]
 8006c54:	f7f9 fa88 	bl	8000168 <__aeabi_dsub>
 8006c58:	f807 6b01 	strb.w	r6, [r7], #1
 8006c5c:	9e08      	ldr	r6, [sp, #32]
 8006c5e:	9b02      	ldr	r3, [sp, #8]
 8006c60:	1bbe      	subs	r6, r7, r6
 8006c62:	42b3      	cmp	r3, r6
 8006c64:	d13a      	bne.n	8006cdc <_dtoa_r+0x70c>
 8006c66:	4602      	mov	r2, r0
 8006c68:	460b      	mov	r3, r1
 8006c6a:	f7f9 fa7f 	bl	800016c <__adddf3>
 8006c6e:	4602      	mov	r2, r0
 8006c70:	460b      	mov	r3, r1
 8006c72:	e9cd 2302 	strd	r2, r3, [sp, #8]
 8006c76:	e9dd 2306 	ldrd	r2, r3, [sp, #24]
 8006c7a:	f7f9 febd 	bl	80009f8 <__aeabi_dcmpgt>
 8006c7e:	bb58      	cbnz	r0, 8006cd8 <_dtoa_r+0x708>
 8006c80:	e9dd 2306 	ldrd	r2, r3, [sp, #24]
 8006c84:	e9dd 0102 	ldrd	r0, r1, [sp, #8]
 8006c88:	f7f9 fe8e 	bl	80009a8 <__aeabi_dcmpeq>
 8006c8c:	b108      	cbz	r0, 8006c92 <_dtoa_r+0x6c2>
 8006c8e:	07e1      	lsls	r1, r4, #31
 8006c90:	d422      	bmi.n	8006cd8 <_dtoa_r+0x708>
 8006c92:	4628      	mov	r0, r5
 8006c94:	4651      	mov	r1, sl
 8006c96:	f000 faf1 	bl	800727c <_Bfree>
 8006c9a:	2300      	movs	r3, #0
 8006c9c:	703b      	strb	r3, [r7, #0]
 8006c9e:	9b24      	ldr	r3, [sp, #144]	; 0x90
 8006ca0:	f109 0001 	add.w	r0, r9, #1
 8006ca4:	6018      	str	r0, [r3, #0]
 8006ca6:	9b26      	ldr	r3, [sp, #152]	; 0x98
 8006ca8:	2b00      	cmp	r3, #0
 8006caa:	f43f acdf 	beq.w	800666c <_dtoa_r+0x9c>
 8006cae:	601f      	str	r7, [r3, #0]
 8006cb0:	e4dc      	b.n	800666c <_dtoa_r+0x9c>
 8006cb2:	4627      	mov	r7, r4
 8006cb4:	463b      	mov	r3, r7
 8006cb6:	461f      	mov	r7, r3
 8006cb8:	f813 2d01 	ldrb.w	r2, [r3, #-1]!
 8006cbc:	2a39      	cmp	r2, #57	; 0x39
 8006cbe:	d107      	bne.n	8006cd0 <_dtoa_r+0x700>
 8006cc0:	9a08      	ldr	r2, [sp, #32]
 8006cc2:	429a      	cmp	r2, r3
 8006cc4:	d1f7      	bne.n	8006cb6 <_dtoa_r+0x6e6>
 8006cc6:	2230      	movs	r2, #48	; 0x30
 8006cc8:	9908      	ldr	r1, [sp, #32]
 8006cca:	f108 0801 	add.w	r8, r8, #1
 8006cce:	700a      	strb	r2, [r1, #0]
 8006cd0:	781a      	ldrb	r2, [r3, #0]
 8006cd2:	3201      	adds	r2, #1
 8006cd4:	701a      	strb	r2, [r3, #0]
 8006cd6:	e79f      	b.n	8006c18 <_dtoa_r+0x648>
 8006cd8:	46c8      	mov	r8, r9
 8006cda:	e7eb      	b.n	8006cb4 <_dtoa_r+0x6e4>
 8006cdc:	2200      	movs	r2, #0
 8006cde:	4b72      	ldr	r3, [pc, #456]	; (8006ea8 <_dtoa_r+0x8d8>)
 8006ce0:	f7f9 fbfa 	bl	80004d8 <__aeabi_dmul>
 8006ce4:	4602      	mov	r2, r0
 8006ce6:	460b      	mov	r3, r1
 8006ce8:	e9cd 2304 	strd	r2, r3, [sp, #16]
 8006cec:	2200      	movs	r2, #0
 8006cee:	2300      	movs	r3, #0
 8006cf0:	f7f9 fe5a 	bl	80009a8 <__aeabi_dcmpeq>
 8006cf4:	2800      	cmp	r0, #0
 8006cf6:	d098      	beq.n	8006c2a <_dtoa_r+0x65a>
 8006cf8:	e7cb      	b.n	8006c92 <_dtoa_r+0x6c2>
 8006cfa:	9a0b      	ldr	r2, [sp, #44]	; 0x2c
 8006cfc:	2a00      	cmp	r2, #0
 8006cfe:	f000 80cd 	beq.w	8006e9c <_dtoa_r+0x8cc>
 8006d02:	9a22      	ldr	r2, [sp, #136]	; 0x88
 8006d04:	2a01      	cmp	r2, #1
 8006d06:	f300 80af 	bgt.w	8006e68 <_dtoa_r+0x898>
 8006d0a:	9a13      	ldr	r2, [sp, #76]	; 0x4c
 8006d0c:	2a00      	cmp	r2, #0
 8006d0e:	f000 80a7 	beq.w	8006e60 <_dtoa_r+0x890>
 8006d12:	f203 4333 	addw	r3, r3, #1075	; 0x433
 8006d16:	9c0a      	ldr	r4, [sp, #40]	; 0x28
 8006d18:	9f06      	ldr	r7, [sp, #24]
 8006d1a:	9a06      	ldr	r2, [sp, #24]
 8006d1c:	2101      	movs	r1, #1
 8006d1e:	441a      	add	r2, r3
 8006d20:	9206      	str	r2, [sp, #24]
 8006d22:	9a09      	ldr	r2, [sp, #36]	; 0x24
 8006d24:	4628      	mov	r0, r5
 8006d26:	441a      	add	r2, r3
 8006d28:	9209      	str	r2, [sp, #36]	; 0x24
 8006d2a:	f000 fb61 	bl	80073f0 <__i2b>
 8006d2e:	4606      	mov	r6, r0
 8006d30:	2f00      	cmp	r7, #0
 8006d32:	dd0c      	ble.n	8006d4e <_dtoa_r+0x77e>
 8006d34:	9b09      	ldr	r3, [sp, #36]	; 0x24
 8006d36:	2b00      	cmp	r3, #0
 8006d38:	dd09      	ble.n	8006d4e <_dtoa_r+0x77e>
 8006d3a:	42bb      	cmp	r3, r7
 8006d3c:	bfa8      	it	ge
 8006d3e:	463b      	movge	r3, r7
 8006d40:	9a06      	ldr	r2, [sp, #24]
 8006d42:	1aff      	subs	r7, r7, r3
 8006d44:	1ad2      	subs	r2, r2, r3
 8006d46:	9206      	str	r2, [sp, #24]
 8006d48:	9a09      	ldr	r2, [sp, #36]	; 0x24
 8006d4a:	1ad3      	subs	r3, r2, r3
 8006d4c:	9309      	str	r3, [sp, #36]	; 0x24
 8006d4e:	9b0a      	ldr	r3, [sp, #40]	; 0x28
 8006d50:	b1f3      	cbz	r3, 8006d90 <_dtoa_r+0x7c0>
 8006d52:	9b0b      	ldr	r3, [sp, #44]	; 0x2c
 8006d54:	2b00      	cmp	r3, #0
 8006d56:	f000 80a9 	beq.w	8006eac <_dtoa_r+0x8dc>
 8006d5a:	2c00      	cmp	r4, #0
 8006d5c:	dd10      	ble.n	8006d80 <_dtoa_r+0x7b0>
 8006d5e:	4631      	mov	r1, r6
 8006d60:	4622      	mov	r2, r4
 8006d62:	4628      	mov	r0, r5
 8006d64:	f000 fbfe 	bl	8007564 <__pow5mult>
 8006d68:	4652      	mov	r2, sl
 8006d6a:	4601      	mov	r1, r0
 8006d6c:	4606      	mov	r6, r0
 8006d6e:	4628      	mov	r0, r5
 8006d70:	f000 fb54 	bl	800741c <__multiply>
 8006d74:	4680      	mov	r8, r0
 8006d76:	4651      	mov	r1, sl
 8006d78:	4628      	mov	r0, r5
 8006d7a:	f000 fa7f 	bl	800727c <_Bfree>
 8006d7e:	46c2      	mov	sl, r8
 8006d80:	9b0a      	ldr	r3, [sp, #40]	; 0x28
 8006d82:	1b1a      	subs	r2, r3, r4
 8006d84:	d004      	beq.n	8006d90 <_dtoa_r+0x7c0>
 8006d86:	4651      	mov	r1, sl
 8006d88:	4628      	mov	r0, r5
 8006d8a:	f000 fbeb 	bl	8007564 <__pow5mult>
 8006d8e:	4682      	mov	sl, r0
 8006d90:	2101      	movs	r1, #1
 8006d92:	4628      	mov	r0, r5
 8006d94:	f000 fb2c 	bl	80073f0 <__i2b>
 8006d98:	9b0e      	ldr	r3, [sp, #56]	; 0x38
 8006d9a:	4604      	mov	r4, r0
 8006d9c:	2b00      	cmp	r3, #0
 8006d9e:	f340 8087 	ble.w	8006eb0 <_dtoa_r+0x8e0>
 8006da2:	461a      	mov	r2, r3
 8006da4:	4601      	mov	r1, r0
 8006da6:	4628      	mov	r0, r5
 8006da8:	f000 fbdc 	bl	8007564 <__pow5mult>
 8006dac:	9b22      	ldr	r3, [sp, #136]	; 0x88
 8006dae:	4604      	mov	r4, r0
 8006db0:	2b01      	cmp	r3, #1
 8006db2:	f340 8080 	ble.w	8006eb6 <_dtoa_r+0x8e6>
 8006db6:	f04f 0800 	mov.w	r8, #0
 8006dba:	6923      	ldr	r3, [r4, #16]
 8006dbc:	eb04 0383 	add.w	r3, r4, r3, lsl #2
 8006dc0:	6918      	ldr	r0, [r3, #16]
 8006dc2:	f000 fac7 	bl	8007354 <__hi0bits>
 8006dc6:	f1c0 0020 	rsb	r0, r0, #32
 8006dca:	9b09      	ldr	r3, [sp, #36]	; 0x24
 8006dcc:	4418      	add	r0, r3
 8006dce:	f010 001f 	ands.w	r0, r0, #31
 8006dd2:	f000 8092 	beq.w	8006efa <_dtoa_r+0x92a>
 8006dd6:	f1c0 0320 	rsb	r3, r0, #32
 8006dda:	2b04      	cmp	r3, #4
 8006ddc:	f340 808a 	ble.w	8006ef4 <_dtoa_r+0x924>
 8006de0:	f1c0 001c 	rsb	r0, r0, #28
 8006de4:	9b06      	ldr	r3, [sp, #24]
 8006de6:	4407      	add	r7, r0
 8006de8:	4403      	add	r3, r0
 8006dea:	9306      	str	r3, [sp, #24]
 8006dec:	9b09      	ldr	r3, [sp, #36]	; 0x24
 8006dee:	4403      	add	r3, r0
 8006df0:	9309      	str	r3, [sp, #36]	; 0x24
 8006df2:	9b06      	ldr	r3, [sp, #24]
 8006df4:	2b00      	cmp	r3, #0
 8006df6:	dd05      	ble.n	8006e04 <_dtoa_r+0x834>
 8006df8:	4651      	mov	r1, sl
 8006dfa:	461a      	mov	r2, r3
 8006dfc:	4628      	mov	r0, r5
 8006dfe:	f000 fc0b 	bl	8007618 <__lshift>
 8006e02:	4682      	mov	sl, r0
 8006e04:	9b09      	ldr	r3, [sp, #36]	; 0x24
 8006e06:	2b00      	cmp	r3, #0
 8006e08:	dd05      	ble.n	8006e16 <_dtoa_r+0x846>
 8006e0a:	4621      	mov	r1, r4
 8006e0c:	461a      	mov	r2, r3
 8006e0e:	4628      	mov	r0, r5
 8006e10:	f000 fc02 	bl	8007618 <__lshift>
 8006e14:	4604      	mov	r4, r0
 8006e16:	9b0f      	ldr	r3, [sp, #60]	; 0x3c
 8006e18:	2b00      	cmp	r3, #0
 8006e1a:	d070      	beq.n	8006efe <_dtoa_r+0x92e>
 8006e1c:	4621      	mov	r1, r4
 8006e1e:	4650      	mov	r0, sl
 8006e20:	f000 fc66 	bl	80076f0 <__mcmp>
 8006e24:	2800      	cmp	r0, #0
 8006e26:	da6a      	bge.n	8006efe <_dtoa_r+0x92e>
 8006e28:	2300      	movs	r3, #0
 8006e2a:	4651      	mov	r1, sl
 8006e2c:	220a      	movs	r2, #10
 8006e2e:	4628      	mov	r0, r5
 8006e30:	f000 fa46 	bl	80072c0 <__multadd>
 8006e34:	9b0b      	ldr	r3, [sp, #44]	; 0x2c
 8006e36:	4682      	mov	sl, r0
 8006e38:	f109 39ff 	add.w	r9, r9, #4294967295	; 0xffffffff
 8006e3c:	2b00      	cmp	r3, #0
 8006e3e:	f000 8193 	beq.w	8007168 <_dtoa_r+0xb98>
 8006e42:	4631      	mov	r1, r6
 8006e44:	2300      	movs	r3, #0
 8006e46:	220a      	movs	r2, #10
 8006e48:	4628      	mov	r0, r5
 8006e4a:	f000 fa39 	bl	80072c0 <__multadd>
 8006e4e:	f1bb 0f00 	cmp.w	fp, #0
 8006e52:	4606      	mov	r6, r0
 8006e54:	f300 8093 	bgt.w	8006f7e <_dtoa_r+0x9ae>
 8006e58:	9b22      	ldr	r3, [sp, #136]	; 0x88
 8006e5a:	2b02      	cmp	r3, #2
 8006e5c:	dc57      	bgt.n	8006f0e <_dtoa_r+0x93e>
 8006e5e:	e08e      	b.n	8006f7e <_dtoa_r+0x9ae>
 8006e60:	9b16      	ldr	r3, [sp, #88]	; 0x58
 8006e62:	f1c3 0336 	rsb	r3, r3, #54	; 0x36
 8006e66:	e756      	b.n	8006d16 <_dtoa_r+0x746>
 8006e68:	9b02      	ldr	r3, [sp, #8]
 8006e6a:	1e5c      	subs	r4, r3, #1
 8006e6c:	9b0a      	ldr	r3, [sp, #40]	; 0x28
 8006e6e:	42a3      	cmp	r3, r4
 8006e70:	bfb7      	itett	lt
 8006e72:	9b0a      	ldrlt	r3, [sp, #40]	; 0x28
 8006e74:	1b1c      	subge	r4, r3, r4
 8006e76:	1ae2      	sublt	r2, r4, r3
 8006e78:	9b0e      	ldrlt	r3, [sp, #56]	; 0x38
 8006e7a:	bfbe      	ittt	lt
 8006e7c:	940a      	strlt	r4, [sp, #40]	; 0x28
 8006e7e:	189b      	addlt	r3, r3, r2
 8006e80:	930e      	strlt	r3, [sp, #56]	; 0x38
 8006e82:	9b02      	ldr	r3, [sp, #8]
 8006e84:	bfb8      	it	lt
 8006e86:	2400      	movlt	r4, #0
 8006e88:	2b00      	cmp	r3, #0
 8006e8a:	bfbb      	ittet	lt
 8006e8c:	9b06      	ldrlt	r3, [sp, #24]
 8006e8e:	9a02      	ldrlt	r2, [sp, #8]
 8006e90:	9f06      	ldrge	r7, [sp, #24]
 8006e92:	1a9f      	sublt	r7, r3, r2
 8006e94:	bfac      	ite	ge
 8006e96:	9b02      	ldrge	r3, [sp, #8]
 8006e98:	2300      	movlt	r3, #0
 8006e9a:	e73e      	b.n	8006d1a <_dtoa_r+0x74a>
 8006e9c:	9c0a      	ldr	r4, [sp, #40]	; 0x28
 8006e9e:	9f06      	ldr	r7, [sp, #24]
 8006ea0:	9e0b      	ldr	r6, [sp, #44]	; 0x2c
 8006ea2:	e745      	b.n	8006d30 <_dtoa_r+0x760>
 8006ea4:	3fe00000 	.word	0x3fe00000
 8006ea8:	40240000 	.word	0x40240000
 8006eac:	9a0a      	ldr	r2, [sp, #40]	; 0x28
 8006eae:	e76a      	b.n	8006d86 <_dtoa_r+0x7b6>
 8006eb0:	9b22      	ldr	r3, [sp, #136]	; 0x88
 8006eb2:	2b01      	cmp	r3, #1
 8006eb4:	dc19      	bgt.n	8006eea <_dtoa_r+0x91a>
 8006eb6:	9b04      	ldr	r3, [sp, #16]
 8006eb8:	b9bb      	cbnz	r3, 8006eea <_dtoa_r+0x91a>
 8006eba:	9b05      	ldr	r3, [sp, #20]
 8006ebc:	f3c3 0313 	ubfx	r3, r3, #0, #20
 8006ec0:	b99b      	cbnz	r3, 8006eea <_dtoa_r+0x91a>
 8006ec2:	9b05      	ldr	r3, [sp, #20]
 8006ec4:	f023 4300 	bic.w	r3, r3, #2147483648	; 0x80000000
 8006ec8:	0d1b      	lsrs	r3, r3, #20
 8006eca:	051b      	lsls	r3, r3, #20
 8006ecc:	b183      	cbz	r3, 8006ef0 <_dtoa_r+0x920>
 8006ece:	f04f 0801 	mov.w	r8, #1
 8006ed2:	9b06      	ldr	r3, [sp, #24]
 8006ed4:	3301      	adds	r3, #1
 8006ed6:	9306      	str	r3, [sp, #24]
 8006ed8:	9b09      	ldr	r3, [sp, #36]	; 0x24
 8006eda:	3301      	adds	r3, #1
 8006edc:	9309      	str	r3, [sp, #36]	; 0x24
 8006ede:	9b0e      	ldr	r3, [sp, #56]	; 0x38
 8006ee0:	2b00      	cmp	r3, #0
 8006ee2:	f47f af6a 	bne.w	8006dba <_dtoa_r+0x7ea>
 8006ee6:	2001      	movs	r0, #1
 8006ee8:	e76f      	b.n	8006dca <_dtoa_r+0x7fa>
 8006eea:	f04f 0800 	mov.w	r8, #0
 8006eee:	e7f6      	b.n	8006ede <_dtoa_r+0x90e>
 8006ef0:	4698      	mov	r8, r3
 8006ef2:	e7f4      	b.n	8006ede <_dtoa_r+0x90e>
 8006ef4:	f43f af7d 	beq.w	8006df2 <_dtoa_r+0x822>
 8006ef8:	4618      	mov	r0, r3
 8006efa:	301c      	adds	r0, #28
 8006efc:	e772      	b.n	8006de4 <_dtoa_r+0x814>
 8006efe:	9b02      	ldr	r3, [sp, #8]
 8006f00:	2b00      	cmp	r3, #0
 8006f02:	dc36      	bgt.n	8006f72 <_dtoa_r+0x9a2>
 8006f04:	9b22      	ldr	r3, [sp, #136]	; 0x88
 8006f06:	2b02      	cmp	r3, #2
 8006f08:	dd33      	ble.n	8006f72 <_dtoa_r+0x9a2>
 8006f0a:	f8dd b008 	ldr.w	fp, [sp, #8]
 8006f0e:	f1bb 0f00 	cmp.w	fp, #0
 8006f12:	d10d      	bne.n	8006f30 <_dtoa_r+0x960>
 8006f14:	4621      	mov	r1, r4
 8006f16:	465b      	mov	r3, fp
 8006f18:	2205      	movs	r2, #5
 8006f1a:	4628      	mov	r0, r5
 8006f1c:	f000 f9d0 	bl	80072c0 <__multadd>
 8006f20:	4601      	mov	r1, r0
 8006f22:	4604      	mov	r4, r0
 8006f24:	4650      	mov	r0, sl
 8006f26:	f000 fbe3 	bl	80076f0 <__mcmp>
 8006f2a:	2800      	cmp	r0, #0
 8006f2c:	f73f adb6 	bgt.w	8006a9c <_dtoa_r+0x4cc>
 8006f30:	9b23      	ldr	r3, [sp, #140]	; 0x8c
 8006f32:	9f08      	ldr	r7, [sp, #32]
 8006f34:	ea6f 0903 	mvn.w	r9, r3
 8006f38:	f04f 0800 	mov.w	r8, #0
 8006f3c:	4621      	mov	r1, r4
 8006f3e:	4628      	mov	r0, r5
 8006f40:	f000 f99c 	bl	800727c <_Bfree>
 8006f44:	2e00      	cmp	r6, #0
 8006f46:	f43f aea4 	beq.w	8006c92 <_dtoa_r+0x6c2>
 8006f4a:	f1b8 0f00 	cmp.w	r8, #0
 8006f4e:	d005      	beq.n	8006f5c <_dtoa_r+0x98c>
 8006f50:	45b0      	cmp	r8, r6
 8006f52:	d003      	beq.n	8006f5c <_dtoa_r+0x98c>
 8006f54:	4641      	mov	r1, r8
 8006f56:	4628      	mov	r0, r5
 8006f58:	f000 f990 	bl	800727c <_Bfree>
 8006f5c:	4631      	mov	r1, r6
 8006f5e:	4628      	mov	r0, r5
 8006f60:	f000 f98c 	bl	800727c <_Bfree>
 8006f64:	e695      	b.n	8006c92 <_dtoa_r+0x6c2>
 8006f66:	2400      	movs	r4, #0
 8006f68:	4626      	mov	r6, r4
 8006f6a:	e7e1      	b.n	8006f30 <_dtoa_r+0x960>
 8006f6c:	46c1      	mov	r9, r8
 8006f6e:	4626      	mov	r6, r4
 8006f70:	e594      	b.n	8006a9c <_dtoa_r+0x4cc>
 8006f72:	9b0b      	ldr	r3, [sp, #44]	; 0x2c
 8006f74:	f8dd b008 	ldr.w	fp, [sp, #8]
 8006f78:	2b00      	cmp	r3, #0
 8006f7a:	f000 80fc 	beq.w	8007176 <_dtoa_r+0xba6>
 8006f7e:	2f00      	cmp	r7, #0
 8006f80:	dd05      	ble.n	8006f8e <_dtoa_r+0x9be>
 8006f82:	4631      	mov	r1, r6
 8006f84:	463a      	mov	r2, r7
 8006f86:	4628      	mov	r0, r5
 8006f88:	f000 fb46 	bl	8007618 <__lshift>
 8006f8c:	4606      	mov	r6, r0
 8006f8e:	f1b8 0f00 	cmp.w	r8, #0
 8006f92:	d05c      	beq.n	800704e <_dtoa_r+0xa7e>
 8006f94:	4628      	mov	r0, r5
 8006f96:	6871      	ldr	r1, [r6, #4]
 8006f98:	f000 f930 	bl	80071fc <_Balloc>
 8006f9c:	4607      	mov	r7, r0
 8006f9e:	b928      	cbnz	r0, 8006fac <_dtoa_r+0x9dc>
 8006fa0:	4602      	mov	r2, r0
 8006fa2:	f240 21ea 	movw	r1, #746	; 0x2ea
 8006fa6:	4b7e      	ldr	r3, [pc, #504]	; (80071a0 <_dtoa_r+0xbd0>)
 8006fa8:	f7ff bb26 	b.w	80065f8 <_dtoa_r+0x28>
 8006fac:	6932      	ldr	r2, [r6, #16]
 8006fae:	f106 010c 	add.w	r1, r6, #12
 8006fb2:	3202      	adds	r2, #2
 8006fb4:	0092      	lsls	r2, r2, #2
 8006fb6:	300c      	adds	r0, #12
 8006fb8:	f000 f912 	bl	80071e0 <memcpy>
 8006fbc:	2201      	movs	r2, #1
 8006fbe:	4639      	mov	r1, r7
 8006fc0:	4628      	mov	r0, r5
 8006fc2:	f000 fb29 	bl	8007618 <__lshift>
 8006fc6:	46b0      	mov	r8, r6
 8006fc8:	4606      	mov	r6, r0
 8006fca:	9b08      	ldr	r3, [sp, #32]
 8006fcc:	3301      	adds	r3, #1
 8006fce:	9302      	str	r3, [sp, #8]
 8006fd0:	9b08      	ldr	r3, [sp, #32]
 8006fd2:	445b      	add	r3, fp
 8006fd4:	930a      	str	r3, [sp, #40]	; 0x28
 8006fd6:	9b04      	ldr	r3, [sp, #16]
 8006fd8:	f003 0301 	and.w	r3, r3, #1
 8006fdc:	9309      	str	r3, [sp, #36]	; 0x24
 8006fde:	9b02      	ldr	r3, [sp, #8]
 8006fe0:	4621      	mov	r1, r4
 8006fe2:	4650      	mov	r0, sl
 8006fe4:	f103 3bff 	add.w	fp, r3, #4294967295	; 0xffffffff
 8006fe8:	f7ff fa64 	bl	80064b4 <quorem>
 8006fec:	4603      	mov	r3, r0
 8006fee:	4641      	mov	r1, r8
 8006ff0:	3330      	adds	r3, #48	; 0x30
 8006ff2:	9004      	str	r0, [sp, #16]
 8006ff4:	4650      	mov	r0, sl
 8006ff6:	930b      	str	r3, [sp, #44]	; 0x2c
 8006ff8:	f000 fb7a 	bl	80076f0 <__mcmp>
 8006ffc:	4632      	mov	r2, r6
 8006ffe:	9006      	str	r0, [sp, #24]
 8007000:	4621      	mov	r1, r4
 8007002:	4628      	mov	r0, r5
 8007004:	f000 fb90 	bl	8007728 <__mdiff>
 8007008:	68c2      	ldr	r2, [r0, #12]
 800700a:	4607      	mov	r7, r0
 800700c:	9b0b      	ldr	r3, [sp, #44]	; 0x2c
 800700e:	bb02      	cbnz	r2, 8007052 <_dtoa_r+0xa82>
 8007010:	4601      	mov	r1, r0
 8007012:	4650      	mov	r0, sl
 8007014:	f000 fb6c 	bl	80076f0 <__mcmp>
 8007018:	4602      	mov	r2, r0
 800701a:	9b0b      	ldr	r3, [sp, #44]	; 0x2c
 800701c:	4639      	mov	r1, r7
 800701e:	4628      	mov	r0, r5
 8007020:	e9cd 320b 	strd	r3, r2, [sp, #44]	; 0x2c
 8007024:	f000 f92a 	bl	800727c <_Bfree>
 8007028:	9b22      	ldr	r3, [sp, #136]	; 0x88
 800702a:	9a0c      	ldr	r2, [sp, #48]	; 0x30
 800702c:	9f02      	ldr	r7, [sp, #8]
 800702e:	ea43 0102 	orr.w	r1, r3, r2
 8007032:	9b09      	ldr	r3, [sp, #36]	; 0x24
 8007034:	430b      	orrs	r3, r1
 8007036:	9b0b      	ldr	r3, [sp, #44]	; 0x2c
 8007038:	d10d      	bne.n	8007056 <_dtoa_r+0xa86>
 800703a:	2b39      	cmp	r3, #57	; 0x39
 800703c:	d027      	beq.n	800708e <_dtoa_r+0xabe>
 800703e:	9a06      	ldr	r2, [sp, #24]
 8007040:	2a00      	cmp	r2, #0
 8007042:	dd01      	ble.n	8007048 <_dtoa_r+0xa78>
 8007044:	9b04      	ldr	r3, [sp, #16]
 8007046:	3331      	adds	r3, #49	; 0x31
 8007048:	f88b 3000 	strb.w	r3, [fp]
 800704c:	e776      	b.n	8006f3c <_dtoa_r+0x96c>
 800704e:	4630      	mov	r0, r6
 8007050:	e7b9      	b.n	8006fc6 <_dtoa_r+0x9f6>
 8007052:	2201      	movs	r2, #1
 8007054:	e7e2      	b.n	800701c <_dtoa_r+0xa4c>
 8007056:	9906      	ldr	r1, [sp, #24]
 8007058:	2900      	cmp	r1, #0
 800705a:	db04      	blt.n	8007066 <_dtoa_r+0xa96>
 800705c:	9822      	ldr	r0, [sp, #136]	; 0x88
 800705e:	4301      	orrs	r1, r0
 8007060:	9809      	ldr	r0, [sp, #36]	; 0x24
 8007062:	4301      	orrs	r1, r0
 8007064:	d120      	bne.n	80070a8 <_dtoa_r+0xad8>
 8007066:	2a00      	cmp	r2, #0
 8007068:	ddee      	ble.n	8007048 <_dtoa_r+0xa78>
 800706a:	4651      	mov	r1, sl
 800706c:	2201      	movs	r2, #1
 800706e:	4628      	mov	r0, r5
 8007070:	9302      	str	r3, [sp, #8]
 8007072:	f000 fad1 	bl	8007618 <__lshift>
 8007076:	4621      	mov	r1, r4
 8007078:	4682      	mov	sl, r0
 800707a:	f000 fb39 	bl	80076f0 <__mcmp>
 800707e:	2800      	cmp	r0, #0
 8007080:	9b02      	ldr	r3, [sp, #8]
 8007082:	dc02      	bgt.n	800708a <_dtoa_r+0xaba>
 8007084:	d1e0      	bne.n	8007048 <_dtoa_r+0xa78>
 8007086:	07da      	lsls	r2, r3, #31
 8007088:	d5de      	bpl.n	8007048 <_dtoa_r+0xa78>
 800708a:	2b39      	cmp	r3, #57	; 0x39
 800708c:	d1da      	bne.n	8007044 <_dtoa_r+0xa74>
 800708e:	2339      	movs	r3, #57	; 0x39
 8007090:	f88b 3000 	strb.w	r3, [fp]
 8007094:	463b      	mov	r3, r7
 8007096:	461f      	mov	r7, r3
 8007098:	f817 2c01 	ldrb.w	r2, [r7, #-1]
 800709c:	3b01      	subs	r3, #1
 800709e:	2a39      	cmp	r2, #57	; 0x39
 80070a0:	d050      	beq.n	8007144 <_dtoa_r+0xb74>
 80070a2:	3201      	adds	r2, #1
 80070a4:	701a      	strb	r2, [r3, #0]
 80070a6:	e749      	b.n	8006f3c <_dtoa_r+0x96c>
 80070a8:	2a00      	cmp	r2, #0
 80070aa:	dd03      	ble.n	80070b4 <_dtoa_r+0xae4>
 80070ac:	2b39      	cmp	r3, #57	; 0x39
 80070ae:	d0ee      	beq.n	800708e <_dtoa_r+0xabe>
 80070b0:	3301      	adds	r3, #1
 80070b2:	e7c9      	b.n	8007048 <_dtoa_r+0xa78>
 80070b4:	9a02      	ldr	r2, [sp, #8]
 80070b6:	990a      	ldr	r1, [sp, #40]	; 0x28
 80070b8:	f802 3c01 	strb.w	r3, [r2, #-1]
 80070bc:	428a      	cmp	r2, r1
 80070be:	d02a      	beq.n	8007116 <_dtoa_r+0xb46>
 80070c0:	4651      	mov	r1, sl
 80070c2:	2300      	movs	r3, #0
 80070c4:	220a      	movs	r2, #10
 80070c6:	4628      	mov	r0, r5
 80070c8:	f000 f8fa 	bl	80072c0 <__multadd>
 80070cc:	45b0      	cmp	r8, r6
 80070ce:	4682      	mov	sl, r0
 80070d0:	f04f 0300 	mov.w	r3, #0
 80070d4:	f04f 020a 	mov.w	r2, #10
 80070d8:	4641      	mov	r1, r8
 80070da:	4628      	mov	r0, r5
 80070dc:	d107      	bne.n	80070ee <_dtoa_r+0xb1e>
 80070de:	f000 f8ef 	bl	80072c0 <__multadd>
 80070e2:	4680      	mov	r8, r0
 80070e4:	4606      	mov	r6, r0
 80070e6:	9b02      	ldr	r3, [sp, #8]
 80070e8:	3301      	adds	r3, #1
 80070ea:	9302      	str	r3, [sp, #8]
 80070ec:	e777      	b.n	8006fde <_dtoa_r+0xa0e>
 80070ee:	f000 f8e7 	bl	80072c0 <__multadd>
 80070f2:	4631      	mov	r1, r6
 80070f4:	4680      	mov	r8, r0
 80070f6:	2300      	movs	r3, #0
 80070f8:	220a      	movs	r2, #10
 80070fa:	4628      	mov	r0, r5
 80070fc:	f000 f8e0 	bl	80072c0 <__multadd>
 8007100:	4606      	mov	r6, r0
 8007102:	e7f0      	b.n	80070e6 <_dtoa_r+0xb16>
 8007104:	f1bb 0f00 	cmp.w	fp, #0
 8007108:	bfcc      	ite	gt
 800710a:	465f      	movgt	r7, fp
 800710c:	2701      	movle	r7, #1
 800710e:	f04f 0800 	mov.w	r8, #0
 8007112:	9a08      	ldr	r2, [sp, #32]
 8007114:	4417      	add	r7, r2
 8007116:	4651      	mov	r1, sl
 8007118:	2201      	movs	r2, #1
 800711a:	4628      	mov	r0, r5
 800711c:	9302      	str	r3, [sp, #8]
 800711e:	f000 fa7b 	bl	8007618 <__lshift>
 8007122:	4621      	mov	r1, r4
 8007124:	4682      	mov	sl, r0
 8007126:	f000 fae3 	bl	80076f0 <__mcmp>
 800712a:	2800      	cmp	r0, #0
 800712c:	dcb2      	bgt.n	8007094 <_dtoa_r+0xac4>
 800712e:	d102      	bne.n	8007136 <_dtoa_r+0xb66>
 8007130:	9b02      	ldr	r3, [sp, #8]
 8007132:	07db      	lsls	r3, r3, #31
 8007134:	d4ae      	bmi.n	8007094 <_dtoa_r+0xac4>
 8007136:	463b      	mov	r3, r7
 8007138:	461f      	mov	r7, r3
 800713a:	f813 2d01 	ldrb.w	r2, [r3, #-1]!
 800713e:	2a30      	cmp	r2, #48	; 0x30
 8007140:	d0fa      	beq.n	8007138 <_dtoa_r+0xb68>
 8007142:	e6fb      	b.n	8006f3c <_dtoa_r+0x96c>
 8007144:	9a08      	ldr	r2, [sp, #32]
 8007146:	429a      	cmp	r2, r3
 8007148:	d1a5      	bne.n	8007096 <_dtoa_r+0xac6>
 800714a:	2331      	movs	r3, #49	; 0x31
 800714c:	f109 0901 	add.w	r9, r9, #1
 8007150:	7013      	strb	r3, [r2, #0]
 8007152:	e6f3      	b.n	8006f3c <_dtoa_r+0x96c>
 8007154:	4b13      	ldr	r3, [pc, #76]	; (80071a4 <_dtoa_r+0xbd4>)
 8007156:	f7ff baa7 	b.w	80066a8 <_dtoa_r+0xd8>
 800715a:	9b26      	ldr	r3, [sp, #152]	; 0x98
 800715c:	2b00      	cmp	r3, #0
 800715e:	f47f aa80 	bne.w	8006662 <_dtoa_r+0x92>
 8007162:	4b11      	ldr	r3, [pc, #68]	; (80071a8 <_dtoa_r+0xbd8>)
 8007164:	f7ff baa0 	b.w	80066a8 <_dtoa_r+0xd8>
 8007168:	f1bb 0f00 	cmp.w	fp, #0
 800716c:	dc03      	bgt.n	8007176 <_dtoa_r+0xba6>
 800716e:	9b22      	ldr	r3, [sp, #136]	; 0x88
 8007170:	2b02      	cmp	r3, #2
 8007172:	f73f aecc 	bgt.w	8006f0e <_dtoa_r+0x93e>
 8007176:	9f08      	ldr	r7, [sp, #32]
 8007178:	4621      	mov	r1, r4
 800717a:	4650      	mov	r0, sl
 800717c:	f7ff f99a 	bl	80064b4 <quorem>
 8007180:	9a08      	ldr	r2, [sp, #32]
 8007182:	f100 0330 	add.w	r3, r0, #48	; 0x30
 8007186:	f807 3b01 	strb.w	r3, [r7], #1
 800718a:	1aba      	subs	r2, r7, r2
 800718c:	4593      	cmp	fp, r2
 800718e:	ddb9      	ble.n	8007104 <_dtoa_r+0xb34>
 8007190:	4651      	mov	r1, sl
 8007192:	2300      	movs	r3, #0
 8007194:	220a      	movs	r2, #10
 8007196:	4628      	mov	r0, r5
 8007198:	f000 f892 	bl	80072c0 <__multadd>
 800719c:	4682      	mov	sl, r0
 800719e:	e7eb      	b.n	8007178 <_dtoa_r+0xba8>
 80071a0:	08008bcf 	.word	0x08008bcf
 80071a4:	08008b28 	.word	0x08008b28
 80071a8:	08008b4c 	.word	0x08008b4c

080071ac <_localeconv_r>:
 80071ac:	4800      	ldr	r0, [pc, #0]	; (80071b0 <_localeconv_r+0x4>)
 80071ae:	4770      	bx	lr
 80071b0:	200001b0 	.word	0x200001b0

080071b4 <malloc>:
 80071b4:	4b02      	ldr	r3, [pc, #8]	; (80071c0 <malloc+0xc>)
 80071b6:	4601      	mov	r1, r0
 80071b8:	6818      	ldr	r0, [r3, #0]
 80071ba:	f000 bbfb 	b.w	80079b4 <_malloc_r>
 80071be:	bf00      	nop
 80071c0:	2000005c 	.word	0x2000005c

080071c4 <memchr>:
 80071c4:	4603      	mov	r3, r0
 80071c6:	b510      	push	{r4, lr}
 80071c8:	b2c9      	uxtb	r1, r1
 80071ca:	4402      	add	r2, r0
 80071cc:	4293      	cmp	r3, r2
 80071ce:	4618      	mov	r0, r3
 80071d0:	d101      	bne.n	80071d6 <memchr+0x12>
 80071d2:	2000      	movs	r0, #0
 80071d4:	e003      	b.n	80071de <memchr+0x1a>
 80071d6:	7804      	ldrb	r4, [r0, #0]
 80071d8:	3301      	adds	r3, #1
 80071da:	428c      	cmp	r4, r1
 80071dc:	d1f6      	bne.n	80071cc <memchr+0x8>
 80071de:	bd10      	pop	{r4, pc}

080071e0 <memcpy>:
 80071e0:	440a      	add	r2, r1
 80071e2:	4291      	cmp	r1, r2
 80071e4:	f100 33ff 	add.w	r3, r0, #4294967295	; 0xffffffff
 80071e8:	d100      	bne.n	80071ec <memcpy+0xc>
 80071ea:	4770      	bx	lr
 80071ec:	b510      	push	{r4, lr}
 80071ee:	f811 4b01 	ldrb.w	r4, [r1], #1
 80071f2:	4291      	cmp	r1, r2
 80071f4:	f803 4f01 	strb.w	r4, [r3, #1]!
 80071f8:	d1f9      	bne.n	80071ee <memcpy+0xe>
 80071fa:	bd10      	pop	{r4, pc}

080071fc <_Balloc>:
 80071fc:	b570      	push	{r4, r5, r6, lr}
 80071fe:	6a46      	ldr	r6, [r0, #36]	; 0x24
 8007200:	4604      	mov	r4, r0
 8007202:	460d      	mov	r5, r1
 8007204:	b976      	cbnz	r6, 8007224 <_Balloc+0x28>
 8007206:	2010      	movs	r0, #16
 8007208:	f7ff ffd4 	bl	80071b4 <malloc>
 800720c:	4602      	mov	r2, r0
 800720e:	6260      	str	r0, [r4, #36]	; 0x24
 8007210:	b920      	cbnz	r0, 800721c <_Balloc+0x20>
 8007212:	2166      	movs	r1, #102	; 0x66
 8007214:	4b17      	ldr	r3, [pc, #92]	; (8007274 <_Balloc+0x78>)
 8007216:	4818      	ldr	r0, [pc, #96]	; (8007278 <_Balloc+0x7c>)
 8007218:	f000 fd92 	bl	8007d40 <__assert_func>
 800721c:	e9c0 6601 	strd	r6, r6, [r0, #4]
 8007220:	6006      	str	r6, [r0, #0]
 8007222:	60c6      	str	r6, [r0, #12]
 8007224:	6a66      	ldr	r6, [r4, #36]	; 0x24
 8007226:	68f3      	ldr	r3, [r6, #12]
 8007228:	b183      	cbz	r3, 800724c <_Balloc+0x50>
 800722a:	6a63      	ldr	r3, [r4, #36]	; 0x24
 800722c:	68db      	ldr	r3, [r3, #12]
 800722e:	f853 0025 	ldr.w	r0, [r3, r5, lsl #2]
 8007232:	b9b8      	cbnz	r0, 8007264 <_Balloc+0x68>
 8007234:	2101      	movs	r1, #1
 8007236:	fa01 f605 	lsl.w	r6, r1, r5
 800723a:	1d72      	adds	r2, r6, #5
 800723c:	4620      	mov	r0, r4
 800723e:	0092      	lsls	r2, r2, #2
 8007240:	f000 fb5e 	bl	8007900 <_calloc_r>
 8007244:	b160      	cbz	r0, 8007260 <_Balloc+0x64>
 8007246:	e9c0 5601 	strd	r5, r6, [r0, #4]
 800724a:	e00e      	b.n	800726a <_Balloc+0x6e>
 800724c:	2221      	movs	r2, #33	; 0x21
 800724e:	2104      	movs	r1, #4
 8007250:	4620      	mov	r0, r4
 8007252:	f000 fb55 	bl	8007900 <_calloc_r>
 8007256:	6a63      	ldr	r3, [r4, #36]	; 0x24
 8007258:	60f0      	str	r0, [r6, #12]
 800725a:	68db      	ldr	r3, [r3, #12]
 800725c:	2b00      	cmp	r3, #0
 800725e:	d1e4      	bne.n	800722a <_Balloc+0x2e>
 8007260:	2000      	movs	r0, #0
 8007262:	bd70      	pop	{r4, r5, r6, pc}
 8007264:	6802      	ldr	r2, [r0, #0]
 8007266:	f843 2025 	str.w	r2, [r3, r5, lsl #2]
 800726a:	2300      	movs	r3, #0
 800726c:	e9c0 3303 	strd	r3, r3, [r0, #12]
 8007270:	e7f7      	b.n	8007262 <_Balloc+0x66>
 8007272:	bf00      	nop
 8007274:	08008b59 	.word	0x08008b59
 8007278:	08008be0 	.word	0x08008be0

0800727c <_Bfree>:
 800727c:	b570      	push	{r4, r5, r6, lr}
 800727e:	6a46      	ldr	r6, [r0, #36]	; 0x24
 8007280:	4605      	mov	r5, r0
 8007282:	460c      	mov	r4, r1
 8007284:	b976      	cbnz	r6, 80072a4 <_Bfree+0x28>
 8007286:	2010      	movs	r0, #16
 8007288:	f7ff ff94 	bl	80071b4 <malloc>
 800728c:	4602      	mov	r2, r0
 800728e:	6268      	str	r0, [r5, #36]	; 0x24
 8007290:	b920      	cbnz	r0, 800729c <_Bfree+0x20>
 8007292:	218a      	movs	r1, #138	; 0x8a
 8007294:	4b08      	ldr	r3, [pc, #32]	; (80072b8 <_Bfree+0x3c>)
 8007296:	4809      	ldr	r0, [pc, #36]	; (80072bc <_Bfree+0x40>)
 8007298:	f000 fd52 	bl	8007d40 <__assert_func>
 800729c:	e9c0 6601 	strd	r6, r6, [r0, #4]
 80072a0:	6006      	str	r6, [r0, #0]
 80072a2:	60c6      	str	r6, [r0, #12]
 80072a4:	b13c      	cbz	r4, 80072b6 <_Bfree+0x3a>
 80072a6:	6a6b      	ldr	r3, [r5, #36]	; 0x24
 80072a8:	6862      	ldr	r2, [r4, #4]
 80072aa:	68db      	ldr	r3, [r3, #12]
 80072ac:	f853 1022 	ldr.w	r1, [r3, r2, lsl #2]
 80072b0:	6021      	str	r1, [r4, #0]
 80072b2:	f843 4022 	str.w	r4, [r3, r2, lsl #2]
 80072b6:	bd70      	pop	{r4, r5, r6, pc}
 80072b8:	08008b59 	.word	0x08008b59
 80072bc:	08008be0 	.word	0x08008be0

080072c0 <__multadd>:
 80072c0:	e92d 41f0 	stmdb	sp!, {r4, r5, r6, r7, r8, lr}
 80072c4:	4698      	mov	r8, r3
 80072c6:	460c      	mov	r4, r1
 80072c8:	2300      	movs	r3, #0
 80072ca:	690e      	ldr	r6, [r1, #16]
 80072cc:	4607      	mov	r7, r0
 80072ce:	f101 0014 	add.w	r0, r1, #20
 80072d2:	6805      	ldr	r5, [r0, #0]
 80072d4:	3301      	adds	r3, #1
 80072d6:	b2a9      	uxth	r1, r5
 80072d8:	fb02 8101 	mla	r1, r2, r1, r8
 80072dc:	0c2d      	lsrs	r5, r5, #16
 80072de:	ea4f 4c11 	mov.w	ip, r1, lsr #16
 80072e2:	fb02 c505 	mla	r5, r2, r5, ip
 80072e6:	b289      	uxth	r1, r1
 80072e8:	eb01 4105 	add.w	r1, r1, r5, lsl #16
 80072ec:	429e      	cmp	r6, r3
 80072ee:	ea4f 4815 	mov.w	r8, r5, lsr #16
 80072f2:	f840 1b04 	str.w	r1, [r0], #4
 80072f6:	dcec      	bgt.n	80072d2 <__multadd+0x12>
 80072f8:	f1b8 0f00 	cmp.w	r8, #0
 80072fc:	d022      	beq.n	8007344 <__multadd+0x84>
 80072fe:	68a3      	ldr	r3, [r4, #8]
 8007300:	42b3      	cmp	r3, r6
 8007302:	dc19      	bgt.n	8007338 <__multadd+0x78>
 8007304:	6861      	ldr	r1, [r4, #4]
 8007306:	4638      	mov	r0, r7
 8007308:	3101      	adds	r1, #1
 800730a:	f7ff ff77 	bl	80071fc <_Balloc>
 800730e:	4605      	mov	r5, r0
 8007310:	b928      	cbnz	r0, 800731e <__multadd+0x5e>
 8007312:	4602      	mov	r2, r0
 8007314:	21b5      	movs	r1, #181	; 0xb5
 8007316:	4b0d      	ldr	r3, [pc, #52]	; (800734c <__multadd+0x8c>)
 8007318:	480d      	ldr	r0, [pc, #52]	; (8007350 <__multadd+0x90>)
 800731a:	f000 fd11 	bl	8007d40 <__assert_func>
 800731e:	6922      	ldr	r2, [r4, #16]
 8007320:	f104 010c 	add.w	r1, r4, #12
 8007324:	3202      	adds	r2, #2
 8007326:	0092      	lsls	r2, r2, #2
 8007328:	300c      	adds	r0, #12
 800732a:	f7ff ff59 	bl	80071e0 <memcpy>
 800732e:	4621      	mov	r1, r4
 8007330:	4638      	mov	r0, r7
 8007332:	f7ff ffa3 	bl	800727c <_Bfree>
 8007336:	462c      	mov	r4, r5
 8007338:	eb04 0386 	add.w	r3, r4, r6, lsl #2
 800733c:	3601      	adds	r6, #1
 800733e:	f8c3 8014 	str.w	r8, [r3, #20]
 8007342:	6126      	str	r6, [r4, #16]
 8007344:	4620      	mov	r0, r4
 8007346:	e8bd 81f0 	ldmia.w	sp!, {r4, r5, r6, r7, r8, pc}
 800734a:	bf00      	nop
 800734c:	08008bcf 	.word	0x08008bcf
 8007350:	08008be0 	.word	0x08008be0

08007354 <__hi0bits>:
 8007354:	0c02      	lsrs	r2, r0, #16
 8007356:	0412      	lsls	r2, r2, #16
 8007358:	4603      	mov	r3, r0
 800735a:	b9ca      	cbnz	r2, 8007390 <__hi0bits+0x3c>
 800735c:	0403      	lsls	r3, r0, #16
 800735e:	2010      	movs	r0, #16
 8007360:	f013 4f7f 	tst.w	r3, #4278190080	; 0xff000000
 8007364:	bf04      	itt	eq
 8007366:	021b      	lsleq	r3, r3, #8
 8007368:	3008      	addeq	r0, #8
 800736a:	f013 4f70 	tst.w	r3, #4026531840	; 0xf0000000
 800736e:	bf04      	itt	eq
 8007370:	011b      	lsleq	r3, r3, #4
 8007372:	3004      	addeq	r0, #4
 8007374:	f013 4f40 	tst.w	r3, #3221225472	; 0xc0000000
 8007378:	bf04      	itt	eq
 800737a:	009b      	lsleq	r3, r3, #2
 800737c:	3002      	addeq	r0, #2
 800737e:	2b00      	cmp	r3, #0
 8007380:	db05      	blt.n	800738e <__hi0bits+0x3a>
 8007382:	f013 4f80 	tst.w	r3, #1073741824	; 0x40000000
 8007386:	f100 0001 	add.w	r0, r0, #1
 800738a:	bf08      	it	eq
 800738c:	2020      	moveq	r0, #32
 800738e:	4770      	bx	lr
 8007390:	2000      	movs	r0, #0
 8007392:	e7e5      	b.n	8007360 <__hi0bits+0xc>

08007394 <__lo0bits>:
 8007394:	6803      	ldr	r3, [r0, #0]
 8007396:	4602      	mov	r2, r0
 8007398:	f013 0007 	ands.w	r0, r3, #7
 800739c:	d00b      	beq.n	80073b6 <__lo0bits+0x22>
 800739e:	07d9      	lsls	r1, r3, #31
 80073a0:	d422      	bmi.n	80073e8 <__lo0bits+0x54>
 80073a2:	0798      	lsls	r0, r3, #30
 80073a4:	bf49      	itett	mi
 80073a6:	085b      	lsrmi	r3, r3, #1
 80073a8:	089b      	lsrpl	r3, r3, #2
 80073aa:	2001      	movmi	r0, #1
 80073ac:	6013      	strmi	r3, [r2, #0]
 80073ae:	bf5c      	itt	pl
 80073b0:	2002      	movpl	r0, #2
 80073b2:	6013      	strpl	r3, [r2, #0]
 80073b4:	4770      	bx	lr
 80073b6:	b299      	uxth	r1, r3
 80073b8:	b909      	cbnz	r1, 80073be <__lo0bits+0x2a>
 80073ba:	2010      	movs	r0, #16
 80073bc:	0c1b      	lsrs	r3, r3, #16
 80073be:	f013 0fff 	tst.w	r3, #255	; 0xff
 80073c2:	bf04      	itt	eq
 80073c4:	0a1b      	lsreq	r3, r3, #8
 80073c6:	3008      	addeq	r0, #8
 80073c8:	0719      	lsls	r1, r3, #28
 80073ca:	bf04      	itt	eq
 80073cc:	091b      	lsreq	r3, r3, #4
 80073ce:	3004      	addeq	r0, #4
 80073d0:	0799      	lsls	r1, r3, #30
 80073d2:	bf04      	itt	eq
 80073d4:	089b      	lsreq	r3, r3, #2
 80073d6:	3002      	addeq	r0, #2
 80073d8:	07d9      	lsls	r1, r3, #31
 80073da:	d403      	bmi.n	80073e4 <__lo0bits+0x50>
 80073dc:	085b      	lsrs	r3, r3, #1
 80073de:	f100 0001 	add.w	r0, r0, #1
 80073e2:	d003      	beq.n	80073ec <__lo0bits+0x58>
 80073e4:	6013      	str	r3, [r2, #0]
 80073e6:	4770      	bx	lr
 80073e8:	2000      	movs	r0, #0
 80073ea:	4770      	bx	lr
 80073ec:	2020      	movs	r0, #32
 80073ee:	4770      	bx	lr

080073f0 <__i2b>:
 80073f0:	b510      	push	{r4, lr}
 80073f2:	460c      	mov	r4, r1
 80073f4:	2101      	movs	r1, #1
 80073f6:	f7ff ff01 	bl	80071fc <_Balloc>
 80073fa:	4602      	mov	r2, r0
 80073fc:	b928      	cbnz	r0, 800740a <__i2b+0x1a>
 80073fe:	f44f 71a0 	mov.w	r1, #320	; 0x140
 8007402:	4b04      	ldr	r3, [pc, #16]	; (8007414 <__i2b+0x24>)
 8007404:	4804      	ldr	r0, [pc, #16]	; (8007418 <__i2b+0x28>)
 8007406:	f000 fc9b 	bl	8007d40 <__assert_func>
 800740a:	2301      	movs	r3, #1
 800740c:	6144      	str	r4, [r0, #20]
 800740e:	6103      	str	r3, [r0, #16]
 8007410:	bd10      	pop	{r4, pc}
 8007412:	bf00      	nop
 8007414:	08008bcf 	.word	0x08008bcf
 8007418:	08008be0 	.word	0x08008be0

0800741c <__multiply>:
 800741c:	e92d 4ff0 	stmdb	sp!, {r4, r5, r6, r7, r8, r9, sl, fp, lr}
 8007420:	4614      	mov	r4, r2
 8007422:	690a      	ldr	r2, [r1, #16]
 8007424:	6923      	ldr	r3, [r4, #16]
 8007426:	460d      	mov	r5, r1
 8007428:	429a      	cmp	r2, r3
 800742a:	bfbe      	ittt	lt
 800742c:	460b      	movlt	r3, r1
 800742e:	4625      	movlt	r5, r4
 8007430:	461c      	movlt	r4, r3
 8007432:	f8d5 a010 	ldr.w	sl, [r5, #16]
 8007436:	f8d4 9010 	ldr.w	r9, [r4, #16]
 800743a:	68ab      	ldr	r3, [r5, #8]
 800743c:	6869      	ldr	r1, [r5, #4]
 800743e:	eb0a 0709 	add.w	r7, sl, r9
 8007442:	42bb      	cmp	r3, r7
 8007444:	b085      	sub	sp, #20
 8007446:	bfb8      	it	lt
 8007448:	3101      	addlt	r1, #1
 800744a:	f7ff fed7 	bl	80071fc <_Balloc>
 800744e:	b930      	cbnz	r0, 800745e <__multiply+0x42>
 8007450:	4602      	mov	r2, r0
 8007452:	f240 115d 	movw	r1, #349	; 0x15d
 8007456:	4b41      	ldr	r3, [pc, #260]	; (800755c <__multiply+0x140>)
 8007458:	4841      	ldr	r0, [pc, #260]	; (8007560 <__multiply+0x144>)
 800745a:	f000 fc71 	bl	8007d40 <__assert_func>
 800745e:	f100 0614 	add.w	r6, r0, #20
 8007462:	4633      	mov	r3, r6
 8007464:	2200      	movs	r2, #0
 8007466:	eb06 0887 	add.w	r8, r6, r7, lsl #2
 800746a:	4543      	cmp	r3, r8
 800746c:	d31e      	bcc.n	80074ac <__multiply+0x90>
 800746e:	f105 0c14 	add.w	ip, r5, #20
 8007472:	f104 0314 	add.w	r3, r4, #20
 8007476:	eb0c 0c8a 	add.w	ip, ip, sl, lsl #2
 800747a:	eb03 0289 	add.w	r2, r3, r9, lsl #2
 800747e:	9202      	str	r2, [sp, #8]
 8007480:	ebac 0205 	sub.w	r2, ip, r5
 8007484:	3a15      	subs	r2, #21
 8007486:	f022 0203 	bic.w	r2, r2, #3
 800748a:	3204      	adds	r2, #4
 800748c:	f105 0115 	add.w	r1, r5, #21
 8007490:	458c      	cmp	ip, r1
 8007492:	bf38      	it	cc
 8007494:	2204      	movcc	r2, #4
 8007496:	9201      	str	r2, [sp, #4]
 8007498:	9a02      	ldr	r2, [sp, #8]
 800749a:	9303      	str	r3, [sp, #12]
 800749c:	429a      	cmp	r2, r3
 800749e:	d808      	bhi.n	80074b2 <__multiply+0x96>
 80074a0:	2f00      	cmp	r7, #0
 80074a2:	dc55      	bgt.n	8007550 <__multiply+0x134>
 80074a4:	6107      	str	r7, [r0, #16]
 80074a6:	b005      	add	sp, #20
 80074a8:	e8bd 8ff0 	ldmia.w	sp!, {r4, r5, r6, r7, r8, r9, sl, fp, pc}
 80074ac:	f843 2b04 	str.w	r2, [r3], #4
 80074b0:	e7db      	b.n	800746a <__multiply+0x4e>
 80074b2:	f8b3 a000 	ldrh.w	sl, [r3]
 80074b6:	f1ba 0f00 	cmp.w	sl, #0
 80074ba:	d020      	beq.n	80074fe <__multiply+0xe2>
 80074bc:	46b1      	mov	r9, r6
 80074be:	2200      	movs	r2, #0
 80074c0:	f105 0e14 	add.w	lr, r5, #20
 80074c4:	f85e 4b04 	ldr.w	r4, [lr], #4
 80074c8:	f8d9 b000 	ldr.w	fp, [r9]
 80074cc:	b2a1      	uxth	r1, r4
 80074ce:	fa1f fb8b 	uxth.w	fp, fp
 80074d2:	fb0a b101 	mla	r1, sl, r1, fp
 80074d6:	4411      	add	r1, r2
 80074d8:	f8d9 2000 	ldr.w	r2, [r9]
 80074dc:	0c24      	lsrs	r4, r4, #16
 80074de:	0c12      	lsrs	r2, r2, #16
 80074e0:	fb0a 2404 	mla	r4, sl, r4, r2
 80074e4:	eb04 4411 	add.w	r4, r4, r1, lsr #16
 80074e8:	b289      	uxth	r1, r1
 80074ea:	ea41 4104 	orr.w	r1, r1, r4, lsl #16
 80074ee:	45f4      	cmp	ip, lr
 80074f0:	ea4f 4214 	mov.w	r2, r4, lsr #16
 80074f4:	f849 1b04 	str.w	r1, [r9], #4
 80074f8:	d8e4      	bhi.n	80074c4 <__multiply+0xa8>
 80074fa:	9901      	ldr	r1, [sp, #4]
 80074fc:	5072      	str	r2, [r6, r1]
 80074fe:	9a03      	ldr	r2, [sp, #12]
 8007500:	3304      	adds	r3, #4
 8007502:	f8b2 9002 	ldrh.w	r9, [r2, #2]
 8007506:	f1b9 0f00 	cmp.w	r9, #0
 800750a:	d01f      	beq.n	800754c <__multiply+0x130>
 800750c:	46b6      	mov	lr, r6
 800750e:	f04f 0a00 	mov.w	sl, #0
 8007512:	6834      	ldr	r4, [r6, #0]
 8007514:	f105 0114 	add.w	r1, r5, #20
 8007518:	880a      	ldrh	r2, [r1, #0]
 800751a:	f8be b002 	ldrh.w	fp, [lr, #2]
 800751e:	b2a4      	uxth	r4, r4
 8007520:	fb09 b202 	mla	r2, r9, r2, fp
 8007524:	4492      	add	sl, r2
 8007526:	ea44 440a 	orr.w	r4, r4, sl, lsl #16
 800752a:	f84e 4b04 	str.w	r4, [lr], #4
 800752e:	f851 4b04 	ldr.w	r4, [r1], #4
 8007532:	f8be 2000 	ldrh.w	r2, [lr]
 8007536:	0c24      	lsrs	r4, r4, #16
 8007538:	fb09 2404 	mla	r4, r9, r4, r2
 800753c:	458c      	cmp	ip, r1
 800753e:	eb04 441a 	add.w	r4, r4, sl, lsr #16
 8007542:	ea4f 4a14 	mov.w	sl, r4, lsr #16
 8007546:	d8e7      	bhi.n	8007518 <__multiply+0xfc>
 8007548:	9a01      	ldr	r2, [sp, #4]
 800754a:	50b4      	str	r4, [r6, r2]
 800754c:	3604      	adds	r6, #4
 800754e:	e7a3      	b.n	8007498 <__multiply+0x7c>
 8007550:	f858 3d04 	ldr.w	r3, [r8, #-4]!
 8007554:	2b00      	cmp	r3, #0
 8007556:	d1a5      	bne.n	80074a4 <__multiply+0x88>
 8007558:	3f01      	subs	r7, #1
 800755a:	e7a1      	b.n	80074a0 <__multiply+0x84>
 800755c:	08008bcf 	.word	0x08008bcf
 8007560:	08008be0 	.word	0x08008be0

08007564 <__pow5mult>:
 8007564:	e92d 43f8 	stmdb	sp!, {r3, r4, r5, r6, r7, r8, r9, lr}
 8007568:	4615      	mov	r5, r2
 800756a:	f012 0203 	ands.w	r2, r2, #3
 800756e:	4606      	mov	r6, r0
 8007570:	460f      	mov	r7, r1
 8007572:	d007      	beq.n	8007584 <__pow5mult+0x20>
 8007574:	4c25      	ldr	r4, [pc, #148]	; (800760c <__pow5mult+0xa8>)
 8007576:	3a01      	subs	r2, #1
 8007578:	2300      	movs	r3, #0
 800757a:	f854 2022 	ldr.w	r2, [r4, r2, lsl #2]
 800757e:	f7ff fe9f 	bl	80072c0 <__multadd>
 8007582:	4607      	mov	r7, r0
 8007584:	10ad      	asrs	r5, r5, #2
 8007586:	d03d      	beq.n	8007604 <__pow5mult+0xa0>
 8007588:	6a74      	ldr	r4, [r6, #36]	; 0x24
 800758a:	b97c      	cbnz	r4, 80075ac <__pow5mult+0x48>
 800758c:	2010      	movs	r0, #16
 800758e:	f7ff fe11 	bl	80071b4 <malloc>
 8007592:	4602      	mov	r2, r0
 8007594:	6270      	str	r0, [r6, #36]	; 0x24
 8007596:	b928      	cbnz	r0, 80075a4 <__pow5mult+0x40>
 8007598:	f44f 71d7 	mov.w	r1, #430	; 0x1ae
 800759c:	4b1c      	ldr	r3, [pc, #112]	; (8007610 <__pow5mult+0xac>)
 800759e:	481d      	ldr	r0, [pc, #116]	; (8007614 <__pow5mult+0xb0>)
 80075a0:	f000 fbce 	bl	8007d40 <__assert_func>
 80075a4:	e9c0 4401 	strd	r4, r4, [r0, #4]
 80075a8:	6004      	str	r4, [r0, #0]
 80075aa:	60c4      	str	r4, [r0, #12]
 80075ac:	f8d6 8024 	ldr.w	r8, [r6, #36]	; 0x24
 80075b0:	f8d8 4008 	ldr.w	r4, [r8, #8]
 80075b4:	b94c      	cbnz	r4, 80075ca <__pow5mult+0x66>
 80075b6:	f240 2171 	movw	r1, #625	; 0x271
 80075ba:	4630      	mov	r0, r6
 80075bc:	f7ff ff18 	bl	80073f0 <__i2b>
 80075c0:	2300      	movs	r3, #0
 80075c2:	4604      	mov	r4, r0
 80075c4:	f8c8 0008 	str.w	r0, [r8, #8]
 80075c8:	6003      	str	r3, [r0, #0]
 80075ca:	f04f 0900 	mov.w	r9, #0
 80075ce:	07eb      	lsls	r3, r5, #31
 80075d0:	d50a      	bpl.n	80075e8 <__pow5mult+0x84>
 80075d2:	4639      	mov	r1, r7
 80075d4:	4622      	mov	r2, r4
 80075d6:	4630      	mov	r0, r6
 80075d8:	f7ff ff20 	bl	800741c <__multiply>
 80075dc:	4680      	mov	r8, r0
 80075de:	4639      	mov	r1, r7
 80075e0:	4630      	mov	r0, r6
 80075e2:	f7ff fe4b 	bl	800727c <_Bfree>
 80075e6:	4647      	mov	r7, r8
 80075e8:	106d      	asrs	r5, r5, #1
 80075ea:	d00b      	beq.n	8007604 <__pow5mult+0xa0>
 80075ec:	6820      	ldr	r0, [r4, #0]
 80075ee:	b938      	cbnz	r0, 8007600 <__pow5mult+0x9c>
 80075f0:	4622      	mov	r2, r4
 80075f2:	4621      	mov	r1, r4
 80075f4:	4630      	mov	r0, r6
 80075f6:	f7ff ff11 	bl	800741c <__multiply>
 80075fa:	6020      	str	r0, [r4, #0]
 80075fc:	f8c0 9000 	str.w	r9, [r0]
 8007600:	4604      	mov	r4, r0
 8007602:	e7e4      	b.n	80075ce <__pow5mult+0x6a>
 8007604:	4638      	mov	r0, r7
 8007606:	e8bd 83f8 	ldmia.w	sp!, {r3, r4, r5, r6, r7, r8, r9, pc}
 800760a:	bf00      	nop
 800760c:	08008d30 	.word	0x08008d30
 8007610:	08008b59 	.word	0x08008b59
 8007614:	08008be0 	.word	0x08008be0

08007618 <__lshift>:
 8007618:	e92d 47f0 	stmdb	sp!, {r4, r5, r6, r7, r8, r9, sl, lr}
 800761c:	460c      	mov	r4, r1
 800761e:	4607      	mov	r7, r0
 8007620:	4691      	mov	r9, r2
 8007622:	6923      	ldr	r3, [r4, #16]
 8007624:	6849      	ldr	r1, [r1, #4]
 8007626:	eb03 1862 	add.w	r8, r3, r2, asr #5
 800762a:	68a3      	ldr	r3, [r4, #8]
 800762c:	ea4f 1a62 	mov.w	sl, r2, asr #5
 8007630:	f108 0601 	add.w	r6, r8, #1
 8007634:	42b3      	cmp	r3, r6
 8007636:	db0b      	blt.n	8007650 <__lshift+0x38>
 8007638:	4638      	mov	r0, r7
 800763a:	f7ff fddf 	bl	80071fc <_Balloc>
 800763e:	4605      	mov	r5, r0
 8007640:	b948      	cbnz	r0, 8007656 <__lshift+0x3e>
 8007642:	4602      	mov	r2, r0
 8007644:	f240 11d9 	movw	r1, #473	; 0x1d9
 8007648:	4b27      	ldr	r3, [pc, #156]	; (80076e8 <__lshift+0xd0>)
 800764a:	4828      	ldr	r0, [pc, #160]	; (80076ec <__lshift+0xd4>)
 800764c:	f000 fb78 	bl	8007d40 <__assert_func>
 8007650:	3101      	adds	r1, #1
 8007652:	005b      	lsls	r3, r3, #1
 8007654:	e7ee      	b.n	8007634 <__lshift+0x1c>
 8007656:	2300      	movs	r3, #0
 8007658:	f100 0114 	add.w	r1, r0, #20
 800765c:	f100 0210 	add.w	r2, r0, #16
 8007660:	4618      	mov	r0, r3
 8007662:	4553      	cmp	r3, sl
 8007664:	db33      	blt.n	80076ce <__lshift+0xb6>
 8007666:	6920      	ldr	r0, [r4, #16]
 8007668:	ea2a 7aea 	bic.w	sl, sl, sl, asr #31
 800766c:	f104 0314 	add.w	r3, r4, #20
 8007670:	f019 091f 	ands.w	r9, r9, #31
 8007674:	eb01 018a 	add.w	r1, r1, sl, lsl #2
 8007678:	eb03 0c80 	add.w	ip, r3, r0, lsl #2
 800767c:	d02b      	beq.n	80076d6 <__lshift+0xbe>
 800767e:	468a      	mov	sl, r1
 8007680:	2200      	movs	r2, #0
 8007682:	f1c9 0e20 	rsb	lr, r9, #32
 8007686:	6818      	ldr	r0, [r3, #0]
 8007688:	fa00 f009 	lsl.w	r0, r0, r9
 800768c:	4302      	orrs	r2, r0
 800768e:	f84a 2b04 	str.w	r2, [sl], #4
 8007692:	f853 2b04 	ldr.w	r2, [r3], #4
 8007696:	459c      	cmp	ip, r3
 8007698:	fa22 f20e 	lsr.w	r2, r2, lr
 800769c:	d8f3      	bhi.n	8007686 <__lshift+0x6e>
 800769e:	ebac 0304 	sub.w	r3, ip, r4
 80076a2:	3b15      	subs	r3, #21
 80076a4:	f023 0303 	bic.w	r3, r3, #3
 80076a8:	3304      	adds	r3, #4
 80076aa:	f104 0015 	add.w	r0, r4, #21
 80076ae:	4584      	cmp	ip, r0
 80076b0:	bf38      	it	cc
 80076b2:	2304      	movcc	r3, #4
 80076b4:	50ca      	str	r2, [r1, r3]
 80076b6:	b10a      	cbz	r2, 80076bc <__lshift+0xa4>
 80076b8:	f108 0602 	add.w	r6, r8, #2
 80076bc:	3e01      	subs	r6, #1
 80076be:	4638      	mov	r0, r7
 80076c0:	4621      	mov	r1, r4
 80076c2:	612e      	str	r6, [r5, #16]
 80076c4:	f7ff fdda 	bl	800727c <_Bfree>
 80076c8:	4628      	mov	r0, r5
 80076ca:	e8bd 87f0 	ldmia.w	sp!, {r4, r5, r6, r7, r8, r9, sl, pc}
 80076ce:	f842 0f04 	str.w	r0, [r2, #4]!
 80076d2:	3301      	adds	r3, #1
 80076d4:	e7c5      	b.n	8007662 <__lshift+0x4a>
 80076d6:	3904      	subs	r1, #4
 80076d8:	f853 2b04 	ldr.w	r2, [r3], #4
 80076dc:	459c      	cmp	ip, r3
 80076de:	f841 2f04 	str.w	r2, [r1, #4]!
 80076e2:	d8f9      	bhi.n	80076d8 <__lshift+0xc0>
 80076e4:	e7ea      	b.n	80076bc <__lshift+0xa4>
 80076e6:	bf00      	nop
 80076e8:	08008bcf 	.word	0x08008bcf
 80076ec:	08008be0 	.word	0x08008be0

080076f0 <__mcmp>:
 80076f0:	4603      	mov	r3, r0
 80076f2:	690a      	ldr	r2, [r1, #16]
 80076f4:	6900      	ldr	r0, [r0, #16]
 80076f6:	b530      	push	{r4, r5, lr}
 80076f8:	1a80      	subs	r0, r0, r2
 80076fa:	d10d      	bne.n	8007718 <__mcmp+0x28>
 80076fc:	3314      	adds	r3, #20
 80076fe:	3114      	adds	r1, #20
 8007700:	eb03 0482 	add.w	r4, r3, r2, lsl #2
 8007704:	eb01 0182 	add.w	r1, r1, r2, lsl #2
 8007708:	f854 5d04 	ldr.w	r5, [r4, #-4]!
 800770c:	f851 2d04 	ldr.w	r2, [r1, #-4]!
 8007710:	4295      	cmp	r5, r2
 8007712:	d002      	beq.n	800771a <__mcmp+0x2a>
 8007714:	d304      	bcc.n	8007720 <__mcmp+0x30>
 8007716:	2001      	movs	r0, #1
 8007718:	bd30      	pop	{r4, r5, pc}
 800771a:	42a3      	cmp	r3, r4
 800771c:	d3f4      	bcc.n	8007708 <__mcmp+0x18>
 800771e:	e7fb      	b.n	8007718 <__mcmp+0x28>
 8007720:	f04f 30ff 	mov.w	r0, #4294967295	; 0xffffffff
 8007724:	e7f8      	b.n	8007718 <__mcmp+0x28>
	...

08007728 <__mdiff>:
 8007728:	e92d 4ff8 	stmdb	sp!, {r3, r4, r5, r6, r7, r8, r9, sl, fp, lr}
 800772c:	460c      	mov	r4, r1
 800772e:	4606      	mov	r6, r0
 8007730:	4611      	mov	r1, r2
 8007732:	4620      	mov	r0, r4
 8007734:	4692      	mov	sl, r2
 8007736:	f7ff ffdb 	bl	80076f0 <__mcmp>
 800773a:	1e05      	subs	r5, r0, #0
 800773c:	d111      	bne.n	8007762 <__mdiff+0x3a>
 800773e:	4629      	mov	r1, r5
 8007740:	4630      	mov	r0, r6
 8007742:	f7ff fd5b 	bl	80071fc <_Balloc>
 8007746:	4602      	mov	r2, r0
 8007748:	b928      	cbnz	r0, 8007756 <__mdiff+0x2e>
 800774a:	f240 2132 	movw	r1, #562	; 0x232
 800774e:	4b3c      	ldr	r3, [pc, #240]	; (8007840 <__mdiff+0x118>)
 8007750:	483c      	ldr	r0, [pc, #240]	; (8007844 <__mdiff+0x11c>)
 8007752:	f000 faf5 	bl	8007d40 <__assert_func>
 8007756:	2301      	movs	r3, #1
 8007758:	e9c0 3504 	strd	r3, r5, [r0, #16]
 800775c:	4610      	mov	r0, r2
 800775e:	e8bd 8ff8 	ldmia.w	sp!, {r3, r4, r5, r6, r7, r8, r9, sl, fp, pc}
 8007762:	bfa4      	itt	ge
 8007764:	4653      	movge	r3, sl
 8007766:	46a2      	movge	sl, r4
 8007768:	4630      	mov	r0, r6
 800776a:	f8da 1004 	ldr.w	r1, [sl, #4]
 800776e:	bfa6      	itte	ge
 8007770:	461c      	movge	r4, r3
 8007772:	2500      	movge	r5, #0
 8007774:	2501      	movlt	r5, #1
 8007776:	f7ff fd41 	bl	80071fc <_Balloc>
 800777a:	4602      	mov	r2, r0
 800777c:	b918      	cbnz	r0, 8007786 <__mdiff+0x5e>
 800777e:	f44f 7110 	mov.w	r1, #576	; 0x240
 8007782:	4b2f      	ldr	r3, [pc, #188]	; (8007840 <__mdiff+0x118>)
 8007784:	e7e4      	b.n	8007750 <__mdiff+0x28>
 8007786:	f100 0814 	add.w	r8, r0, #20
 800778a:	f8da 7010 	ldr.w	r7, [sl, #16]
 800778e:	60c5      	str	r5, [r0, #12]
 8007790:	f04f 0c00 	mov.w	ip, #0
 8007794:	f10a 0514 	add.w	r5, sl, #20
 8007798:	f10a 0010 	add.w	r0, sl, #16
 800779c:	46c2      	mov	sl, r8
 800779e:	6926      	ldr	r6, [r4, #16]
 80077a0:	f104 0914 	add.w	r9, r4, #20
 80077a4:	eb05 0e87 	add.w	lr, r5, r7, lsl #2
 80077a8:	eb09 0686 	add.w	r6, r9, r6, lsl #2
 80077ac:	f850 bf04 	ldr.w	fp, [r0, #4]!
 80077b0:	f859 3b04 	ldr.w	r3, [r9], #4
 80077b4:	fa1f f18b 	uxth.w	r1, fp
 80077b8:	4461      	add	r1, ip
 80077ba:	fa1f fc83 	uxth.w	ip, r3
 80077be:	0c1b      	lsrs	r3, r3, #16
 80077c0:	eba1 010c 	sub.w	r1, r1, ip
 80077c4:	ebc3 431b 	rsb	r3, r3, fp, lsr #16
 80077c8:	eb03 4321 	add.w	r3, r3, r1, asr #16
 80077cc:	b289      	uxth	r1, r1
 80077ce:	ea4f 4c23 	mov.w	ip, r3, asr #16
 80077d2:	454e      	cmp	r6, r9
 80077d4:	ea41 4303 	orr.w	r3, r1, r3, lsl #16
 80077d8:	f84a 3b04 	str.w	r3, [sl], #4
 80077dc:	d8e6      	bhi.n	80077ac <__mdiff+0x84>
 80077de:	1b33      	subs	r3, r6, r4
 80077e0:	3b15      	subs	r3, #21
 80077e2:	f023 0303 	bic.w	r3, r3, #3
 80077e6:	3415      	adds	r4, #21
 80077e8:	3304      	adds	r3, #4
 80077ea:	42a6      	cmp	r6, r4
 80077ec:	bf38      	it	cc
 80077ee:	2304      	movcc	r3, #4
 80077f0:	441d      	add	r5, r3
 80077f2:	4443      	add	r3, r8
 80077f4:	461e      	mov	r6, r3
 80077f6:	462c      	mov	r4, r5
 80077f8:	4574      	cmp	r4, lr
 80077fa:	d30e      	bcc.n	800781a <__mdiff+0xf2>
 80077fc:	f10e 0103 	add.w	r1, lr, #3
 8007800:	1b49      	subs	r1, r1, r5
 8007802:	f021 0103 	bic.w	r1, r1, #3
 8007806:	3d03      	subs	r5, #3
 8007808:	45ae      	cmp	lr, r5
 800780a:	bf38      	it	cc
 800780c:	2100      	movcc	r1, #0
 800780e:	4419      	add	r1, r3
 8007810:	f851 3d04 	ldr.w	r3, [r1, #-4]!
 8007814:	b18b      	cbz	r3, 800783a <__mdiff+0x112>
 8007816:	6117      	str	r7, [r2, #16]
 8007818:	e7a0      	b.n	800775c <__mdiff+0x34>
 800781a:	f854 8b04 	ldr.w	r8, [r4], #4
 800781e:	fa1f f188 	uxth.w	r1, r8
 8007822:	4461      	add	r1, ip
 8007824:	1408      	asrs	r0, r1, #16
 8007826:	eb00 4018 	add.w	r0, r0, r8, lsr #16
 800782a:	b289      	uxth	r1, r1
 800782c:	ea41 4100 	orr.w	r1, r1, r0, lsl #16
 8007830:	ea4f 4c20 	mov.w	ip, r0, asr #16
 8007834:	f846 1b04 	str.w	r1, [r6], #4
 8007838:	e7de      	b.n	80077f8 <__mdiff+0xd0>
 800783a:	3f01      	subs	r7, #1
 800783c:	e7e8      	b.n	8007810 <__mdiff+0xe8>
 800783e:	bf00      	nop
 8007840:	08008bcf 	.word	0x08008bcf
 8007844:	08008be0 	.word	0x08008be0

08007848 <__d2b>:
 8007848:	e92d 41f3 	stmdb	sp!, {r0, r1, r4, r5, r6, r7, r8, lr}
 800784c:	2101      	movs	r1, #1
 800784e:	e9dd 7608 	ldrd	r7, r6, [sp, #32]
 8007852:	4690      	mov	r8, r2
 8007854:	461d      	mov	r5, r3
 8007856:	f7ff fcd1 	bl	80071fc <_Balloc>
 800785a:	4604      	mov	r4, r0
 800785c:	b930      	cbnz	r0, 800786c <__d2b+0x24>
 800785e:	4602      	mov	r2, r0
 8007860:	f240 310a 	movw	r1, #778	; 0x30a
 8007864:	4b24      	ldr	r3, [pc, #144]	; (80078f8 <__d2b+0xb0>)
 8007866:	4825      	ldr	r0, [pc, #148]	; (80078fc <__d2b+0xb4>)
 8007868:	f000 fa6a 	bl	8007d40 <__assert_func>
 800786c:	f3c5 0313 	ubfx	r3, r5, #0, #20
 8007870:	f3c5 550a 	ubfx	r5, r5, #20, #11
 8007874:	bb2d      	cbnz	r5, 80078c2 <__d2b+0x7a>
 8007876:	9301      	str	r3, [sp, #4]
 8007878:	f1b8 0300 	subs.w	r3, r8, #0
 800787c:	d026      	beq.n	80078cc <__d2b+0x84>
 800787e:	4668      	mov	r0, sp
 8007880:	9300      	str	r3, [sp, #0]
 8007882:	f7ff fd87 	bl	8007394 <__lo0bits>
 8007886:	9900      	ldr	r1, [sp, #0]
 8007888:	b1f0      	cbz	r0, 80078c8 <__d2b+0x80>
 800788a:	9a01      	ldr	r2, [sp, #4]
 800788c:	f1c0 0320 	rsb	r3, r0, #32
 8007890:	fa02 f303 	lsl.w	r3, r2, r3
 8007894:	430b      	orrs	r3, r1
 8007896:	40c2      	lsrs	r2, r0
 8007898:	6163      	str	r3, [r4, #20]
 800789a:	9201      	str	r2, [sp, #4]
 800789c:	9b01      	ldr	r3, [sp, #4]
 800789e:	2b00      	cmp	r3, #0
 80078a0:	bf14      	ite	ne
 80078a2:	2102      	movne	r1, #2
 80078a4:	2101      	moveq	r1, #1
 80078a6:	61a3      	str	r3, [r4, #24]
 80078a8:	6121      	str	r1, [r4, #16]
 80078aa:	b1c5      	cbz	r5, 80078de <__d2b+0x96>
 80078ac:	f2a5 4533 	subw	r5, r5, #1075	; 0x433
 80078b0:	4405      	add	r5, r0
 80078b2:	f1c0 0035 	rsb	r0, r0, #53	; 0x35
 80078b6:	603d      	str	r5, [r7, #0]
 80078b8:	6030      	str	r0, [r6, #0]
 80078ba:	4620      	mov	r0, r4
 80078bc:	b002      	add	sp, #8
 80078be:	e8bd 81f0 	ldmia.w	sp!, {r4, r5, r6, r7, r8, pc}
 80078c2:	f443 1380 	orr.w	r3, r3, #1048576	; 0x100000
 80078c6:	e7d6      	b.n	8007876 <__d2b+0x2e>
 80078c8:	6161      	str	r1, [r4, #20]
 80078ca:	e7e7      	b.n	800789c <__d2b+0x54>
 80078cc:	a801      	add	r0, sp, #4
 80078ce:	f7ff fd61 	bl	8007394 <__lo0bits>
 80078d2:	2101      	movs	r1, #1
 80078d4:	9b01      	ldr	r3, [sp, #4]
 80078d6:	6121      	str	r1, [r4, #16]
 80078d8:	6163      	str	r3, [r4, #20]
 80078da:	3020      	adds	r0, #32
 80078dc:	e7e5      	b.n	80078aa <__d2b+0x62>
 80078de:	eb04 0381 	add.w	r3, r4, r1, lsl #2
 80078e2:	f2a0 4032 	subw	r0, r0, #1074	; 0x432
 80078e6:	6038      	str	r0, [r7, #0]
 80078e8:	6918      	ldr	r0, [r3, #16]
 80078ea:	f7ff fd33 	bl	8007354 <__hi0bits>
 80078ee:	ebc0 1141 	rsb	r1, r0, r1, lsl #5
 80078f2:	6031      	str	r1, [r6, #0]
 80078f4:	e7e1      	b.n	80078ba <__d2b+0x72>
 80078f6:	bf00      	nop
 80078f8:	08008bcf 	.word	0x08008bcf
 80078fc:	08008be0 	.word	0x08008be0

08007900 <_calloc_r>:
 8007900:	b538      	push	{r3, r4, r5, lr}
 8007902:	fb02 f501 	mul.w	r5, r2, r1
 8007906:	4629      	mov	r1, r5
 8007908:	f000 f854 	bl	80079b4 <_malloc_r>
 800790c:	4604      	mov	r4, r0
 800790e:	b118      	cbz	r0, 8007918 <_calloc_r+0x18>
 8007910:	462a      	mov	r2, r5
 8007912:	2100      	movs	r1, #0
 8007914:	f7fe f904 	bl	8005b20 <memset>
 8007918:	4620      	mov	r0, r4
 800791a:	bd38      	pop	{r3, r4, r5, pc}

0800791c <_free_r>:
 800791c:	b538      	push	{r3, r4, r5, lr}
 800791e:	4605      	mov	r5, r0
 8007920:	2900      	cmp	r1, #0
 8007922:	d043      	beq.n	80079ac <_free_r+0x90>
 8007924:	f851 3c04 	ldr.w	r3, [r1, #-4]
 8007928:	1f0c      	subs	r4, r1, #4
 800792a:	2b00      	cmp	r3, #0
 800792c:	bfb8      	it	lt
 800792e:	18e4      	addlt	r4, r4, r3
 8007930:	f000 fa62 	bl	8007df8 <__malloc_lock>
 8007934:	4a1e      	ldr	r2, [pc, #120]	; (80079b0 <_free_r+0x94>)
 8007936:	6813      	ldr	r3, [r2, #0]
 8007938:	4610      	mov	r0, r2
 800793a:	b933      	cbnz	r3, 800794a <_free_r+0x2e>
 800793c:	6063      	str	r3, [r4, #4]
 800793e:	6014      	str	r4, [r2, #0]
 8007940:	4628      	mov	r0, r5
 8007942:	e8bd 4038 	ldmia.w	sp!, {r3, r4, r5, lr}
 8007946:	f000 ba5d 	b.w	8007e04 <__malloc_unlock>
 800794a:	42a3      	cmp	r3, r4
 800794c:	d90a      	bls.n	8007964 <_free_r+0x48>
 800794e:	6821      	ldr	r1, [r4, #0]
 8007950:	1862      	adds	r2, r4, r1
 8007952:	4293      	cmp	r3, r2
 8007954:	bf01      	itttt	eq
 8007956:	681a      	ldreq	r2, [r3, #0]
 8007958:	685b      	ldreq	r3, [r3, #4]
 800795a:	1852      	addeq	r2, r2, r1
 800795c:	6022      	streq	r2, [r4, #0]
 800795e:	6063      	str	r3, [r4, #4]
 8007960:	6004      	str	r4, [r0, #0]
 8007962:	e7ed      	b.n	8007940 <_free_r+0x24>
 8007964:	461a      	mov	r2, r3
 8007966:	685b      	ldr	r3, [r3, #4]
 8007968:	b10b      	cbz	r3, 800796e <_free_r+0x52>
 800796a:	42a3      	cmp	r3, r4
 800796c:	d9fa      	bls.n	8007964 <_free_r+0x48>
 800796e:	6811      	ldr	r1, [r2, #0]
 8007970:	1850      	adds	r0, r2, r1
 8007972:	42a0      	cmp	r0, r4
 8007974:	d10b      	bne.n	800798e <_free_r+0x72>
 8007976:	6820      	ldr	r0, [r4, #0]
 8007978:	4401      	add	r1, r0
 800797a:	1850      	adds	r0, r2, r1
 800797c:	4283      	cmp	r3, r0
 800797e:	6011      	str	r1, [r2, #0]
 8007980:	d1de      	bne.n	8007940 <_free_r+0x24>
 8007982:	6818      	ldr	r0, [r3, #0]
 8007984:	685b      	ldr	r3, [r3, #4]
 8007986:	4401      	add	r1, r0
 8007988:	6011      	str	r1, [r2, #0]
 800798a:	6053      	str	r3, [r2, #4]
 800798c:	e7d8      	b.n	8007940 <_free_r+0x24>
 800798e:	d902      	bls.n	8007996 <_free_r+0x7a>
 8007990:	230c      	movs	r3, #12
 8007992:	602b      	str	r3, [r5, #0]
 8007994:	e7d4      	b.n	8007940 <_free_r+0x24>
 8007996:	6820      	ldr	r0, [r4, #0]
 8007998:	1821      	adds	r1, r4, r0
 800799a:	428b      	cmp	r3, r1
 800799c:	bf01      	itttt	eq
 800799e:	6819      	ldreq	r1, [r3, #0]
 80079a0:	685b      	ldreq	r3, [r3, #4]
 80079a2:	1809      	addeq	r1, r1, r0
 80079a4:	6021      	streq	r1, [r4, #0]
 80079a6:	6063      	str	r3, [r4, #4]
 80079a8:	6054      	str	r4, [r2, #4]
 80079aa:	e7c9      	b.n	8007940 <_free_r+0x24>
 80079ac:	bd38      	pop	{r3, r4, r5, pc}
 80079ae:	bf00      	nop
 80079b0:	200002f8 	.word	0x200002f8

080079b4 <_malloc_r>:
 80079b4:	b5f8      	push	{r3, r4, r5, r6, r7, lr}
 80079b6:	1ccd      	adds	r5, r1, #3
 80079b8:	f025 0503 	bic.w	r5, r5, #3
 80079bc:	3508      	adds	r5, #8
 80079be:	2d0c      	cmp	r5, #12
 80079c0:	bf38      	it	cc
 80079c2:	250c      	movcc	r5, #12
 80079c4:	2d00      	cmp	r5, #0
 80079c6:	4606      	mov	r6, r0
 80079c8:	db01      	blt.n	80079ce <_malloc_r+0x1a>
 80079ca:	42a9      	cmp	r1, r5
 80079cc:	d903      	bls.n	80079d6 <_malloc_r+0x22>
 80079ce:	230c      	movs	r3, #12
 80079d0:	6033      	str	r3, [r6, #0]
 80079d2:	2000      	movs	r0, #0
 80079d4:	bdf8      	pop	{r3, r4, r5, r6, r7, pc}
 80079d6:	f000 fa0f 	bl	8007df8 <__malloc_lock>
 80079da:	4921      	ldr	r1, [pc, #132]	; (8007a60 <_malloc_r+0xac>)
 80079dc:	680a      	ldr	r2, [r1, #0]
 80079de:	4614      	mov	r4, r2
 80079e0:	b99c      	cbnz	r4, 8007a0a <_malloc_r+0x56>
 80079e2:	4f20      	ldr	r7, [pc, #128]	; (8007a64 <_malloc_r+0xb0>)
 80079e4:	683b      	ldr	r3, [r7, #0]
 80079e6:	b923      	cbnz	r3, 80079f2 <_malloc_r+0x3e>
 80079e8:	4621      	mov	r1, r4
 80079ea:	4630      	mov	r0, r6
 80079ec:	f000 f998 	bl	8007d20 <_sbrk_r>
 80079f0:	6038      	str	r0, [r7, #0]
 80079f2:	4629      	mov	r1, r5
 80079f4:	4630      	mov	r0, r6
 80079f6:	f000 f993 	bl	8007d20 <_sbrk_r>
 80079fa:	1c43      	adds	r3, r0, #1
 80079fc:	d123      	bne.n	8007a46 <_malloc_r+0x92>
 80079fe:	230c      	movs	r3, #12
 8007a00:	4630      	mov	r0, r6
 8007a02:	6033      	str	r3, [r6, #0]
 8007a04:	f000 f9fe 	bl	8007e04 <__malloc_unlock>
 8007a08:	e7e3      	b.n	80079d2 <_malloc_r+0x1e>
 8007a0a:	6823      	ldr	r3, [r4, #0]
 8007a0c:	1b5b      	subs	r3, r3, r5
 8007a0e:	d417      	bmi.n	8007a40 <_malloc_r+0x8c>
 8007a10:	2b0b      	cmp	r3, #11
 8007a12:	d903      	bls.n	8007a1c <_malloc_r+0x68>
 8007a14:	6023      	str	r3, [r4, #0]
 8007a16:	441c      	add	r4, r3
 8007a18:	6025      	str	r5, [r4, #0]
 8007a1a:	e004      	b.n	8007a26 <_malloc_r+0x72>
 8007a1c:	6863      	ldr	r3, [r4, #4]
 8007a1e:	42a2      	cmp	r2, r4
 8007a20:	bf0c      	ite	eq
 8007a22:	600b      	streq	r3, [r1, #0]
 8007a24:	6053      	strne	r3, [r2, #4]
 8007a26:	4630      	mov	r0, r6
 8007a28:	f000 f9ec 	bl	8007e04 <__malloc_unlock>
 8007a2c:	f104 000b 	add.w	r0, r4, #11
 8007a30:	1d23      	adds	r3, r4, #4
 8007a32:	f020 0007 	bic.w	r0, r0, #7
 8007a36:	1ac2      	subs	r2, r0, r3
 8007a38:	d0cc      	beq.n	80079d4 <_malloc_r+0x20>
 8007a3a:	1a1b      	subs	r3, r3, r0
 8007a3c:	50a3      	str	r3, [r4, r2]
 8007a3e:	e7c9      	b.n	80079d4 <_malloc_r+0x20>
 8007a40:	4622      	mov	r2, r4
 8007a42:	6864      	ldr	r4, [r4, #4]
 8007a44:	e7cc      	b.n	80079e0 <_malloc_r+0x2c>
 8007a46:	1cc4      	adds	r4, r0, #3
 8007a48:	f024 0403 	bic.w	r4, r4, #3
 8007a4c:	42a0      	cmp	r0, r4
 8007a4e:	d0e3      	beq.n	8007a18 <_malloc_r+0x64>
 8007a50:	1a21      	subs	r1, r4, r0
 8007a52:	4630      	mov	r0, r6
 8007a54:	f000 f964 	bl	8007d20 <_sbrk_r>
 8007a58:	3001      	adds	r0, #1
 8007a5a:	d1dd      	bne.n	8007a18 <_malloc_r+0x64>
 8007a5c:	e7cf      	b.n	80079fe <_malloc_r+0x4a>
 8007a5e:	bf00      	nop
 8007a60:	200002f8 	.word	0x200002f8
 8007a64:	200002fc 	.word	0x200002fc

08007a68 <__ssputs_r>:
 8007a68:	e92d 47f0 	stmdb	sp!, {r4, r5, r6, r7, r8, r9, sl, lr}
 8007a6c:	688e      	ldr	r6, [r1, #8]
 8007a6e:	4682      	mov	sl, r0
 8007a70:	429e      	cmp	r6, r3
 8007a72:	460c      	mov	r4, r1
 8007a74:	4690      	mov	r8, r2
 8007a76:	461f      	mov	r7, r3
 8007a78:	d838      	bhi.n	8007aec <__ssputs_r+0x84>
 8007a7a:	898a      	ldrh	r2, [r1, #12]
 8007a7c:	f412 6f90 	tst.w	r2, #1152	; 0x480
 8007a80:	d032      	beq.n	8007ae8 <__ssputs_r+0x80>
 8007a82:	6825      	ldr	r5, [r4, #0]
 8007a84:	6909      	ldr	r1, [r1, #16]
 8007a86:	3301      	adds	r3, #1
 8007a88:	eba5 0901 	sub.w	r9, r5, r1
 8007a8c:	6965      	ldr	r5, [r4, #20]
 8007a8e:	444b      	add	r3, r9
 8007a90:	eb05 0545 	add.w	r5, r5, r5, lsl #1
 8007a94:	eb05 75d5 	add.w	r5, r5, r5, lsr #31
 8007a98:	106d      	asrs	r5, r5, #1
 8007a9a:	429d      	cmp	r5, r3
 8007a9c:	bf38      	it	cc
 8007a9e:	461d      	movcc	r5, r3
 8007aa0:	0553      	lsls	r3, r2, #21
 8007aa2:	d531      	bpl.n	8007b08 <__ssputs_r+0xa0>
 8007aa4:	4629      	mov	r1, r5
 8007aa6:	f7ff ff85 	bl	80079b4 <_malloc_r>
 8007aaa:	4606      	mov	r6, r0
 8007aac:	b950      	cbnz	r0, 8007ac4 <__ssputs_r+0x5c>
 8007aae:	230c      	movs	r3, #12
 8007ab0:	f04f 30ff 	mov.w	r0, #4294967295	; 0xffffffff
 8007ab4:	f8ca 3000 	str.w	r3, [sl]
 8007ab8:	89a3      	ldrh	r3, [r4, #12]
 8007aba:	f043 0340 	orr.w	r3, r3, #64	; 0x40
 8007abe:	81a3      	strh	r3, [r4, #12]
 8007ac0:	e8bd 87f0 	ldmia.w	sp!, {r4, r5, r6, r7, r8, r9, sl, pc}
 8007ac4:	464a      	mov	r2, r9
 8007ac6:	6921      	ldr	r1, [r4, #16]
 8007ac8:	f7ff fb8a 	bl	80071e0 <memcpy>
 8007acc:	89a3      	ldrh	r3, [r4, #12]
 8007ace:	f423 6390 	bic.w	r3, r3, #1152	; 0x480
 8007ad2:	f043 0380 	orr.w	r3, r3, #128	; 0x80
 8007ad6:	81a3      	strh	r3, [r4, #12]
 8007ad8:	6126      	str	r6, [r4, #16]
 8007ada:	444e      	add	r6, r9
 8007adc:	6026      	str	r6, [r4, #0]
 8007ade:	463e      	mov	r6, r7
 8007ae0:	6165      	str	r5, [r4, #20]
 8007ae2:	eba5 0509 	sub.w	r5, r5, r9
 8007ae6:	60a5      	str	r5, [r4, #8]
 8007ae8:	42be      	cmp	r6, r7
 8007aea:	d900      	bls.n	8007aee <__ssputs_r+0x86>
 8007aec:	463e      	mov	r6, r7
 8007aee:	4632      	mov	r2, r6
 8007af0:	4641      	mov	r1, r8
 8007af2:	6820      	ldr	r0, [r4, #0]
 8007af4:	f000 f966 	bl	8007dc4 <memmove>
 8007af8:	68a3      	ldr	r3, [r4, #8]
 8007afa:	6822      	ldr	r2, [r4, #0]
 8007afc:	1b9b      	subs	r3, r3, r6
 8007afe:	4432      	add	r2, r6
 8007b00:	2000      	movs	r0, #0
 8007b02:	60a3      	str	r3, [r4, #8]
 8007b04:	6022      	str	r2, [r4, #0]
 8007b06:	e7db      	b.n	8007ac0 <__ssputs_r+0x58>
 8007b08:	462a      	mov	r2, r5
 8007b0a:	f000 f981 	bl	8007e10 <_realloc_r>
 8007b0e:	4606      	mov	r6, r0
 8007b10:	2800      	cmp	r0, #0
 8007b12:	d1e1      	bne.n	8007ad8 <__ssputs_r+0x70>
 8007b14:	4650      	mov	r0, sl
 8007b16:	6921      	ldr	r1, [r4, #16]
 8007b18:	f7ff ff00 	bl	800791c <_free_r>
 8007b1c:	e7c7      	b.n	8007aae <__ssputs_r+0x46>
	...

08007b20 <_svfiprintf_r>:
 8007b20:	e92d 4ff0 	stmdb	sp!, {r4, r5, r6, r7, r8, r9, sl, fp, lr}
 8007b24:	4698      	mov	r8, r3
 8007b26:	898b      	ldrh	r3, [r1, #12]
 8007b28:	4607      	mov	r7, r0
 8007b2a:	061b      	lsls	r3, r3, #24
 8007b2c:	460d      	mov	r5, r1
 8007b2e:	4614      	mov	r4, r2
 8007b30:	b09d      	sub	sp, #116	; 0x74
 8007b32:	d50e      	bpl.n	8007b52 <_svfiprintf_r+0x32>
 8007b34:	690b      	ldr	r3, [r1, #16]
 8007b36:	b963      	cbnz	r3, 8007b52 <_svfiprintf_r+0x32>
 8007b38:	2140      	movs	r1, #64	; 0x40
 8007b3a:	f7ff ff3b 	bl	80079b4 <_malloc_r>
 8007b3e:	6028      	str	r0, [r5, #0]
 8007b40:	6128      	str	r0, [r5, #16]
 8007b42:	b920      	cbnz	r0, 8007b4e <_svfiprintf_r+0x2e>
 8007b44:	230c      	movs	r3, #12
 8007b46:	603b      	str	r3, [r7, #0]
 8007b48:	f04f 30ff 	mov.w	r0, #4294967295	; 0xffffffff
 8007b4c:	e0d1      	b.n	8007cf2 <_svfiprintf_r+0x1d2>
 8007b4e:	2340      	movs	r3, #64	; 0x40
 8007b50:	616b      	str	r3, [r5, #20]
 8007b52:	2300      	movs	r3, #0
 8007b54:	9309      	str	r3, [sp, #36]	; 0x24
 8007b56:	2320      	movs	r3, #32
 8007b58:	f88d 3029 	strb.w	r3, [sp, #41]	; 0x29
 8007b5c:	2330      	movs	r3, #48	; 0x30
 8007b5e:	f04f 0901 	mov.w	r9, #1
 8007b62:	f8cd 800c 	str.w	r8, [sp, #12]
 8007b66:	f8df 81a4 	ldr.w	r8, [pc, #420]	; 8007d0c <_svfiprintf_r+0x1ec>
 8007b6a:	f88d 302a 	strb.w	r3, [sp, #42]	; 0x2a
 8007b6e:	4623      	mov	r3, r4
 8007b70:	469a      	mov	sl, r3
 8007b72:	f813 2b01 	ldrb.w	r2, [r3], #1
 8007b76:	b10a      	cbz	r2, 8007b7c <_svfiprintf_r+0x5c>
 8007b78:	2a25      	cmp	r2, #37	; 0x25
 8007b7a:	d1f9      	bne.n	8007b70 <_svfiprintf_r+0x50>
 8007b7c:	ebba 0b04 	subs.w	fp, sl, r4
 8007b80:	d00b      	beq.n	8007b9a <_svfiprintf_r+0x7a>
 8007b82:	465b      	mov	r3, fp
 8007b84:	4622      	mov	r2, r4
 8007b86:	4629      	mov	r1, r5
 8007b88:	4638      	mov	r0, r7
 8007b8a:	f7ff ff6d 	bl	8007a68 <__ssputs_r>
 8007b8e:	3001      	adds	r0, #1
 8007b90:	f000 80aa 	beq.w	8007ce8 <_svfiprintf_r+0x1c8>
 8007b94:	9a09      	ldr	r2, [sp, #36]	; 0x24
 8007b96:	445a      	add	r2, fp
 8007b98:	9209      	str	r2, [sp, #36]	; 0x24
 8007b9a:	f89a 3000 	ldrb.w	r3, [sl]
 8007b9e:	2b00      	cmp	r3, #0
 8007ba0:	f000 80a2 	beq.w	8007ce8 <_svfiprintf_r+0x1c8>
 8007ba4:	2300      	movs	r3, #0
 8007ba6:	f04f 32ff 	mov.w	r2, #4294967295	; 0xffffffff
 8007baa:	e9cd 2305 	strd	r2, r3, [sp, #20]
 8007bae:	f10a 0a01 	add.w	sl, sl, #1
 8007bb2:	9304      	str	r3, [sp, #16]
 8007bb4:	9307      	str	r3, [sp, #28]
 8007bb6:	f88d 3053 	strb.w	r3, [sp, #83]	; 0x53
 8007bba:	931a      	str	r3, [sp, #104]	; 0x68
 8007bbc:	4654      	mov	r4, sl
 8007bbe:	2205      	movs	r2, #5
 8007bc0:	f814 1b01 	ldrb.w	r1, [r4], #1
 8007bc4:	4851      	ldr	r0, [pc, #324]	; (8007d0c <_svfiprintf_r+0x1ec>)
 8007bc6:	f7ff fafd 	bl	80071c4 <memchr>
 8007bca:	9a04      	ldr	r2, [sp, #16]
 8007bcc:	b9d8      	cbnz	r0, 8007c06 <_svfiprintf_r+0xe6>
 8007bce:	06d0      	lsls	r0, r2, #27
 8007bd0:	bf44      	itt	mi
 8007bd2:	2320      	movmi	r3, #32
 8007bd4:	f88d 3053 	strbmi.w	r3, [sp, #83]	; 0x53
 8007bd8:	0711      	lsls	r1, r2, #28
 8007bda:	bf44      	itt	mi
 8007bdc:	232b      	movmi	r3, #43	; 0x2b
 8007bde:	f88d 3053 	strbmi.w	r3, [sp, #83]	; 0x53
 8007be2:	f89a 3000 	ldrb.w	r3, [sl]
 8007be6:	2b2a      	cmp	r3, #42	; 0x2a
 8007be8:	d015      	beq.n	8007c16 <_svfiprintf_r+0xf6>
 8007bea:	4654      	mov	r4, sl
 8007bec:	2000      	movs	r0, #0
 8007bee:	f04f 0c0a 	mov.w	ip, #10
 8007bf2:	9a07      	ldr	r2, [sp, #28]
 8007bf4:	4621      	mov	r1, r4
 8007bf6:	f811 3b01 	ldrb.w	r3, [r1], #1
 8007bfa:	3b30      	subs	r3, #48	; 0x30
 8007bfc:	2b09      	cmp	r3, #9
 8007bfe:	d94e      	bls.n	8007c9e <_svfiprintf_r+0x17e>
 8007c00:	b1b0      	cbz	r0, 8007c30 <_svfiprintf_r+0x110>
 8007c02:	9207      	str	r2, [sp, #28]
 8007c04:	e014      	b.n	8007c30 <_svfiprintf_r+0x110>
 8007c06:	eba0 0308 	sub.w	r3, r0, r8
 8007c0a:	fa09 f303 	lsl.w	r3, r9, r3
 8007c0e:	4313      	orrs	r3, r2
 8007c10:	46a2      	mov	sl, r4
 8007c12:	9304      	str	r3, [sp, #16]
 8007c14:	e7d2      	b.n	8007bbc <_svfiprintf_r+0x9c>
 8007c16:	9b03      	ldr	r3, [sp, #12]
 8007c18:	1d19      	adds	r1, r3, #4
 8007c1a:	681b      	ldr	r3, [r3, #0]
 8007c1c:	9103      	str	r1, [sp, #12]
 8007c1e:	2b00      	cmp	r3, #0
 8007c20:	bfbb      	ittet	lt
 8007c22:	425b      	neglt	r3, r3
 8007c24:	f042 0202 	orrlt.w	r2, r2, #2
 8007c28:	9307      	strge	r3, [sp, #28]
 8007c2a:	9307      	strlt	r3, [sp, #28]
 8007c2c:	bfb8      	it	lt
 8007c2e:	9204      	strlt	r2, [sp, #16]
 8007c30:	7823      	ldrb	r3, [r4, #0]
 8007c32:	2b2e      	cmp	r3, #46	; 0x2e
 8007c34:	d10c      	bne.n	8007c50 <_svfiprintf_r+0x130>
 8007c36:	7863      	ldrb	r3, [r4, #1]
 8007c38:	2b2a      	cmp	r3, #42	; 0x2a
 8007c3a:	d135      	bne.n	8007ca8 <_svfiprintf_r+0x188>
 8007c3c:	9b03      	ldr	r3, [sp, #12]
 8007c3e:	3402      	adds	r4, #2
 8007c40:	1d1a      	adds	r2, r3, #4
 8007c42:	681b      	ldr	r3, [r3, #0]
 8007c44:	9203      	str	r2, [sp, #12]
 8007c46:	2b00      	cmp	r3, #0
 8007c48:	bfb8      	it	lt
 8007c4a:	f04f 33ff 	movlt.w	r3, #4294967295	; 0xffffffff
 8007c4e:	9305      	str	r3, [sp, #20]
 8007c50:	f8df a0c8 	ldr.w	sl, [pc, #200]	; 8007d1c <_svfiprintf_r+0x1fc>
 8007c54:	2203      	movs	r2, #3
 8007c56:	4650      	mov	r0, sl
 8007c58:	7821      	ldrb	r1, [r4, #0]
 8007c5a:	f7ff fab3 	bl	80071c4 <memchr>
 8007c5e:	b140      	cbz	r0, 8007c72 <_svfiprintf_r+0x152>
 8007c60:	2340      	movs	r3, #64	; 0x40
 8007c62:	eba0 000a 	sub.w	r0, r0, sl
 8007c66:	fa03 f000 	lsl.w	r0, r3, r0
 8007c6a:	9b04      	ldr	r3, [sp, #16]
 8007c6c:	3401      	adds	r4, #1
 8007c6e:	4303      	orrs	r3, r0
 8007c70:	9304      	str	r3, [sp, #16]
 8007c72:	f814 1b01 	ldrb.w	r1, [r4], #1
 8007c76:	2206      	movs	r2, #6
 8007c78:	4825      	ldr	r0, [pc, #148]	; (8007d10 <_svfiprintf_r+0x1f0>)
 8007c7a:	f88d 1028 	strb.w	r1, [sp, #40]	; 0x28
 8007c7e:	f7ff faa1 	bl	80071c4 <memchr>
 8007c82:	2800      	cmp	r0, #0
 8007c84:	d038      	beq.n	8007cf8 <_svfiprintf_r+0x1d8>
 8007c86:	4b23      	ldr	r3, [pc, #140]	; (8007d14 <_svfiprintf_r+0x1f4>)
 8007c88:	bb1b      	cbnz	r3, 8007cd2 <_svfiprintf_r+0x1b2>
 8007c8a:	9b03      	ldr	r3, [sp, #12]
 8007c8c:	3307      	adds	r3, #7
 8007c8e:	f023 0307 	bic.w	r3, r3, #7
 8007c92:	3308      	adds	r3, #8
 8007c94:	9303      	str	r3, [sp, #12]
 8007c96:	9b09      	ldr	r3, [sp, #36]	; 0x24
 8007c98:	4433      	add	r3, r6
 8007c9a:	9309      	str	r3, [sp, #36]	; 0x24
 8007c9c:	e767      	b.n	8007b6e <_svfiprintf_r+0x4e>
 8007c9e:	460c      	mov	r4, r1
 8007ca0:	2001      	movs	r0, #1
 8007ca2:	fb0c 3202 	mla	r2, ip, r2, r3
 8007ca6:	e7a5      	b.n	8007bf4 <_svfiprintf_r+0xd4>
 8007ca8:	2300      	movs	r3, #0
 8007caa:	f04f 0c0a 	mov.w	ip, #10
 8007cae:	4619      	mov	r1, r3
 8007cb0:	3401      	adds	r4, #1
 8007cb2:	9305      	str	r3, [sp, #20]
 8007cb4:	4620      	mov	r0, r4
 8007cb6:	f810 2b01 	ldrb.w	r2, [r0], #1
 8007cba:	3a30      	subs	r2, #48	; 0x30
 8007cbc:	2a09      	cmp	r2, #9
 8007cbe:	d903      	bls.n	8007cc8 <_svfiprintf_r+0x1a8>
 8007cc0:	2b00      	cmp	r3, #0
 8007cc2:	d0c5      	beq.n	8007c50 <_svfiprintf_r+0x130>
 8007cc4:	9105      	str	r1, [sp, #20]
 8007cc6:	e7c3      	b.n	8007c50 <_svfiprintf_r+0x130>
 8007cc8:	4604      	mov	r4, r0
 8007cca:	2301      	movs	r3, #1
 8007ccc:	fb0c 2101 	mla	r1, ip, r1, r2
 8007cd0:	e7f0      	b.n	8007cb4 <_svfiprintf_r+0x194>
 8007cd2:	ab03      	add	r3, sp, #12
 8007cd4:	9300      	str	r3, [sp, #0]
 8007cd6:	462a      	mov	r2, r5
 8007cd8:	4638      	mov	r0, r7
 8007cda:	4b0f      	ldr	r3, [pc, #60]	; (8007d18 <_svfiprintf_r+0x1f8>)
 8007cdc:	a904      	add	r1, sp, #16
 8007cde:	f7fd ffc5 	bl	8005c6c <_printf_float>
 8007ce2:	1c42      	adds	r2, r0, #1
 8007ce4:	4606      	mov	r6, r0
 8007ce6:	d1d6      	bne.n	8007c96 <_svfiprintf_r+0x176>
 8007ce8:	89ab      	ldrh	r3, [r5, #12]
 8007cea:	065b      	lsls	r3, r3, #25
 8007cec:	f53f af2c 	bmi.w	8007b48 <_svfiprintf_r+0x28>
 8007cf0:	9809      	ldr	r0, [sp, #36]	; 0x24
 8007cf2:	b01d      	add	sp, #116	; 0x74
 8007cf4:	e8bd 8ff0 	ldmia.w	sp!, {r4, r5, r6, r7, r8, r9, sl, fp, pc}
 8007cf8:	ab03      	add	r3, sp, #12
 8007cfa:	9300      	str	r3, [sp, #0]
 8007cfc:	462a      	mov	r2, r5
 8007cfe:	4638      	mov	r0, r7
 8007d00:	4b05      	ldr	r3, [pc, #20]	; (8007d18 <_svfiprintf_r+0x1f8>)
 8007d02:	a904      	add	r1, sp, #16
 8007d04:	f7fe fa4e 	bl	80061a4 <_printf_i>
 8007d08:	e7eb      	b.n	8007ce2 <_svfiprintf_r+0x1c2>
 8007d0a:	bf00      	nop
 8007d0c:	08008d3c 	.word	0x08008d3c
 8007d10:	08008d46 	.word	0x08008d46
 8007d14:	08005c6d 	.word	0x08005c6d
 8007d18:	08007a69 	.word	0x08007a69
 8007d1c:	08008d42 	.word	0x08008d42

08007d20 <_sbrk_r>:
 8007d20:	b538      	push	{r3, r4, r5, lr}
 8007d22:	2300      	movs	r3, #0
 8007d24:	4d05      	ldr	r5, [pc, #20]	; (8007d3c <_sbrk_r+0x1c>)
 8007d26:	4604      	mov	r4, r0
 8007d28:	4608      	mov	r0, r1
 8007d2a:	602b      	str	r3, [r5, #0]
 8007d2c:	f7fa ff9a 	bl	8002c64 <_sbrk>
 8007d30:	1c43      	adds	r3, r0, #1
 8007d32:	d102      	bne.n	8007d3a <_sbrk_r+0x1a>
 8007d34:	682b      	ldr	r3, [r5, #0]
 8007d36:	b103      	cbz	r3, 8007d3a <_sbrk_r+0x1a>
 8007d38:	6023      	str	r3, [r4, #0]
 8007d3a:	bd38      	pop	{r3, r4, r5, pc}
 8007d3c:	200005e4 	.word	0x200005e4

08007d40 <__assert_func>:
 8007d40:	b51f      	push	{r0, r1, r2, r3, r4, lr}
 8007d42:	4614      	mov	r4, r2
 8007d44:	461a      	mov	r2, r3
 8007d46:	4b09      	ldr	r3, [pc, #36]	; (8007d6c <__assert_func+0x2c>)
 8007d48:	4605      	mov	r5, r0
 8007d4a:	681b      	ldr	r3, [r3, #0]
 8007d4c:	68d8      	ldr	r0, [r3, #12]
 8007d4e:	b14c      	cbz	r4, 8007d64 <__assert_func+0x24>
 8007d50:	4b07      	ldr	r3, [pc, #28]	; (8007d70 <__assert_func+0x30>)
 8007d52:	e9cd 3401 	strd	r3, r4, [sp, #4]
 8007d56:	9100      	str	r1, [sp, #0]
 8007d58:	462b      	mov	r3, r5
 8007d5a:	4906      	ldr	r1, [pc, #24]	; (8007d74 <__assert_func+0x34>)
 8007d5c:	f000 f80e 	bl	8007d7c <fiprintf>
 8007d60:	f000 faa2 	bl	80082a8 <abort>
 8007d64:	4b04      	ldr	r3, [pc, #16]	; (8007d78 <__assert_func+0x38>)
 8007d66:	461c      	mov	r4, r3
 8007d68:	e7f3      	b.n	8007d52 <__assert_func+0x12>
 8007d6a:	bf00      	nop
 8007d6c:	2000005c 	.word	0x2000005c
 8007d70:	08008d4d 	.word	0x08008d4d
 8007d74:	08008d5a 	.word	0x08008d5a
 8007d78:	08008ae8 	.word	0x08008ae8

08007d7c <fiprintf>:
 8007d7c:	b40e      	push	{r1, r2, r3}
 8007d7e:	b503      	push	{r0, r1, lr}
 8007d80:	4601      	mov	r1, r0
 8007d82:	ab03      	add	r3, sp, #12
 8007d84:	4805      	ldr	r0, [pc, #20]	; (8007d9c <fiprintf+0x20>)
 8007d86:	f853 2b04 	ldr.w	r2, [r3], #4
 8007d8a:	6800      	ldr	r0, [r0, #0]
 8007d8c:	9301      	str	r3, [sp, #4]
 8007d8e:	f000 f88d 	bl	8007eac <_vfiprintf_r>
 8007d92:	b002      	add	sp, #8
 8007d94:	f85d eb04 	ldr.w	lr, [sp], #4
 8007d98:	b003      	add	sp, #12
 8007d9a:	4770      	bx	lr
 8007d9c:	2000005c 	.word	0x2000005c

08007da0 <__ascii_mbtowc>:
 8007da0:	b082      	sub	sp, #8
 8007da2:	b901      	cbnz	r1, 8007da6 <__ascii_mbtowc+0x6>
 8007da4:	a901      	add	r1, sp, #4
 8007da6:	b142      	cbz	r2, 8007dba <__ascii_mbtowc+0x1a>
 8007da8:	b14b      	cbz	r3, 8007dbe <__ascii_mbtowc+0x1e>
 8007daa:	7813      	ldrb	r3, [r2, #0]
 8007dac:	600b      	str	r3, [r1, #0]
 8007dae:	7812      	ldrb	r2, [r2, #0]
 8007db0:	1e10      	subs	r0, r2, #0
 8007db2:	bf18      	it	ne
 8007db4:	2001      	movne	r0, #1
 8007db6:	b002      	add	sp, #8
 8007db8:	4770      	bx	lr
 8007dba:	4610      	mov	r0, r2
 8007dbc:	e7fb      	b.n	8007db6 <__ascii_mbtowc+0x16>
 8007dbe:	f06f 0001 	mvn.w	r0, #1
 8007dc2:	e7f8      	b.n	8007db6 <__ascii_mbtowc+0x16>

08007dc4 <memmove>:
 8007dc4:	4288      	cmp	r0, r1
 8007dc6:	b510      	push	{r4, lr}
 8007dc8:	eb01 0402 	add.w	r4, r1, r2
 8007dcc:	d902      	bls.n	8007dd4 <memmove+0x10>
 8007dce:	4284      	cmp	r4, r0
 8007dd0:	4623      	mov	r3, r4
 8007dd2:	d807      	bhi.n	8007de4 <memmove+0x20>
 8007dd4:	1e43      	subs	r3, r0, #1
 8007dd6:	42a1      	cmp	r1, r4
 8007dd8:	d008      	beq.n	8007dec <memmove+0x28>
 8007dda:	f811 2b01 	ldrb.w	r2, [r1], #1
 8007dde:	f803 2f01 	strb.w	r2, [r3, #1]!
 8007de2:	e7f8      	b.n	8007dd6 <memmove+0x12>
 8007de4:	4601      	mov	r1, r0
 8007de6:	4402      	add	r2, r0
 8007de8:	428a      	cmp	r2, r1
 8007dea:	d100      	bne.n	8007dee <memmove+0x2a>
 8007dec:	bd10      	pop	{r4, pc}
 8007dee:	f813 4d01 	ldrb.w	r4, [r3, #-1]!
 8007df2:	f802 4d01 	strb.w	r4, [r2, #-1]!
 8007df6:	e7f7      	b.n	8007de8 <memmove+0x24>

08007df8 <__malloc_lock>:
 8007df8:	4801      	ldr	r0, [pc, #4]	; (8007e00 <__malloc_lock+0x8>)
 8007dfa:	f000 bc15 	b.w	8008628 <__retarget_lock_acquire_recursive>
 8007dfe:	bf00      	nop
 8007e00:	200005ec 	.word	0x200005ec

08007e04 <__malloc_unlock>:
 8007e04:	4801      	ldr	r0, [pc, #4]	; (8007e0c <__malloc_unlock+0x8>)
 8007e06:	f000 bc10 	b.w	800862a <__retarget_lock_release_recursive>
 8007e0a:	bf00      	nop
 8007e0c:	200005ec 	.word	0x200005ec

08007e10 <_realloc_r>:
 8007e10:	b5f8      	push	{r3, r4, r5, r6, r7, lr}
 8007e12:	4607      	mov	r7, r0
 8007e14:	4614      	mov	r4, r2
 8007e16:	460e      	mov	r6, r1
 8007e18:	b921      	cbnz	r1, 8007e24 <_realloc_r+0x14>
 8007e1a:	4611      	mov	r1, r2
 8007e1c:	e8bd 40f8 	ldmia.w	sp!, {r3, r4, r5, r6, r7, lr}
 8007e20:	f7ff bdc8 	b.w	80079b4 <_malloc_r>
 8007e24:	b922      	cbnz	r2, 8007e30 <_realloc_r+0x20>
 8007e26:	f7ff fd79 	bl	800791c <_free_r>
 8007e2a:	4625      	mov	r5, r4
 8007e2c:	4628      	mov	r0, r5
 8007e2e:	bdf8      	pop	{r3, r4, r5, r6, r7, pc}
 8007e30:	f000 fc60 	bl	80086f4 <_malloc_usable_size_r>
 8007e34:	42a0      	cmp	r0, r4
 8007e36:	d20f      	bcs.n	8007e58 <_realloc_r+0x48>
 8007e38:	4621      	mov	r1, r4
 8007e3a:	4638      	mov	r0, r7
 8007e3c:	f7ff fdba 	bl	80079b4 <_malloc_r>
 8007e40:	4605      	mov	r5, r0
 8007e42:	2800      	cmp	r0, #0
 8007e44:	d0f2      	beq.n	8007e2c <_realloc_r+0x1c>
 8007e46:	4631      	mov	r1, r6
 8007e48:	4622      	mov	r2, r4
 8007e4a:	f7ff f9c9 	bl	80071e0 <memcpy>
 8007e4e:	4631      	mov	r1, r6
 8007e50:	4638      	mov	r0, r7
 8007e52:	f7ff fd63 	bl	800791c <_free_r>
 8007e56:	e7e9      	b.n	8007e2c <_realloc_r+0x1c>
 8007e58:	4635      	mov	r5, r6
 8007e5a:	e7e7      	b.n	8007e2c <_realloc_r+0x1c>

08007e5c <__sfputc_r>:
 8007e5c:	6893      	ldr	r3, [r2, #8]
 8007e5e:	b410      	push	{r4}
 8007e60:	3b01      	subs	r3, #1
 8007e62:	2b00      	cmp	r3, #0
 8007e64:	6093      	str	r3, [r2, #8]
 8007e66:	da07      	bge.n	8007e78 <__sfputc_r+0x1c>
 8007e68:	6994      	ldr	r4, [r2, #24]
 8007e6a:	42a3      	cmp	r3, r4
 8007e6c:	db01      	blt.n	8007e72 <__sfputc_r+0x16>
 8007e6e:	290a      	cmp	r1, #10
 8007e70:	d102      	bne.n	8007e78 <__sfputc_r+0x1c>
 8007e72:	bc10      	pop	{r4}
 8007e74:	f000 b94a 	b.w	800810c <__swbuf_r>
 8007e78:	6813      	ldr	r3, [r2, #0]
 8007e7a:	1c58      	adds	r0, r3, #1
 8007e7c:	6010      	str	r0, [r2, #0]
 8007e7e:	7019      	strb	r1, [r3, #0]
 8007e80:	4608      	mov	r0, r1
 8007e82:	bc10      	pop	{r4}
 8007e84:	4770      	bx	lr

08007e86 <__sfputs_r>:
 8007e86:	b5f8      	push	{r3, r4, r5, r6, r7, lr}
 8007e88:	4606      	mov	r6, r0
 8007e8a:	460f      	mov	r7, r1
 8007e8c:	4614      	mov	r4, r2
 8007e8e:	18d5      	adds	r5, r2, r3
 8007e90:	42ac      	cmp	r4, r5
 8007e92:	d101      	bne.n	8007e98 <__sfputs_r+0x12>
 8007e94:	2000      	movs	r0, #0
 8007e96:	e007      	b.n	8007ea8 <__sfputs_r+0x22>
 8007e98:	463a      	mov	r2, r7
 8007e9a:	4630      	mov	r0, r6
 8007e9c:	f814 1b01 	ldrb.w	r1, [r4], #1
 8007ea0:	f7ff ffdc 	bl	8007e5c <__sfputc_r>
 8007ea4:	1c43      	adds	r3, r0, #1
 8007ea6:	d1f3      	bne.n	8007e90 <__sfputs_r+0xa>
 8007ea8:	bdf8      	pop	{r3, r4, r5, r6, r7, pc}
	...

08007eac <_vfiprintf_r>:
 8007eac:	e92d 4ff0 	stmdb	sp!, {r4, r5, r6, r7, r8, r9, sl, fp, lr}
 8007eb0:	460d      	mov	r5, r1
 8007eb2:	4614      	mov	r4, r2
 8007eb4:	4698      	mov	r8, r3
 8007eb6:	4606      	mov	r6, r0
 8007eb8:	b09d      	sub	sp, #116	; 0x74
 8007eba:	b118      	cbz	r0, 8007ec4 <_vfiprintf_r+0x18>
 8007ebc:	6983      	ldr	r3, [r0, #24]
 8007ebe:	b90b      	cbnz	r3, 8007ec4 <_vfiprintf_r+0x18>
 8007ec0:	f000 fb14 	bl	80084ec <__sinit>
 8007ec4:	4b89      	ldr	r3, [pc, #548]	; (80080ec <_vfiprintf_r+0x240>)
 8007ec6:	429d      	cmp	r5, r3
 8007ec8:	d11b      	bne.n	8007f02 <_vfiprintf_r+0x56>
 8007eca:	6875      	ldr	r5, [r6, #4]
 8007ecc:	6e6b      	ldr	r3, [r5, #100]	; 0x64
 8007ece:	07d9      	lsls	r1, r3, #31
 8007ed0:	d405      	bmi.n	8007ede <_vfiprintf_r+0x32>
 8007ed2:	89ab      	ldrh	r3, [r5, #12]
 8007ed4:	059a      	lsls	r2, r3, #22
 8007ed6:	d402      	bmi.n	8007ede <_vfiprintf_r+0x32>
 8007ed8:	6da8      	ldr	r0, [r5, #88]	; 0x58
 8007eda:	f000 fba5 	bl	8008628 <__retarget_lock_acquire_recursive>
 8007ede:	89ab      	ldrh	r3, [r5, #12]
 8007ee0:	071b      	lsls	r3, r3, #28
 8007ee2:	d501      	bpl.n	8007ee8 <_vfiprintf_r+0x3c>
 8007ee4:	692b      	ldr	r3, [r5, #16]
 8007ee6:	b9eb      	cbnz	r3, 8007f24 <_vfiprintf_r+0x78>
 8007ee8:	4629      	mov	r1, r5
 8007eea:	4630      	mov	r0, r6
 8007eec:	f000 f96e 	bl	80081cc <__swsetup_r>
 8007ef0:	b1c0      	cbz	r0, 8007f24 <_vfiprintf_r+0x78>
 8007ef2:	6e6b      	ldr	r3, [r5, #100]	; 0x64
 8007ef4:	07dc      	lsls	r4, r3, #31
 8007ef6:	d50e      	bpl.n	8007f16 <_vfiprintf_r+0x6a>
 8007ef8:	f04f 30ff 	mov.w	r0, #4294967295	; 0xffffffff
 8007efc:	b01d      	add	sp, #116	; 0x74
 8007efe:	e8bd 8ff0 	ldmia.w	sp!, {r4, r5, r6, r7, r8, r9, sl, fp, pc}
 8007f02:	4b7b      	ldr	r3, [pc, #492]	; (80080f0 <_vfiprintf_r+0x244>)
 8007f04:	429d      	cmp	r5, r3
 8007f06:	d101      	bne.n	8007f0c <_vfiprintf_r+0x60>
 8007f08:	68b5      	ldr	r5, [r6, #8]
 8007f0a:	e7df      	b.n	8007ecc <_vfiprintf_r+0x20>
 8007f0c:	4b79      	ldr	r3, [pc, #484]	; (80080f4 <_vfiprintf_r+0x248>)
 8007f0e:	429d      	cmp	r5, r3
 8007f10:	bf08      	it	eq
 8007f12:	68f5      	ldreq	r5, [r6, #12]
 8007f14:	e7da      	b.n	8007ecc <_vfiprintf_r+0x20>
 8007f16:	89ab      	ldrh	r3, [r5, #12]
 8007f18:	0598      	lsls	r0, r3, #22
 8007f1a:	d4ed      	bmi.n	8007ef8 <_vfiprintf_r+0x4c>
 8007f1c:	6da8      	ldr	r0, [r5, #88]	; 0x58
 8007f1e:	f000 fb84 	bl	800862a <__retarget_lock_release_recursive>
 8007f22:	e7e9      	b.n	8007ef8 <_vfiprintf_r+0x4c>
 8007f24:	2300      	movs	r3, #0
 8007f26:	9309      	str	r3, [sp, #36]	; 0x24
 8007f28:	2320      	movs	r3, #32
 8007f2a:	f88d 3029 	strb.w	r3, [sp, #41]	; 0x29
 8007f2e:	2330      	movs	r3, #48	; 0x30
 8007f30:	f04f 0901 	mov.w	r9, #1
 8007f34:	f8cd 800c 	str.w	r8, [sp, #12]
 8007f38:	f8df 81bc 	ldr.w	r8, [pc, #444]	; 80080f8 <_vfiprintf_r+0x24c>
 8007f3c:	f88d 302a 	strb.w	r3, [sp, #42]	; 0x2a
 8007f40:	4623      	mov	r3, r4
 8007f42:	469a      	mov	sl, r3
 8007f44:	f813 2b01 	ldrb.w	r2, [r3], #1
 8007f48:	b10a      	cbz	r2, 8007f4e <_vfiprintf_r+0xa2>
 8007f4a:	2a25      	cmp	r2, #37	; 0x25
 8007f4c:	d1f9      	bne.n	8007f42 <_vfiprintf_r+0x96>
 8007f4e:	ebba 0b04 	subs.w	fp, sl, r4
 8007f52:	d00b      	beq.n	8007f6c <_vfiprintf_r+0xc0>
 8007f54:	465b      	mov	r3, fp
 8007f56:	4622      	mov	r2, r4
 8007f58:	4629      	mov	r1, r5
 8007f5a:	4630      	mov	r0, r6
 8007f5c:	f7ff ff93 	bl	8007e86 <__sfputs_r>
 8007f60:	3001      	adds	r0, #1
 8007f62:	f000 80aa 	beq.w	80080ba <_vfiprintf_r+0x20e>
 8007f66:	9a09      	ldr	r2, [sp, #36]	; 0x24
 8007f68:	445a      	add	r2, fp
 8007f6a:	9209      	str	r2, [sp, #36]	; 0x24
 8007f6c:	f89a 3000 	ldrb.w	r3, [sl]
 8007f70:	2b00      	cmp	r3, #0
 8007f72:	f000 80a2 	beq.w	80080ba <_vfiprintf_r+0x20e>
 8007f76:	2300      	movs	r3, #0
 8007f78:	f04f 32ff 	mov.w	r2, #4294967295	; 0xffffffff
 8007f7c:	e9cd 2305 	strd	r2, r3, [sp, #20]
 8007f80:	f10a 0a01 	add.w	sl, sl, #1
 8007f84:	9304      	str	r3, [sp, #16]
 8007f86:	9307      	str	r3, [sp, #28]
 8007f88:	f88d 3053 	strb.w	r3, [sp, #83]	; 0x53
 8007f8c:	931a      	str	r3, [sp, #104]	; 0x68
 8007f8e:	4654      	mov	r4, sl
 8007f90:	2205      	movs	r2, #5
 8007f92:	f814 1b01 	ldrb.w	r1, [r4], #1
 8007f96:	4858      	ldr	r0, [pc, #352]	; (80080f8 <_vfiprintf_r+0x24c>)
 8007f98:	f7ff f914 	bl	80071c4 <memchr>
 8007f9c:	9a04      	ldr	r2, [sp, #16]
 8007f9e:	b9d8      	cbnz	r0, 8007fd8 <_vfiprintf_r+0x12c>
 8007fa0:	06d1      	lsls	r1, r2, #27
 8007fa2:	bf44      	itt	mi
 8007fa4:	2320      	movmi	r3, #32
 8007fa6:	f88d 3053 	strbmi.w	r3, [sp, #83]	; 0x53
 8007faa:	0713      	lsls	r3, r2, #28
 8007fac:	bf44      	itt	mi
 8007fae:	232b      	movmi	r3, #43	; 0x2b
 8007fb0:	f88d 3053 	strbmi.w	r3, [sp, #83]	; 0x53
 8007fb4:	f89a 3000 	ldrb.w	r3, [sl]
 8007fb8:	2b2a      	cmp	r3, #42	; 0x2a
 8007fba:	d015      	beq.n	8007fe8 <_vfiprintf_r+0x13c>
 8007fbc:	4654      	mov	r4, sl
 8007fbe:	2000      	movs	r0, #0
 8007fc0:	f04f 0c0a 	mov.w	ip, #10
 8007fc4:	9a07      	ldr	r2, [sp, #28]
 8007fc6:	4621      	mov	r1, r4
 8007fc8:	f811 3b01 	ldrb.w	r3, [r1], #1
 8007fcc:	3b30      	subs	r3, #48	; 0x30
 8007fce:	2b09      	cmp	r3, #9
 8007fd0:	d94e      	bls.n	8008070 <_vfiprintf_r+0x1c4>
 8007fd2:	b1b0      	cbz	r0, 8008002 <_vfiprintf_r+0x156>
 8007fd4:	9207      	str	r2, [sp, #28]
 8007fd6:	e014      	b.n	8008002 <_vfiprintf_r+0x156>
 8007fd8:	eba0 0308 	sub.w	r3, r0, r8
 8007fdc:	fa09 f303 	lsl.w	r3, r9, r3
 8007fe0:	4313      	orrs	r3, r2
 8007fe2:	46a2      	mov	sl, r4
 8007fe4:	9304      	str	r3, [sp, #16]
 8007fe6:	e7d2      	b.n	8007f8e <_vfiprintf_r+0xe2>
 8007fe8:	9b03      	ldr	r3, [sp, #12]
 8007fea:	1d19      	adds	r1, r3, #4
 8007fec:	681b      	ldr	r3, [r3, #0]
 8007fee:	9103      	str	r1, [sp, #12]
 8007ff0:	2b00      	cmp	r3, #0
 8007ff2:	bfbb      	ittet	lt
 8007ff4:	425b      	neglt	r3, r3
 8007ff6:	f042 0202 	orrlt.w	r2, r2, #2
 8007ffa:	9307      	strge	r3, [sp, #28]
 8007ffc:	9307      	strlt	r3, [sp, #28]
 8007ffe:	bfb8      	it	lt
 8008000:	9204      	strlt	r2, [sp, #16]
 8008002:	7823      	ldrb	r3, [r4, #0]
 8008004:	2b2e      	cmp	r3, #46	; 0x2e
 8008006:	d10c      	bne.n	8008022 <_vfiprintf_r+0x176>
 8008008:	7863      	ldrb	r3, [r4, #1]
 800800a:	2b2a      	cmp	r3, #42	; 0x2a
 800800c:	d135      	bne.n	800807a <_vfiprintf_r+0x1ce>
 800800e:	9b03      	ldr	r3, [sp, #12]
 8008010:	3402      	adds	r4, #2
 8008012:	1d1a      	adds	r2, r3, #4
 8008014:	681b      	ldr	r3, [r3, #0]
 8008016:	9203      	str	r2, [sp, #12]
 8008018:	2b00      	cmp	r3, #0
 800801a:	bfb8      	it	lt
 800801c:	f04f 33ff 	movlt.w	r3, #4294967295	; 0xffffffff
 8008020:	9305      	str	r3, [sp, #20]
 8008022:	f8df a0e4 	ldr.w	sl, [pc, #228]	; 8008108 <_vfiprintf_r+0x25c>
 8008026:	2203      	movs	r2, #3
 8008028:	4650      	mov	r0, sl
 800802a:	7821      	ldrb	r1, [r4, #0]
 800802c:	f7ff f8ca 	bl	80071c4 <memchr>
 8008030:	b140      	cbz	r0, 8008044 <_vfiprintf_r+0x198>
 8008032:	2340      	movs	r3, #64	; 0x40
 8008034:	eba0 000a 	sub.w	r0, r0, sl
 8008038:	fa03 f000 	lsl.w	r0, r3, r0
 800803c:	9b04      	ldr	r3, [sp, #16]
 800803e:	3401      	adds	r4, #1
 8008040:	4303      	orrs	r3, r0
 8008042:	9304      	str	r3, [sp, #16]
 8008044:	f814 1b01 	ldrb.w	r1, [r4], #1
 8008048:	2206      	movs	r2, #6
 800804a:	482c      	ldr	r0, [pc, #176]	; (80080fc <_vfiprintf_r+0x250>)
 800804c:	f88d 1028 	strb.w	r1, [sp, #40]	; 0x28
 8008050:	f7ff f8b8 	bl	80071c4 <memchr>
 8008054:	2800      	cmp	r0, #0
 8008056:	d03f      	beq.n	80080d8 <_vfiprintf_r+0x22c>
 8008058:	4b29      	ldr	r3, [pc, #164]	; (8008100 <_vfiprintf_r+0x254>)
 800805a:	bb1b      	cbnz	r3, 80080a4 <_vfiprintf_r+0x1f8>
 800805c:	9b03      	ldr	r3, [sp, #12]
 800805e:	3307      	adds	r3, #7
 8008060:	f023 0307 	bic.w	r3, r3, #7
 8008064:	3308      	adds	r3, #8
 8008066:	9303      	str	r3, [sp, #12]
 8008068:	9b09      	ldr	r3, [sp, #36]	; 0x24
 800806a:	443b      	add	r3, r7
 800806c:	9309      	str	r3, [sp, #36]	; 0x24
 800806e:	e767      	b.n	8007f40 <_vfiprintf_r+0x94>
 8008070:	460c      	mov	r4, r1
 8008072:	2001      	movs	r0, #1
 8008074:	fb0c 3202 	mla	r2, ip, r2, r3
 8008078:	e7a5      	b.n	8007fc6 <_vfiprintf_r+0x11a>
 800807a:	2300      	movs	r3, #0
 800807c:	f04f 0c0a 	mov.w	ip, #10
 8008080:	4619      	mov	r1, r3
 8008082:	3401      	adds	r4, #1
 8008084:	9305      	str	r3, [sp, #20]
 8008086:	4620      	mov	r0, r4
 8008088:	f810 2b01 	ldrb.w	r2, [r0], #1
 800808c:	3a30      	subs	r2, #48	; 0x30
 800808e:	2a09      	cmp	r2, #9
 8008090:	d903      	bls.n	800809a <_vfiprintf_r+0x1ee>
 8008092:	2b00      	cmp	r3, #0
 8008094:	d0c5      	beq.n	8008022 <_vfiprintf_r+0x176>
 8008096:	9105      	str	r1, [sp, #20]
 8008098:	e7c3      	b.n	8008022 <_vfiprintf_r+0x176>
 800809a:	4604      	mov	r4, r0
 800809c:	2301      	movs	r3, #1
 800809e:	fb0c 2101 	mla	r1, ip, r1, r2
 80080a2:	e7f0      	b.n	8008086 <_vfiprintf_r+0x1da>
 80080a4:	ab03      	add	r3, sp, #12
 80080a6:	9300      	str	r3, [sp, #0]
 80080a8:	462a      	mov	r2, r5
 80080aa:	4630      	mov	r0, r6
 80080ac:	4b15      	ldr	r3, [pc, #84]	; (8008104 <_vfiprintf_r+0x258>)
 80080ae:	a904      	add	r1, sp, #16
 80080b0:	f7fd fddc 	bl	8005c6c <_printf_float>
 80080b4:	4607      	mov	r7, r0
 80080b6:	1c78      	adds	r0, r7, #1
 80080b8:	d1d6      	bne.n	8008068 <_vfiprintf_r+0x1bc>
 80080ba:	6e6b      	ldr	r3, [r5, #100]	; 0x64
 80080bc:	07d9      	lsls	r1, r3, #31
 80080be:	d405      	bmi.n	80080cc <_vfiprintf_r+0x220>
 80080c0:	89ab      	ldrh	r3, [r5, #12]
 80080c2:	059a      	lsls	r2, r3, #22
 80080c4:	d402      	bmi.n	80080cc <_vfiprintf_r+0x220>
 80080c6:	6da8      	ldr	r0, [r5, #88]	; 0x58
 80080c8:	f000 faaf 	bl	800862a <__retarget_lock_release_recursive>
 80080cc:	89ab      	ldrh	r3, [r5, #12]
 80080ce:	065b      	lsls	r3, r3, #25
 80080d0:	f53f af12 	bmi.w	8007ef8 <_vfiprintf_r+0x4c>
 80080d4:	9809      	ldr	r0, [sp, #36]	; 0x24
 80080d6:	e711      	b.n	8007efc <_vfiprintf_r+0x50>
 80080d8:	ab03      	add	r3, sp, #12
 80080da:	9300      	str	r3, [sp, #0]
 80080dc:	462a      	mov	r2, r5
 80080de:	4630      	mov	r0, r6
 80080e0:	4b08      	ldr	r3, [pc, #32]	; (8008104 <_vfiprintf_r+0x258>)
 80080e2:	a904      	add	r1, sp, #16
 80080e4:	f7fe f85e 	bl	80061a4 <_printf_i>
 80080e8:	e7e4      	b.n	80080b4 <_vfiprintf_r+0x208>
 80080ea:	bf00      	nop
 80080ec:	08008eb4 	.word	0x08008eb4
 80080f0:	08008ed4 	.word	0x08008ed4
 80080f4:	08008e94 	.word	0x08008e94
 80080f8:	08008d3c 	.word	0x08008d3c
 80080fc:	08008d46 	.word	0x08008d46
 8008100:	08005c6d 	.word	0x08005c6d
 8008104:	08007e87 	.word	0x08007e87
 8008108:	08008d42 	.word	0x08008d42

0800810c <__swbuf_r>:
 800810c:	b5f8      	push	{r3, r4, r5, r6, r7, lr}
 800810e:	460e      	mov	r6, r1
 8008110:	4614      	mov	r4, r2
 8008112:	4605      	mov	r5, r0
 8008114:	b118      	cbz	r0, 800811e <__swbuf_r+0x12>
 8008116:	6983      	ldr	r3, [r0, #24]
 8008118:	b90b      	cbnz	r3, 800811e <__swbuf_r+0x12>
 800811a:	f000 f9e7 	bl	80084ec <__sinit>
 800811e:	4b21      	ldr	r3, [pc, #132]	; (80081a4 <__swbuf_r+0x98>)
 8008120:	429c      	cmp	r4, r3
 8008122:	d12b      	bne.n	800817c <__swbuf_r+0x70>
 8008124:	686c      	ldr	r4, [r5, #4]
 8008126:	69a3      	ldr	r3, [r4, #24]
 8008128:	60a3      	str	r3, [r4, #8]
 800812a:	89a3      	ldrh	r3, [r4, #12]
 800812c:	071a      	lsls	r2, r3, #28
 800812e:	d52f      	bpl.n	8008190 <__swbuf_r+0x84>
 8008130:	6923      	ldr	r3, [r4, #16]
 8008132:	b36b      	cbz	r3, 8008190 <__swbuf_r+0x84>
 8008134:	6923      	ldr	r3, [r4, #16]
 8008136:	6820      	ldr	r0, [r4, #0]
 8008138:	b2f6      	uxtb	r6, r6
 800813a:	1ac0      	subs	r0, r0, r3
 800813c:	6963      	ldr	r3, [r4, #20]
 800813e:	4637      	mov	r7, r6
 8008140:	4283      	cmp	r3, r0
 8008142:	dc04      	bgt.n	800814e <__swbuf_r+0x42>
 8008144:	4621      	mov	r1, r4
 8008146:	4628      	mov	r0, r5
 8008148:	f000 f93c 	bl	80083c4 <_fflush_r>
 800814c:	bb30      	cbnz	r0, 800819c <__swbuf_r+0x90>
 800814e:	68a3      	ldr	r3, [r4, #8]
 8008150:	3001      	adds	r0, #1
 8008152:	3b01      	subs	r3, #1
 8008154:	60a3      	str	r3, [r4, #8]
 8008156:	6823      	ldr	r3, [r4, #0]
 8008158:	1c5a      	adds	r2, r3, #1
 800815a:	6022      	str	r2, [r4, #0]
 800815c:	701e      	strb	r6, [r3, #0]
 800815e:	6963      	ldr	r3, [r4, #20]
 8008160:	4283      	cmp	r3, r0
 8008162:	d004      	beq.n	800816e <__swbuf_r+0x62>
 8008164:	89a3      	ldrh	r3, [r4, #12]
 8008166:	07db      	lsls	r3, r3, #31
 8008168:	d506      	bpl.n	8008178 <__swbuf_r+0x6c>
 800816a:	2e0a      	cmp	r6, #10
 800816c:	d104      	bne.n	8008178 <__swbuf_r+0x6c>
 800816e:	4621      	mov	r1, r4
 8008170:	4628      	mov	r0, r5
 8008172:	f000 f927 	bl	80083c4 <_fflush_r>
 8008176:	b988      	cbnz	r0, 800819c <__swbuf_r+0x90>
 8008178:	4638      	mov	r0, r7
 800817a:	bdf8      	pop	{r3, r4, r5, r6, r7, pc}
 800817c:	4b0a      	ldr	r3, [pc, #40]	; (80081a8 <__swbuf_r+0x9c>)
 800817e:	429c      	cmp	r4, r3
 8008180:	d101      	bne.n	8008186 <__swbuf_r+0x7a>
 8008182:	68ac      	ldr	r4, [r5, #8]
 8008184:	e7cf      	b.n	8008126 <__swbuf_r+0x1a>
 8008186:	4b09      	ldr	r3, [pc, #36]	; (80081ac <__swbuf_r+0xa0>)
 8008188:	429c      	cmp	r4, r3
 800818a:	bf08      	it	eq
 800818c:	68ec      	ldreq	r4, [r5, #12]
 800818e:	e7ca      	b.n	8008126 <__swbuf_r+0x1a>
 8008190:	4621      	mov	r1, r4
 8008192:	4628      	mov	r0, r5
 8008194:	f000 f81a 	bl	80081cc <__swsetup_r>
 8008198:	2800      	cmp	r0, #0
 800819a:	d0cb      	beq.n	8008134 <__swbuf_r+0x28>
 800819c:	f04f 37ff 	mov.w	r7, #4294967295	; 0xffffffff
 80081a0:	e7ea      	b.n	8008178 <__swbuf_r+0x6c>
 80081a2:	bf00      	nop
 80081a4:	08008eb4 	.word	0x08008eb4
 80081a8:	08008ed4 	.word	0x08008ed4
 80081ac:	08008e94 	.word	0x08008e94

080081b0 <__ascii_wctomb>:
 80081b0:	4603      	mov	r3, r0
 80081b2:	4608      	mov	r0, r1
 80081b4:	b141      	cbz	r1, 80081c8 <__ascii_wctomb+0x18>
 80081b6:	2aff      	cmp	r2, #255	; 0xff
 80081b8:	d904      	bls.n	80081c4 <__ascii_wctomb+0x14>
 80081ba:	228a      	movs	r2, #138	; 0x8a
 80081bc:	f04f 30ff 	mov.w	r0, #4294967295	; 0xffffffff
 80081c0:	601a      	str	r2, [r3, #0]
 80081c2:	4770      	bx	lr
 80081c4:	2001      	movs	r0, #1
 80081c6:	700a      	strb	r2, [r1, #0]
 80081c8:	4770      	bx	lr
	...

080081cc <__swsetup_r>:
 80081cc:	4b32      	ldr	r3, [pc, #200]	; (8008298 <__swsetup_r+0xcc>)
 80081ce:	b570      	push	{r4, r5, r6, lr}
 80081d0:	681d      	ldr	r5, [r3, #0]
 80081d2:	4606      	mov	r6, r0
 80081d4:	460c      	mov	r4, r1
 80081d6:	b125      	cbz	r5, 80081e2 <__swsetup_r+0x16>
 80081d8:	69ab      	ldr	r3, [r5, #24]
 80081da:	b913      	cbnz	r3, 80081e2 <__swsetup_r+0x16>
 80081dc:	4628      	mov	r0, r5
 80081de:	f000 f985 	bl	80084ec <__sinit>
 80081e2:	4b2e      	ldr	r3, [pc, #184]	; (800829c <__swsetup_r+0xd0>)
 80081e4:	429c      	cmp	r4, r3
 80081e6:	d10f      	bne.n	8008208 <__swsetup_r+0x3c>
 80081e8:	686c      	ldr	r4, [r5, #4]
 80081ea:	89a3      	ldrh	r3, [r4, #12]
 80081ec:	f9b4 200c 	ldrsh.w	r2, [r4, #12]
 80081f0:	0719      	lsls	r1, r3, #28
 80081f2:	d42c      	bmi.n	800824e <__swsetup_r+0x82>
 80081f4:	06dd      	lsls	r5, r3, #27
 80081f6:	d411      	bmi.n	800821c <__swsetup_r+0x50>
 80081f8:	2309      	movs	r3, #9
 80081fa:	6033      	str	r3, [r6, #0]
 80081fc:	f042 0340 	orr.w	r3, r2, #64	; 0x40
 8008200:	f04f 30ff 	mov.w	r0, #4294967295	; 0xffffffff
 8008204:	81a3      	strh	r3, [r4, #12]
 8008206:	e03e      	b.n	8008286 <__swsetup_r+0xba>
 8008208:	4b25      	ldr	r3, [pc, #148]	; (80082a0 <__swsetup_r+0xd4>)
 800820a:	429c      	cmp	r4, r3
 800820c:	d101      	bne.n	8008212 <__swsetup_r+0x46>
 800820e:	68ac      	ldr	r4, [r5, #8]
 8008210:	e7eb      	b.n	80081ea <__swsetup_r+0x1e>
 8008212:	4b24      	ldr	r3, [pc, #144]	; (80082a4 <__swsetup_r+0xd8>)
 8008214:	429c      	cmp	r4, r3
 8008216:	bf08      	it	eq
 8008218:	68ec      	ldreq	r4, [r5, #12]
 800821a:	e7e6      	b.n	80081ea <__swsetup_r+0x1e>
 800821c:	0758      	lsls	r0, r3, #29
 800821e:	d512      	bpl.n	8008246 <__swsetup_r+0x7a>
 8008220:	6b61      	ldr	r1, [r4, #52]	; 0x34
 8008222:	b141      	cbz	r1, 8008236 <__swsetup_r+0x6a>
 8008224:	f104 0344 	add.w	r3, r4, #68	; 0x44
 8008228:	4299      	cmp	r1, r3
 800822a:	d002      	beq.n	8008232 <__swsetup_r+0x66>
 800822c:	4630      	mov	r0, r6
 800822e:	f7ff fb75 	bl	800791c <_free_r>
 8008232:	2300      	movs	r3, #0
 8008234:	6363      	str	r3, [r4, #52]	; 0x34
 8008236:	89a3      	ldrh	r3, [r4, #12]
 8008238:	f023 0324 	bic.w	r3, r3, #36	; 0x24
 800823c:	81a3      	strh	r3, [r4, #12]
 800823e:	2300      	movs	r3, #0
 8008240:	6063      	str	r3, [r4, #4]
 8008242:	6923      	ldr	r3, [r4, #16]
 8008244:	6023      	str	r3, [r4, #0]
 8008246:	89a3      	ldrh	r3, [r4, #12]
 8008248:	f043 0308 	orr.w	r3, r3, #8
 800824c:	81a3      	strh	r3, [r4, #12]
 800824e:	6923      	ldr	r3, [r4, #16]
 8008250:	b94b      	cbnz	r3, 8008266 <__swsetup_r+0x9a>
 8008252:	89a3      	ldrh	r3, [r4, #12]
 8008254:	f403 7320 	and.w	r3, r3, #640	; 0x280
 8008258:	f5b3 7f00 	cmp.w	r3, #512	; 0x200
 800825c:	d003      	beq.n	8008266 <__swsetup_r+0x9a>
 800825e:	4621      	mov	r1, r4
 8008260:	4630      	mov	r0, r6
 8008262:	f000 fa07 	bl	8008674 <__smakebuf_r>
 8008266:	89a0      	ldrh	r0, [r4, #12]
 8008268:	f9b4 200c 	ldrsh.w	r2, [r4, #12]
 800826c:	f010 0301 	ands.w	r3, r0, #1
 8008270:	d00a      	beq.n	8008288 <__swsetup_r+0xbc>
 8008272:	2300      	movs	r3, #0
 8008274:	60a3      	str	r3, [r4, #8]
 8008276:	6963      	ldr	r3, [r4, #20]
 8008278:	425b      	negs	r3, r3
 800827a:	61a3      	str	r3, [r4, #24]
 800827c:	6923      	ldr	r3, [r4, #16]
 800827e:	b943      	cbnz	r3, 8008292 <__swsetup_r+0xc6>
 8008280:	f010 0080 	ands.w	r0, r0, #128	; 0x80
 8008284:	d1ba      	bne.n	80081fc <__swsetup_r+0x30>
 8008286:	bd70      	pop	{r4, r5, r6, pc}
 8008288:	0781      	lsls	r1, r0, #30
 800828a:	bf58      	it	pl
 800828c:	6963      	ldrpl	r3, [r4, #20]
 800828e:	60a3      	str	r3, [r4, #8]
 8008290:	e7f4      	b.n	800827c <__swsetup_r+0xb0>
 8008292:	2000      	movs	r0, #0
 8008294:	e7f7      	b.n	8008286 <__swsetup_r+0xba>
 8008296:	bf00      	nop
 8008298:	2000005c 	.word	0x2000005c
 800829c:	08008eb4 	.word	0x08008eb4
 80082a0:	08008ed4 	.word	0x08008ed4
 80082a4:	08008e94 	.word	0x08008e94

080082a8 <abort>:
 80082a8:	2006      	movs	r0, #6
 80082aa:	b508      	push	{r3, lr}
 80082ac:	f000 fa52 	bl	8008754 <raise>
 80082b0:	2001      	movs	r0, #1
 80082b2:	f7fa fcab 	bl	8002c0c <_exit>
	...

080082b8 <__sflush_r>:
 80082b8:	898a      	ldrh	r2, [r1, #12]
 80082ba:	e92d 41f0 	stmdb	sp!, {r4, r5, r6, r7, r8, lr}
 80082be:	4605      	mov	r5, r0
 80082c0:	0710      	lsls	r0, r2, #28
 80082c2:	460c      	mov	r4, r1
 80082c4:	d458      	bmi.n	8008378 <__sflush_r+0xc0>
 80082c6:	684b      	ldr	r3, [r1, #4]
 80082c8:	2b00      	cmp	r3, #0
 80082ca:	dc05      	bgt.n	80082d8 <__sflush_r+0x20>
 80082cc:	6c0b      	ldr	r3, [r1, #64]	; 0x40
 80082ce:	2b00      	cmp	r3, #0
 80082d0:	dc02      	bgt.n	80082d8 <__sflush_r+0x20>
 80082d2:	2000      	movs	r0, #0
 80082d4:	e8bd 81f0 	ldmia.w	sp!, {r4, r5, r6, r7, r8, pc}
 80082d8:	6ae6      	ldr	r6, [r4, #44]	; 0x2c
 80082da:	2e00      	cmp	r6, #0
 80082dc:	d0f9      	beq.n	80082d2 <__sflush_r+0x1a>
 80082de:	2300      	movs	r3, #0
 80082e0:	f412 5280 	ands.w	r2, r2, #4096	; 0x1000
 80082e4:	682f      	ldr	r7, [r5, #0]
 80082e6:	602b      	str	r3, [r5, #0]
 80082e8:	d032      	beq.n	8008350 <__sflush_r+0x98>
 80082ea:	6d60      	ldr	r0, [r4, #84]	; 0x54
 80082ec:	89a3      	ldrh	r3, [r4, #12]
 80082ee:	075a      	lsls	r2, r3, #29
 80082f0:	d505      	bpl.n	80082fe <__sflush_r+0x46>
 80082f2:	6863      	ldr	r3, [r4, #4]
 80082f4:	1ac0      	subs	r0, r0, r3
 80082f6:	6b63      	ldr	r3, [r4, #52]	; 0x34
 80082f8:	b10b      	cbz	r3, 80082fe <__sflush_r+0x46>
 80082fa:	6c23      	ldr	r3, [r4, #64]	; 0x40
 80082fc:	1ac0      	subs	r0, r0, r3
 80082fe:	2300      	movs	r3, #0
 8008300:	4602      	mov	r2, r0
 8008302:	6ae6      	ldr	r6, [r4, #44]	; 0x2c
 8008304:	4628      	mov	r0, r5
 8008306:	6a21      	ldr	r1, [r4, #32]
 8008308:	47b0      	blx	r6
 800830a:	1c43      	adds	r3, r0, #1
 800830c:	89a3      	ldrh	r3, [r4, #12]
 800830e:	d106      	bne.n	800831e <__sflush_r+0x66>
 8008310:	6829      	ldr	r1, [r5, #0]
 8008312:	291d      	cmp	r1, #29
 8008314:	d82c      	bhi.n	8008370 <__sflush_r+0xb8>
 8008316:	4a2a      	ldr	r2, [pc, #168]	; (80083c0 <__sflush_r+0x108>)
 8008318:	40ca      	lsrs	r2, r1
 800831a:	07d6      	lsls	r6, r2, #31
 800831c:	d528      	bpl.n	8008370 <__sflush_r+0xb8>
 800831e:	2200      	movs	r2, #0
 8008320:	6062      	str	r2, [r4, #4]
 8008322:	6922      	ldr	r2, [r4, #16]
 8008324:	04d9      	lsls	r1, r3, #19
 8008326:	6022      	str	r2, [r4, #0]
 8008328:	d504      	bpl.n	8008334 <__sflush_r+0x7c>
 800832a:	1c42      	adds	r2, r0, #1
 800832c:	d101      	bne.n	8008332 <__sflush_r+0x7a>
 800832e:	682b      	ldr	r3, [r5, #0]
 8008330:	b903      	cbnz	r3, 8008334 <__sflush_r+0x7c>
 8008332:	6560      	str	r0, [r4, #84]	; 0x54
 8008334:	6b61      	ldr	r1, [r4, #52]	; 0x34
 8008336:	602f      	str	r7, [r5, #0]
 8008338:	2900      	cmp	r1, #0
 800833a:	d0ca      	beq.n	80082d2 <__sflush_r+0x1a>
 800833c:	f104 0344 	add.w	r3, r4, #68	; 0x44
 8008340:	4299      	cmp	r1, r3
 8008342:	d002      	beq.n	800834a <__sflush_r+0x92>
 8008344:	4628      	mov	r0, r5
 8008346:	f7ff fae9 	bl	800791c <_free_r>
 800834a:	2000      	movs	r0, #0
 800834c:	6360      	str	r0, [r4, #52]	; 0x34
 800834e:	e7c1      	b.n	80082d4 <__sflush_r+0x1c>
 8008350:	6a21      	ldr	r1, [r4, #32]
 8008352:	2301      	movs	r3, #1
 8008354:	4628      	mov	r0, r5
 8008356:	47b0      	blx	r6
 8008358:	1c41      	adds	r1, r0, #1
 800835a:	d1c7      	bne.n	80082ec <__sflush_r+0x34>
 800835c:	682b      	ldr	r3, [r5, #0]
 800835e:	2b00      	cmp	r3, #0
 8008360:	d0c4      	beq.n	80082ec <__sflush_r+0x34>
 8008362:	2b1d      	cmp	r3, #29
 8008364:	d001      	beq.n	800836a <__sflush_r+0xb2>
 8008366:	2b16      	cmp	r3, #22
 8008368:	d101      	bne.n	800836e <__sflush_r+0xb6>
 800836a:	602f      	str	r7, [r5, #0]
 800836c:	e7b1      	b.n	80082d2 <__sflush_r+0x1a>
 800836e:	89a3      	ldrh	r3, [r4, #12]
 8008370:	f043 0340 	orr.w	r3, r3, #64	; 0x40
 8008374:	81a3      	strh	r3, [r4, #12]
 8008376:	e7ad      	b.n	80082d4 <__sflush_r+0x1c>
 8008378:	690f      	ldr	r7, [r1, #16]
 800837a:	2f00      	cmp	r7, #0
 800837c:	d0a9      	beq.n	80082d2 <__sflush_r+0x1a>
 800837e:	0793      	lsls	r3, r2, #30
 8008380:	bf18      	it	ne
 8008382:	2300      	movne	r3, #0
 8008384:	680e      	ldr	r6, [r1, #0]
 8008386:	bf08      	it	eq
 8008388:	694b      	ldreq	r3, [r1, #20]
 800838a:	eba6 0807 	sub.w	r8, r6, r7
 800838e:	600f      	str	r7, [r1, #0]
 8008390:	608b      	str	r3, [r1, #8]
 8008392:	f1b8 0f00 	cmp.w	r8, #0
 8008396:	dd9c      	ble.n	80082d2 <__sflush_r+0x1a>
 8008398:	4643      	mov	r3, r8
 800839a:	463a      	mov	r2, r7
 800839c:	4628      	mov	r0, r5
 800839e:	6a21      	ldr	r1, [r4, #32]
 80083a0:	6aa6      	ldr	r6, [r4, #40]	; 0x28
 80083a2:	47b0      	blx	r6
 80083a4:	2800      	cmp	r0, #0
 80083a6:	dc06      	bgt.n	80083b6 <__sflush_r+0xfe>
 80083a8:	89a3      	ldrh	r3, [r4, #12]
 80083aa:	f04f 30ff 	mov.w	r0, #4294967295	; 0xffffffff
 80083ae:	f043 0340 	orr.w	r3, r3, #64	; 0x40
 80083b2:	81a3      	strh	r3, [r4, #12]
 80083b4:	e78e      	b.n	80082d4 <__sflush_r+0x1c>
 80083b6:	4407      	add	r7, r0
 80083b8:	eba8 0800 	sub.w	r8, r8, r0
 80083bc:	e7e9      	b.n	8008392 <__sflush_r+0xda>
 80083be:	bf00      	nop
 80083c0:	20400001 	.word	0x20400001

080083c4 <_fflush_r>:
 80083c4:	b538      	push	{r3, r4, r5, lr}
 80083c6:	690b      	ldr	r3, [r1, #16]
 80083c8:	4605      	mov	r5, r0
 80083ca:	460c      	mov	r4, r1
 80083cc:	b913      	cbnz	r3, 80083d4 <_fflush_r+0x10>
 80083ce:	2500      	movs	r5, #0
 80083d0:	4628      	mov	r0, r5
 80083d2:	bd38      	pop	{r3, r4, r5, pc}
 80083d4:	b118      	cbz	r0, 80083de <_fflush_r+0x1a>
 80083d6:	6983      	ldr	r3, [r0, #24]
 80083d8:	b90b      	cbnz	r3, 80083de <_fflush_r+0x1a>
 80083da:	f000 f887 	bl	80084ec <__sinit>
 80083de:	4b14      	ldr	r3, [pc, #80]	; (8008430 <_fflush_r+0x6c>)
 80083e0:	429c      	cmp	r4, r3
 80083e2:	d11b      	bne.n	800841c <_fflush_r+0x58>
 80083e4:	686c      	ldr	r4, [r5, #4]
 80083e6:	f9b4 300c 	ldrsh.w	r3, [r4, #12]
 80083ea:	2b00      	cmp	r3, #0
 80083ec:	d0ef      	beq.n	80083ce <_fflush_r+0xa>
 80083ee:	6e62      	ldr	r2, [r4, #100]	; 0x64
 80083f0:	07d0      	lsls	r0, r2, #31
 80083f2:	d404      	bmi.n	80083fe <_fflush_r+0x3a>
 80083f4:	0599      	lsls	r1, r3, #22
 80083f6:	d402      	bmi.n	80083fe <_fflush_r+0x3a>
 80083f8:	6da0      	ldr	r0, [r4, #88]	; 0x58
 80083fa:	f000 f915 	bl	8008628 <__retarget_lock_acquire_recursive>
 80083fe:	4628      	mov	r0, r5
 8008400:	4621      	mov	r1, r4
 8008402:	f7ff ff59 	bl	80082b8 <__sflush_r>
 8008406:	6e63      	ldr	r3, [r4, #100]	; 0x64
 8008408:	4605      	mov	r5, r0
 800840a:	07da      	lsls	r2, r3, #31
 800840c:	d4e0      	bmi.n	80083d0 <_fflush_r+0xc>
 800840e:	89a3      	ldrh	r3, [r4, #12]
 8008410:	059b      	lsls	r3, r3, #22
 8008412:	d4dd      	bmi.n	80083d0 <_fflush_r+0xc>
 8008414:	6da0      	ldr	r0, [r4, #88]	; 0x58
 8008416:	f000 f908 	bl	800862a <__retarget_lock_release_recursive>
 800841a:	e7d9      	b.n	80083d0 <_fflush_r+0xc>
 800841c:	4b05      	ldr	r3, [pc, #20]	; (8008434 <_fflush_r+0x70>)
 800841e:	429c      	cmp	r4, r3
 8008420:	d101      	bne.n	8008426 <_fflush_r+0x62>
 8008422:	68ac      	ldr	r4, [r5, #8]
 8008424:	e7df      	b.n	80083e6 <_fflush_r+0x22>
 8008426:	4b04      	ldr	r3, [pc, #16]	; (8008438 <_fflush_r+0x74>)
 8008428:	429c      	cmp	r4, r3
 800842a:	bf08      	it	eq
 800842c:	68ec      	ldreq	r4, [r5, #12]
 800842e:	e7da      	b.n	80083e6 <_fflush_r+0x22>
 8008430:	08008eb4 	.word	0x08008eb4
 8008434:	08008ed4 	.word	0x08008ed4
 8008438:	08008e94 	.word	0x08008e94

0800843c <std>:
 800843c:	2300      	movs	r3, #0
 800843e:	b510      	push	{r4, lr}
 8008440:	4604      	mov	r4, r0
 8008442:	e9c0 3300 	strd	r3, r3, [r0]
 8008446:	e9c0 3304 	strd	r3, r3, [r0, #16]
 800844a:	6083      	str	r3, [r0, #8]
 800844c:	8181      	strh	r1, [r0, #12]
 800844e:	6643      	str	r3, [r0, #100]	; 0x64
 8008450:	81c2      	strh	r2, [r0, #14]
 8008452:	6183      	str	r3, [r0, #24]
 8008454:	4619      	mov	r1, r3
 8008456:	2208      	movs	r2, #8
 8008458:	305c      	adds	r0, #92	; 0x5c
 800845a:	f7fd fb61 	bl	8005b20 <memset>
 800845e:	4b05      	ldr	r3, [pc, #20]	; (8008474 <std+0x38>)
 8008460:	6224      	str	r4, [r4, #32]
 8008462:	6263      	str	r3, [r4, #36]	; 0x24
 8008464:	4b04      	ldr	r3, [pc, #16]	; (8008478 <std+0x3c>)
 8008466:	62a3      	str	r3, [r4, #40]	; 0x28
 8008468:	4b04      	ldr	r3, [pc, #16]	; (800847c <std+0x40>)
 800846a:	62e3      	str	r3, [r4, #44]	; 0x2c
 800846c:	4b04      	ldr	r3, [pc, #16]	; (8008480 <std+0x44>)
 800846e:	6323      	str	r3, [r4, #48]	; 0x30
 8008470:	bd10      	pop	{r4, pc}
 8008472:	bf00      	nop
 8008474:	0800878d 	.word	0x0800878d
 8008478:	080087af 	.word	0x080087af
 800847c:	080087e7 	.word	0x080087e7
 8008480:	0800880b 	.word	0x0800880b

08008484 <_cleanup_r>:
 8008484:	4901      	ldr	r1, [pc, #4]	; (800848c <_cleanup_r+0x8>)
 8008486:	f000 b8af 	b.w	80085e8 <_fwalk_reent>
 800848a:	bf00      	nop
 800848c:	080083c5 	.word	0x080083c5

08008490 <__sfmoreglue>:
 8008490:	b570      	push	{r4, r5, r6, lr}
 8008492:	2568      	movs	r5, #104	; 0x68
 8008494:	1e4a      	subs	r2, r1, #1
 8008496:	4355      	muls	r5, r2
 8008498:	460e      	mov	r6, r1
 800849a:	f105 0174 	add.w	r1, r5, #116	; 0x74
 800849e:	f7ff fa89 	bl	80079b4 <_malloc_r>
 80084a2:	4604      	mov	r4, r0
 80084a4:	b140      	cbz	r0, 80084b8 <__sfmoreglue+0x28>
 80084a6:	2100      	movs	r1, #0
 80084a8:	e9c0 1600 	strd	r1, r6, [r0]
 80084ac:	300c      	adds	r0, #12
 80084ae:	60a0      	str	r0, [r4, #8]
 80084b0:	f105 0268 	add.w	r2, r5, #104	; 0x68
 80084b4:	f7fd fb34 	bl	8005b20 <memset>
 80084b8:	4620      	mov	r0, r4
 80084ba:	bd70      	pop	{r4, r5, r6, pc}

080084bc <__sfp_lock_acquire>:
 80084bc:	4801      	ldr	r0, [pc, #4]	; (80084c4 <__sfp_lock_acquire+0x8>)
 80084be:	f000 b8b3 	b.w	8008628 <__retarget_lock_acquire_recursive>
 80084c2:	bf00      	nop
 80084c4:	200005f0 	.word	0x200005f0

080084c8 <__sfp_lock_release>:
 80084c8:	4801      	ldr	r0, [pc, #4]	; (80084d0 <__sfp_lock_release+0x8>)
 80084ca:	f000 b8ae 	b.w	800862a <__retarget_lock_release_recursive>
 80084ce:	bf00      	nop
 80084d0:	200005f0 	.word	0x200005f0

080084d4 <__sinit_lock_acquire>:
 80084d4:	4801      	ldr	r0, [pc, #4]	; (80084dc <__sinit_lock_acquire+0x8>)
 80084d6:	f000 b8a7 	b.w	8008628 <__retarget_lock_acquire_recursive>
 80084da:	bf00      	nop
 80084dc:	200005eb 	.word	0x200005eb

080084e0 <__sinit_lock_release>:
 80084e0:	4801      	ldr	r0, [pc, #4]	; (80084e8 <__sinit_lock_release+0x8>)
 80084e2:	f000 b8a2 	b.w	800862a <__retarget_lock_release_recursive>
 80084e6:	bf00      	nop
 80084e8:	200005eb 	.word	0x200005eb

080084ec <__sinit>:
 80084ec:	b510      	push	{r4, lr}
 80084ee:	4604      	mov	r4, r0
 80084f0:	f7ff fff0 	bl	80084d4 <__sinit_lock_acquire>
 80084f4:	69a3      	ldr	r3, [r4, #24]
 80084f6:	b11b      	cbz	r3, 8008500 <__sinit+0x14>
 80084f8:	e8bd 4010 	ldmia.w	sp!, {r4, lr}
 80084fc:	f7ff bff0 	b.w	80084e0 <__sinit_lock_release>
 8008500:	e9c4 3312 	strd	r3, r3, [r4, #72]	; 0x48
 8008504:	6523      	str	r3, [r4, #80]	; 0x50
 8008506:	4b13      	ldr	r3, [pc, #76]	; (8008554 <__sinit+0x68>)
 8008508:	4a13      	ldr	r2, [pc, #76]	; (8008558 <__sinit+0x6c>)
 800850a:	681b      	ldr	r3, [r3, #0]
 800850c:	62a2      	str	r2, [r4, #40]	; 0x28
 800850e:	42a3      	cmp	r3, r4
 8008510:	bf08      	it	eq
 8008512:	2301      	moveq	r3, #1
 8008514:	4620      	mov	r0, r4
 8008516:	bf08      	it	eq
 8008518:	61a3      	streq	r3, [r4, #24]
 800851a:	f000 f81f 	bl	800855c <__sfp>
 800851e:	6060      	str	r0, [r4, #4]
 8008520:	4620      	mov	r0, r4
 8008522:	f000 f81b 	bl	800855c <__sfp>
 8008526:	60a0      	str	r0, [r4, #8]
 8008528:	4620      	mov	r0, r4
 800852a:	f000 f817 	bl	800855c <__sfp>
 800852e:	2200      	movs	r2, #0
 8008530:	2104      	movs	r1, #4
 8008532:	60e0      	str	r0, [r4, #12]
 8008534:	6860      	ldr	r0, [r4, #4]
 8008536:	f7ff ff81 	bl	800843c <std>
 800853a:	2201      	movs	r2, #1
 800853c:	2109      	movs	r1, #9
 800853e:	68a0      	ldr	r0, [r4, #8]
 8008540:	f7ff ff7c 	bl	800843c <std>
 8008544:	2202      	movs	r2, #2
 8008546:	2112      	movs	r1, #18
 8008548:	68e0      	ldr	r0, [r4, #12]
 800854a:	f7ff ff77 	bl	800843c <std>
 800854e:	2301      	movs	r3, #1
 8008550:	61a3      	str	r3, [r4, #24]
 8008552:	e7d1      	b.n	80084f8 <__sinit+0xc>
 8008554:	08008b14 	.word	0x08008b14
 8008558:	08008485 	.word	0x08008485

0800855c <__sfp>:
 800855c:	b5f8      	push	{r3, r4, r5, r6, r7, lr}
 800855e:	4607      	mov	r7, r0
 8008560:	f7ff ffac 	bl	80084bc <__sfp_lock_acquire>
 8008564:	4b1e      	ldr	r3, [pc, #120]	; (80085e0 <__sfp+0x84>)
 8008566:	681e      	ldr	r6, [r3, #0]
 8008568:	69b3      	ldr	r3, [r6, #24]
 800856a:	b913      	cbnz	r3, 8008572 <__sfp+0x16>
 800856c:	4630      	mov	r0, r6
 800856e:	f7ff ffbd 	bl	80084ec <__sinit>
 8008572:	3648      	adds	r6, #72	; 0x48
 8008574:	e9d6 3401 	ldrd	r3, r4, [r6, #4]
 8008578:	3b01      	subs	r3, #1
 800857a:	d503      	bpl.n	8008584 <__sfp+0x28>
 800857c:	6833      	ldr	r3, [r6, #0]
 800857e:	b30b      	cbz	r3, 80085c4 <__sfp+0x68>
 8008580:	6836      	ldr	r6, [r6, #0]
 8008582:	e7f7      	b.n	8008574 <__sfp+0x18>
 8008584:	f9b4 500c 	ldrsh.w	r5, [r4, #12]
 8008588:	b9d5      	cbnz	r5, 80085c0 <__sfp+0x64>
 800858a:	4b16      	ldr	r3, [pc, #88]	; (80085e4 <__sfp+0x88>)
 800858c:	f104 0058 	add.w	r0, r4, #88	; 0x58
 8008590:	60e3      	str	r3, [r4, #12]
 8008592:	6665      	str	r5, [r4, #100]	; 0x64
 8008594:	f000 f847 	bl	8008626 <__retarget_lock_init_recursive>
 8008598:	f7ff ff96 	bl	80084c8 <__sfp_lock_release>
 800859c:	2208      	movs	r2, #8
 800859e:	4629      	mov	r1, r5
 80085a0:	e9c4 5501 	strd	r5, r5, [r4, #4]
 80085a4:	e9c4 5504 	strd	r5, r5, [r4, #16]
 80085a8:	6025      	str	r5, [r4, #0]
 80085aa:	61a5      	str	r5, [r4, #24]
 80085ac:	f104 005c 	add.w	r0, r4, #92	; 0x5c
 80085b0:	f7fd fab6 	bl	8005b20 <memset>
 80085b4:	e9c4 550d 	strd	r5, r5, [r4, #52]	; 0x34
 80085b8:	e9c4 5512 	strd	r5, r5, [r4, #72]	; 0x48
 80085bc:	4620      	mov	r0, r4
 80085be:	bdf8      	pop	{r3, r4, r5, r6, r7, pc}
 80085c0:	3468      	adds	r4, #104	; 0x68
 80085c2:	e7d9      	b.n	8008578 <__sfp+0x1c>
 80085c4:	2104      	movs	r1, #4
 80085c6:	4638      	mov	r0, r7
 80085c8:	f7ff ff62 	bl	8008490 <__sfmoreglue>
 80085cc:	4604      	mov	r4, r0
 80085ce:	6030      	str	r0, [r6, #0]
 80085d0:	2800      	cmp	r0, #0
 80085d2:	d1d5      	bne.n	8008580 <__sfp+0x24>
 80085d4:	f7ff ff78 	bl	80084c8 <__sfp_lock_release>
 80085d8:	230c      	movs	r3, #12
 80085da:	603b      	str	r3, [r7, #0]
 80085dc:	e7ee      	b.n	80085bc <__sfp+0x60>
 80085de:	bf00      	nop
 80085e0:	08008b14 	.word	0x08008b14
 80085e4:	ffff0001 	.word	0xffff0001

080085e8 <_fwalk_reent>:
 80085e8:	e92d 43f8 	stmdb	sp!, {r3, r4, r5, r6, r7, r8, r9, lr}
 80085ec:	4606      	mov	r6, r0
 80085ee:	4688      	mov	r8, r1
 80085f0:	2700      	movs	r7, #0
 80085f2:	f100 0448 	add.w	r4, r0, #72	; 0x48
 80085f6:	e9d4 9501 	ldrd	r9, r5, [r4, #4]
 80085fa:	f1b9 0901 	subs.w	r9, r9, #1
 80085fe:	d505      	bpl.n	800860c <_fwalk_reent+0x24>
 8008600:	6824      	ldr	r4, [r4, #0]
 8008602:	2c00      	cmp	r4, #0
 8008604:	d1f7      	bne.n	80085f6 <_fwalk_reent+0xe>
 8008606:	4638      	mov	r0, r7
 8008608:	e8bd 83f8 	ldmia.w	sp!, {r3, r4, r5, r6, r7, r8, r9, pc}
 800860c:	89ab      	ldrh	r3, [r5, #12]
 800860e:	2b01      	cmp	r3, #1
 8008610:	d907      	bls.n	8008622 <_fwalk_reent+0x3a>
 8008612:	f9b5 300e 	ldrsh.w	r3, [r5, #14]
 8008616:	3301      	adds	r3, #1
 8008618:	d003      	beq.n	8008622 <_fwalk_reent+0x3a>
 800861a:	4629      	mov	r1, r5
 800861c:	4630      	mov	r0, r6
 800861e:	47c0      	blx	r8
 8008620:	4307      	orrs	r7, r0
 8008622:	3568      	adds	r5, #104	; 0x68
 8008624:	e7e9      	b.n	80085fa <_fwalk_reent+0x12>

08008626 <__retarget_lock_init_recursive>:
 8008626:	4770      	bx	lr

08008628 <__retarget_lock_acquire_recursive>:
 8008628:	4770      	bx	lr

0800862a <__retarget_lock_release_recursive>:
 800862a:	4770      	bx	lr

0800862c <__swhatbuf_r>:
 800862c:	b570      	push	{r4, r5, r6, lr}
 800862e:	460e      	mov	r6, r1
 8008630:	f9b1 100e 	ldrsh.w	r1, [r1, #14]
 8008634:	4614      	mov	r4, r2
 8008636:	2900      	cmp	r1, #0
 8008638:	461d      	mov	r5, r3
 800863a:	b096      	sub	sp, #88	; 0x58
 800863c:	da07      	bge.n	800864e <__swhatbuf_r+0x22>
 800863e:	2300      	movs	r3, #0
 8008640:	602b      	str	r3, [r5, #0]
 8008642:	89b3      	ldrh	r3, [r6, #12]
 8008644:	061a      	lsls	r2, r3, #24
 8008646:	d410      	bmi.n	800866a <__swhatbuf_r+0x3e>
 8008648:	f44f 6380 	mov.w	r3, #1024	; 0x400
 800864c:	e00e      	b.n	800866c <__swhatbuf_r+0x40>
 800864e:	466a      	mov	r2, sp
 8008650:	f000 f902 	bl	8008858 <_fstat_r>
 8008654:	2800      	cmp	r0, #0
 8008656:	dbf2      	blt.n	800863e <__swhatbuf_r+0x12>
 8008658:	9a01      	ldr	r2, [sp, #4]
 800865a:	f402 4270 	and.w	r2, r2, #61440	; 0xf000
 800865e:	f5a2 5300 	sub.w	r3, r2, #8192	; 0x2000
 8008662:	425a      	negs	r2, r3
 8008664:	415a      	adcs	r2, r3
 8008666:	602a      	str	r2, [r5, #0]
 8008668:	e7ee      	b.n	8008648 <__swhatbuf_r+0x1c>
 800866a:	2340      	movs	r3, #64	; 0x40
 800866c:	2000      	movs	r0, #0
 800866e:	6023      	str	r3, [r4, #0]
 8008670:	b016      	add	sp, #88	; 0x58
 8008672:	bd70      	pop	{r4, r5, r6, pc}

08008674 <__smakebuf_r>:
 8008674:	898b      	ldrh	r3, [r1, #12]
 8008676:	b573      	push	{r0, r1, r4, r5, r6, lr}
 8008678:	079d      	lsls	r5, r3, #30
 800867a:	4606      	mov	r6, r0
 800867c:	460c      	mov	r4, r1
 800867e:	d507      	bpl.n	8008690 <__smakebuf_r+0x1c>
 8008680:	f104 0347 	add.w	r3, r4, #71	; 0x47
 8008684:	6023      	str	r3, [r4, #0]
 8008686:	6123      	str	r3, [r4, #16]
 8008688:	2301      	movs	r3, #1
 800868a:	6163      	str	r3, [r4, #20]
 800868c:	b002      	add	sp, #8
 800868e:	bd70      	pop	{r4, r5, r6, pc}
 8008690:	466a      	mov	r2, sp
 8008692:	ab01      	add	r3, sp, #4
 8008694:	f7ff ffca 	bl	800862c <__swhatbuf_r>
 8008698:	9900      	ldr	r1, [sp, #0]
 800869a:	4605      	mov	r5, r0
 800869c:	4630      	mov	r0, r6
 800869e:	f7ff f989 	bl	80079b4 <_malloc_r>
 80086a2:	b948      	cbnz	r0, 80086b8 <__smakebuf_r+0x44>
 80086a4:	f9b4 300c 	ldrsh.w	r3, [r4, #12]
 80086a8:	059a      	lsls	r2, r3, #22
 80086aa:	d4ef      	bmi.n	800868c <__smakebuf_r+0x18>
 80086ac:	f023 0303 	bic.w	r3, r3, #3
 80086b0:	f043 0302 	orr.w	r3, r3, #2
 80086b4:	81a3      	strh	r3, [r4, #12]
 80086b6:	e7e3      	b.n	8008680 <__smakebuf_r+0xc>
 80086b8:	4b0d      	ldr	r3, [pc, #52]	; (80086f0 <__smakebuf_r+0x7c>)
 80086ba:	62b3      	str	r3, [r6, #40]	; 0x28
 80086bc:	89a3      	ldrh	r3, [r4, #12]
 80086be:	6020      	str	r0, [r4, #0]
 80086c0:	f043 0380 	orr.w	r3, r3, #128	; 0x80
 80086c4:	81a3      	strh	r3, [r4, #12]
 80086c6:	9b00      	ldr	r3, [sp, #0]
 80086c8:	6120      	str	r0, [r4, #16]
 80086ca:	6163      	str	r3, [r4, #20]
 80086cc:	9b01      	ldr	r3, [sp, #4]
 80086ce:	b15b      	cbz	r3, 80086e8 <__smakebuf_r+0x74>
 80086d0:	4630      	mov	r0, r6
 80086d2:	f9b4 100e 	ldrsh.w	r1, [r4, #14]
 80086d6:	f000 f8d1 	bl	800887c <_isatty_r>
 80086da:	b128      	cbz	r0, 80086e8 <__smakebuf_r+0x74>
 80086dc:	89a3      	ldrh	r3, [r4, #12]
 80086de:	f023 0303 	bic.w	r3, r3, #3
 80086e2:	f043 0301 	orr.w	r3, r3, #1
 80086e6:	81a3      	strh	r3, [r4, #12]
 80086e8:	89a0      	ldrh	r0, [r4, #12]
 80086ea:	4305      	orrs	r5, r0
 80086ec:	81a5      	strh	r5, [r4, #12]
 80086ee:	e7cd      	b.n	800868c <__smakebuf_r+0x18>
 80086f0:	08008485 	.word	0x08008485

080086f4 <_malloc_usable_size_r>:
 80086f4:	f851 3c04 	ldr.w	r3, [r1, #-4]
 80086f8:	1f18      	subs	r0, r3, #4
 80086fa:	2b00      	cmp	r3, #0
 80086fc:	bfbc      	itt	lt
 80086fe:	580b      	ldrlt	r3, [r1, r0]
 8008700:	18c0      	addlt	r0, r0, r3
 8008702:	4770      	bx	lr

08008704 <_raise_r>:
 8008704:	291f      	cmp	r1, #31
 8008706:	b538      	push	{r3, r4, r5, lr}
 8008708:	4604      	mov	r4, r0
 800870a:	460d      	mov	r5, r1
 800870c:	d904      	bls.n	8008718 <_raise_r+0x14>
 800870e:	2316      	movs	r3, #22
 8008710:	6003      	str	r3, [r0, #0]
 8008712:	f04f 30ff 	mov.w	r0, #4294967295	; 0xffffffff
 8008716:	bd38      	pop	{r3, r4, r5, pc}
 8008718:	6c42      	ldr	r2, [r0, #68]	; 0x44
 800871a:	b112      	cbz	r2, 8008722 <_raise_r+0x1e>
 800871c:	f852 3021 	ldr.w	r3, [r2, r1, lsl #2]
 8008720:	b94b      	cbnz	r3, 8008736 <_raise_r+0x32>
 8008722:	4620      	mov	r0, r4
 8008724:	f000 f830 	bl	8008788 <_getpid_r>
 8008728:	462a      	mov	r2, r5
 800872a:	4601      	mov	r1, r0
 800872c:	4620      	mov	r0, r4
 800872e:	e8bd 4038 	ldmia.w	sp!, {r3, r4, r5, lr}
 8008732:	f000 b817 	b.w	8008764 <_kill_r>
 8008736:	2b01      	cmp	r3, #1
 8008738:	d00a      	beq.n	8008750 <_raise_r+0x4c>
 800873a:	1c59      	adds	r1, r3, #1
 800873c:	d103      	bne.n	8008746 <_raise_r+0x42>
 800873e:	2316      	movs	r3, #22
 8008740:	6003      	str	r3, [r0, #0]
 8008742:	2001      	movs	r0, #1
 8008744:	e7e7      	b.n	8008716 <_raise_r+0x12>
 8008746:	2400      	movs	r4, #0
 8008748:	4628      	mov	r0, r5
 800874a:	f842 4025 	str.w	r4, [r2, r5, lsl #2]
 800874e:	4798      	blx	r3
 8008750:	2000      	movs	r0, #0
 8008752:	e7e0      	b.n	8008716 <_raise_r+0x12>

08008754 <raise>:
 8008754:	4b02      	ldr	r3, [pc, #8]	; (8008760 <raise+0xc>)
 8008756:	4601      	mov	r1, r0
 8008758:	6818      	ldr	r0, [r3, #0]
 800875a:	f7ff bfd3 	b.w	8008704 <_raise_r>
 800875e:	bf00      	nop
 8008760:	2000005c 	.word	0x2000005c

08008764 <_kill_r>:
 8008764:	b538      	push	{r3, r4, r5, lr}
 8008766:	2300      	movs	r3, #0
 8008768:	4d06      	ldr	r5, [pc, #24]	; (8008784 <_kill_r+0x20>)
 800876a:	4604      	mov	r4, r0
 800876c:	4608      	mov	r0, r1
 800876e:	4611      	mov	r1, r2
 8008770:	602b      	str	r3, [r5, #0]
 8008772:	f7fa fa43 	bl	8002bfc <_kill>
 8008776:	1c43      	adds	r3, r0, #1
 8008778:	d102      	bne.n	8008780 <_kill_r+0x1c>
 800877a:	682b      	ldr	r3, [r5, #0]
 800877c:	b103      	cbz	r3, 8008780 <_kill_r+0x1c>
 800877e:	6023      	str	r3, [r4, #0]
 8008780:	bd38      	pop	{r3, r4, r5, pc}
 8008782:	bf00      	nop
 8008784:	200005e4 	.word	0x200005e4

08008788 <_getpid_r>:
 8008788:	f7fa ba36 	b.w	8002bf8 <_getpid>

0800878c <__sread>:
 800878c:	b510      	push	{r4, lr}
 800878e:	460c      	mov	r4, r1
 8008790:	f9b1 100e 	ldrsh.w	r1, [r1, #14]
 8008794:	f000 f894 	bl	80088c0 <_read_r>
 8008798:	2800      	cmp	r0, #0
 800879a:	bfab      	itete	ge
 800879c:	6d63      	ldrge	r3, [r4, #84]	; 0x54
 800879e:	89a3      	ldrhlt	r3, [r4, #12]
 80087a0:	181b      	addge	r3, r3, r0
 80087a2:	f423 5380 	biclt.w	r3, r3, #4096	; 0x1000
 80087a6:	bfac      	ite	ge
 80087a8:	6563      	strge	r3, [r4, #84]	; 0x54
 80087aa:	81a3      	strhlt	r3, [r4, #12]
 80087ac:	bd10      	pop	{r4, pc}

080087ae <__swrite>:
 80087ae:	e92d 41f0 	stmdb	sp!, {r4, r5, r6, r7, r8, lr}
 80087b2:	461f      	mov	r7, r3
 80087b4:	898b      	ldrh	r3, [r1, #12]
 80087b6:	4605      	mov	r5, r0
 80087b8:	05db      	lsls	r3, r3, #23
 80087ba:	460c      	mov	r4, r1
 80087bc:	4616      	mov	r6, r2
 80087be:	d505      	bpl.n	80087cc <__swrite+0x1e>
 80087c0:	2302      	movs	r3, #2
 80087c2:	2200      	movs	r2, #0
 80087c4:	f9b1 100e 	ldrsh.w	r1, [r1, #14]
 80087c8:	f000 f868 	bl	800889c <_lseek_r>
 80087cc:	89a3      	ldrh	r3, [r4, #12]
 80087ce:	4632      	mov	r2, r6
 80087d0:	f423 5380 	bic.w	r3, r3, #4096	; 0x1000
 80087d4:	81a3      	strh	r3, [r4, #12]
 80087d6:	4628      	mov	r0, r5
 80087d8:	463b      	mov	r3, r7
 80087da:	f9b4 100e 	ldrsh.w	r1, [r4, #14]
 80087de:	e8bd 41f0 	ldmia.w	sp!, {r4, r5, r6, r7, r8, lr}
 80087e2:	f000 b817 	b.w	8008814 <_write_r>

080087e6 <__sseek>:
 80087e6:	b510      	push	{r4, lr}
 80087e8:	460c      	mov	r4, r1
 80087ea:	f9b1 100e 	ldrsh.w	r1, [r1, #14]
 80087ee:	f000 f855 	bl	800889c <_lseek_r>
 80087f2:	1c43      	adds	r3, r0, #1
 80087f4:	89a3      	ldrh	r3, [r4, #12]
 80087f6:	bf15      	itete	ne
 80087f8:	6560      	strne	r0, [r4, #84]	; 0x54
 80087fa:	f423 5380 	biceq.w	r3, r3, #4096	; 0x1000
 80087fe:	f443 5380 	orrne.w	r3, r3, #4096	; 0x1000
 8008802:	81a3      	strheq	r3, [r4, #12]
 8008804:	bf18      	it	ne
 8008806:	81a3      	strhne	r3, [r4, #12]
 8008808:	bd10      	pop	{r4, pc}

0800880a <__sclose>:
 800880a:	f9b1 100e 	ldrsh.w	r1, [r1, #14]
 800880e:	f000 b813 	b.w	8008838 <_close_r>
	...

08008814 <_write_r>:
 8008814:	b538      	push	{r3, r4, r5, lr}
 8008816:	4604      	mov	r4, r0
 8008818:	4608      	mov	r0, r1
 800881a:	4611      	mov	r1, r2
 800881c:	2200      	movs	r2, #0
 800881e:	4d05      	ldr	r5, [pc, #20]	; (8008834 <_write_r+0x20>)
 8008820:	602a      	str	r2, [r5, #0]
 8008822:	461a      	mov	r2, r3
 8008824:	f7fa fa05 	bl	8002c32 <_write>
 8008828:	1c43      	adds	r3, r0, #1
 800882a:	d102      	bne.n	8008832 <_write_r+0x1e>
 800882c:	682b      	ldr	r3, [r5, #0]
 800882e:	b103      	cbz	r3, 8008832 <_write_r+0x1e>
 8008830:	6023      	str	r3, [r4, #0]
 8008832:	bd38      	pop	{r3, r4, r5, pc}
 8008834:	200005e4 	.word	0x200005e4

08008838 <_close_r>:
 8008838:	b538      	push	{r3, r4, r5, lr}
 800883a:	2300      	movs	r3, #0
 800883c:	4d05      	ldr	r5, [pc, #20]	; (8008854 <_close_r+0x1c>)
 800883e:	4604      	mov	r4, r0
 8008840:	4608      	mov	r0, r1
 8008842:	602b      	str	r3, [r5, #0]
 8008844:	f7fa fa02 	bl	8002c4c <_close>
 8008848:	1c43      	adds	r3, r0, #1
 800884a:	d102      	bne.n	8008852 <_close_r+0x1a>
 800884c:	682b      	ldr	r3, [r5, #0]
 800884e:	b103      	cbz	r3, 8008852 <_close_r+0x1a>
 8008850:	6023      	str	r3, [r4, #0]
 8008852:	bd38      	pop	{r3, r4, r5, pc}
 8008854:	200005e4 	.word	0x200005e4

08008858 <_fstat_r>:
 8008858:	b538      	push	{r3, r4, r5, lr}
 800885a:	2300      	movs	r3, #0
 800885c:	4d06      	ldr	r5, [pc, #24]	; (8008878 <_fstat_r+0x20>)
 800885e:	4604      	mov	r4, r0
 8008860:	4608      	mov	r0, r1
 8008862:	4611      	mov	r1, r2
 8008864:	602b      	str	r3, [r5, #0]
 8008866:	f7fa f9f4 	bl	8002c52 <_fstat>
 800886a:	1c43      	adds	r3, r0, #1
 800886c:	d102      	bne.n	8008874 <_fstat_r+0x1c>
 800886e:	682b      	ldr	r3, [r5, #0]
 8008870:	b103      	cbz	r3, 8008874 <_fstat_r+0x1c>
 8008872:	6023      	str	r3, [r4, #0]
 8008874:	bd38      	pop	{r3, r4, r5, pc}
 8008876:	bf00      	nop
 8008878:	200005e4 	.word	0x200005e4

0800887c <_isatty_r>:
 800887c:	b538      	push	{r3, r4, r5, lr}
 800887e:	2300      	movs	r3, #0
 8008880:	4d05      	ldr	r5, [pc, #20]	; (8008898 <_isatty_r+0x1c>)
 8008882:	4604      	mov	r4, r0
 8008884:	4608      	mov	r0, r1
 8008886:	602b      	str	r3, [r5, #0]
 8008888:	f7fa f9e8 	bl	8002c5c <_isatty>
 800888c:	1c43      	adds	r3, r0, #1
 800888e:	d102      	bne.n	8008896 <_isatty_r+0x1a>
 8008890:	682b      	ldr	r3, [r5, #0]
 8008892:	b103      	cbz	r3, 8008896 <_isatty_r+0x1a>
 8008894:	6023      	str	r3, [r4, #0]
 8008896:	bd38      	pop	{r3, r4, r5, pc}
 8008898:	200005e4 	.word	0x200005e4

0800889c <_lseek_r>:
 800889c:	b538      	push	{r3, r4, r5, lr}
 800889e:	4604      	mov	r4, r0
 80088a0:	4608      	mov	r0, r1
 80088a2:	4611      	mov	r1, r2
 80088a4:	2200      	movs	r2, #0
 80088a6:	4d05      	ldr	r5, [pc, #20]	; (80088bc <_lseek_r+0x20>)
 80088a8:	602a      	str	r2, [r5, #0]
 80088aa:	461a      	mov	r2, r3
 80088ac:	f7fa f9d8 	bl	8002c60 <_lseek>
 80088b0:	1c43      	adds	r3, r0, #1
 80088b2:	d102      	bne.n	80088ba <_lseek_r+0x1e>
 80088b4:	682b      	ldr	r3, [r5, #0]
 80088b6:	b103      	cbz	r3, 80088ba <_lseek_r+0x1e>
 80088b8:	6023      	str	r3, [r4, #0]
 80088ba:	bd38      	pop	{r3, r4, r5, pc}
 80088bc:	200005e4 	.word	0x200005e4

080088c0 <_read_r>:
 80088c0:	b538      	push	{r3, r4, r5, lr}
 80088c2:	4604      	mov	r4, r0
 80088c4:	4608      	mov	r0, r1
 80088c6:	4611      	mov	r1, r2
 80088c8:	2200      	movs	r2, #0
 80088ca:	4d05      	ldr	r5, [pc, #20]	; (80088e0 <_read_r+0x20>)
 80088cc:	602a      	str	r2, [r5, #0]
 80088ce:	461a      	mov	r2, r3
 80088d0:	f7fa f9a2 	bl	8002c18 <_read>
 80088d4:	1c43      	adds	r3, r0, #1
 80088d6:	d102      	bne.n	80088de <_read_r+0x1e>
 80088d8:	682b      	ldr	r3, [r5, #0]
 80088da:	b103      	cbz	r3, 80088de <_read_r+0x1e>
 80088dc:	6023      	str	r3, [r4, #0]
 80088de:	bd38      	pop	{r3, r4, r5, pc}
 80088e0:	200005e4 	.word	0x200005e4

080088e4 <_init>:
 80088e4:	b5f8      	push	{r3, r4, r5, r6, r7, lr}
 80088e6:	bf00      	nop
 80088e8:	bcf8      	pop	{r3, r4, r5, r6, r7}
 80088ea:	bc08      	pop	{r3}
 80088ec:	469e      	mov	lr, r3
 80088ee:	4770      	bx	lr

080088f0 <_fini>:
 80088f0:	b5f8      	push	{r3, r4, r5, r6, r7, lr}
 80088f2:	bf00      	nop
 80088f4:	bcf8      	pop	{r3, r4, r5, r6, r7}
 80088f6:	bc08      	pop	{r3}
 80088f8:	469e      	mov	lr, r3
 80088fa:	4770      	bx	lr
