
Anemometer.elf:     file format elf32-littlearm

Sections:
Idx Name          Size      VMA       LMA       File off  Algn
  0 .isr_vector   0000010c  08000000  08000000  00010000  2**0
                  CONTENTS, ALLOC, LOAD, READONLY, DATA
  1 .text         0000ac28  08000110  08000110  00010110  2**3
                  CONTENTS, ALLOC, LOAD, READONLY, CODE
  2 .rodata       0000069c  0800ad38  0800ad38  0001ad38  2**3
                  CONTENTS, ALLOC, LOAD, READONLY, DATA
  3 .ARM.extab    00000000  0800b3d4  0800b3d4  00020344  2**0
                  CONTENTS
  4 .ARM          00000008  0800b3d4  0800b3d4  0001b3d4  2**2
                  CONTENTS, ALLOC, LOAD, READONLY, DATA
  5 .preinit_array 00000000  0800b3dc  0800b3dc  00020344  2**0
                  CONTENTS, ALLOC, LOAD, DATA
  6 .init_array   00000004  0800b3dc  0800b3dc  0001b3dc  2**2
                  CONTENTS, ALLOC, LOAD, DATA
  7 .fini_array   00000004  0800b3e0  0800b3e0  0001b3e0  2**2
                  CONTENTS, ALLOC, LOAD, DATA
  8 .data         00000344  20000000  0800b3e4  00020000  2**2
                  CONTENTS, ALLOC, LOAD, DATA
  9 .bss          000009d8  20000348  0800b728  00020348  2**3
                  ALLOC
 10 ._user_heap_stack 00000600  20000d20  0800b728  00020d20  2**0
                  ALLOC
 11 .ARM.attributes 00000029  00000000  00000000  00020344  2**0
                  CONTENTS, READONLY
 12 .comment      00000053  00000000  00000000  0002036d  2**0
                  CONTENTS, READONLY
 13 .debug_frame  00001470  00000000  00000000  000203c0  2**2
                  CONTENTS, READONLY, DEBUGGING, OCTETS

Disassembly of section .text:

08000110 <__do_global_dtors_aux>:
 8000110:	b510      	push	{r4, lr}
 8000112:	4c05      	ldr	r4, [pc, #20]	; (8000128 <__do_global_dtors_aux+0x18>)
 8000114:	7823      	ldrb	r3, [r4, #0]
 8000116:	b933      	cbnz	r3, 8000126 <__do_global_dtors_aux+0x16>
 8000118:	4b04      	ldr	r3, [pc, #16]	; (800012c <__do_global_dtors_aux+0x1c>)
 800011a:	b113      	cbz	r3, 8000122 <__do_global_dtors_aux+0x12>
 800011c:	4804      	ldr	r0, [pc, #16]	; (8000130 <__do_global_dtors_aux+0x20>)
 800011e:	f3af 8000 	nop.w
 8000122:	2301      	movs	r3, #1
 8000124:	7023      	strb	r3, [r4, #0]
 8000126:	bd10      	pop	{r4, pc}
 8000128:	20000348 	.word	0x20000348
 800012c:	00000000 	.word	0x00000000
 8000130:	0800ad20 	.word	0x0800ad20

08000134 <frame_dummy>:
 8000134:	b508      	push	{r3, lr}
 8000136:	4b03      	ldr	r3, [pc, #12]	; (8000144 <frame_dummy+0x10>)
 8000138:	b11b      	cbz	r3, 8000142 <frame_dummy+0xe>
 800013a:	4903      	ldr	r1, [pc, #12]	; (8000148 <frame_dummy+0x14>)
 800013c:	4803      	ldr	r0, [pc, #12]	; (800014c <frame_dummy+0x18>)
 800013e:	f3af 8000 	nop.w
 8000142:	bd08      	pop	{r3, pc}
 8000144:	00000000 	.word	0x00000000
 8000148:	2000034c 	.word	0x2000034c
 800014c:	0800ad20 	.word	0x0800ad20

08000150 <strlen>:
 8000150:	4603      	mov	r3, r0
 8000152:	f813 2b01 	ldrb.w	r2, [r3], #1
 8000156:	2a00      	cmp	r2, #0
 8000158:	d1fb      	bne.n	8000152 <strlen+0x2>
 800015a:	1a18      	subs	r0, r3, r0
 800015c:	3801      	subs	r0, #1
 800015e:	4770      	bx	lr

08000160 <__aeabi_drsub>:
 8000160:	f081 4100 	eor.w	r1, r1, #2147483648	; 0x80000000
 8000164:	e002      	b.n	800016c <__adddf3>
 8000166:	bf00      	nop

08000168 <__aeabi_dsub>:
 8000168:	f083 4300 	eor.w	r3, r3, #2147483648	; 0x80000000

0800016c <__adddf3>:
 800016c:	b530      	push	{r4, r5, lr}
 800016e:	ea4f 0441 	mov.w	r4, r1, lsl #1
 8000172:	ea4f 0543 	mov.w	r5, r3, lsl #1
 8000176:	ea94 0f05 	teq	r4, r5
 800017a:	bf08      	it	eq
 800017c:	ea90 0f02 	teqeq	r0, r2
 8000180:	bf1f      	itttt	ne
 8000182:	ea54 0c00 	orrsne.w	ip, r4, r0
 8000186:	ea55 0c02 	orrsne.w	ip, r5, r2
 800018a:	ea7f 5c64 	mvnsne.w	ip, r4, asr #21
 800018e:	ea7f 5c65 	mvnsne.w	ip, r5, asr #21
 8000192:	f000 80e2 	beq.w	800035a <__adddf3+0x1ee>
 8000196:	ea4f 5454 	mov.w	r4, r4, lsr #21
 800019a:	ebd4 5555 	rsbs	r5, r4, r5, lsr #21
 800019e:	bfb8      	it	lt
 80001a0:	426d      	neglt	r5, r5
 80001a2:	dd0c      	ble.n	80001be <__adddf3+0x52>
 80001a4:	442c      	add	r4, r5
 80001a6:	ea80 0202 	eor.w	r2, r0, r2
 80001aa:	ea81 0303 	eor.w	r3, r1, r3
 80001ae:	ea82 0000 	eor.w	r0, r2, r0
 80001b2:	ea83 0101 	eor.w	r1, r3, r1
 80001b6:	ea80 0202 	eor.w	r2, r0, r2
 80001ba:	ea81 0303 	eor.w	r3, r1, r3
 80001be:	2d36      	cmp	r5, #54	; 0x36
 80001c0:	bf88      	it	hi
 80001c2:	bd30      	pophi	{r4, r5, pc}
 80001c4:	f011 4f00 	tst.w	r1, #2147483648	; 0x80000000
 80001c8:	ea4f 3101 	mov.w	r1, r1, lsl #12
 80001cc:	f44f 1c80 	mov.w	ip, #1048576	; 0x100000
 80001d0:	ea4c 3111 	orr.w	r1, ip, r1, lsr #12
 80001d4:	d002      	beq.n	80001dc <__adddf3+0x70>
 80001d6:	4240      	negs	r0, r0
 80001d8:	eb61 0141 	sbc.w	r1, r1, r1, lsl #1
 80001dc:	f013 4f00 	tst.w	r3, #2147483648	; 0x80000000
 80001e0:	ea4f 3303 	mov.w	r3, r3, lsl #12
 80001e4:	ea4c 3313 	orr.w	r3, ip, r3, lsr #12
 80001e8:	d002      	beq.n	80001f0 <__adddf3+0x84>
 80001ea:	4252      	negs	r2, r2
 80001ec:	eb63 0343 	sbc.w	r3, r3, r3, lsl #1
 80001f0:	ea94 0f05 	teq	r4, r5
 80001f4:	f000 80a7 	beq.w	8000346 <__adddf3+0x1da>
 80001f8:	f1a4 0401 	sub.w	r4, r4, #1
 80001fc:	f1d5 0e20 	rsbs	lr, r5, #32
 8000200:	db0d      	blt.n	800021e <__adddf3+0xb2>
 8000202:	fa02 fc0e 	lsl.w	ip, r2, lr
 8000206:	fa22 f205 	lsr.w	r2, r2, r5
 800020a:	1880      	adds	r0, r0, r2
 800020c:	f141 0100 	adc.w	r1, r1, #0
 8000210:	fa03 f20e 	lsl.w	r2, r3, lr
 8000214:	1880      	adds	r0, r0, r2
 8000216:	fa43 f305 	asr.w	r3, r3, r5
 800021a:	4159      	adcs	r1, r3
 800021c:	e00e      	b.n	800023c <__adddf3+0xd0>
 800021e:	f1a5 0520 	sub.w	r5, r5, #32
 8000222:	f10e 0e20 	add.w	lr, lr, #32
 8000226:	2a01      	cmp	r2, #1
 8000228:	fa03 fc0e 	lsl.w	ip, r3, lr
 800022c:	bf28      	it	cs
 800022e:	f04c 0c02 	orrcs.w	ip, ip, #2
 8000232:	fa43 f305 	asr.w	r3, r3, r5
 8000236:	18c0      	adds	r0, r0, r3
 8000238:	eb51 71e3 	adcs.w	r1, r1, r3, asr #31
 800023c:	f001 4500 	and.w	r5, r1, #2147483648	; 0x80000000
 8000240:	d507      	bpl.n	8000252 <__adddf3+0xe6>
 8000242:	f04f 0e00 	mov.w	lr, #0
 8000246:	f1dc 0c00 	rsbs	ip, ip, #0
 800024a:	eb7e 0000 	sbcs.w	r0, lr, r0
 800024e:	eb6e 0101 	sbc.w	r1, lr, r1
 8000252:	f5b1 1f80 	cmp.w	r1, #1048576	; 0x100000
 8000256:	d31b      	bcc.n	8000290 <__adddf3+0x124>
 8000258:	f5b1 1f00 	cmp.w	r1, #2097152	; 0x200000
 800025c:	d30c      	bcc.n	8000278 <__adddf3+0x10c>
 800025e:	0849      	lsrs	r1, r1, #1
 8000260:	ea5f 0030 	movs.w	r0, r0, rrx
 8000264:	ea4f 0c3c 	mov.w	ip, ip, rrx
 8000268:	f104 0401 	add.w	r4, r4, #1
 800026c:	ea4f 5244 	mov.w	r2, r4, lsl #21
 8000270:	f512 0f80 	cmn.w	r2, #4194304	; 0x400000
 8000274:	f080 809a 	bcs.w	80003ac <__adddf3+0x240>
 8000278:	f1bc 4f00 	cmp.w	ip, #2147483648	; 0x80000000
 800027c:	bf08      	it	eq
 800027e:	ea5f 0c50 	movseq.w	ip, r0, lsr #1
 8000282:	f150 0000 	adcs.w	r0, r0, #0
 8000286:	eb41 5104 	adc.w	r1, r1, r4, lsl #20
 800028a:	ea41 0105 	orr.w	r1, r1, r5
 800028e:	bd30      	pop	{r4, r5, pc}
 8000290:	ea5f 0c4c 	movs.w	ip, ip, lsl #1
 8000294:	4140      	adcs	r0, r0
 8000296:	eb41 0101 	adc.w	r1, r1, r1
 800029a:	3c01      	subs	r4, #1
 800029c:	bf28      	it	cs
 800029e:	f5b1 1f80 	cmpcs.w	r1, #1048576	; 0x100000
 80002a2:	d2e9      	bcs.n	8000278 <__adddf3+0x10c>
 80002a4:	f091 0f00 	teq	r1, #0
 80002a8:	bf04      	itt	eq
 80002aa:	4601      	moveq	r1, r0
 80002ac:	2000      	moveq	r0, #0
 80002ae:	fab1 f381 	clz	r3, r1
 80002b2:	bf08      	it	eq
 80002b4:	3320      	addeq	r3, #32
 80002b6:	f1a3 030b 	sub.w	r3, r3, #11
 80002ba:	f1b3 0220 	subs.w	r2, r3, #32
 80002be:	da0c      	bge.n	80002da <__adddf3+0x16e>
 80002c0:	320c      	adds	r2, #12
 80002c2:	dd08      	ble.n	80002d6 <__adddf3+0x16a>
 80002c4:	f102 0c14 	add.w	ip, r2, #20
 80002c8:	f1c2 020c 	rsb	r2, r2, #12
 80002cc:	fa01 f00c 	lsl.w	r0, r1, ip
 80002d0:	fa21 f102 	lsr.w	r1, r1, r2
 80002d4:	e00c      	b.n	80002f0 <__adddf3+0x184>
 80002d6:	f102 0214 	add.w	r2, r2, #20
 80002da:	bfd8      	it	le
 80002dc:	f1c2 0c20 	rsble	ip, r2, #32
 80002e0:	fa01 f102 	lsl.w	r1, r1, r2
 80002e4:	fa20 fc0c 	lsr.w	ip, r0, ip
 80002e8:	bfdc      	itt	le
 80002ea:	ea41 010c 	orrle.w	r1, r1, ip
 80002ee:	4090      	lslle	r0, r2
 80002f0:	1ae4      	subs	r4, r4, r3
 80002f2:	bfa2      	ittt	ge
 80002f4:	eb01 5104 	addge.w	r1, r1, r4, lsl #20
 80002f8:	4329      	orrge	r1, r5
 80002fa:	bd30      	popge	{r4, r5, pc}
 80002fc:	ea6f 0404 	mvn.w	r4, r4
 8000300:	3c1f      	subs	r4, #31
 8000302:	da1c      	bge.n	800033e <__adddf3+0x1d2>
 8000304:	340c      	adds	r4, #12
 8000306:	dc0e      	bgt.n	8000326 <__adddf3+0x1ba>
 8000308:	f104 0414 	add.w	r4, r4, #20
 800030c:	f1c4 0220 	rsb	r2, r4, #32
 8000310:	fa20 f004 	lsr.w	r0, r0, r4
 8000314:	fa01 f302 	lsl.w	r3, r1, r2
 8000318:	ea40 0003 	orr.w	r0, r0, r3
 800031c:	fa21 f304 	lsr.w	r3, r1, r4
 8000320:	ea45 0103 	orr.w	r1, r5, r3
 8000324:	bd30      	pop	{r4, r5, pc}
 8000326:	f1c4 040c 	rsb	r4, r4, #12
 800032a:	f1c4 0220 	rsb	r2, r4, #32
 800032e:	fa20 f002 	lsr.w	r0, r0, r2
 8000332:	fa01 f304 	lsl.w	r3, r1, r4
 8000336:	ea40 0003 	orr.w	r0, r0, r3
 800033a:	4629      	mov	r1, r5
 800033c:	bd30      	pop	{r4, r5, pc}
 800033e:	fa21 f004 	lsr.w	r0, r1, r4
 8000342:	4629      	mov	r1, r5
 8000344:	bd30      	pop	{r4, r5, pc}
 8000346:	f094 0f00 	teq	r4, #0
 800034a:	f483 1380 	eor.w	r3, r3, #1048576	; 0x100000
 800034e:	bf06      	itte	eq
 8000350:	f481 1180 	eoreq.w	r1, r1, #1048576	; 0x100000
 8000354:	3401      	addeq	r4, #1
 8000356:	3d01      	subne	r5, #1
 8000358:	e74e      	b.n	80001f8 <__adddf3+0x8c>
 800035a:	ea7f 5c64 	mvns.w	ip, r4, asr #21
 800035e:	bf18      	it	ne
 8000360:	ea7f 5c65 	mvnsne.w	ip, r5, asr #21
 8000364:	d029      	beq.n	80003ba <__adddf3+0x24e>
 8000366:	ea94 0f05 	teq	r4, r5
 800036a:	bf08      	it	eq
 800036c:	ea90 0f02 	teqeq	r0, r2
 8000370:	d005      	beq.n	800037e <__adddf3+0x212>
 8000372:	ea54 0c00 	orrs.w	ip, r4, r0
 8000376:	bf04      	itt	eq
 8000378:	4619      	moveq	r1, r3
 800037a:	4610      	moveq	r0, r2
 800037c:	bd30      	pop	{r4, r5, pc}
 800037e:	ea91 0f03 	teq	r1, r3
 8000382:	bf1e      	ittt	ne
 8000384:	2100      	movne	r1, #0
 8000386:	2000      	movne	r0, #0
 8000388:	bd30      	popne	{r4, r5, pc}
 800038a:	ea5f 5c54 	movs.w	ip, r4, lsr #21
 800038e:	d105      	bne.n	800039c <__adddf3+0x230>
 8000390:	0040      	lsls	r0, r0, #1
 8000392:	4149      	adcs	r1, r1
 8000394:	bf28      	it	cs
 8000396:	f041 4100 	orrcs.w	r1, r1, #2147483648	; 0x80000000
 800039a:	bd30      	pop	{r4, r5, pc}
 800039c:	f514 0480 	adds.w	r4, r4, #4194304	; 0x400000
 80003a0:	bf3c      	itt	cc
 80003a2:	f501 1180 	addcc.w	r1, r1, #1048576	; 0x100000
 80003a6:	bd30      	popcc	{r4, r5, pc}
 80003a8:	f001 4500 	and.w	r5, r1, #2147483648	; 0x80000000
 80003ac:	f045 41fe 	orr.w	r1, r5, #2130706432	; 0x7f000000
 80003b0:	f441 0170 	orr.w	r1, r1, #15728640	; 0xf00000
 80003b4:	f04f 0000 	mov.w	r0, #0
 80003b8:	bd30      	pop	{r4, r5, pc}
 80003ba:	ea7f 5c64 	mvns.w	ip, r4, asr #21
 80003be:	bf1a      	itte	ne
 80003c0:	4619      	movne	r1, r3
 80003c2:	4610      	movne	r0, r2
 80003c4:	ea7f 5c65 	mvnseq.w	ip, r5, asr #21
 80003c8:	bf1c      	itt	ne
 80003ca:	460b      	movne	r3, r1
 80003cc:	4602      	movne	r2, r0
 80003ce:	ea50 3401 	orrs.w	r4, r0, r1, lsl #12
 80003d2:	bf06      	itte	eq
 80003d4:	ea52 3503 	orrseq.w	r5, r2, r3, lsl #12
 80003d8:	ea91 0f03 	teqeq	r1, r3
 80003dc:	f441 2100 	orrne.w	r1, r1, #524288	; 0x80000
 80003e0:	bd30      	pop	{r4, r5, pc}
 80003e2:	bf00      	nop

080003e4 <__aeabi_ui2d>:
 80003e4:	f090 0f00 	teq	r0, #0
 80003e8:	bf04      	itt	eq
 80003ea:	2100      	moveq	r1, #0
 80003ec:	4770      	bxeq	lr
 80003ee:	b530      	push	{r4, r5, lr}
 80003f0:	f44f 6480 	mov.w	r4, #1024	; 0x400
 80003f4:	f104 0432 	add.w	r4, r4, #50	; 0x32
 80003f8:	f04f 0500 	mov.w	r5, #0
 80003fc:	f04f 0100 	mov.w	r1, #0
 8000400:	e750      	b.n	80002a4 <__adddf3+0x138>
 8000402:	bf00      	nop

08000404 <__aeabi_i2d>:
 8000404:	f090 0f00 	teq	r0, #0
 8000408:	bf04      	itt	eq
 800040a:	2100      	moveq	r1, #0
 800040c:	4770      	bxeq	lr
 800040e:	b530      	push	{r4, r5, lr}
 8000410:	f44f 6480 	mov.w	r4, #1024	; 0x400
 8000414:	f104 0432 	add.w	r4, r4, #50	; 0x32
 8000418:	f010 4500 	ands.w	r5, r0, #2147483648	; 0x80000000
 800041c:	bf48      	it	mi
 800041e:	4240      	negmi	r0, r0
 8000420:	f04f 0100 	mov.w	r1, #0
 8000424:	e73e      	b.n	80002a4 <__adddf3+0x138>
 8000426:	bf00      	nop

08000428 <__aeabi_f2d>:
 8000428:	0042      	lsls	r2, r0, #1
 800042a:	ea4f 01e2 	mov.w	r1, r2, asr #3
 800042e:	ea4f 0131 	mov.w	r1, r1, rrx
 8000432:	ea4f 7002 	mov.w	r0, r2, lsl #28
 8000436:	bf1f      	itttt	ne
 8000438:	f012 437f 	andsne.w	r3, r2, #4278190080	; 0xff000000
 800043c:	f093 4f7f 	teqne	r3, #4278190080	; 0xff000000
 8000440:	f081 5160 	eorne.w	r1, r1, #939524096	; 0x38000000
 8000444:	4770      	bxne	lr
 8000446:	f032 427f 	bics.w	r2, r2, #4278190080	; 0xff000000
 800044a:	bf08      	it	eq
 800044c:	4770      	bxeq	lr
 800044e:	f093 4f7f 	teq	r3, #4278190080	; 0xff000000
 8000452:	bf04      	itt	eq
 8000454:	f441 2100 	orreq.w	r1, r1, #524288	; 0x80000
 8000458:	4770      	bxeq	lr
 800045a:	b530      	push	{r4, r5, lr}
 800045c:	f44f 7460 	mov.w	r4, #896	; 0x380
 8000460:	f001 4500 	and.w	r5, r1, #2147483648	; 0x80000000
 8000464:	f021 4100 	bic.w	r1, r1, #2147483648	; 0x80000000
 8000468:	e71c      	b.n	80002a4 <__adddf3+0x138>
 800046a:	bf00      	nop

0800046c <__aeabi_ul2d>:
 800046c:	ea50 0201 	orrs.w	r2, r0, r1
 8000470:	bf08      	it	eq
 8000472:	4770      	bxeq	lr
 8000474:	b530      	push	{r4, r5, lr}
 8000476:	f04f 0500 	mov.w	r5, #0
 800047a:	e00a      	b.n	8000492 <__aeabi_l2d+0x16>

0800047c <__aeabi_l2d>:
 800047c:	ea50 0201 	orrs.w	r2, r0, r1
 8000480:	bf08      	it	eq
 8000482:	4770      	bxeq	lr
 8000484:	b530      	push	{r4, r5, lr}
 8000486:	f011 4500 	ands.w	r5, r1, #2147483648	; 0x80000000
 800048a:	d502      	bpl.n	8000492 <__aeabi_l2d+0x16>
 800048c:	4240      	negs	r0, r0
 800048e:	eb61 0141 	sbc.w	r1, r1, r1, lsl #1
 8000492:	f44f 6480 	mov.w	r4, #1024	; 0x400
 8000496:	f104 0432 	add.w	r4, r4, #50	; 0x32
 800049a:	ea5f 5c91 	movs.w	ip, r1, lsr #22
 800049e:	f43f aed8 	beq.w	8000252 <__adddf3+0xe6>
 80004a2:	f04f 0203 	mov.w	r2, #3
 80004a6:	ea5f 0cdc 	movs.w	ip, ip, lsr #3
 80004aa:	bf18      	it	ne
 80004ac:	3203      	addne	r2, #3
 80004ae:	ea5f 0cdc 	movs.w	ip, ip, lsr #3
 80004b2:	bf18      	it	ne
 80004b4:	3203      	addne	r2, #3
 80004b6:	eb02 02dc 	add.w	r2, r2, ip, lsr #3
 80004ba:	f1c2 0320 	rsb	r3, r2, #32
 80004be:	fa00 fc03 	lsl.w	ip, r0, r3
 80004c2:	fa20 f002 	lsr.w	r0, r0, r2
 80004c6:	fa01 fe03 	lsl.w	lr, r1, r3
 80004ca:	ea40 000e 	orr.w	r0, r0, lr
 80004ce:	fa21 f102 	lsr.w	r1, r1, r2
 80004d2:	4414      	add	r4, r2
 80004d4:	e6bd      	b.n	8000252 <__adddf3+0xe6>
 80004d6:	bf00      	nop

080004d8 <__aeabi_dmul>:
 80004d8:	b570      	push	{r4, r5, r6, lr}
 80004da:	f04f 0cff 	mov.w	ip, #255	; 0xff
 80004de:	f44c 6ce0 	orr.w	ip, ip, #1792	; 0x700
 80004e2:	ea1c 5411 	ands.w	r4, ip, r1, lsr #20
 80004e6:	bf1d      	ittte	ne
 80004e8:	ea1c 5513 	andsne.w	r5, ip, r3, lsr #20
 80004ec:	ea94 0f0c 	teqne	r4, ip
 80004f0:	ea95 0f0c 	teqne	r5, ip
 80004f4:	f000 f8de 	bleq	80006b4 <__aeabi_dmul+0x1dc>
 80004f8:	442c      	add	r4, r5
 80004fa:	ea81 0603 	eor.w	r6, r1, r3
 80004fe:	ea21 514c 	bic.w	r1, r1, ip, lsl #21
 8000502:	ea23 534c 	bic.w	r3, r3, ip, lsl #21
 8000506:	ea50 3501 	orrs.w	r5, r0, r1, lsl #12
 800050a:	bf18      	it	ne
 800050c:	ea52 3503 	orrsne.w	r5, r2, r3, lsl #12
 8000510:	f441 1180 	orr.w	r1, r1, #1048576	; 0x100000
 8000514:	f443 1380 	orr.w	r3, r3, #1048576	; 0x100000
 8000518:	d038      	beq.n	800058c <__aeabi_dmul+0xb4>
 800051a:	fba0 ce02 	umull	ip, lr, r0, r2
 800051e:	f04f 0500 	mov.w	r5, #0
 8000522:	fbe1 e502 	umlal	lr, r5, r1, r2
 8000526:	f006 4200 	and.w	r2, r6, #2147483648	; 0x80000000
 800052a:	fbe0 e503 	umlal	lr, r5, r0, r3
 800052e:	f04f 0600 	mov.w	r6, #0
 8000532:	fbe1 5603 	umlal	r5, r6, r1, r3
 8000536:	f09c 0f00 	teq	ip, #0
 800053a:	bf18      	it	ne
 800053c:	f04e 0e01 	orrne.w	lr, lr, #1
 8000540:	f1a4 04ff 	sub.w	r4, r4, #255	; 0xff
 8000544:	f5b6 7f00 	cmp.w	r6, #512	; 0x200
 8000548:	f564 7440 	sbc.w	r4, r4, #768	; 0x300
 800054c:	d204      	bcs.n	8000558 <__aeabi_dmul+0x80>
 800054e:	ea5f 0e4e 	movs.w	lr, lr, lsl #1
 8000552:	416d      	adcs	r5, r5
 8000554:	eb46 0606 	adc.w	r6, r6, r6
 8000558:	ea42 21c6 	orr.w	r1, r2, r6, lsl #11
 800055c:	ea41 5155 	orr.w	r1, r1, r5, lsr #21
 8000560:	ea4f 20c5 	mov.w	r0, r5, lsl #11
 8000564:	ea40 505e 	orr.w	r0, r0, lr, lsr #21
 8000568:	ea4f 2ece 	mov.w	lr, lr, lsl #11
 800056c:	f1b4 0cfd 	subs.w	ip, r4, #253	; 0xfd
 8000570:	bf88      	it	hi
 8000572:	f5bc 6fe0 	cmphi.w	ip, #1792	; 0x700
 8000576:	d81e      	bhi.n	80005b6 <__aeabi_dmul+0xde>
 8000578:	f1be 4f00 	cmp.w	lr, #2147483648	; 0x80000000
 800057c:	bf08      	it	eq
 800057e:	ea5f 0e50 	movseq.w	lr, r0, lsr #1
 8000582:	f150 0000 	adcs.w	r0, r0, #0
 8000586:	eb41 5104 	adc.w	r1, r1, r4, lsl #20
 800058a:	bd70      	pop	{r4, r5, r6, pc}
 800058c:	f006 4600 	and.w	r6, r6, #2147483648	; 0x80000000
 8000590:	ea46 0101 	orr.w	r1, r6, r1
 8000594:	ea40 0002 	orr.w	r0, r0, r2
 8000598:	ea81 0103 	eor.w	r1, r1, r3
 800059c:	ebb4 045c 	subs.w	r4, r4, ip, lsr #1
 80005a0:	bfc2      	ittt	gt
 80005a2:	ebd4 050c 	rsbsgt	r5, r4, ip
 80005a6:	ea41 5104 	orrgt.w	r1, r1, r4, lsl #20
 80005aa:	bd70      	popgt	{r4, r5, r6, pc}
 80005ac:	f441 1180 	orr.w	r1, r1, #1048576	; 0x100000
 80005b0:	f04f 0e00 	mov.w	lr, #0
 80005b4:	3c01      	subs	r4, #1
 80005b6:	f300 80ab 	bgt.w	8000710 <__aeabi_dmul+0x238>
 80005ba:	f114 0f36 	cmn.w	r4, #54	; 0x36
 80005be:	bfde      	ittt	le
 80005c0:	2000      	movle	r0, #0
 80005c2:	f001 4100 	andle.w	r1, r1, #2147483648	; 0x80000000
 80005c6:	bd70      	pople	{r4, r5, r6, pc}
 80005c8:	f1c4 0400 	rsb	r4, r4, #0
 80005cc:	3c20      	subs	r4, #32
 80005ce:	da35      	bge.n	800063c <__aeabi_dmul+0x164>
 80005d0:	340c      	adds	r4, #12
 80005d2:	dc1b      	bgt.n	800060c <__aeabi_dmul+0x134>
 80005d4:	f104 0414 	add.w	r4, r4, #20
 80005d8:	f1c4 0520 	rsb	r5, r4, #32
 80005dc:	fa00 f305 	lsl.w	r3, r0, r5
 80005e0:	fa20 f004 	lsr.w	r0, r0, r4
 80005e4:	fa01 f205 	lsl.w	r2, r1, r5
 80005e8:	ea40 0002 	orr.w	r0, r0, r2
 80005ec:	f001 4200 	and.w	r2, r1, #2147483648	; 0x80000000
 80005f0:	f021 4100 	bic.w	r1, r1, #2147483648	; 0x80000000
 80005f4:	eb10 70d3 	adds.w	r0, r0, r3, lsr #31
 80005f8:	fa21 f604 	lsr.w	r6, r1, r4
 80005fc:	eb42 0106 	adc.w	r1, r2, r6
 8000600:	ea5e 0e43 	orrs.w	lr, lr, r3, lsl #1
 8000604:	bf08      	it	eq
 8000606:	ea20 70d3 	biceq.w	r0, r0, r3, lsr #31
 800060a:	bd70      	pop	{r4, r5, r6, pc}
 800060c:	f1c4 040c 	rsb	r4, r4, #12
 8000610:	f1c4 0520 	rsb	r5, r4, #32
 8000614:	fa00 f304 	lsl.w	r3, r0, r4
 8000618:	fa20 f005 	lsr.w	r0, r0, r5
 800061c:	fa01 f204 	lsl.w	r2, r1, r4
 8000620:	ea40 0002 	orr.w	r0, r0, r2
 8000624:	f001 4100 	and.w	r1, r1, #2147483648	; 0x80000000
 8000628:	eb10 70d3 	adds.w	r0, r0, r3, lsr #31
 800062c:	f141 0100 	adc.w	r1, r1, #0
 8000630:	ea5e 0e43 	orrs.w	lr, lr, r3, lsl #1
 8000634:	bf08      	it	eq
 8000636:	ea20 70d3 	biceq.w	r0, r0, r3, lsr #31
 800063a:	bd70      	pop	{r4, r5, r6, pc}
 800063c:	f1c4 0520 	rsb	r5, r4, #32
 8000640:	fa00 f205 	lsl.w	r2, r0, r5
 8000644:	ea4e 0e02 	orr.w	lr, lr, r2
 8000648:	fa20 f304 	lsr.w	r3, r0, r4
 800064c:	fa01 f205 	lsl.w	r2, r1, r5
 8000650:	ea43 0302 	orr.w	r3, r3, r2
 8000654:	fa21 f004 	lsr.w	r0, r1, r4
 8000658:	f001 4100 	and.w	r1, r1, #2147483648	; 0x80000000
 800065c:	fa21 f204 	lsr.w	r2, r1, r4
 8000660:	ea20 0002 	bic.w	r0, r0, r2
 8000664:	eb00 70d3 	add.w	r0, r0, r3, lsr #31
 8000668:	ea5e 0e43 	orrs.w	lr, lr, r3, lsl #1
 800066c:	bf08      	it	eq
 800066e:	ea20 70d3 	biceq.w	r0, r0, r3, lsr #31
 8000672:	bd70      	pop	{r4, r5, r6, pc}
 8000674:	f094 0f00 	teq	r4, #0
 8000678:	d10f      	bne.n	800069a <__aeabi_dmul+0x1c2>
 800067a:	f001 4600 	and.w	r6, r1, #2147483648	; 0x80000000
 800067e:	0040      	lsls	r0, r0, #1
 8000680:	eb41 0101 	adc.w	r1, r1, r1
 8000684:	f411 1f80 	tst.w	r1, #1048576	; 0x100000
 8000688:	bf08      	it	eq
 800068a:	3c01      	subeq	r4, #1
 800068c:	d0f7      	beq.n	800067e <__aeabi_dmul+0x1a6>
 800068e:	ea41 0106 	orr.w	r1, r1, r6
 8000692:	f095 0f00 	teq	r5, #0
 8000696:	bf18      	it	ne
 8000698:	4770      	bxne	lr
 800069a:	f003 4600 	and.w	r6, r3, #2147483648	; 0x80000000
 800069e:	0052      	lsls	r2, r2, #1
 80006a0:	eb43 0303 	adc.w	r3, r3, r3
 80006a4:	f413 1f80 	tst.w	r3, #1048576	; 0x100000
 80006a8:	bf08      	it	eq
 80006aa:	3d01      	subeq	r5, #1
 80006ac:	d0f7      	beq.n	800069e <__aeabi_dmul+0x1c6>
 80006ae:	ea43 0306 	orr.w	r3, r3, r6
 80006b2:	4770      	bx	lr
 80006b4:	ea94 0f0c 	teq	r4, ip
 80006b8:	ea0c 5513 	and.w	r5, ip, r3, lsr #20
 80006bc:	bf18      	it	ne
 80006be:	ea95 0f0c 	teqne	r5, ip
 80006c2:	d00c      	beq.n	80006de <__aeabi_dmul+0x206>
 80006c4:	ea50 0641 	orrs.w	r6, r0, r1, lsl #1
 80006c8:	bf18      	it	ne
 80006ca:	ea52 0643 	orrsne.w	r6, r2, r3, lsl #1
 80006ce:	d1d1      	bne.n	8000674 <__aeabi_dmul+0x19c>
 80006d0:	ea81 0103 	eor.w	r1, r1, r3
 80006d4:	f001 4100 	and.w	r1, r1, #2147483648	; 0x80000000
 80006d8:	f04f 0000 	mov.w	r0, #0
 80006dc:	bd70      	pop	{r4, r5, r6, pc}
 80006de:	ea50 0641 	orrs.w	r6, r0, r1, lsl #1
 80006e2:	bf06      	itte	eq
 80006e4:	4610      	moveq	r0, r2
 80006e6:	4619      	moveq	r1, r3
 80006e8:	ea52 0643 	orrsne.w	r6, r2, r3, lsl #1
 80006ec:	d019      	beq.n	8000722 <__aeabi_dmul+0x24a>
 80006ee:	ea94 0f0c 	teq	r4, ip
 80006f2:	d102      	bne.n	80006fa <__aeabi_dmul+0x222>
 80006f4:	ea50 3601 	orrs.w	r6, r0, r1, lsl #12
 80006f8:	d113      	bne.n	8000722 <__aeabi_dmul+0x24a>
 80006fa:	ea95 0f0c 	teq	r5, ip
 80006fe:	d105      	bne.n	800070c <__aeabi_dmul+0x234>
 8000700:	ea52 3603 	orrs.w	r6, r2, r3, lsl #12
 8000704:	bf1c      	itt	ne
 8000706:	4610      	movne	r0, r2
 8000708:	4619      	movne	r1, r3
 800070a:	d10a      	bne.n	8000722 <__aeabi_dmul+0x24a>
 800070c:	ea81 0103 	eor.w	r1, r1, r3
 8000710:	f001 4100 	and.w	r1, r1, #2147483648	; 0x80000000
 8000714:	f041 41fe 	orr.w	r1, r1, #2130706432	; 0x7f000000
 8000718:	f441 0170 	orr.w	r1, r1, #15728640	; 0xf00000
 800071c:	f04f 0000 	mov.w	r0, #0
 8000720:	bd70      	pop	{r4, r5, r6, pc}
 8000722:	f041 41fe 	orr.w	r1, r1, #2130706432	; 0x7f000000
 8000726:	f441 0178 	orr.w	r1, r1, #16252928	; 0xf80000
 800072a:	bd70      	pop	{r4, r5, r6, pc}

0800072c <__aeabi_ddiv>:
 800072c:	b570      	push	{r4, r5, r6, lr}
 800072e:	f04f 0cff 	mov.w	ip, #255	; 0xff
 8000732:	f44c 6ce0 	orr.w	ip, ip, #1792	; 0x700
 8000736:	ea1c 5411 	ands.w	r4, ip, r1, lsr #20
 800073a:	bf1d      	ittte	ne
 800073c:	ea1c 5513 	andsne.w	r5, ip, r3, lsr #20
 8000740:	ea94 0f0c 	teqne	r4, ip
 8000744:	ea95 0f0c 	teqne	r5, ip
 8000748:	f000 f8a7 	bleq	800089a <__aeabi_ddiv+0x16e>
 800074c:	eba4 0405 	sub.w	r4, r4, r5
 8000750:	ea81 0e03 	eor.w	lr, r1, r3
 8000754:	ea52 3503 	orrs.w	r5, r2, r3, lsl #12
 8000758:	ea4f 3101 	mov.w	r1, r1, lsl #12
 800075c:	f000 8088 	beq.w	8000870 <__aeabi_ddiv+0x144>
 8000760:	ea4f 3303 	mov.w	r3, r3, lsl #12
 8000764:	f04f 5580 	mov.w	r5, #268435456	; 0x10000000
 8000768:	ea45 1313 	orr.w	r3, r5, r3, lsr #4
 800076c:	ea43 6312 	orr.w	r3, r3, r2, lsr #24
 8000770:	ea4f 2202 	mov.w	r2, r2, lsl #8
 8000774:	ea45 1511 	orr.w	r5, r5, r1, lsr #4
 8000778:	ea45 6510 	orr.w	r5, r5, r0, lsr #24
 800077c:	ea4f 2600 	mov.w	r6, r0, lsl #8
 8000780:	f00e 4100 	and.w	r1, lr, #2147483648	; 0x80000000
 8000784:	429d      	cmp	r5, r3
 8000786:	bf08      	it	eq
 8000788:	4296      	cmpeq	r6, r2
 800078a:	f144 04fd 	adc.w	r4, r4, #253	; 0xfd
 800078e:	f504 7440 	add.w	r4, r4, #768	; 0x300
 8000792:	d202      	bcs.n	800079a <__aeabi_ddiv+0x6e>
 8000794:	085b      	lsrs	r3, r3, #1
 8000796:	ea4f 0232 	mov.w	r2, r2, rrx
 800079a:	1ab6      	subs	r6, r6, r2
 800079c:	eb65 0503 	sbc.w	r5, r5, r3
 80007a0:	085b      	lsrs	r3, r3, #1
 80007a2:	ea4f 0232 	mov.w	r2, r2, rrx
 80007a6:	f44f 1080 	mov.w	r0, #1048576	; 0x100000
 80007aa:	f44f 2c00 	mov.w	ip, #524288	; 0x80000
 80007ae:	ebb6 0e02 	subs.w	lr, r6, r2
 80007b2:	eb75 0e03 	sbcs.w	lr, r5, r3
 80007b6:	bf22      	ittt	cs
 80007b8:	1ab6      	subcs	r6, r6, r2
 80007ba:	4675      	movcs	r5, lr
 80007bc:	ea40 000c 	orrcs.w	r0, r0, ip
 80007c0:	085b      	lsrs	r3, r3, #1
 80007c2:	ea4f 0232 	mov.w	r2, r2, rrx
 80007c6:	ebb6 0e02 	subs.w	lr, r6, r2
 80007ca:	eb75 0e03 	sbcs.w	lr, r5, r3
 80007ce:	bf22      	ittt	cs
 80007d0:	1ab6      	subcs	r6, r6, r2
 80007d2:	4675      	movcs	r5, lr
 80007d4:	ea40 005c 	orrcs.w	r0, r0, ip, lsr #1
 80007d8:	085b      	lsrs	r3, r3, #1
 80007da:	ea4f 0232 	mov.w	r2, r2, rrx
 80007de:	ebb6 0e02 	subs.w	lr, r6, r2
 80007e2:	eb75 0e03 	sbcs.w	lr, r5, r3
 80007e6:	bf22      	ittt	cs
 80007e8:	1ab6      	subcs	r6, r6, r2
 80007ea:	4675      	movcs	r5, lr
 80007ec:	ea40 009c 	orrcs.w	r0, r0, ip, lsr #2
 80007f0:	085b      	lsrs	r3, r3, #1
 80007f2:	ea4f 0232 	mov.w	r2, r2, rrx
 80007f6:	ebb6 0e02 	subs.w	lr, r6, r2
 80007fa:	eb75 0e03 	sbcs.w	lr, r5, r3
 80007fe:	bf22      	ittt	cs
 8000800:	1ab6      	subcs	r6, r6, r2
 8000802:	4675      	movcs	r5, lr
 8000804:	ea40 00dc 	orrcs.w	r0, r0, ip, lsr #3
 8000808:	ea55 0e06 	orrs.w	lr, r5, r6
 800080c:	d018      	beq.n	8000840 <__aeabi_ddiv+0x114>
 800080e:	ea4f 1505 	mov.w	r5, r5, lsl #4
 8000812:	ea45 7516 	orr.w	r5, r5, r6, lsr #28
 8000816:	ea4f 1606 	mov.w	r6, r6, lsl #4
 800081a:	ea4f 03c3 	mov.w	r3, r3, lsl #3
 800081e:	ea43 7352 	orr.w	r3, r3, r2, lsr #29
 8000822:	ea4f 02c2 	mov.w	r2, r2, lsl #3
 8000826:	ea5f 1c1c 	movs.w	ip, ip, lsr #4
 800082a:	d1c0      	bne.n	80007ae <__aeabi_ddiv+0x82>
 800082c:	f411 1f80 	tst.w	r1, #1048576	; 0x100000
 8000830:	d10b      	bne.n	800084a <__aeabi_ddiv+0x11e>
 8000832:	ea41 0100 	orr.w	r1, r1, r0
 8000836:	f04f 0000 	mov.w	r0, #0
 800083a:	f04f 4c00 	mov.w	ip, #2147483648	; 0x80000000
 800083e:	e7b6      	b.n	80007ae <__aeabi_ddiv+0x82>
 8000840:	f411 1f80 	tst.w	r1, #1048576	; 0x100000
 8000844:	bf04      	itt	eq
 8000846:	4301      	orreq	r1, r0
 8000848:	2000      	moveq	r0, #0
 800084a:	f1b4 0cfd 	subs.w	ip, r4, #253	; 0xfd
 800084e:	bf88      	it	hi
 8000850:	f5bc 6fe0 	cmphi.w	ip, #1792	; 0x700
 8000854:	f63f aeaf 	bhi.w	80005b6 <__aeabi_dmul+0xde>
 8000858:	ebb5 0c03 	subs.w	ip, r5, r3
 800085c:	bf04      	itt	eq
 800085e:	ebb6 0c02 	subseq.w	ip, r6, r2
 8000862:	ea5f 0c50 	movseq.w	ip, r0, lsr #1
 8000866:	f150 0000 	adcs.w	r0, r0, #0
 800086a:	eb41 5104 	adc.w	r1, r1, r4, lsl #20
 800086e:	bd70      	pop	{r4, r5, r6, pc}
 8000870:	f00e 4e00 	and.w	lr, lr, #2147483648	; 0x80000000
 8000874:	ea4e 3111 	orr.w	r1, lr, r1, lsr #12
 8000878:	eb14 045c 	adds.w	r4, r4, ip, lsr #1
 800087c:	bfc2      	ittt	gt
 800087e:	ebd4 050c 	rsbsgt	r5, r4, ip
 8000882:	ea41 5104 	orrgt.w	r1, r1, r4, lsl #20
 8000886:	bd70      	popgt	{r4, r5, r6, pc}
 8000888:	f441 1180 	orr.w	r1, r1, #1048576	; 0x100000
 800088c:	f04f 0e00 	mov.w	lr, #0
 8000890:	3c01      	subs	r4, #1
 8000892:	e690      	b.n	80005b6 <__aeabi_dmul+0xde>
 8000894:	ea45 0e06 	orr.w	lr, r5, r6
 8000898:	e68d      	b.n	80005b6 <__aeabi_dmul+0xde>
 800089a:	ea0c 5513 	and.w	r5, ip, r3, lsr #20
 800089e:	ea94 0f0c 	teq	r4, ip
 80008a2:	bf08      	it	eq
 80008a4:	ea95 0f0c 	teqeq	r5, ip
 80008a8:	f43f af3b 	beq.w	8000722 <__aeabi_dmul+0x24a>
 80008ac:	ea94 0f0c 	teq	r4, ip
 80008b0:	d10a      	bne.n	80008c8 <__aeabi_ddiv+0x19c>
 80008b2:	ea50 3401 	orrs.w	r4, r0, r1, lsl #12
 80008b6:	f47f af34 	bne.w	8000722 <__aeabi_dmul+0x24a>
 80008ba:	ea95 0f0c 	teq	r5, ip
 80008be:	f47f af25 	bne.w	800070c <__aeabi_dmul+0x234>
 80008c2:	4610      	mov	r0, r2
 80008c4:	4619      	mov	r1, r3
 80008c6:	e72c      	b.n	8000722 <__aeabi_dmul+0x24a>
 80008c8:	ea95 0f0c 	teq	r5, ip
 80008cc:	d106      	bne.n	80008dc <__aeabi_ddiv+0x1b0>
 80008ce:	ea52 3503 	orrs.w	r5, r2, r3, lsl #12
 80008d2:	f43f aefd 	beq.w	80006d0 <__aeabi_dmul+0x1f8>
 80008d6:	4610      	mov	r0, r2
 80008d8:	4619      	mov	r1, r3
 80008da:	e722      	b.n	8000722 <__aeabi_dmul+0x24a>
 80008dc:	ea50 0641 	orrs.w	r6, r0, r1, lsl #1
 80008e0:	bf18      	it	ne
 80008e2:	ea52 0643 	orrsne.w	r6, r2, r3, lsl #1
 80008e6:	f47f aec5 	bne.w	8000674 <__aeabi_dmul+0x19c>
 80008ea:	ea50 0441 	orrs.w	r4, r0, r1, lsl #1
 80008ee:	f47f af0d 	bne.w	800070c <__aeabi_dmul+0x234>
 80008f2:	ea52 0543 	orrs.w	r5, r2, r3, lsl #1
 80008f6:	f47f aeeb 	bne.w	80006d0 <__aeabi_dmul+0x1f8>
 80008fa:	e712      	b.n	8000722 <__aeabi_dmul+0x24a>

080008fc <__gedf2>:
 80008fc:	f04f 3cff 	mov.w	ip, #4294967295	; 0xffffffff
 8000900:	e006      	b.n	8000910 <__cmpdf2+0x4>
 8000902:	bf00      	nop

08000904 <__ledf2>:
 8000904:	f04f 0c01 	mov.w	ip, #1
 8000908:	e002      	b.n	8000910 <__cmpdf2+0x4>
 800090a:	bf00      	nop

0800090c <__cmpdf2>:
 800090c:	f04f 0c01 	mov.w	ip, #1
 8000910:	f84d cd04 	str.w	ip, [sp, #-4]!
 8000914:	ea4f 0c41 	mov.w	ip, r1, lsl #1
 8000918:	ea7f 5c6c 	mvns.w	ip, ip, asr #21
 800091c:	ea4f 0c43 	mov.w	ip, r3, lsl #1
 8000920:	bf18      	it	ne
 8000922:	ea7f 5c6c 	mvnsne.w	ip, ip, asr #21
 8000926:	d01b      	beq.n	8000960 <__cmpdf2+0x54>
 8000928:	b001      	add	sp, #4
 800092a:	ea50 0c41 	orrs.w	ip, r0, r1, lsl #1
 800092e:	bf0c      	ite	eq
 8000930:	ea52 0c43 	orrseq.w	ip, r2, r3, lsl #1
 8000934:	ea91 0f03 	teqne	r1, r3
 8000938:	bf02      	ittt	eq
 800093a:	ea90 0f02 	teqeq	r0, r2
 800093e:	2000      	moveq	r0, #0
 8000940:	4770      	bxeq	lr
 8000942:	f110 0f00 	cmn.w	r0, #0
 8000946:	ea91 0f03 	teq	r1, r3
 800094a:	bf58      	it	pl
 800094c:	4299      	cmppl	r1, r3
 800094e:	bf08      	it	eq
 8000950:	4290      	cmpeq	r0, r2
 8000952:	bf2c      	ite	cs
 8000954:	17d8      	asrcs	r0, r3, #31
 8000956:	ea6f 70e3 	mvncc.w	r0, r3, asr #31
 800095a:	f040 0001 	orr.w	r0, r0, #1
 800095e:	4770      	bx	lr
 8000960:	ea4f 0c41 	mov.w	ip, r1, lsl #1
 8000964:	ea7f 5c6c 	mvns.w	ip, ip, asr #21
 8000968:	d102      	bne.n	8000970 <__cmpdf2+0x64>
 800096a:	ea50 3c01 	orrs.w	ip, r0, r1, lsl #12
 800096e:	d107      	bne.n	8000980 <__cmpdf2+0x74>
 8000970:	ea4f 0c43 	mov.w	ip, r3, lsl #1
 8000974:	ea7f 5c6c 	mvns.w	ip, ip, asr #21
 8000978:	d1d6      	bne.n	8000928 <__cmpdf2+0x1c>
 800097a:	ea52 3c03 	orrs.w	ip, r2, r3, lsl #12
 800097e:	d0d3      	beq.n	8000928 <__cmpdf2+0x1c>
 8000980:	f85d 0b04 	ldr.w	r0, [sp], #4
 8000984:	4770      	bx	lr
 8000986:	bf00      	nop

08000988 <__aeabi_cdrcmple>:
 8000988:	4684      	mov	ip, r0
 800098a:	4610      	mov	r0, r2
 800098c:	4662      	mov	r2, ip
 800098e:	468c      	mov	ip, r1
 8000990:	4619      	mov	r1, r3
 8000992:	4663      	mov	r3, ip
 8000994:	e000      	b.n	8000998 <__aeabi_cdcmpeq>
 8000996:	bf00      	nop

08000998 <__aeabi_cdcmpeq>:
 8000998:	b501      	push	{r0, lr}
 800099a:	f7ff ffb7 	bl	800090c <__cmpdf2>
 800099e:	2800      	cmp	r0, #0
 80009a0:	bf48      	it	mi
 80009a2:	f110 0f00 	cmnmi.w	r0, #0
 80009a6:	bd01      	pop	{r0, pc}

080009a8 <__aeabi_dcmpeq>:
 80009a8:	f84d ed08 	str.w	lr, [sp, #-8]!
 80009ac:	f7ff fff4 	bl	8000998 <__aeabi_cdcmpeq>
 80009b0:	bf0c      	ite	eq
 80009b2:	2001      	moveq	r0, #1
 80009b4:	2000      	movne	r0, #0
 80009b6:	f85d fb08 	ldr.w	pc, [sp], #8
 80009ba:	bf00      	nop

080009bc <__aeabi_dcmplt>:
 80009bc:	f84d ed08 	str.w	lr, [sp, #-8]!
 80009c0:	f7ff ffea 	bl	8000998 <__aeabi_cdcmpeq>
 80009c4:	bf34      	ite	cc
 80009c6:	2001      	movcc	r0, #1
 80009c8:	2000      	movcs	r0, #0
 80009ca:	f85d fb08 	ldr.w	pc, [sp], #8
 80009ce:	bf00      	nop

080009d0 <__aeabi_dcmple>:
 80009d0:	f84d ed08 	str.w	lr, [sp, #-8]!
 80009d4:	f7ff ffe0 	bl	8000998 <__aeabi_cdcmpeq>
 80009d8:	bf94      	ite	ls
 80009da:	2001      	movls	r0, #1
 80009dc:	2000      	movhi	r0, #0
 80009de:	f85d fb08 	ldr.w	pc, [sp], #8
 80009e2:	bf00      	nop

080009e4 <__aeabi_dcmpge>:
 80009e4:	f84d ed08 	str.w	lr, [sp, #-8]!
 80009e8:	f7ff ffce 	bl	8000988 <__aeabi_cdrcmple>
 80009ec:	bf94      	ite	ls
 80009ee:	2001      	movls	r0, #1
 80009f0:	2000      	movhi	r0, #0
 80009f2:	f85d fb08 	ldr.w	pc, [sp], #8
 80009f6:	bf00      	nop

080009f8 <__aeabi_dcmpgt>:
 80009f8:	f84d ed08 	str.w	lr, [sp, #-8]!
 80009fc:	f7ff ffc4 	bl	8000988 <__aeabi_cdrcmple>
 8000a00:	bf34      	ite	cc
 8000a02:	2001      	movcc	r0, #1
 8000a04:	2000      	movcs	r0, #0
 8000a06:	f85d fb08 	ldr.w	pc, [sp], #8
 8000a0a:	bf00      	nop

08000a0c <__aeabi_dcmpun>:
 8000a0c:	ea4f 0c41 	mov.w	ip, r1, lsl #1
 8000a10:	ea7f 5c6c 	mvns.w	ip, ip, asr #21
 8000a14:	d102      	bne.n	8000a1c <__aeabi_dcmpun+0x10>
 8000a16:	ea50 3c01 	orrs.w	ip, r0, r1, lsl #12
 8000a1a:	d10a      	bne.n	8000a32 <__aeabi_dcmpun+0x26>
 8000a1c:	ea4f 0c43 	mov.w	ip, r3, lsl #1
 8000a20:	ea7f 5c6c 	mvns.w	ip, ip, asr #21
 8000a24:	d102      	bne.n	8000a2c <__aeabi_dcmpun+0x20>
 8000a26:	ea52 3c03 	orrs.w	ip, r2, r3, lsl #12
 8000a2a:	d102      	bne.n	8000a32 <__aeabi_dcmpun+0x26>
 8000a2c:	f04f 0000 	mov.w	r0, #0
 8000a30:	4770      	bx	lr
 8000a32:	f04f 0001 	mov.w	r0, #1
 8000a36:	4770      	bx	lr

08000a38 <__aeabi_d2iz>:
 8000a38:	ea4f 0241 	mov.w	r2, r1, lsl #1
 8000a3c:	f512 1200 	adds.w	r2, r2, #2097152	; 0x200000
 8000a40:	d215      	bcs.n	8000a6e <__aeabi_d2iz+0x36>
 8000a42:	d511      	bpl.n	8000a68 <__aeabi_d2iz+0x30>
 8000a44:	f46f 7378 	mvn.w	r3, #992	; 0x3e0
 8000a48:	ebb3 5262 	subs.w	r2, r3, r2, asr #21
 8000a4c:	d912      	bls.n	8000a74 <__aeabi_d2iz+0x3c>
 8000a4e:	ea4f 23c1 	mov.w	r3, r1, lsl #11
 8000a52:	f043 4300 	orr.w	r3, r3, #2147483648	; 0x80000000
 8000a56:	ea43 5350 	orr.w	r3, r3, r0, lsr #21
 8000a5a:	f011 4f00 	tst.w	r1, #2147483648	; 0x80000000
 8000a5e:	fa23 f002 	lsr.w	r0, r3, r2
 8000a62:	bf18      	it	ne
 8000a64:	4240      	negne	r0, r0
 8000a66:	4770      	bx	lr
 8000a68:	f04f 0000 	mov.w	r0, #0
 8000a6c:	4770      	bx	lr
 8000a6e:	ea50 3001 	orrs.w	r0, r0, r1, lsl #12
 8000a72:	d105      	bne.n	8000a80 <__aeabi_d2iz+0x48>
 8000a74:	f011 4000 	ands.w	r0, r1, #2147483648	; 0x80000000
 8000a78:	bf08      	it	eq
 8000a7a:	f06f 4000 	mvneq.w	r0, #2147483648	; 0x80000000
 8000a7e:	4770      	bx	lr
 8000a80:	f04f 0000 	mov.w	r0, #0
 8000a84:	4770      	bx	lr
 8000a86:	bf00      	nop

08000a88 <__aeabi_d2f>:
 8000a88:	ea4f 0241 	mov.w	r2, r1, lsl #1
 8000a8c:	f1b2 43e0 	subs.w	r3, r2, #1879048192	; 0x70000000
 8000a90:	bf24      	itt	cs
 8000a92:	f5b3 1c00 	subscs.w	ip, r3, #2097152	; 0x200000
 8000a96:	f1dc 5cfe 	rsbscs	ip, ip, #532676608	; 0x1fc00000
 8000a9a:	d90d      	bls.n	8000ab8 <__aeabi_d2f+0x30>
 8000a9c:	f001 4c00 	and.w	ip, r1, #2147483648	; 0x80000000
 8000aa0:	ea4f 02c0 	mov.w	r2, r0, lsl #3
 8000aa4:	ea4c 7050 	orr.w	r0, ip, r0, lsr #29
 8000aa8:	f1b2 4f00 	cmp.w	r2, #2147483648	; 0x80000000
 8000aac:	eb40 0083 	adc.w	r0, r0, r3, lsl #2
 8000ab0:	bf08      	it	eq
 8000ab2:	f020 0001 	biceq.w	r0, r0, #1
 8000ab6:	4770      	bx	lr
 8000ab8:	f011 4f80 	tst.w	r1, #1073741824	; 0x40000000
 8000abc:	d121      	bne.n	8000b02 <__aeabi_d2f+0x7a>
 8000abe:	f113 7238 	adds.w	r2, r3, #48234496	; 0x2e00000
 8000ac2:	bfbc      	itt	lt
 8000ac4:	f001 4000 	andlt.w	r0, r1, #2147483648	; 0x80000000
 8000ac8:	4770      	bxlt	lr
 8000aca:	f441 1180 	orr.w	r1, r1, #1048576	; 0x100000
 8000ace:	ea4f 5252 	mov.w	r2, r2, lsr #21
 8000ad2:	f1c2 0218 	rsb	r2, r2, #24
 8000ad6:	f1c2 0c20 	rsb	ip, r2, #32
 8000ada:	fa10 f30c 	lsls.w	r3, r0, ip
 8000ade:	fa20 f002 	lsr.w	r0, r0, r2
 8000ae2:	bf18      	it	ne
 8000ae4:	f040 0001 	orrne.w	r0, r0, #1
 8000ae8:	ea4f 23c1 	mov.w	r3, r1, lsl #11
 8000aec:	ea4f 23d3 	mov.w	r3, r3, lsr #11
 8000af0:	fa03 fc0c 	lsl.w	ip, r3, ip
 8000af4:	ea40 000c 	orr.w	r0, r0, ip
 8000af8:	fa23 f302 	lsr.w	r3, r3, r2
 8000afc:	ea4f 0343 	mov.w	r3, r3, lsl #1
 8000b00:	e7cc      	b.n	8000a9c <__aeabi_d2f+0x14>
 8000b02:	ea7f 5362 	mvns.w	r3, r2, asr #21
 8000b06:	d107      	bne.n	8000b18 <__aeabi_d2f+0x90>
 8000b08:	ea50 3301 	orrs.w	r3, r0, r1, lsl #12
 8000b0c:	bf1e      	ittt	ne
 8000b0e:	f04f 40fe 	movne.w	r0, #2130706432	; 0x7f000000
 8000b12:	f440 0040 	orrne.w	r0, r0, #12582912	; 0xc00000
 8000b16:	4770      	bxne	lr
 8000b18:	f001 4000 	and.w	r0, r1, #2147483648	; 0x80000000
 8000b1c:	f040 40fe 	orr.w	r0, r0, #2130706432	; 0x7f000000
 8000b20:	f440 0000 	orr.w	r0, r0, #8388608	; 0x800000
 8000b24:	4770      	bx	lr
 8000b26:	bf00      	nop

08000b28 <__aeabi_frsub>:
 8000b28:	f080 4000 	eor.w	r0, r0, #2147483648	; 0x80000000
 8000b2c:	e002      	b.n	8000b34 <__addsf3>
 8000b2e:	bf00      	nop

08000b30 <__aeabi_fsub>:
 8000b30:	f081 4100 	eor.w	r1, r1, #2147483648	; 0x80000000

08000b34 <__addsf3>:
 8000b34:	0042      	lsls	r2, r0, #1
 8000b36:	bf1f      	itttt	ne
 8000b38:	ea5f 0341 	movsne.w	r3, r1, lsl #1
 8000b3c:	ea92 0f03 	teqne	r2, r3
 8000b40:	ea7f 6c22 	mvnsne.w	ip, r2, asr #24
 8000b44:	ea7f 6c23 	mvnsne.w	ip, r3, asr #24
 8000b48:	d06a      	beq.n	8000c20 <__addsf3+0xec>
 8000b4a:	ea4f 6212 	mov.w	r2, r2, lsr #24
 8000b4e:	ebd2 6313 	rsbs	r3, r2, r3, lsr #24
 8000b52:	bfc1      	itttt	gt
 8000b54:	18d2      	addgt	r2, r2, r3
 8000b56:	4041      	eorgt	r1, r0
 8000b58:	4048      	eorgt	r0, r1
 8000b5a:	4041      	eorgt	r1, r0
 8000b5c:	bfb8      	it	lt
 8000b5e:	425b      	neglt	r3, r3
 8000b60:	2b19      	cmp	r3, #25
 8000b62:	bf88      	it	hi
 8000b64:	4770      	bxhi	lr
 8000b66:	f010 4f00 	tst.w	r0, #2147483648	; 0x80000000
 8000b6a:	f440 0000 	orr.w	r0, r0, #8388608	; 0x800000
 8000b6e:	f020 407f 	bic.w	r0, r0, #4278190080	; 0xff000000
 8000b72:	bf18      	it	ne
 8000b74:	4240      	negne	r0, r0
 8000b76:	f011 4f00 	tst.w	r1, #2147483648	; 0x80000000
 8000b7a:	f441 0100 	orr.w	r1, r1, #8388608	; 0x800000
 8000b7e:	f021 417f 	bic.w	r1, r1, #4278190080	; 0xff000000
 8000b82:	bf18      	it	ne
 8000b84:	4249      	negne	r1, r1
 8000b86:	ea92 0f03 	teq	r2, r3
 8000b8a:	d03f      	beq.n	8000c0c <__addsf3+0xd8>
 8000b8c:	f1a2 0201 	sub.w	r2, r2, #1
 8000b90:	fa41 fc03 	asr.w	ip, r1, r3
 8000b94:	eb10 000c 	adds.w	r0, r0, ip
 8000b98:	f1c3 0320 	rsb	r3, r3, #32
 8000b9c:	fa01 f103 	lsl.w	r1, r1, r3
 8000ba0:	f000 4300 	and.w	r3, r0, #2147483648	; 0x80000000
 8000ba4:	d502      	bpl.n	8000bac <__addsf3+0x78>
 8000ba6:	4249      	negs	r1, r1
 8000ba8:	eb60 0040 	sbc.w	r0, r0, r0, lsl #1
 8000bac:	f5b0 0f00 	cmp.w	r0, #8388608	; 0x800000
 8000bb0:	d313      	bcc.n	8000bda <__addsf3+0xa6>
 8000bb2:	f1b0 7f80 	cmp.w	r0, #16777216	; 0x1000000
 8000bb6:	d306      	bcc.n	8000bc6 <__addsf3+0x92>
 8000bb8:	0840      	lsrs	r0, r0, #1
 8000bba:	ea4f 0131 	mov.w	r1, r1, rrx
 8000bbe:	f102 0201 	add.w	r2, r2, #1
 8000bc2:	2afe      	cmp	r2, #254	; 0xfe
 8000bc4:	d251      	bcs.n	8000c6a <__addsf3+0x136>
 8000bc6:	f1b1 4f00 	cmp.w	r1, #2147483648	; 0x80000000
 8000bca:	eb40 50c2 	adc.w	r0, r0, r2, lsl #23
 8000bce:	bf08      	it	eq
 8000bd0:	f020 0001 	biceq.w	r0, r0, #1
 8000bd4:	ea40 0003 	orr.w	r0, r0, r3
 8000bd8:	4770      	bx	lr
 8000bda:	0049      	lsls	r1, r1, #1
 8000bdc:	eb40 0000 	adc.w	r0, r0, r0
 8000be0:	3a01      	subs	r2, #1
 8000be2:	bf28      	it	cs
 8000be4:	f5b0 0f00 	cmpcs.w	r0, #8388608	; 0x800000
 8000be8:	d2ed      	bcs.n	8000bc6 <__addsf3+0x92>
 8000bea:	fab0 fc80 	clz	ip, r0
 8000bee:	f1ac 0c08 	sub.w	ip, ip, #8
 8000bf2:	ebb2 020c 	subs.w	r2, r2, ip
 8000bf6:	fa00 f00c 	lsl.w	r0, r0, ip
 8000bfa:	bfaa      	itet	ge
 8000bfc:	eb00 50c2 	addge.w	r0, r0, r2, lsl #23
 8000c00:	4252      	neglt	r2, r2
 8000c02:	4318      	orrge	r0, r3
 8000c04:	bfbc      	itt	lt
 8000c06:	40d0      	lsrlt	r0, r2
 8000c08:	4318      	orrlt	r0, r3
 8000c0a:	4770      	bx	lr
 8000c0c:	f092 0f00 	teq	r2, #0
 8000c10:	f481 0100 	eor.w	r1, r1, #8388608	; 0x800000
 8000c14:	bf06      	itte	eq
 8000c16:	f480 0000 	eoreq.w	r0, r0, #8388608	; 0x800000
 8000c1a:	3201      	addeq	r2, #1
 8000c1c:	3b01      	subne	r3, #1
 8000c1e:	e7b5      	b.n	8000b8c <__addsf3+0x58>
 8000c20:	ea4f 0341 	mov.w	r3, r1, lsl #1
 8000c24:	ea7f 6c22 	mvns.w	ip, r2, asr #24
 8000c28:	bf18      	it	ne
 8000c2a:	ea7f 6c23 	mvnsne.w	ip, r3, asr #24
 8000c2e:	d021      	beq.n	8000c74 <__addsf3+0x140>
 8000c30:	ea92 0f03 	teq	r2, r3
 8000c34:	d004      	beq.n	8000c40 <__addsf3+0x10c>
 8000c36:	f092 0f00 	teq	r2, #0
 8000c3a:	bf08      	it	eq
 8000c3c:	4608      	moveq	r0, r1
 8000c3e:	4770      	bx	lr
 8000c40:	ea90 0f01 	teq	r0, r1
 8000c44:	bf1c      	itt	ne
 8000c46:	2000      	movne	r0, #0
 8000c48:	4770      	bxne	lr
 8000c4a:	f012 4f7f 	tst.w	r2, #4278190080	; 0xff000000
 8000c4e:	d104      	bne.n	8000c5a <__addsf3+0x126>
 8000c50:	0040      	lsls	r0, r0, #1
 8000c52:	bf28      	it	cs
 8000c54:	f040 4000 	orrcs.w	r0, r0, #2147483648	; 0x80000000
 8000c58:	4770      	bx	lr
 8000c5a:	f112 7200 	adds.w	r2, r2, #33554432	; 0x2000000
 8000c5e:	bf3c      	itt	cc
 8000c60:	f500 0000 	addcc.w	r0, r0, #8388608	; 0x800000
 8000c64:	4770      	bxcc	lr
 8000c66:	f000 4300 	and.w	r3, r0, #2147483648	; 0x80000000
 8000c6a:	f043 40fe 	orr.w	r0, r3, #2130706432	; 0x7f000000
 8000c6e:	f440 0000 	orr.w	r0, r0, #8388608	; 0x800000
 8000c72:	4770      	bx	lr
 8000c74:	ea7f 6222 	mvns.w	r2, r2, asr #24
 8000c78:	bf16      	itet	ne
 8000c7a:	4608      	movne	r0, r1
 8000c7c:	ea7f 6323 	mvnseq.w	r3, r3, asr #24
 8000c80:	4601      	movne	r1, r0
 8000c82:	0242      	lsls	r2, r0, #9
 8000c84:	bf06      	itte	eq
 8000c86:	ea5f 2341 	movseq.w	r3, r1, lsl #9
 8000c8a:	ea90 0f01 	teqeq	r0, r1
 8000c8e:	f440 0080 	orrne.w	r0, r0, #4194304	; 0x400000
 8000c92:	4770      	bx	lr

08000c94 <__aeabi_ui2f>:
 8000c94:	f04f 0300 	mov.w	r3, #0
 8000c98:	e004      	b.n	8000ca4 <__aeabi_i2f+0x8>
 8000c9a:	bf00      	nop

08000c9c <__aeabi_i2f>:
 8000c9c:	f010 4300 	ands.w	r3, r0, #2147483648	; 0x80000000
 8000ca0:	bf48      	it	mi
 8000ca2:	4240      	negmi	r0, r0
 8000ca4:	ea5f 0c00 	movs.w	ip, r0
 8000ca8:	bf08      	it	eq
 8000caa:	4770      	bxeq	lr
 8000cac:	f043 4396 	orr.w	r3, r3, #1258291200	; 0x4b000000
 8000cb0:	4601      	mov	r1, r0
 8000cb2:	f04f 0000 	mov.w	r0, #0
 8000cb6:	e01c      	b.n	8000cf2 <__aeabi_l2f+0x2a>

08000cb8 <__aeabi_ul2f>:
 8000cb8:	ea50 0201 	orrs.w	r2, r0, r1
 8000cbc:	bf08      	it	eq
 8000cbe:	4770      	bxeq	lr
 8000cc0:	f04f 0300 	mov.w	r3, #0
 8000cc4:	e00a      	b.n	8000cdc <__aeabi_l2f+0x14>
 8000cc6:	bf00      	nop

08000cc8 <__aeabi_l2f>:
 8000cc8:	ea50 0201 	orrs.w	r2, r0, r1
 8000ccc:	bf08      	it	eq
 8000cce:	4770      	bxeq	lr
 8000cd0:	f011 4300 	ands.w	r3, r1, #2147483648	; 0x80000000
 8000cd4:	d502      	bpl.n	8000cdc <__aeabi_l2f+0x14>
 8000cd6:	4240      	negs	r0, r0
 8000cd8:	eb61 0141 	sbc.w	r1, r1, r1, lsl #1
 8000cdc:	ea5f 0c01 	movs.w	ip, r1
 8000ce0:	bf02      	ittt	eq
 8000ce2:	4684      	moveq	ip, r0
 8000ce4:	4601      	moveq	r1, r0
 8000ce6:	2000      	moveq	r0, #0
 8000ce8:	f043 43b6 	orr.w	r3, r3, #1526726656	; 0x5b000000
 8000cec:	bf08      	it	eq
 8000cee:	f1a3 5380 	subeq.w	r3, r3, #268435456	; 0x10000000
 8000cf2:	f5a3 0300 	sub.w	r3, r3, #8388608	; 0x800000
 8000cf6:	fabc f28c 	clz	r2, ip
 8000cfa:	3a08      	subs	r2, #8
 8000cfc:	eba3 53c2 	sub.w	r3, r3, r2, lsl #23
 8000d00:	db10      	blt.n	8000d24 <__aeabi_l2f+0x5c>
 8000d02:	fa01 fc02 	lsl.w	ip, r1, r2
 8000d06:	4463      	add	r3, ip
 8000d08:	fa00 fc02 	lsl.w	ip, r0, r2
 8000d0c:	f1c2 0220 	rsb	r2, r2, #32
 8000d10:	f1bc 4f00 	cmp.w	ip, #2147483648	; 0x80000000
 8000d14:	fa20 f202 	lsr.w	r2, r0, r2
 8000d18:	eb43 0002 	adc.w	r0, r3, r2
 8000d1c:	bf08      	it	eq
 8000d1e:	f020 0001 	biceq.w	r0, r0, #1
 8000d22:	4770      	bx	lr
 8000d24:	f102 0220 	add.w	r2, r2, #32
 8000d28:	fa01 fc02 	lsl.w	ip, r1, r2
 8000d2c:	f1c2 0220 	rsb	r2, r2, #32
 8000d30:	ea50 004c 	orrs.w	r0, r0, ip, lsl #1
 8000d34:	fa21 f202 	lsr.w	r2, r1, r2
 8000d38:	eb43 0002 	adc.w	r0, r3, r2
 8000d3c:	bf08      	it	eq
 8000d3e:	ea20 70dc 	biceq.w	r0, r0, ip, lsr #31
 8000d42:	4770      	bx	lr

08000d44 <__aeabi_fmul>:
 8000d44:	f04f 0cff 	mov.w	ip, #255	; 0xff
 8000d48:	ea1c 52d0 	ands.w	r2, ip, r0, lsr #23
 8000d4c:	bf1e      	ittt	ne
 8000d4e:	ea1c 53d1 	andsne.w	r3, ip, r1, lsr #23
 8000d52:	ea92 0f0c 	teqne	r2, ip
 8000d56:	ea93 0f0c 	teqne	r3, ip
 8000d5a:	d06f      	beq.n	8000e3c <__aeabi_fmul+0xf8>
 8000d5c:	441a      	add	r2, r3
 8000d5e:	ea80 0c01 	eor.w	ip, r0, r1
 8000d62:	0240      	lsls	r0, r0, #9
 8000d64:	bf18      	it	ne
 8000d66:	ea5f 2141 	movsne.w	r1, r1, lsl #9
 8000d6a:	d01e      	beq.n	8000daa <__aeabi_fmul+0x66>
 8000d6c:	f04f 6300 	mov.w	r3, #134217728	; 0x8000000
 8000d70:	ea43 1050 	orr.w	r0, r3, r0, lsr #5
 8000d74:	ea43 1151 	orr.w	r1, r3, r1, lsr #5
 8000d78:	fba0 3101 	umull	r3, r1, r0, r1
 8000d7c:	f00c 4000 	and.w	r0, ip, #2147483648	; 0x80000000
 8000d80:	f5b1 0f00 	cmp.w	r1, #8388608	; 0x800000
 8000d84:	bf3e      	ittt	cc
 8000d86:	0049      	lslcc	r1, r1, #1
 8000d88:	ea41 71d3 	orrcc.w	r1, r1, r3, lsr #31
 8000d8c:	005b      	lslcc	r3, r3, #1
 8000d8e:	ea40 0001 	orr.w	r0, r0, r1
 8000d92:	f162 027f 	sbc.w	r2, r2, #127	; 0x7f
 8000d96:	2afd      	cmp	r2, #253	; 0xfd
 8000d98:	d81d      	bhi.n	8000dd6 <__aeabi_fmul+0x92>
 8000d9a:	f1b3 4f00 	cmp.w	r3, #2147483648	; 0x80000000
 8000d9e:	eb40 50c2 	adc.w	r0, r0, r2, lsl #23
 8000da2:	bf08      	it	eq
 8000da4:	f020 0001 	biceq.w	r0, r0, #1
 8000da8:	4770      	bx	lr
 8000daa:	f090 0f00 	teq	r0, #0
 8000dae:	f00c 4c00 	and.w	ip, ip, #2147483648	; 0x80000000
 8000db2:	bf08      	it	eq
 8000db4:	0249      	lsleq	r1, r1, #9
 8000db6:	ea4c 2050 	orr.w	r0, ip, r0, lsr #9
 8000dba:	ea40 2051 	orr.w	r0, r0, r1, lsr #9
 8000dbe:	3a7f      	subs	r2, #127	; 0x7f
 8000dc0:	bfc2      	ittt	gt
 8000dc2:	f1d2 03ff 	rsbsgt	r3, r2, #255	; 0xff
 8000dc6:	ea40 50c2 	orrgt.w	r0, r0, r2, lsl #23
 8000dca:	4770      	bxgt	lr
 8000dcc:	f440 0000 	orr.w	r0, r0, #8388608	; 0x800000
 8000dd0:	f04f 0300 	mov.w	r3, #0
 8000dd4:	3a01      	subs	r2, #1
 8000dd6:	dc5d      	bgt.n	8000e94 <__aeabi_fmul+0x150>
 8000dd8:	f112 0f19 	cmn.w	r2, #25
 8000ddc:	bfdc      	itt	le
 8000dde:	f000 4000 	andle.w	r0, r0, #2147483648	; 0x80000000
 8000de2:	4770      	bxle	lr
 8000de4:	f1c2 0200 	rsb	r2, r2, #0
 8000de8:	0041      	lsls	r1, r0, #1
 8000dea:	fa21 f102 	lsr.w	r1, r1, r2
 8000dee:	f1c2 0220 	rsb	r2, r2, #32
 8000df2:	fa00 fc02 	lsl.w	ip, r0, r2
 8000df6:	ea5f 0031 	movs.w	r0, r1, rrx
 8000dfa:	f140 0000 	adc.w	r0, r0, #0
 8000dfe:	ea53 034c 	orrs.w	r3, r3, ip, lsl #1
 8000e02:	bf08      	it	eq
 8000e04:	ea20 70dc 	biceq.w	r0, r0, ip, lsr #31
 8000e08:	4770      	bx	lr
 8000e0a:	f092 0f00 	teq	r2, #0
 8000e0e:	f000 4c00 	and.w	ip, r0, #2147483648	; 0x80000000
 8000e12:	bf02      	ittt	eq
 8000e14:	0040      	lsleq	r0, r0, #1
 8000e16:	f410 0f00 	tsteq.w	r0, #8388608	; 0x800000
 8000e1a:	3a01      	subeq	r2, #1
 8000e1c:	d0f9      	beq.n	8000e12 <__aeabi_fmul+0xce>
 8000e1e:	ea40 000c 	orr.w	r0, r0, ip
 8000e22:	f093 0f00 	teq	r3, #0
 8000e26:	f001 4c00 	and.w	ip, r1, #2147483648	; 0x80000000
 8000e2a:	bf02      	ittt	eq
 8000e2c:	0049      	lsleq	r1, r1, #1
 8000e2e:	f411 0f00 	tsteq.w	r1, #8388608	; 0x800000
 8000e32:	3b01      	subeq	r3, #1
 8000e34:	d0f9      	beq.n	8000e2a <__aeabi_fmul+0xe6>
 8000e36:	ea41 010c 	orr.w	r1, r1, ip
 8000e3a:	e78f      	b.n	8000d5c <__aeabi_fmul+0x18>
 8000e3c:	ea0c 53d1 	and.w	r3, ip, r1, lsr #23
 8000e40:	ea92 0f0c 	teq	r2, ip
 8000e44:	bf18      	it	ne
 8000e46:	ea93 0f0c 	teqne	r3, ip
 8000e4a:	d00a      	beq.n	8000e62 <__aeabi_fmul+0x11e>
 8000e4c:	f030 4c00 	bics.w	ip, r0, #2147483648	; 0x80000000
 8000e50:	bf18      	it	ne
 8000e52:	f031 4c00 	bicsne.w	ip, r1, #2147483648	; 0x80000000
 8000e56:	d1d8      	bne.n	8000e0a <__aeabi_fmul+0xc6>
 8000e58:	ea80 0001 	eor.w	r0, r0, r1
 8000e5c:	f000 4000 	and.w	r0, r0, #2147483648	; 0x80000000
 8000e60:	4770      	bx	lr
 8000e62:	f090 0f00 	teq	r0, #0
 8000e66:	bf17      	itett	ne
 8000e68:	f090 4f00 	teqne	r0, #2147483648	; 0x80000000
 8000e6c:	4608      	moveq	r0, r1
 8000e6e:	f091 0f00 	teqne	r1, #0
 8000e72:	f091 4f00 	teqne	r1, #2147483648	; 0x80000000
 8000e76:	d014      	beq.n	8000ea2 <__aeabi_fmul+0x15e>
 8000e78:	ea92 0f0c 	teq	r2, ip
 8000e7c:	d101      	bne.n	8000e82 <__aeabi_fmul+0x13e>
 8000e7e:	0242      	lsls	r2, r0, #9
 8000e80:	d10f      	bne.n	8000ea2 <__aeabi_fmul+0x15e>
 8000e82:	ea93 0f0c 	teq	r3, ip
 8000e86:	d103      	bne.n	8000e90 <__aeabi_fmul+0x14c>
 8000e88:	024b      	lsls	r3, r1, #9
 8000e8a:	bf18      	it	ne
 8000e8c:	4608      	movne	r0, r1
 8000e8e:	d108      	bne.n	8000ea2 <__aeabi_fmul+0x15e>
 8000e90:	ea80 0001 	eor.w	r0, r0, r1
 8000e94:	f000 4000 	and.w	r0, r0, #2147483648	; 0x80000000
 8000e98:	f040 40fe 	orr.w	r0, r0, #2130706432	; 0x7f000000
 8000e9c:	f440 0000 	orr.w	r0, r0, #8388608	; 0x800000
 8000ea0:	4770      	bx	lr
 8000ea2:	f040 40fe 	orr.w	r0, r0, #2130706432	; 0x7f000000
 8000ea6:	f440 0040 	orr.w	r0, r0, #12582912	; 0xc00000
 8000eaa:	4770      	bx	lr

08000eac <__aeabi_fdiv>:
 8000eac:	f04f 0cff 	mov.w	ip, #255	; 0xff
 8000eb0:	ea1c 52d0 	ands.w	r2, ip, r0, lsr #23
 8000eb4:	bf1e      	ittt	ne
 8000eb6:	ea1c 53d1 	andsne.w	r3, ip, r1, lsr #23
 8000eba:	ea92 0f0c 	teqne	r2, ip
 8000ebe:	ea93 0f0c 	teqne	r3, ip
 8000ec2:	d069      	beq.n	8000f98 <__aeabi_fdiv+0xec>
 8000ec4:	eba2 0203 	sub.w	r2, r2, r3
 8000ec8:	ea80 0c01 	eor.w	ip, r0, r1
 8000ecc:	0249      	lsls	r1, r1, #9
 8000ece:	ea4f 2040 	mov.w	r0, r0, lsl #9
 8000ed2:	d037      	beq.n	8000f44 <__aeabi_fdiv+0x98>
 8000ed4:	f04f 5380 	mov.w	r3, #268435456	; 0x10000000
 8000ed8:	ea43 1111 	orr.w	r1, r3, r1, lsr #4
 8000edc:	ea43 1310 	orr.w	r3, r3, r0, lsr #4
 8000ee0:	f00c 4000 	and.w	r0, ip, #2147483648	; 0x80000000
 8000ee4:	428b      	cmp	r3, r1
 8000ee6:	bf38      	it	cc
 8000ee8:	005b      	lslcc	r3, r3, #1
 8000eea:	f142 027d 	adc.w	r2, r2, #125	; 0x7d
 8000eee:	f44f 0c00 	mov.w	ip, #8388608	; 0x800000
 8000ef2:	428b      	cmp	r3, r1
 8000ef4:	bf24      	itt	cs
 8000ef6:	1a5b      	subcs	r3, r3, r1
 8000ef8:	ea40 000c 	orrcs.w	r0, r0, ip
 8000efc:	ebb3 0f51 	cmp.w	r3, r1, lsr #1
 8000f00:	bf24      	itt	cs
 8000f02:	eba3 0351 	subcs.w	r3, r3, r1, lsr #1
 8000f06:	ea40 005c 	orrcs.w	r0, r0, ip, lsr #1
 8000f0a:	ebb3 0f91 	cmp.w	r3, r1, lsr #2
 8000f0e:	bf24      	itt	cs
 8000f10:	eba3 0391 	subcs.w	r3, r3, r1, lsr #2
 8000f14:	ea40 009c 	orrcs.w	r0, r0, ip, lsr #2
 8000f18:	ebb3 0fd1 	cmp.w	r3, r1, lsr #3
 8000f1c:	bf24      	itt	cs
 8000f1e:	eba3 03d1 	subcs.w	r3, r3, r1, lsr #3
 8000f22:	ea40 00dc 	orrcs.w	r0, r0, ip, lsr #3
 8000f26:	011b      	lsls	r3, r3, #4
 8000f28:	bf18      	it	ne
 8000f2a:	ea5f 1c1c 	movsne.w	ip, ip, lsr #4
 8000f2e:	d1e0      	bne.n	8000ef2 <__aeabi_fdiv+0x46>
 8000f30:	2afd      	cmp	r2, #253	; 0xfd
 8000f32:	f63f af50 	bhi.w	8000dd6 <__aeabi_fmul+0x92>
 8000f36:	428b      	cmp	r3, r1
 8000f38:	eb40 50c2 	adc.w	r0, r0, r2, lsl #23
 8000f3c:	bf08      	it	eq
 8000f3e:	f020 0001 	biceq.w	r0, r0, #1
 8000f42:	4770      	bx	lr
 8000f44:	f00c 4c00 	and.w	ip, ip, #2147483648	; 0x80000000
 8000f48:	ea4c 2050 	orr.w	r0, ip, r0, lsr #9
 8000f4c:	327f      	adds	r2, #127	; 0x7f
 8000f4e:	bfc2      	ittt	gt
 8000f50:	f1d2 03ff 	rsbsgt	r3, r2, #255	; 0xff
 8000f54:	ea40 50c2 	orrgt.w	r0, r0, r2, lsl #23
 8000f58:	4770      	bxgt	lr
 8000f5a:	f440 0000 	orr.w	r0, r0, #8388608	; 0x800000
 8000f5e:	f04f 0300 	mov.w	r3, #0
 8000f62:	3a01      	subs	r2, #1
 8000f64:	e737      	b.n	8000dd6 <__aeabi_fmul+0x92>
 8000f66:	f092 0f00 	teq	r2, #0
 8000f6a:	f000 4c00 	and.w	ip, r0, #2147483648	; 0x80000000
 8000f6e:	bf02      	ittt	eq
 8000f70:	0040      	lsleq	r0, r0, #1
 8000f72:	f410 0f00 	tsteq.w	r0, #8388608	; 0x800000
 8000f76:	3a01      	subeq	r2, #1
 8000f78:	d0f9      	beq.n	8000f6e <__aeabi_fdiv+0xc2>
 8000f7a:	ea40 000c 	orr.w	r0, r0, ip
 8000f7e:	f093 0f00 	teq	r3, #0
 8000f82:	f001 4c00 	and.w	ip, r1, #2147483648	; 0x80000000
 8000f86:	bf02      	ittt	eq
 8000f88:	0049      	lsleq	r1, r1, #1
 8000f8a:	f411 0f00 	tsteq.w	r1, #8388608	; 0x800000
 8000f8e:	3b01      	subeq	r3, #1
 8000f90:	d0f9      	beq.n	8000f86 <__aeabi_fdiv+0xda>
 8000f92:	ea41 010c 	orr.w	r1, r1, ip
 8000f96:	e795      	b.n	8000ec4 <__aeabi_fdiv+0x18>
 8000f98:	ea0c 53d1 	and.w	r3, ip, r1, lsr #23
 8000f9c:	ea92 0f0c 	teq	r2, ip
 8000fa0:	d108      	bne.n	8000fb4 <__aeabi_fdiv+0x108>
 8000fa2:	0242      	lsls	r2, r0, #9
 8000fa4:	f47f af7d 	bne.w	8000ea2 <__aeabi_fmul+0x15e>
 8000fa8:	ea93 0f0c 	teq	r3, ip
 8000fac:	f47f af70 	bne.w	8000e90 <__aeabi_fmul+0x14c>
 8000fb0:	4608      	mov	r0, r1
 8000fb2:	e776      	b.n	8000ea2 <__aeabi_fmul+0x15e>
 8000fb4:	ea93 0f0c 	teq	r3, ip
 8000fb8:	d104      	bne.n	8000fc4 <__aeabi_fdiv+0x118>
 8000fba:	024b      	lsls	r3, r1, #9
 8000fbc:	f43f af4c 	beq.w	8000e58 <__aeabi_fmul+0x114>
 8000fc0:	4608      	mov	r0, r1
 8000fc2:	e76e      	b.n	8000ea2 <__aeabi_fmul+0x15e>
 8000fc4:	f030 4c00 	bics.w	ip, r0, #2147483648	; 0x80000000
 8000fc8:	bf18      	it	ne
 8000fca:	f031 4c00 	bicsne.w	ip, r1, #2147483648	; 0x80000000
 8000fce:	d1ca      	bne.n	8000f66 <__aeabi_fdiv+0xba>
 8000fd0:	f030 4200 	bics.w	r2, r0, #2147483648	; 0x80000000
 8000fd4:	f47f af5c 	bne.w	8000e90 <__aeabi_fmul+0x14c>
 8000fd8:	f031 4300 	bics.w	r3, r1, #2147483648	; 0x80000000
 8000fdc:	f47f af3c 	bne.w	8000e58 <__aeabi_fmul+0x114>
 8000fe0:	e75f      	b.n	8000ea2 <__aeabi_fmul+0x15e>
 8000fe2:	bf00      	nop

08000fe4 <__aeabi_ldivmod>:
 8000fe4:	b97b      	cbnz	r3, 8001006 <__aeabi_ldivmod+0x22>
 8000fe6:	b972      	cbnz	r2, 8001006 <__aeabi_ldivmod+0x22>
 8000fe8:	2900      	cmp	r1, #0
 8000fea:	bfbe      	ittt	lt
 8000fec:	2000      	movlt	r0, #0
 8000fee:	f04f 4100 	movlt.w	r1, #2147483648	; 0x80000000
 8000ff2:	e006      	blt.n	8001002 <__aeabi_ldivmod+0x1e>
 8000ff4:	bf08      	it	eq
 8000ff6:	2800      	cmpeq	r0, #0
 8000ff8:	bf1c      	itt	ne
 8000ffa:	f06f 4100 	mvnne.w	r1, #2147483648	; 0x80000000
 8000ffe:	f04f 30ff 	movne.w	r0, #4294967295	; 0xffffffff
 8001002:	f000 b9a3 	b.w	800134c <__aeabi_idiv0>
 8001006:	f1ad 0c08 	sub.w	ip, sp, #8
 800100a:	e96d ce04 	strd	ip, lr, [sp, #-16]!
 800100e:	2900      	cmp	r1, #0
 8001010:	db09      	blt.n	8001026 <__aeabi_ldivmod+0x42>
 8001012:	2b00      	cmp	r3, #0
 8001014:	db1a      	blt.n	800104c <__aeabi_ldivmod+0x68>
 8001016:	f000 f837 	bl	8001088 <__udivmoddi4>
 800101a:	f8dd e004 	ldr.w	lr, [sp, #4]
 800101e:	e9dd 2302 	ldrd	r2, r3, [sp, #8]
 8001022:	b004      	add	sp, #16
 8001024:	4770      	bx	lr
 8001026:	4240      	negs	r0, r0
 8001028:	eb61 0141 	sbc.w	r1, r1, r1, lsl #1
 800102c:	2b00      	cmp	r3, #0
 800102e:	db1b      	blt.n	8001068 <__aeabi_ldivmod+0x84>
 8001030:	f000 f82a 	bl	8001088 <__udivmoddi4>
 8001034:	f8dd e004 	ldr.w	lr, [sp, #4]
 8001038:	e9dd 2302 	ldrd	r2, r3, [sp, #8]
 800103c:	b004      	add	sp, #16
 800103e:	4240      	negs	r0, r0
 8001040:	eb61 0141 	sbc.w	r1, r1, r1, lsl #1
 8001044:	4252      	negs	r2, r2
 8001046:	eb63 0343 	sbc.w	r3, r3, r3, lsl #1
 800104a:	4770      	bx	lr
 800104c:	4252      	negs	r2, r2
 800104e:	eb63 0343 	sbc.w	r3, r3, r3, lsl #1
 8001052:	f000 f819 	bl	8001088 <__udivmoddi4>
 8001056:	f8dd e004 	ldr.w	lr, [sp, #4]
 800105a:	e9dd 2302 	ldrd	r2, r3, [sp, #8]
 800105e:	b004      	add	sp, #16
 8001060:	4240      	negs	r0, r0
 8001062:	eb61 0141 	sbc.w	r1, r1, r1, lsl #1
 8001066:	4770      	bx	lr
 8001068:	4252      	negs	r2, r2
 800106a:	eb63 0343 	sbc.w	r3, r3, r3, lsl #1
 800106e:	f000 f80b 	bl	8001088 <__udivmoddi4>
 8001072:	f8dd e004 	ldr.w	lr, [sp, #4]
 8001076:	e9dd 2302 	ldrd	r2, r3, [sp, #8]
 800107a:	b004      	add	sp, #16
 800107c:	4252      	negs	r2, r2
 800107e:	eb63 0343 	sbc.w	r3, r3, r3, lsl #1
 8001082:	4770      	bx	lr

08001084 <__clear_cache>:
 8001084:	4770      	bx	lr
 8001086:	bf00      	nop

08001088 <__udivmoddi4>:
 8001088:	e92d 47f0 	stmdb	sp!, {r4, r5, r6, r7, r8, r9, sl, lr}
 800108c:	9e08      	ldr	r6, [sp, #32]
 800108e:	460d      	mov	r5, r1
 8001090:	4604      	mov	r4, r0
 8001092:	468e      	mov	lr, r1
 8001094:	2b00      	cmp	r3, #0
 8001096:	f040 8083 	bne.w	80011a0 <__udivmoddi4+0x118>
 800109a:	428a      	cmp	r2, r1
 800109c:	4617      	mov	r7, r2
 800109e:	d947      	bls.n	8001130 <__udivmoddi4+0xa8>
 80010a0:	fab2 f382 	clz	r3, r2
 80010a4:	b14b      	cbz	r3, 80010ba <__udivmoddi4+0x32>
 80010a6:	f1c3 0120 	rsb	r1, r3, #32
 80010aa:	fa05 fe03 	lsl.w	lr, r5, r3
 80010ae:	fa20 f101 	lsr.w	r1, r0, r1
 80010b2:	409f      	lsls	r7, r3
 80010b4:	ea41 0e0e 	orr.w	lr, r1, lr
 80010b8:	409c      	lsls	r4, r3
 80010ba:	ea4f 4817 	mov.w	r8, r7, lsr #16
 80010be:	fbbe fcf8 	udiv	ip, lr, r8
 80010c2:	fa1f f987 	uxth.w	r9, r7
 80010c6:	fb08 e21c 	mls	r2, r8, ip, lr
 80010ca:	fb0c f009 	mul.w	r0, ip, r9
 80010ce:	0c21      	lsrs	r1, r4, #16
 80010d0:	ea41 4202 	orr.w	r2, r1, r2, lsl #16
 80010d4:	4290      	cmp	r0, r2
 80010d6:	d90a      	bls.n	80010ee <__udivmoddi4+0x66>
 80010d8:	18ba      	adds	r2, r7, r2
 80010da:	f10c 31ff 	add.w	r1, ip, #4294967295	; 0xffffffff
 80010de:	f080 8118 	bcs.w	8001312 <__udivmoddi4+0x28a>
 80010e2:	4290      	cmp	r0, r2
 80010e4:	f240 8115 	bls.w	8001312 <__udivmoddi4+0x28a>
 80010e8:	f1ac 0c02 	sub.w	ip, ip, #2
 80010ec:	443a      	add	r2, r7
 80010ee:	1a12      	subs	r2, r2, r0
 80010f0:	fbb2 f0f8 	udiv	r0, r2, r8
 80010f4:	fb08 2210 	mls	r2, r8, r0, r2
 80010f8:	fb00 f109 	mul.w	r1, r0, r9
 80010fc:	b2a4      	uxth	r4, r4
 80010fe:	ea44 4402 	orr.w	r4, r4, r2, lsl #16
 8001102:	42a1      	cmp	r1, r4
 8001104:	d909      	bls.n	800111a <__udivmoddi4+0x92>
 8001106:	193c      	adds	r4, r7, r4
 8001108:	f100 32ff 	add.w	r2, r0, #4294967295	; 0xffffffff
 800110c:	f080 8103 	bcs.w	8001316 <__udivmoddi4+0x28e>
 8001110:	42a1      	cmp	r1, r4
 8001112:	f240 8100 	bls.w	8001316 <__udivmoddi4+0x28e>
 8001116:	3802      	subs	r0, #2
 8001118:	443c      	add	r4, r7
 800111a:	1a64      	subs	r4, r4, r1
 800111c:	2100      	movs	r1, #0
 800111e:	ea40 400c 	orr.w	r0, r0, ip, lsl #16
 8001122:	b11e      	cbz	r6, 800112c <__udivmoddi4+0xa4>
 8001124:	2200      	movs	r2, #0
 8001126:	40dc      	lsrs	r4, r3
 8001128:	e9c6 4200 	strd	r4, r2, [r6]
 800112c:	e8bd 87f0 	ldmia.w	sp!, {r4, r5, r6, r7, r8, r9, sl, pc}
 8001130:	b902      	cbnz	r2, 8001134 <__udivmoddi4+0xac>
 8001132:	deff      	udf	#255	; 0xff
 8001134:	fab2 f382 	clz	r3, r2
 8001138:	2b00      	cmp	r3, #0
 800113a:	d14f      	bne.n	80011dc <__udivmoddi4+0x154>
 800113c:	1a8d      	subs	r5, r1, r2
 800113e:	2101      	movs	r1, #1
 8001140:	ea4f 4e12 	mov.w	lr, r2, lsr #16
 8001144:	fa1f f882 	uxth.w	r8, r2
 8001148:	fbb5 fcfe 	udiv	ip, r5, lr
 800114c:	fb0e 551c 	mls	r5, lr, ip, r5
 8001150:	fb08 f00c 	mul.w	r0, r8, ip
 8001154:	0c22      	lsrs	r2, r4, #16
 8001156:	ea42 4505 	orr.w	r5, r2, r5, lsl #16
 800115a:	42a8      	cmp	r0, r5
 800115c:	d907      	bls.n	800116e <__udivmoddi4+0xe6>
 800115e:	197d      	adds	r5, r7, r5
 8001160:	f10c 32ff 	add.w	r2, ip, #4294967295	; 0xffffffff
 8001164:	d202      	bcs.n	800116c <__udivmoddi4+0xe4>
 8001166:	42a8      	cmp	r0, r5
 8001168:	f200 80e9 	bhi.w	800133e <__udivmoddi4+0x2b6>
 800116c:	4694      	mov	ip, r2
 800116e:	1a2d      	subs	r5, r5, r0
 8001170:	fbb5 f0fe 	udiv	r0, r5, lr
 8001174:	fb0e 5510 	mls	r5, lr, r0, r5
 8001178:	fb08 f800 	mul.w	r8, r8, r0
 800117c:	b2a4      	uxth	r4, r4
 800117e:	ea44 4405 	orr.w	r4, r4, r5, lsl #16
 8001182:	45a0      	cmp	r8, r4
 8001184:	d907      	bls.n	8001196 <__udivmoddi4+0x10e>
 8001186:	193c      	adds	r4, r7, r4
 8001188:	f100 32ff 	add.w	r2, r0, #4294967295	; 0xffffffff
 800118c:	d202      	bcs.n	8001194 <__udivmoddi4+0x10c>
 800118e:	45a0      	cmp	r8, r4
 8001190:	f200 80d9 	bhi.w	8001346 <__udivmoddi4+0x2be>
 8001194:	4610      	mov	r0, r2
 8001196:	eba4 0408 	sub.w	r4, r4, r8
 800119a:	ea40 400c 	orr.w	r0, r0, ip, lsl #16
 800119e:	e7c0      	b.n	8001122 <__udivmoddi4+0x9a>
 80011a0:	428b      	cmp	r3, r1
 80011a2:	d908      	bls.n	80011b6 <__udivmoddi4+0x12e>
 80011a4:	2e00      	cmp	r6, #0
 80011a6:	f000 80b1 	beq.w	800130c <__udivmoddi4+0x284>
 80011aa:	2100      	movs	r1, #0
 80011ac:	e9c6 0500 	strd	r0, r5, [r6]
 80011b0:	4608      	mov	r0, r1
 80011b2:	e8bd 87f0 	ldmia.w	sp!, {r4, r5, r6, r7, r8, r9, sl, pc}
 80011b6:	fab3 f183 	clz	r1, r3
 80011ba:	2900      	cmp	r1, #0
 80011bc:	d14b      	bne.n	8001256 <__udivmoddi4+0x1ce>
 80011be:	42ab      	cmp	r3, r5
 80011c0:	d302      	bcc.n	80011c8 <__udivmoddi4+0x140>
 80011c2:	4282      	cmp	r2, r0
 80011c4:	f200 80b9 	bhi.w	800133a <__udivmoddi4+0x2b2>
 80011c8:	1a84      	subs	r4, r0, r2
 80011ca:	eb65 0303 	sbc.w	r3, r5, r3
 80011ce:	2001      	movs	r0, #1
 80011d0:	469e      	mov	lr, r3
 80011d2:	2e00      	cmp	r6, #0
 80011d4:	d0aa      	beq.n	800112c <__udivmoddi4+0xa4>
 80011d6:	e9c6 4e00 	strd	r4, lr, [r6]
 80011da:	e7a7      	b.n	800112c <__udivmoddi4+0xa4>
 80011dc:	409f      	lsls	r7, r3
 80011de:	f1c3 0220 	rsb	r2, r3, #32
 80011e2:	40d1      	lsrs	r1, r2
 80011e4:	ea4f 4e17 	mov.w	lr, r7, lsr #16
 80011e8:	fbb1 f0fe 	udiv	r0, r1, lr
 80011ec:	fa1f f887 	uxth.w	r8, r7
 80011f0:	fb0e 1110 	mls	r1, lr, r0, r1
 80011f4:	fa24 f202 	lsr.w	r2, r4, r2
 80011f8:	409d      	lsls	r5, r3
 80011fa:	fb00 fc08 	mul.w	ip, r0, r8
 80011fe:	432a      	orrs	r2, r5
 8001200:	0c15      	lsrs	r5, r2, #16
 8001202:	ea45 4501 	orr.w	r5, r5, r1, lsl #16
 8001206:	45ac      	cmp	ip, r5
 8001208:	fa04 f403 	lsl.w	r4, r4, r3
 800120c:	d909      	bls.n	8001222 <__udivmoddi4+0x19a>
 800120e:	197d      	adds	r5, r7, r5
 8001210:	f100 31ff 	add.w	r1, r0, #4294967295	; 0xffffffff
 8001214:	f080 808f 	bcs.w	8001336 <__udivmoddi4+0x2ae>
 8001218:	45ac      	cmp	ip, r5
 800121a:	f240 808c 	bls.w	8001336 <__udivmoddi4+0x2ae>
 800121e:	3802      	subs	r0, #2
 8001220:	443d      	add	r5, r7
 8001222:	eba5 050c 	sub.w	r5, r5, ip
 8001226:	fbb5 f1fe 	udiv	r1, r5, lr
 800122a:	fb0e 5c11 	mls	ip, lr, r1, r5
 800122e:	fb01 f908 	mul.w	r9, r1, r8
 8001232:	b295      	uxth	r5, r2
 8001234:	ea45 450c 	orr.w	r5, r5, ip, lsl #16
 8001238:	45a9      	cmp	r9, r5
 800123a:	d907      	bls.n	800124c <__udivmoddi4+0x1c4>
 800123c:	197d      	adds	r5, r7, r5
 800123e:	f101 32ff 	add.w	r2, r1, #4294967295	; 0xffffffff
 8001242:	d274      	bcs.n	800132e <__udivmoddi4+0x2a6>
 8001244:	45a9      	cmp	r9, r5
 8001246:	d972      	bls.n	800132e <__udivmoddi4+0x2a6>
 8001248:	3902      	subs	r1, #2
 800124a:	443d      	add	r5, r7
 800124c:	eba5 0509 	sub.w	r5, r5, r9
 8001250:	ea41 4100 	orr.w	r1, r1, r0, lsl #16
 8001254:	e778      	b.n	8001148 <__udivmoddi4+0xc0>
 8001256:	f1c1 0720 	rsb	r7, r1, #32
 800125a:	408b      	lsls	r3, r1
 800125c:	fa22 fc07 	lsr.w	ip, r2, r7
 8001260:	ea4c 0c03 	orr.w	ip, ip, r3
 8001264:	fa25 f407 	lsr.w	r4, r5, r7
 8001268:	ea4f 4e1c 	mov.w	lr, ip, lsr #16
 800126c:	fbb4 f9fe 	udiv	r9, r4, lr
 8001270:	fa1f f88c 	uxth.w	r8, ip
 8001274:	fb0e 4419 	mls	r4, lr, r9, r4
 8001278:	fa20 f307 	lsr.w	r3, r0, r7
 800127c:	fb09 fa08 	mul.w	sl, r9, r8
 8001280:	408d      	lsls	r5, r1
 8001282:	431d      	orrs	r5, r3
 8001284:	0c2b      	lsrs	r3, r5, #16
 8001286:	ea43 4404 	orr.w	r4, r3, r4, lsl #16
 800128a:	45a2      	cmp	sl, r4
 800128c:	fa02 f201 	lsl.w	r2, r2, r1
 8001290:	fa00 f301 	lsl.w	r3, r0, r1
 8001294:	d909      	bls.n	80012aa <__udivmoddi4+0x222>
 8001296:	eb1c 0404 	adds.w	r4, ip, r4
 800129a:	f109 30ff 	add.w	r0, r9, #4294967295	; 0xffffffff
 800129e:	d248      	bcs.n	8001332 <__udivmoddi4+0x2aa>
 80012a0:	45a2      	cmp	sl, r4
 80012a2:	d946      	bls.n	8001332 <__udivmoddi4+0x2aa>
 80012a4:	f1a9 0902 	sub.w	r9, r9, #2
 80012a8:	4464      	add	r4, ip
 80012aa:	eba4 040a 	sub.w	r4, r4, sl
 80012ae:	fbb4 f0fe 	udiv	r0, r4, lr
 80012b2:	fb0e 4410 	mls	r4, lr, r0, r4
 80012b6:	fb00 fa08 	mul.w	sl, r0, r8
 80012ba:	b2ad      	uxth	r5, r5
 80012bc:	ea45 4404 	orr.w	r4, r5, r4, lsl #16
 80012c0:	45a2      	cmp	sl, r4
 80012c2:	d908      	bls.n	80012d6 <__udivmoddi4+0x24e>
 80012c4:	eb1c 0404 	adds.w	r4, ip, r4
 80012c8:	f100 35ff 	add.w	r5, r0, #4294967295	; 0xffffffff
 80012cc:	d22d      	bcs.n	800132a <__udivmoddi4+0x2a2>
 80012ce:	45a2      	cmp	sl, r4
 80012d0:	d92b      	bls.n	800132a <__udivmoddi4+0x2a2>
 80012d2:	3802      	subs	r0, #2
 80012d4:	4464      	add	r4, ip
 80012d6:	ea40 4009 	orr.w	r0, r0, r9, lsl #16
 80012da:	fba0 8902 	umull	r8, r9, r0, r2
 80012de:	eba4 040a 	sub.w	r4, r4, sl
 80012e2:	454c      	cmp	r4, r9
 80012e4:	46c6      	mov	lr, r8
 80012e6:	464d      	mov	r5, r9
 80012e8:	d319      	bcc.n	800131e <__udivmoddi4+0x296>
 80012ea:	d016      	beq.n	800131a <__udivmoddi4+0x292>
 80012ec:	b15e      	cbz	r6, 8001306 <__udivmoddi4+0x27e>
 80012ee:	ebb3 020e 	subs.w	r2, r3, lr
 80012f2:	eb64 0405 	sbc.w	r4, r4, r5
 80012f6:	fa04 f707 	lsl.w	r7, r4, r7
 80012fa:	fa22 f301 	lsr.w	r3, r2, r1
 80012fe:	431f      	orrs	r7, r3
 8001300:	40cc      	lsrs	r4, r1
 8001302:	e9c6 7400 	strd	r7, r4, [r6]
 8001306:	2100      	movs	r1, #0
 8001308:	e8bd 87f0 	ldmia.w	sp!, {r4, r5, r6, r7, r8, r9, sl, pc}
 800130c:	4631      	mov	r1, r6
 800130e:	4630      	mov	r0, r6
 8001310:	e70c      	b.n	800112c <__udivmoddi4+0xa4>
 8001312:	468c      	mov	ip, r1
 8001314:	e6eb      	b.n	80010ee <__udivmoddi4+0x66>
 8001316:	4610      	mov	r0, r2
 8001318:	e6ff      	b.n	800111a <__udivmoddi4+0x92>
 800131a:	4543      	cmp	r3, r8
 800131c:	d2e6      	bcs.n	80012ec <__udivmoddi4+0x264>
 800131e:	ebb8 0e02 	subs.w	lr, r8, r2
 8001322:	eb69 050c 	sbc.w	r5, r9, ip
 8001326:	3801      	subs	r0, #1
 8001328:	e7e0      	b.n	80012ec <__udivmoddi4+0x264>
 800132a:	4628      	mov	r0, r5
 800132c:	e7d3      	b.n	80012d6 <__udivmoddi4+0x24e>
 800132e:	4611      	mov	r1, r2
 8001330:	e78c      	b.n	800124c <__udivmoddi4+0x1c4>
 8001332:	4681      	mov	r9, r0
 8001334:	e7b9      	b.n	80012aa <__udivmoddi4+0x222>
 8001336:	4608      	mov	r0, r1
 8001338:	e773      	b.n	8001222 <__udivmoddi4+0x19a>
 800133a:	4608      	mov	r0, r1
 800133c:	e749      	b.n	80011d2 <__udivmoddi4+0x14a>
 800133e:	f1ac 0c02 	sub.w	ip, ip, #2
 8001342:	443d      	add	r5, r7
 8001344:	e713      	b.n	800116e <__udivmoddi4+0xe6>
 8001346:	3802      	subs	r0, #2
 8001348:	443c      	add	r4, r7
 800134a:	e724      	b.n	8001196 <__udivmoddi4+0x10e>

0800134c <__aeabi_idiv0>:
 800134c:	4770      	bx	lr
 800134e:	bf00      	nop

08001350 <I2Cx_ReadData16.constprop.0>:
 8001350:	b51f      	push	{r0, r1, r2, r3, r4, lr}
 8001352:	4602      	mov	r2, r0
 8001354:	2302      	movs	r3, #2
 8001356:	f44f 3080 	mov.w	r0, #65536	; 0x10000
 800135a:	9100      	str	r1, [sp, #0]
 800135c:	e9cd 3001 	strd	r3, r0, [sp, #4]
 8001360:	21ec      	movs	r1, #236	; 0xec
 8001362:	2301      	movs	r3, #1
 8001364:	4802      	ldr	r0, [pc, #8]	; (8001370 <I2Cx_ReadData16.constprop.0+0x20>)
 8001366:	f004 fb95 	bl	8005a94 <HAL_I2C_Mem_Read>
 800136a:	b005      	add	sp, #20
 800136c:	f85d fb04 	ldr.w	pc, [sp], #4
 8001370:	200006dc 	.word	0x200006dc

08001374 <BME280_WriteReg>:
 8001374:	b57f      	push	{r0, r1, r2, r3, r4, r5, r6, lr}
 8001376:	2301      	movs	r3, #1
 8001378:	f88d 1017 	strb.w	r1, [sp, #23]
 800137c:	f44f 3180 	mov.w	r1, #65536	; 0x10000
 8001380:	e9cd 3101 	strd	r3, r1, [sp, #4]
 8001384:	f10d 0117 	add.w	r1, sp, #23
 8001388:	4602      	mov	r2, r0
 800138a:	9100      	str	r1, [sp, #0]
 800138c:	4803      	ldr	r0, [pc, #12]	; (800139c <BME280_WriteReg+0x28>)
 800138e:	21ec      	movs	r1, #236	; 0xec
 8001390:	f004 faf0 	bl	8005974 <HAL_I2C_Mem_Write>
 8001394:	b007      	add	sp, #28
 8001396:	f85d fb04 	ldr.w	pc, [sp], #4
 800139a:	bf00      	nop
 800139c:	200006dc 	.word	0x200006dc

080013a0 <BME280_ReadReg>:
 80013a0:	b57f      	push	{r0, r1, r2, r3, r4, r5, r6, lr}
 80013a2:	2300      	movs	r3, #0
 80013a4:	f44f 3180 	mov.w	r1, #65536	; 0x10000
 80013a8:	f88d 3017 	strb.w	r3, [sp, #23]
 80013ac:	2301      	movs	r3, #1
 80013ae:	e9cd 3101 	strd	r3, r1, [sp, #4]
 80013b2:	f10d 0117 	add.w	r1, sp, #23
 80013b6:	4602      	mov	r2, r0
 80013b8:	9100      	str	r1, [sp, #0]
 80013ba:	4804      	ldr	r0, [pc, #16]	; (80013cc <BME280_ReadReg+0x2c>)
 80013bc:	21ec      	movs	r1, #236	; 0xec
 80013be:	f004 fb69 	bl	8005a94 <HAL_I2C_Mem_Read>
 80013c2:	f89d 0017 	ldrb.w	r0, [sp, #23]
 80013c6:	b007      	add	sp, #28
 80013c8:	f85d fb04 	ldr.w	pc, [sp], #4
 80013cc:	200006dc 	.word	0x200006dc

080013d0 <BME280_ReadReg_U16>:
 80013d0:	f7ff bfbe 	b.w	8001350 <I2Cx_ReadData16.constprop.0>

080013d4 <BME280_ReadReg_S16>:
 80013d4:	f7ff bfbc 	b.w	8001350 <I2Cx_ReadData16.constprop.0>

080013d8 <BME280_ReadReg_BE_S16>:
 80013d8:	b510      	push	{r4, lr}
 80013da:	460c      	mov	r4, r1
 80013dc:	f7ff ffb8 	bl	8001350 <I2Cx_ReadData16.constprop.0>
 80013e0:	8822      	ldrh	r2, [r4, #0]
 80013e2:	0213      	lsls	r3, r2, #8
 80013e4:	ea43 2312 	orr.w	r3, r3, r2, lsr #8
 80013e8:	8023      	strh	r3, [r4, #0]
 80013ea:	bd10      	pop	{r4, pc}

080013ec <BME280_ReadReg_BE_U24>:
 80013ec:	b51f      	push	{r0, r1, r2, r3, r4, lr}
 80013ee:	460c      	mov	r4, r1
 80013f0:	2303      	movs	r3, #3
 80013f2:	f44f 3180 	mov.w	r1, #65536	; 0x10000
 80013f6:	4602      	mov	r2, r0
 80013f8:	e9cd 3101 	strd	r3, r1, [sp, #4]
 80013fc:	9400      	str	r4, [sp, #0]
 80013fe:	2301      	movs	r3, #1
 8001400:	21ec      	movs	r1, #236	; 0xec
 8001402:	4808      	ldr	r0, [pc, #32]	; (8001424 <BME280_ReadReg_BE_U24+0x38>)
 8001404:	f004 fb46 	bl	8005a94 <HAL_I2C_Mem_Read>
 8001408:	6822      	ldr	r2, [r4, #0]
 800140a:	0411      	lsls	r1, r2, #16
 800140c:	f3c2 4307 	ubfx	r3, r2, #16, #8
 8001410:	f401 017f 	and.w	r1, r1, #16711680	; 0xff0000
 8001414:	430b      	orrs	r3, r1
 8001416:	f402 427f 	and.w	r2, r2, #65280	; 0xff00
 800141a:	4313      	orrs	r3, r2
 800141c:	6023      	str	r3, [r4, #0]
 800141e:	b004      	add	sp, #16
 8001420:	bd10      	pop	{r4, pc}
 8001422:	bf00      	nop
 8001424:	200006dc 	.word	0x200006dc

08001428 <BME280_ReadStatus>:
 8001428:	b508      	push	{r3, lr}
 800142a:	20f3      	movs	r0, #243	; 0xf3
 800142c:	f7ff ffb8 	bl	80013a0 <BME280_ReadReg>
 8001430:	f000 0009 	and.w	r0, r0, #9
 8001434:	bd08      	pop	{r3, pc}
	...

08001438 <BME280_ReadCoefficients>:
 8001438:	b538      	push	{r3, r4, r5, lr}
 800143a:	4c32      	ldr	r4, [pc, #200]	; (8001504 <BME280_ReadCoefficients+0xcc>)
 800143c:	2088      	movs	r0, #136	; 0x88
 800143e:	4621      	mov	r1, r4
 8001440:	f7ff ffc6 	bl	80013d0 <BME280_ReadReg_U16>
 8001444:	208a      	movs	r0, #138	; 0x8a
 8001446:	1ca1      	adds	r1, r4, #2
 8001448:	f7ff ffc4 	bl	80013d4 <BME280_ReadReg_S16>
 800144c:	208c      	movs	r0, #140	; 0x8c
 800144e:	1d21      	adds	r1, r4, #4
 8001450:	f7ff ffc0 	bl	80013d4 <BME280_ReadReg_S16>
 8001454:	208e      	movs	r0, #142	; 0x8e
 8001456:	1da1      	adds	r1, r4, #6
 8001458:	f7ff ffba 	bl	80013d0 <BME280_ReadReg_U16>
 800145c:	2090      	movs	r0, #144	; 0x90
 800145e:	f104 0108 	add.w	r1, r4, #8
 8001462:	f7ff ffb7 	bl	80013d4 <BME280_ReadReg_S16>
 8001466:	2092      	movs	r0, #146	; 0x92
 8001468:	f104 010a 	add.w	r1, r4, #10
 800146c:	f7ff ffb2 	bl	80013d4 <BME280_ReadReg_S16>
 8001470:	2094      	movs	r0, #148	; 0x94
 8001472:	f104 010c 	add.w	r1, r4, #12
 8001476:	f7ff ffad 	bl	80013d4 <BME280_ReadReg_S16>
 800147a:	2096      	movs	r0, #150	; 0x96
 800147c:	f104 010e 	add.w	r1, r4, #14
 8001480:	f7ff ffa8 	bl	80013d4 <BME280_ReadReg_S16>
 8001484:	2098      	movs	r0, #152	; 0x98
 8001486:	f104 0110 	add.w	r1, r4, #16
 800148a:	f7ff ffa3 	bl	80013d4 <BME280_ReadReg_S16>
 800148e:	209a      	movs	r0, #154	; 0x9a
 8001490:	f104 0112 	add.w	r1, r4, #18
 8001494:	f7ff ff9e 	bl	80013d4 <BME280_ReadReg_S16>
 8001498:	209c      	movs	r0, #156	; 0x9c
 800149a:	f104 0114 	add.w	r1, r4, #20
 800149e:	f7ff ff99 	bl	80013d4 <BME280_ReadReg_S16>
 80014a2:	f104 0116 	add.w	r1, r4, #22
 80014a6:	209e      	movs	r0, #158	; 0x9e
 80014a8:	f7ff ff94 	bl	80013d4 <BME280_ReadReg_S16>
 80014ac:	20a1      	movs	r0, #161	; 0xa1
 80014ae:	f7ff ff77 	bl	80013a0 <BME280_ReadReg>
 80014b2:	f104 011a 	add.w	r1, r4, #26
 80014b6:	7620      	strb	r0, [r4, #24]
 80014b8:	20e1      	movs	r0, #225	; 0xe1
 80014ba:	f7ff ff8b 	bl	80013d4 <BME280_ReadReg_S16>
 80014be:	20e3      	movs	r0, #227	; 0xe3
 80014c0:	f7ff ff6e 	bl	80013a0 <BME280_ReadReg>
 80014c4:	7720      	strb	r0, [r4, #28]
 80014c6:	20e4      	movs	r0, #228	; 0xe4
 80014c8:	f7ff ff6a 	bl	80013a0 <BME280_ReadReg>
 80014cc:	4605      	mov	r5, r0
 80014ce:	20e5      	movs	r0, #229	; 0xe5
 80014d0:	f7ff ff66 	bl	80013a0 <BME280_ReadReg>
 80014d4:	f000 030f 	and.w	r3, r0, #15
 80014d8:	ea43 1005 	orr.w	r0, r3, r5, lsl #4
 80014dc:	83e0      	strh	r0, [r4, #30]
 80014de:	20e6      	movs	r0, #230	; 0xe6
 80014e0:	f7ff ff5e 	bl	80013a0 <BME280_ReadReg>
 80014e4:	4605      	mov	r5, r0
 80014e6:	20e5      	movs	r0, #229	; 0xe5
 80014e8:	f7ff ff5a 	bl	80013a0 <BME280_ReadReg>
 80014ec:	f3c0 1307 	ubfx	r3, r0, #4, #8
 80014f0:	ea43 1005 	orr.w	r0, r3, r5, lsl #4
 80014f4:	8420      	strh	r0, [r4, #32]
 80014f6:	20e7      	movs	r0, #231	; 0xe7
 80014f8:	f7ff ff52 	bl	80013a0 <BME280_ReadReg>
 80014fc:	f884 0022 	strb.w	r0, [r4, #34]	; 0x22
 8001500:	bd38      	pop	{r3, r4, r5, pc}
 8001502:	bf00      	nop
 8001504:	20000588 	.word	0x20000588

08001508 <BME280_SetStandby>:
 8001508:	b510      	push	{r4, lr}
 800150a:	4604      	mov	r4, r0
 800150c:	20f5      	movs	r0, #245	; 0xf5
 800150e:	f7ff ff47 	bl	80013a0 <BME280_ReadReg>
 8001512:	f024 041f 	bic.w	r4, r4, #31
 8001516:	f000 011f 	and.w	r1, r0, #31
 800151a:	4321      	orrs	r1, r4
 800151c:	20f5      	movs	r0, #245	; 0xf5
 800151e:	e8bd 4010 	ldmia.w	sp!, {r4, lr}
 8001522:	f7ff bf27 	b.w	8001374 <BME280_WriteReg>

08001526 <BME280_SetFilter>:
 8001526:	b510      	push	{r4, lr}
 8001528:	4604      	mov	r4, r0
 800152a:	20f5      	movs	r0, #245	; 0xf5
 800152c:	f7ff ff38 	bl	80013a0 <BME280_ReadReg>
 8001530:	f004 041c 	and.w	r4, r4, #28
 8001534:	f000 01e3 	and.w	r1, r0, #227	; 0xe3
 8001538:	4321      	orrs	r1, r4
 800153a:	20f5      	movs	r0, #245	; 0xf5
 800153c:	e8bd 4010 	ldmia.w	sp!, {r4, lr}
 8001540:	f7ff bf18 	b.w	8001374 <BME280_WriteReg>

08001544 <BME280_SetOversamplingTemper>:
 8001544:	b510      	push	{r4, lr}
 8001546:	4604      	mov	r4, r0
 8001548:	20f4      	movs	r0, #244	; 0xf4
 800154a:	f7ff ff29 	bl	80013a0 <BME280_ReadReg>
 800154e:	f024 041f 	bic.w	r4, r4, #31
 8001552:	f000 011f 	and.w	r1, r0, #31
 8001556:	4321      	orrs	r1, r4
 8001558:	20f4      	movs	r0, #244	; 0xf4
 800155a:	e8bd 4010 	ldmia.w	sp!, {r4, lr}
 800155e:	f7ff bf09 	b.w	8001374 <BME280_WriteReg>

08001562 <BME280_SetOversamplingPressure>:
 8001562:	b510      	push	{r4, lr}
 8001564:	4604      	mov	r4, r0
 8001566:	20f4      	movs	r0, #244	; 0xf4
 8001568:	f7ff ff1a 	bl	80013a0 <BME280_ReadReg>
 800156c:	f004 041c 	and.w	r4, r4, #28
 8001570:	f000 01e3 	and.w	r1, r0, #227	; 0xe3
 8001574:	4321      	orrs	r1, r4
 8001576:	20f4      	movs	r0, #244	; 0xf4
 8001578:	e8bd 4010 	ldmia.w	sp!, {r4, lr}
 800157c:	f7ff befa 	b.w	8001374 <BME280_WriteReg>

08001580 <BME280_SetOversamplingHum>:
 8001580:	b510      	push	{r4, lr}
 8001582:	4604      	mov	r4, r0
 8001584:	20f2      	movs	r0, #242	; 0xf2
 8001586:	f7ff ff0b 	bl	80013a0 <BME280_ReadReg>
 800158a:	f004 0407 	and.w	r4, r4, #7
 800158e:	f000 01f8 	and.w	r1, r0, #248	; 0xf8
 8001592:	4321      	orrs	r1, r4
 8001594:	20f2      	movs	r0, #242	; 0xf2
 8001596:	f7ff feed 	bl	8001374 <BME280_WriteReg>
 800159a:	20f4      	movs	r0, #244	; 0xf4
 800159c:	f7ff ff00 	bl	80013a0 <BME280_ReadReg>
 80015a0:	e8bd 4010 	ldmia.w	sp!, {r4, lr}
 80015a4:	4601      	mov	r1, r0
 80015a6:	20f4      	movs	r0, #244	; 0xf4
 80015a8:	f7ff bee4 	b.w	8001374 <BME280_WriteReg>

080015ac <BME280_SetMode>:
 80015ac:	b510      	push	{r4, lr}
 80015ae:	4604      	mov	r4, r0
 80015b0:	20f4      	movs	r0, #244	; 0xf4
 80015b2:	f7ff fef5 	bl	80013a0 <BME280_ReadReg>
 80015b6:	f004 0403 	and.w	r4, r4, #3
 80015ba:	f000 01fc 	and.w	r1, r0, #252	; 0xfc
 80015be:	4321      	orrs	r1, r4
 80015c0:	20f4      	movs	r0, #244	; 0xf4
 80015c2:	e8bd 4010 	ldmia.w	sp!, {r4, lr}
 80015c6:	f7ff bed5 	b.w	8001374 <BME280_WriteReg>
	...

080015cc <BME280_ReadTemperature>:
 80015cc:	b507      	push	{r0, r1, r2, lr}
 80015ce:	20fa      	movs	r0, #250	; 0xfa
 80015d0:	a901      	add	r1, sp, #4
 80015d2:	f7ff ff0b 	bl	80013ec <BME280_ReadReg_BE_U24>
 80015d6:	4910      	ldr	r1, [pc, #64]	; (8001618 <BME280_ReadTemperature+0x4c>)
 80015d8:	9801      	ldr	r0, [sp, #4]
 80015da:	880a      	ldrh	r2, [r1, #0]
 80015dc:	ebc2 2310 	rsb	r3, r2, r0, lsr #8
 80015e0:	435b      	muls	r3, r3
 80015e2:	0052      	lsls	r2, r2, #1
 80015e4:	ebc2 12d0 	rsb	r2, r2, r0, lsr #7
 80015e8:	f9b1 0002 	ldrsh.w	r0, [r1, #2]
 80015ec:	0b1b      	lsrs	r3, r3, #12
 80015ee:	4342      	muls	r2, r0
 80015f0:	f9b1 0004 	ldrsh.w	r0, [r1, #4]
 80015f4:	4358      	muls	r0, r3
 80015f6:	4b09      	ldr	r3, [pc, #36]	; (800161c <BME280_ReadTemperature+0x50>)
 80015f8:	0b80      	lsrs	r0, r0, #14
 80015fa:	eb00 20d2 	add.w	r0, r0, r2, lsr #11
 80015fe:	6018      	str	r0, [r3, #0]
 8001600:	eb00 0080 	add.w	r0, r0, r0, lsl #2
 8001604:	3080      	adds	r0, #128	; 0x80
 8001606:	1200      	asrs	r0, r0, #8
 8001608:	f7ff fb48 	bl	8000c9c <__aeabi_i2f>
 800160c:	4904      	ldr	r1, [pc, #16]	; (8001620 <BME280_ReadTemperature+0x54>)
 800160e:	f7ff fc4d 	bl	8000eac <__aeabi_fdiv>
 8001612:	b003      	add	sp, #12
 8001614:	f85d fb04 	ldr.w	pc, [sp], #4
 8001618:	20000588 	.word	0x20000588
 800161c:	200005ac 	.word	0x200005ac
 8001620:	42c80000 	.word	0x42c80000

08001624 <BME280_ReadPressure>:
 8001624:	e92d 43f7 	stmdb	sp!, {r0, r1, r2, r4, r5, r6, r7, r8, r9, lr}
 8001628:	f7ff ffd0 	bl	80015cc <BME280_ReadTemperature>
 800162c:	20f7      	movs	r0, #247	; 0xf7
 800162e:	a901      	add	r1, sp, #4
 8001630:	f7ff fedc 	bl	80013ec <BME280_ReadReg_BE_U24>
 8001634:	4b68      	ldr	r3, [pc, #416]	; (80017d8 <BME280_ReadPressure+0x1b4>)
 8001636:	4c69      	ldr	r4, [pc, #420]	; (80017dc <BME280_ReadPressure+0x1b8>)
 8001638:	6818      	ldr	r0, [r3, #0]
 800163a:	f9b4 6008 	ldrsh.w	r6, [r4, #8]
 800163e:	f5b0 33fa 	subs.w	r3, r0, #128000	; 0x1f400
 8001642:	ea4f 71e0 	mov.w	r1, r0, asr #31
 8001646:	f141 32ff 	adc.w	r2, r1, #4294967295	; 0xffffffff
 800164a:	fba3 8903 	umull	r8, r9, r3, r3
 800164e:	fb03 f102 	mul.w	r1, r3, r2
 8001652:	eb09 0941 	add.w	r9, r9, r1, lsl #1
 8001656:	fb06 f102 	mul.w	r1, r6, r2
 800165a:	17f7      	asrs	r7, r6, #31
 800165c:	fb03 1107 	mla	r1, r3, r7, r1
 8001660:	fba6 6703 	umull	r6, r7, r6, r3
 8001664:	440f      	add	r7, r1
 8001666:	0339      	lsls	r1, r7, #12
 8001668:	ea41 5116 	orr.w	r1, r1, r6, lsr #20
 800166c:	0335      	lsls	r5, r6, #12
 800166e:	f9b4 600a 	ldrsh.w	r6, [r4, #10]
 8001672:	fb06 f009 	mul.w	r0, r6, r9
 8001676:	17f7      	asrs	r7, r6, #31
 8001678:	fb08 0007 	mla	r0, r8, r7, r0
 800167c:	fba6 6708 	umull	r6, r7, r6, r8
 8001680:	4407      	add	r7, r0
 8001682:	0a30      	lsrs	r0, r6, #8
 8001684:	ea40 6007 	orr.w	r0, r0, r7, lsl #24
 8001688:	88e6      	ldrh	r6, [r4, #6]
 800168a:	ea4f 2c27 	mov.w	ip, r7, asr #8
 800168e:	1940      	adds	r0, r0, r5
 8001690:	eb4c 0c01 	adc.w	ip, ip, r1
 8001694:	3000      	adds	r0, #0
 8001696:	fba0 0106 	umull	r0, r1, r0, r6
 800169a:	f54c 4c00 	adc.w	ip, ip, #32768	; 0x8000
 800169e:	fb06 110c 	mla	r1, r6, ip, r1
 80016a2:	104e      	asrs	r6, r1, #1
 80016a4:	17cf      	asrs	r7, r1, #31
 80016a6:	ea56 0107 	orrs.w	r1, r6, r7
 80016aa:	f000 8092 	beq.w	80017d2 <BME280_ReadPressure+0x1ae>
 80016ae:	f04f 0e00 	mov.w	lr, #0
 80016b2:	f9b4 0010 	ldrsh.w	r0, [r4, #16]
 80016b6:	fb00 f509 	mul.w	r5, r0, r9
 80016ba:	17c1      	asrs	r1, r0, #31
 80016bc:	fb08 5501 	mla	r5, r8, r1, r5
 80016c0:	fba0 0108 	umull	r0, r1, r0, r8
 80016c4:	f9b4 800e 	ldrsh.w	r8, [r4, #14]
 80016c8:	4429      	add	r1, r5
 80016ca:	fb08 f202 	mul.w	r2, r8, r2
 80016ce:	ea4f 79e8 	mov.w	r9, r8, asr #31
 80016d2:	fb03 2209 	mla	r2, r3, r9, r2
 80016d6:	fba8 8903 	umull	r8, r9, r8, r3
 80016da:	ea4f 4348 	mov.w	r3, r8, lsl #17
 80016de:	4491      	add	r9, r2
 80016e0:	181a      	adds	r2, r3, r0
 80016e2:	9b01      	ldr	r3, [sp, #4]
 80016e4:	ea4f 4549 	mov.w	r5, r9, lsl #17
 80016e8:	ea45 35d8 	orr.w	r5, r5, r8, lsr #15
 80016ec:	ea4f 1313 	mov.w	r3, r3, lsr #4
 80016f0:	f9b4 800c 	ldrsh.w	r8, [r4, #12]
 80016f4:	f5c3 1380 	rsb	r3, r3, #1048576	; 0x100000
 80016f8:	ea4f 0cc8 	mov.w	ip, r8, lsl #3
 80016fc:	eb45 0101 	adc.w	r1, r5, r1
 8001700:	07d8      	lsls	r0, r3, #31
 8001702:	085d      	lsrs	r5, r3, #1
 8001704:	eb1e 0302 	adds.w	r3, lr, r2
 8001708:	eb4c 0101 	adc.w	r1, ip, r1
 800170c:	1ac0      	subs	r0, r0, r3
 800170e:	f640 4335 	movw	r3, #3125	; 0xc35
 8001712:	eb65 0501 	sbc.w	r5, r5, r1
 8001716:	fba0 0103 	umull	r0, r1, r0, r3
 800171a:	4632      	mov	r2, r6
 800171c:	fb03 1105 	mla	r1, r3, r5, r1
 8001720:	463b      	mov	r3, r7
 8001722:	f7ff fc5f 	bl	8000fe4 <__aeabi_ldivmod>
 8001726:	f9b4 2016 	ldrsh.w	r2, [r4, #22]
 800172a:	134d      	asrs	r5, r1, #13
 800172c:	fb02 f705 	mul.w	r7, r2, r5
 8001730:	0b46      	lsrs	r6, r0, #13
 8001732:	ea46 46c1 	orr.w	r6, r6, r1, lsl #19
 8001736:	17d3      	asrs	r3, r2, #31
 8001738:	fb06 7703 	mla	r7, r6, r3, r7
 800173c:	fba2 2306 	umull	r2, r3, r2, r6
 8001740:	4355      	muls	r5, r2
 8001742:	443b      	add	r3, r7
 8001744:	fb06 5503 	mla	r5, r6, r3, r5
 8001748:	fba2 2306 	umull	r2, r3, r2, r6
 800174c:	442b      	add	r3, r5
 800174e:	0e55      	lsrs	r5, r2, #25
 8001750:	f9b4 8014 	ldrsh.w	r8, [r4, #20]
 8001754:	ea45 15c3 	orr.w	r5, r5, r3, lsl #7
 8001758:	182d      	adds	r5, r5, r0
 800175a:	ea4f 6663 	mov.w	r6, r3, asr #25
 800175e:	eb46 0201 	adc.w	r2, r6, r1
 8001762:	fb08 f101 	mul.w	r1, r8, r1
 8001766:	ea4f 79e8 	mov.w	r9, r8, asr #31
 800176a:	fb00 1109 	mla	r1, r0, r9, r1
 800176e:	fba8 8900 	umull	r8, r9, r8, r0
 8001772:	4489      	add	r9, r1
 8001774:	ea4f 43d8 	mov.w	r3, r8, lsr #19
 8001778:	f9b4 4012 	ldrsh.w	r4, [r4, #18]
 800177c:	ea43 3349 	orr.w	r3, r3, r9, lsl #13
 8001780:	18ed      	adds	r5, r5, r3
 8001782:	ea4f 41e9 	mov.w	r1, r9, asr #19
 8001786:	eb41 0202 	adc.w	r2, r1, r2
 800178a:	0a2b      	lsrs	r3, r5, #8
 800178c:	17e5      	asrs	r5, r4, #31
 800178e:	ea43 6302 	orr.w	r3, r3, r2, lsl #24
 8001792:	1211      	asrs	r1, r2, #8
 8001794:	0120      	lsls	r0, r4, #4
 8001796:	012a      	lsls	r2, r5, #4
 8001798:	ea42 7214 	orr.w	r2, r2, r4, lsr #28
 800179c:	18c4      	adds	r4, r0, r3
 800179e:	eb42 0501 	adc.w	r5, r2, r1
 80017a2:	490f      	ldr	r1, [pc, #60]	; (80017e0 <BME280_ReadPressure+0x1bc>)
 80017a4:	f004 00ff 	and.w	r0, r4, #255	; 0xff
 80017a8:	2300      	movs	r3, #0
 80017aa:	4a0e      	ldr	r2, [pc, #56]	; (80017e4 <BME280_ReadPressure+0x1c0>)
 80017ac:	fba0 0101 	umull	r0, r1, r0, r1
 80017b0:	f7ff fc18 	bl	8000fe4 <__aeabi_ldivmod>
 80017b4:	f44f 727a 	mov.w	r2, #1000	; 0x3e8
 80017b8:	0a24      	lsrs	r4, r4, #8
 80017ba:	ea44 6405 	orr.w	r4, r4, r5, lsl #24
 80017be:	fb02 0004 	mla	r0, r2, r4, r0
 80017c2:	f7ff fa67 	bl	8000c94 <__aeabi_ui2f>
 80017c6:	4908      	ldr	r1, [pc, #32]	; (80017e8 <BME280_ReadPressure+0x1c4>)
 80017c8:	f7ff fb70 	bl	8000eac <__aeabi_fdiv>
 80017cc:	b003      	add	sp, #12
 80017ce:	e8bd 83f0 	ldmia.w	sp!, {r4, r5, r6, r7, r8, r9, pc}
 80017d2:	2000      	movs	r0, #0
 80017d4:	e7fa      	b.n	80017cc <BME280_ReadPressure+0x1a8>
 80017d6:	bf00      	nop
 80017d8:	200005ac 	.word	0x200005ac
 80017dc:	20000588 	.word	0x20000588
 80017e0:	0005f5e1 	.word	0x0005f5e1
 80017e4:	000186a0 	.word	0x000186a0
 80017e8:	42c80000 	.word	0x42c80000

080017ec <BME280_ReadHumidity>:
 80017ec:	b513      	push	{r0, r1, r4, lr}
 80017ee:	4c22      	ldr	r4, [pc, #136]	; (8001878 <BME280_ReadHumidity+0x8c>)
 80017f0:	f7ff feec 	bl	80015cc <BME280_ReadTemperature>
 80017f4:	f10d 0106 	add.w	r1, sp, #6
 80017f8:	20fd      	movs	r0, #253	; 0xfd
 80017fa:	f7ff fded 	bl	80013d8 <BME280_ReadReg_BE_S16>
 80017fe:	f9b4 001e 	ldrsh.w	r0, [r4, #30]
 8001802:	4b1e      	ldr	r3, [pc, #120]	; (800187c <BME280_ReadHumidity+0x90>)
 8001804:	f8bd 2006 	ldrh.w	r2, [sp, #6]
 8001808:	681b      	ldr	r3, [r3, #0]
 800180a:	0500      	lsls	r0, r0, #20
 800180c:	ebc0 3282 	rsb	r2, r0, r2, lsl #14
 8001810:	f9b4 0020 	ldrsh.w	r0, [r4, #32]
 8001814:	f5a3 3396 	sub.w	r3, r3, #76800	; 0x12c00
 8001818:	fb03 2010 	mls	r0, r3, r0, r2
 800181c:	f500 4080 	add.w	r0, r0, #16384	; 0x4000
 8001820:	13c2      	asrs	r2, r0, #15
 8001822:	7f20      	ldrb	r0, [r4, #28]
 8001824:	4358      	muls	r0, r3
 8001826:	12c0      	asrs	r0, r0, #11
 8001828:	f500 4100 	add.w	r1, r0, #32768	; 0x8000
 800182c:	f994 0022 	ldrsb.w	r0, [r4, #34]	; 0x22
 8001830:	4358      	muls	r0, r3
 8001832:	1280      	asrs	r0, r0, #10
 8001834:	4348      	muls	r0, r1
 8001836:	1280      	asrs	r0, r0, #10
 8001838:	f500 1300 	add.w	r3, r0, #2097152	; 0x200000
 800183c:	f9b4 001a 	ldrsh.w	r0, [r4, #26]
 8001840:	4358      	muls	r0, r3
 8001842:	f500 5000 	add.w	r0, r0, #8192	; 0x2000
 8001846:	1380      	asrs	r0, r0, #14
 8001848:	4350      	muls	r0, r2
 800184a:	13c3      	asrs	r3, r0, #15
 800184c:	435b      	muls	r3, r3
 800184e:	7e22      	ldrb	r2, [r4, #24]
 8001850:	11db      	asrs	r3, r3, #7
 8001852:	4353      	muls	r3, r2
 8001854:	eba0 1023 	sub.w	r0, r0, r3, asr #4
 8001858:	ea20 70e0 	bic.w	r0, r0, r0, asr #31
 800185c:	f1b0 5fc8 	cmp.w	r0, #419430400	; 0x19000000
 8001860:	bfa8      	it	ge
 8001862:	f04f 50c8 	movge.w	r0, #419430400	; 0x19000000
 8001866:	1300      	asrs	r0, r0, #12
 8001868:	f7ff fa18 	bl	8000c9c <__aeabi_i2f>
 800186c:	f04f 516a 	mov.w	r1, #981467136	; 0x3a800000
 8001870:	f7ff fa68 	bl	8000d44 <__aeabi_fmul>
 8001874:	b002      	add	sp, #8
 8001876:	bd10      	pop	{r4, pc}
 8001878:	20000588 	.word	0x20000588
 800187c:	200005ac 	.word	0x200005ac

08001880 <BME280_Init>:
 8001880:	20d0      	movs	r0, #208	; 0xd0
 8001882:	b508      	push	{r3, lr}
 8001884:	f7ff fd8c 	bl	80013a0 <BME280_ReadReg>
 8001888:	2860      	cmp	r0, #96	; 0x60
 800188a:	d123      	bne.n	80018d4 <BME280_Init+0x54>
 800188c:	21b6      	movs	r1, #182	; 0xb6
 800188e:	20e0      	movs	r0, #224	; 0xe0
 8001890:	f7ff fd70 	bl	8001374 <BME280_WriteReg>
 8001894:	f7ff fdc8 	bl	8001428 <BME280_ReadStatus>
 8001898:	07c3      	lsls	r3, r0, #31
 800189a:	d4fb      	bmi.n	8001894 <BME280_Init+0x14>
 800189c:	f7ff fdcc 	bl	8001438 <BME280_ReadCoefficients>
 80018a0:	20a0      	movs	r0, #160	; 0xa0
 80018a2:	f7ff fe31 	bl	8001508 <BME280_SetStandby>
 80018a6:	2008      	movs	r0, #8
 80018a8:	f7ff fe3d 	bl	8001526 <BME280_SetFilter>
 80018ac:	2060      	movs	r0, #96	; 0x60
 80018ae:	f7ff fe49 	bl	8001544 <BME280_SetOversamplingTemper>
 80018b2:	2008      	movs	r0, #8
 80018b4:	f7ff fe55 	bl	8001562 <BME280_SetOversamplingPressure>
 80018b8:	2001      	movs	r0, #1
 80018ba:	f7ff fe61 	bl	8001580 <BME280_SetOversamplingHum>
 80018be:	20f4      	movs	r0, #244	; 0xf4
 80018c0:	f7ff fd6e 	bl	80013a0 <BME280_ReadReg>
 80018c4:	20f2      	movs	r0, #242	; 0xf2
 80018c6:	f7ff fd6b 	bl	80013a0 <BME280_ReadReg>
 80018ca:	e8bd 4008 	ldmia.w	sp!, {r3, lr}
 80018ce:	2003      	movs	r0, #3
 80018d0:	f7ff be6c 	b.w	80015ac <BME280_SetMode>
 80018d4:	bd08      	pop	{r3, pc}
	...

080018d8 <default_ip_assign>:
 80018d8:	b508      	push	{r3, lr}
 80018da:	2204      	movs	r2, #4
 80018dc:	f44f 6070 	mov.w	r0, #3840	; 0xf00
 80018e0:	4908      	ldr	r1, [pc, #32]	; (8001904 <default_ip_assign+0x2c>)
 80018e2:	f002 ff8b 	bl	80047fc <WIZCHIP_WRITE_BUF>
 80018e6:	2204      	movs	r2, #4
 80018e8:	f44f 60a0 	mov.w	r0, #1280	; 0x500
 80018ec:	4906      	ldr	r1, [pc, #24]	; (8001908 <default_ip_assign+0x30>)
 80018ee:	f002 ff85 	bl	80047fc <WIZCHIP_WRITE_BUF>
 80018f2:	e8bd 4008 	ldmia.w	sp!, {r3, lr}
 80018f6:	2204      	movs	r2, #4
 80018f8:	f44f 7080 	mov.w	r0, #256	; 0x100
 80018fc:	4903      	ldr	r1, [pc, #12]	; (800190c <default_ip_assign+0x34>)
 80018fe:	f002 bf7d 	b.w	80047fc <WIZCHIP_WRITE_BUF>
 8001902:	bf00      	nop
 8001904:	2000046c 	.word	0x2000046c
 8001908:	20000470 	.word	0x20000470
 800190c:	20000368 	.word	0x20000368

08001910 <default_ip_update>:
 8001910:	b508      	push	{r3, lr}
 8001912:	2180      	movs	r1, #128	; 0x80
 8001914:	2000      	movs	r0, #0
 8001916:	f002 ff05 	bl	8004724 <WIZCHIP_WRITE>
 800191a:	2000      	movs	r0, #0
 800191c:	f002 fed4 	bl	80046c8 <WIZCHIP_READ>
 8001920:	f7ff ffda 	bl	80018d8 <default_ip_assign>
 8001924:	e8bd 4008 	ldmia.w	sp!, {r3, lr}
 8001928:	2206      	movs	r2, #6
 800192a:	f44f 6010 	mov.w	r0, #2304	; 0x900
 800192e:	4901      	ldr	r1, [pc, #4]	; (8001934 <default_ip_update+0x24>)
 8001930:	f002 bf64 	b.w	80047fc <WIZCHIP_WRITE_BUF>
 8001934:	200005b0 	.word	0x200005b0

08001938 <default_ip_conflict>:
 8001938:	b508      	push	{r3, lr}
 800193a:	2180      	movs	r1, #128	; 0x80
 800193c:	2000      	movs	r0, #0
 800193e:	f002 fef1 	bl	8004724 <WIZCHIP_WRITE>
 8001942:	2000      	movs	r0, #0
 8001944:	f002 fec0 	bl	80046c8 <WIZCHIP_READ>
 8001948:	e8bd 4008 	ldmia.w	sp!, {r3, lr}
 800194c:	2206      	movs	r2, #6
 800194e:	f44f 6010 	mov.w	r0, #2304	; 0x900
 8001952:	4901      	ldr	r1, [pc, #4]	; (8001958 <default_ip_conflict+0x20>)
 8001954:	f002 bf52 	b.w	80047fc <WIZCHIP_WRITE_BUF>
 8001958:	200005b0 	.word	0x200005b0

0800195c <reg_dhcp_cbfunc>:
 800195c:	b570      	push	{r4, r5, r6, lr}
 800195e:	4b09      	ldr	r3, [pc, #36]	; (8001984 <reg_dhcp_cbfunc+0x28>)
 8001960:	4e09      	ldr	r6, [pc, #36]	; (8001988 <reg_dhcp_cbfunc+0x2c>)
 8001962:	4c0a      	ldr	r4, [pc, #40]	; (800198c <reg_dhcp_cbfunc+0x30>)
 8001964:	601e      	str	r6, [r3, #0]
 8001966:	4e0a      	ldr	r6, [pc, #40]	; (8001990 <reg_dhcp_cbfunc+0x34>)
 8001968:	4d0a      	ldr	r5, [pc, #40]	; (8001994 <reg_dhcp_cbfunc+0x38>)
 800196a:	2800      	cmp	r0, #0
 800196c:	bf08      	it	eq
 800196e:	4630      	moveq	r0, r6
 8001970:	2900      	cmp	r1, #0
 8001972:	bf18      	it	ne
 8001974:	460c      	movne	r4, r1
 8001976:	4e08      	ldr	r6, [pc, #32]	; (8001998 <reg_dhcp_cbfunc+0x3c>)
 8001978:	602c      	str	r4, [r5, #0]
 800197a:	6030      	str	r0, [r6, #0]
 800197c:	b102      	cbz	r2, 8001980 <reg_dhcp_cbfunc+0x24>
 800197e:	601a      	str	r2, [r3, #0]
 8001980:	bd70      	pop	{r4, r5, r6, pc}
 8001982:	bf00      	nop
 8001984:	2000000c 	.word	0x2000000c
 8001988:	08001939 	.word	0x08001939
 800198c:	08001911 	.word	0x08001911
 8001990:	080018d9 	.word	0x080018d9
 8001994:	20000010 	.word	0x20000010
 8001998:	20000008 	.word	0x20000008

0800199c <makeDHCPMSG>:
 800199c:	b507      	push	{r0, r1, r2, lr}
 800199e:	2206      	movs	r2, #6
 80019a0:	4669      	mov	r1, sp
 80019a2:	f44f 6010 	mov.w	r0, #2304	; 0x900
 80019a6:	f002 feef 	bl	8004788 <WIZCHIP_READ_BUF>
 80019aa:	4b20      	ldr	r3, [pc, #128]	; (8001a2c <makeDHCPMSG+0x90>)
 80019ac:	4a20      	ldr	r2, [pc, #128]	; (8001a30 <makeDHCPMSG+0x94>)
 80019ae:	681b      	ldr	r3, [r3, #0]
 80019b0:	601a      	str	r2, [r3, #0]
 80019b2:	4a20      	ldr	r2, [pc, #128]	; (8001a34 <makeDHCPMSG+0x98>)
 80019b4:	6812      	ldr	r2, [r2, #0]
 80019b6:	0e11      	lsrs	r1, r2, #24
 80019b8:	7119      	strb	r1, [r3, #4]
 80019ba:	0c11      	lsrs	r1, r2, #16
 80019bc:	7159      	strb	r1, [r3, #5]
 80019be:	0a11      	lsrs	r1, r2, #8
 80019c0:	7199      	strb	r1, [r3, #6]
 80019c2:	71da      	strb	r2, [r3, #7]
 80019c4:	2100      	movs	r1, #0
 80019c6:	f44f 0200 	mov.w	r2, #8388608	; 0x800000
 80019ca:	e9c3 2102 	strd	r2, r1, [r3, #8]
 80019ce:	4a1a      	ldr	r2, [pc, #104]	; (8001a38 <makeDHCPMSG+0x9c>)
 80019d0:	e9c3 1104 	strd	r1, r1, [r3, #16]
 80019d4:	7810      	ldrb	r0, [r2, #0]
 80019d6:	6199      	str	r1, [r3, #24]
 80019d8:	7718      	strb	r0, [r3, #28]
 80019da:	7850      	ldrb	r0, [r2, #1]
 80019dc:	7758      	strb	r0, [r3, #29]
 80019de:	7890      	ldrb	r0, [r2, #2]
 80019e0:	7798      	strb	r0, [r3, #30]
 80019e2:	78d0      	ldrb	r0, [r2, #3]
 80019e4:	77d8      	strb	r0, [r3, #31]
 80019e6:	7910      	ldrb	r0, [r2, #4]
 80019e8:	7952      	ldrb	r2, [r2, #5]
 80019ea:	f883 0020 	strb.w	r0, [r3, #32]
 80019ee:	f883 2021 	strb.w	r2, [r3, #33]	; 0x21
 80019f2:	f103 002c 	add.w	r0, r3, #44	; 0x2c
 80019f6:	f103 0222 	add.w	r2, r3, #34	; 0x22
 80019fa:	f802 1b01 	strb.w	r1, [r2], #1
 80019fe:	4282      	cmp	r2, r0
 8001a00:	d1fb      	bne.n	80019fa <makeDHCPMSG+0x5e>
 8001a02:	2000      	movs	r0, #0
 8001a04:	f103 016c 	add.w	r1, r3, #108	; 0x6c
 8001a08:	f802 0b01 	strb.w	r0, [r2], #1
 8001a0c:	428a      	cmp	r2, r1
 8001a0e:	d1fb      	bne.n	8001a08 <makeDHCPMSG+0x6c>
 8001a10:	2000      	movs	r0, #0
 8001a12:	f103 01ec 	add.w	r1, r3, #236	; 0xec
 8001a16:	f802 0b01 	strb.w	r0, [r2], #1
 8001a1a:	4291      	cmp	r1, r2
 8001a1c:	d1fb      	bne.n	8001a16 <makeDHCPMSG+0x7a>
 8001a1e:	4a07      	ldr	r2, [pc, #28]	; (8001a3c <makeDHCPMSG+0xa0>)
 8001a20:	f8c3 20ec 	str.w	r2, [r3, #236]	; 0xec
 8001a24:	b003      	add	sp, #12
 8001a26:	f85d fb04 	ldr.w	pc, [sp], #4
 8001a2a:	bf00      	nop
 8001a2c:	200005c4 	.word	0x200005c4
 8001a30:	00060101 	.word	0x00060101
 8001a34:	200005b8 	.word	0x200005b8
 8001a38:	200005b0 	.word	0x200005b0
 8001a3c:	63538263 	.word	0x63538263

08001a40 <send_DHCP_DECLINE>:
 8001a40:	b51f      	push	{r0, r1, r2, r3, r4, lr}
 8001a42:	f7ff ffab 	bl	800199c <makeDHCPMSG>
 8001a46:	4b2d      	ldr	r3, [pc, #180]	; (8001afc <send_DHCP_DECLINE+0xbc>)
 8001a48:	2200      	movs	r2, #0
 8001a4a:	6819      	ldr	r1, [r3, #0]
 8001a4c:	4b2c      	ldr	r3, [pc, #176]	; (8001b00 <send_DHCP_DECLINE+0xc0>)
 8001a4e:	728a      	strb	r2, [r1, #10]
 8001a50:	f8c1 30f0 	str.w	r3, [r1, #240]	; 0xf0
 8001a54:	f240 1307 	movw	r3, #263	; 0x107
 8001a58:	f8a1 30f4 	strh.w	r3, [r1, #244]	; 0xf4
 8001a5c:	4b29      	ldr	r3, [pc, #164]	; (8001b04 <send_DHCP_DECLINE+0xc4>)
 8001a5e:	72ca      	strb	r2, [r1, #11]
 8001a60:	7818      	ldrb	r0, [r3, #0]
 8001a62:	f881 00f6 	strb.w	r0, [r1, #246]	; 0xf6
 8001a66:	7858      	ldrb	r0, [r3, #1]
 8001a68:	f881 00f7 	strb.w	r0, [r1, #247]	; 0xf7
 8001a6c:	7898      	ldrb	r0, [r3, #2]
 8001a6e:	f881 00f8 	strb.w	r0, [r1, #248]	; 0xf8
 8001a72:	78d8      	ldrb	r0, [r3, #3]
 8001a74:	f881 00f9 	strb.w	r0, [r1, #249]	; 0xf9
 8001a78:	7918      	ldrb	r0, [r3, #4]
 8001a7a:	795b      	ldrb	r3, [r3, #5]
 8001a7c:	f881 00fa 	strb.w	r0, [r1, #250]	; 0xfa
 8001a80:	f881 30fb 	strb.w	r3, [r1, #251]	; 0xfb
 8001a84:	f240 4332 	movw	r3, #1074	; 0x432
 8001a88:	f8a1 30fc 	strh.w	r3, [r1, #252]	; 0xfc
 8001a8c:	4b1e      	ldr	r3, [pc, #120]	; (8001b08 <send_DHCP_DECLINE+0xc8>)
 8001a8e:	7818      	ldrb	r0, [r3, #0]
 8001a90:	f881 00fe 	strb.w	r0, [r1, #254]	; 0xfe
 8001a94:	7858      	ldrb	r0, [r3, #1]
 8001a96:	f881 00ff 	strb.w	r0, [r1, #255]	; 0xff
 8001a9a:	7898      	ldrb	r0, [r3, #2]
 8001a9c:	78db      	ldrb	r3, [r3, #3]
 8001a9e:	f881 0100 	strb.w	r0, [r1, #256]	; 0x100
 8001aa2:	f881 3101 	strb.w	r3, [r1, #257]	; 0x101
 8001aa6:	f240 4336 	movw	r3, #1078	; 0x436
 8001aaa:	f8a1 3102 	strh.w	r3, [r1, #258]	; 0x102
 8001aae:	4b17      	ldr	r3, [pc, #92]	; (8001b0c <send_DHCP_DECLINE+0xcc>)
 8001ab0:	7818      	ldrb	r0, [r3, #0]
 8001ab2:	f881 0104 	strb.w	r0, [r1, #260]	; 0x104
 8001ab6:	7858      	ldrb	r0, [r3, #1]
 8001ab8:	f881 0105 	strb.w	r0, [r1, #261]	; 0x105
 8001abc:	7898      	ldrb	r0, [r3, #2]
 8001abe:	f881 0106 	strb.w	r0, [r1, #262]	; 0x106
 8001ac2:	78db      	ldrb	r3, [r3, #3]
 8001ac4:	f501 7009 	add.w	r0, r1, #548	; 0x224
 8001ac8:	f881 3107 	strb.w	r3, [r1, #263]	; 0x107
 8001acc:	23ff      	movs	r3, #255	; 0xff
 8001ace:	f881 3108 	strb.w	r3, [r1, #264]	; 0x108
 8001ad2:	f201 1309 	addw	r3, r1, #265	; 0x109
 8001ad6:	f803 2b01 	strb.w	r2, [r3], #1
 8001ada:	4283      	cmp	r3, r0
 8001adc:	d1fb      	bne.n	8001ad6 <send_DHCP_DECLINE+0x96>
 8001ade:	f04f 33ff 	mov.w	r3, #4294967295	; 0xffffffff
 8001ae2:	9303      	str	r3, [sp, #12]
 8001ae4:	2343      	movs	r3, #67	; 0x43
 8001ae6:	480a      	ldr	r0, [pc, #40]	; (8001b10 <send_DHCP_DECLINE+0xd0>)
 8001ae8:	9300      	str	r3, [sp, #0]
 8001aea:	f44f 7209 	mov.w	r2, #548	; 0x224
 8001aee:	ab03      	add	r3, sp, #12
 8001af0:	7800      	ldrb	r0, [r0, #0]
 8001af2:	f001 ff5b 	bl	80039ac <sendto>
 8001af6:	b005      	add	sp, #20
 8001af8:	f85d fb04 	ldr.w	pc, [sp], #4
 8001afc:	200005c4 	.word	0x200005c4
 8001b00:	3d040135 	.word	0x3d040135
 8001b04:	200005b0 	.word	0x200005b0
 8001b08:	2000046c 	.word	0x2000046c
 8001b0c:	200005c0 	.word	0x200005c0
 8001b10:	200005c8 	.word	0x200005c8

08001b14 <parseDHCPMSG>:
 8001b14:	e92d 4ff0 	stmdb	sp!, {r4, r5, r6, r7, r8, r9, sl, fp, lr}
 8001b18:	4da1      	ldr	r5, [pc, #644]	; (8001da0 <parseDHCPMSG+0x28c>)
 8001b1a:	b08b      	sub	sp, #44	; 0x2c
 8001b1c:	7828      	ldrb	r0, [r5, #0]
 8001b1e:	f002 fec8 	bl	80048b2 <getSn_RX_RSR>
 8001b22:	4602      	mov	r2, r0
 8001b24:	b918      	cbnz	r0, 8001b2e <parseDHCPMSG+0x1a>
 8001b26:	2000      	movs	r0, #0
 8001b28:	b00b      	add	sp, #44	; 0x2c
 8001b2a:	e8bd 8ff0 	ldmia.w	sp!, {r4, r5, r6, r7, r8, r9, sl, fp, pc}
 8001b2e:	f10d 031e 	add.w	r3, sp, #30
 8001b32:	4c9c      	ldr	r4, [pc, #624]	; (8001da4 <parseDHCPMSG+0x290>)
 8001b34:	9300      	str	r3, [sp, #0]
 8001b36:	6821      	ldr	r1, [r4, #0]
 8001b38:	ab08      	add	r3, sp, #32
 8001b3a:	7828      	ldrb	r0, [r5, #0]
 8001b3c:	f001 ffe6 	bl	8003b0c <recvfrom>
 8001b40:	f8bd 301e 	ldrh.w	r3, [sp, #30]
 8001b44:	2b43      	cmp	r3, #67	; 0x43
 8001b46:	f040 8128 	bne.w	8001d9a <parseDHCPMSG+0x286>
 8001b4a:	6821      	ldr	r1, [r4, #0]
 8001b4c:	4b96      	ldr	r3, [pc, #600]	; (8001da8 <parseDHCPMSG+0x294>)
 8001b4e:	7f0c      	ldrb	r4, [r1, #28]
 8001b50:	781a      	ldrb	r2, [r3, #0]
 8001b52:	4294      	cmp	r4, r2
 8001b54:	d1e7      	bne.n	8001b26 <parseDHCPMSG+0x12>
 8001b56:	7f4c      	ldrb	r4, [r1, #29]
 8001b58:	785a      	ldrb	r2, [r3, #1]
 8001b5a:	4294      	cmp	r4, r2
 8001b5c:	d1e3      	bne.n	8001b26 <parseDHCPMSG+0x12>
 8001b5e:	7f8c      	ldrb	r4, [r1, #30]
 8001b60:	789a      	ldrb	r2, [r3, #2]
 8001b62:	4294      	cmp	r4, r2
 8001b64:	d1df      	bne.n	8001b26 <parseDHCPMSG+0x12>
 8001b66:	7fcc      	ldrb	r4, [r1, #31]
 8001b68:	78da      	ldrb	r2, [r3, #3]
 8001b6a:	4294      	cmp	r4, r2
 8001b6c:	d1db      	bne.n	8001b26 <parseDHCPMSG+0x12>
 8001b6e:	f891 4020 	ldrb.w	r4, [r1, #32]
 8001b72:	791a      	ldrb	r2, [r3, #4]
 8001b74:	4294      	cmp	r4, r2
 8001b76:	d1d6      	bne.n	8001b26 <parseDHCPMSG+0x12>
 8001b78:	f891 2021 	ldrb.w	r2, [r1, #33]	; 0x21
 8001b7c:	795b      	ldrb	r3, [r3, #5]
 8001b7e:	429a      	cmp	r2, r3
 8001b80:	d1d1      	bne.n	8001b26 <parseDHCPMSG+0x12>
 8001b82:	4a8a      	ldr	r2, [pc, #552]	; (8001dac <parseDHCPMSG+0x298>)
 8001b84:	f89d 9020 	ldrb.w	r9, [sp, #32]
 8001b88:	7817      	ldrb	r7, [r2, #0]
 8001b8a:	7856      	ldrb	r6, [r2, #1]
 8001b8c:	7895      	ldrb	r5, [r2, #2]
 8001b8e:	78d4      	ldrb	r4, [r2, #3]
 8001b90:	ea47 0306 	orr.w	r3, r7, r6
 8001b94:	432b      	orrs	r3, r5
 8001b96:	4323      	orrs	r3, r4
 8001b98:	9202      	str	r2, [sp, #8]
 8001b9a:	d020      	beq.n	8001bde <parseDHCPMSG+0xca>
 8001b9c:	454f      	cmp	r7, r9
 8001b9e:	d10b      	bne.n	8001bb8 <parseDHCPMSG+0xa4>
 8001ba0:	f89d 3021 	ldrb.w	r3, [sp, #33]	; 0x21
 8001ba4:	42b3      	cmp	r3, r6
 8001ba6:	d107      	bne.n	8001bb8 <parseDHCPMSG+0xa4>
 8001ba8:	f89d 3022 	ldrb.w	r3, [sp, #34]	; 0x22
 8001bac:	42ab      	cmp	r3, r5
 8001bae:	d103      	bne.n	8001bb8 <parseDHCPMSG+0xa4>
 8001bb0:	f89d 3023 	ldrb.w	r3, [sp, #35]	; 0x23
 8001bb4:	42a3      	cmp	r3, r4
 8001bb6:	d012      	beq.n	8001bde <parseDHCPMSG+0xca>
 8001bb8:	4b7d      	ldr	r3, [pc, #500]	; (8001db0 <parseDHCPMSG+0x29c>)
 8001bba:	781c      	ldrb	r4, [r3, #0]
 8001bbc:	454c      	cmp	r4, r9
 8001bbe:	d1b2      	bne.n	8001b26 <parseDHCPMSG+0x12>
 8001bc0:	f89d 5021 	ldrb.w	r5, [sp, #33]	; 0x21
 8001bc4:	785c      	ldrb	r4, [r3, #1]
 8001bc6:	42a5      	cmp	r5, r4
 8001bc8:	d1ad      	bne.n	8001b26 <parseDHCPMSG+0x12>
 8001bca:	f89d 5022 	ldrb.w	r5, [sp, #34]	; 0x22
 8001bce:	789c      	ldrb	r4, [r3, #2]
 8001bd0:	42a5      	cmp	r5, r4
 8001bd2:	d1a8      	bne.n	8001b26 <parseDHCPMSG+0x12>
 8001bd4:	f89d 4023 	ldrb.w	r4, [sp, #35]	; 0x23
 8001bd8:	78db      	ldrb	r3, [r3, #3]
 8001bda:	429c      	cmp	r4, r3
 8001bdc:	d1a3      	bne.n	8001b26 <parseDHCPMSG+0x12>
 8001bde:	b280      	uxth	r0, r0
 8001be0:	eb01 0a00 	add.w	sl, r1, r0
 8001be4:	2000      	movs	r0, #0
 8001be6:	f89d 2021 	ldrb.w	r2, [sp, #33]	; 0x21
 8001bea:	f101 03f0 	add.w	r3, r1, #240	; 0xf0
 8001bee:	9203      	str	r2, [sp, #12]
 8001bf0:	f89d 2022 	ldrb.w	r2, [sp, #34]	; 0x22
 8001bf4:	496e      	ldr	r1, [pc, #440]	; (8001db0 <parseDHCPMSG+0x29c>)
 8001bf6:	9204      	str	r2, [sp, #16]
 8001bf8:	f89d 2023 	ldrb.w	r2, [sp, #35]	; 0x23
 8001bfc:	4c6d      	ldr	r4, [pc, #436]	; (8001db4 <parseDHCPMSG+0x2a0>)
 8001bfe:	4d6e      	ldr	r5, [pc, #440]	; (8001db8 <parseDHCPMSG+0x2a4>)
 8001c00:	4e6e      	ldr	r6, [pc, #440]	; (8001dbc <parseDHCPMSG+0x2a8>)
 8001c02:	4f6f      	ldr	r7, [pc, #444]	; (8001dc0 <parseDHCPMSG+0x2ac>)
 8001c04:	9205      	str	r2, [sp, #20]
 8001c06:	4553      	cmp	r3, sl
 8001c08:	d301      	bcc.n	8001c0e <parseDHCPMSG+0xfa>
 8001c0a:	b240      	sxtb	r0, r0
 8001c0c:	e78c      	b.n	8001b28 <parseDHCPMSG+0x14>
 8001c0e:	f893 c000 	ldrb.w	ip, [r3]
 8001c12:	f1bc 0f35 	cmp.w	ip, #53	; 0x35
 8001c16:	d039      	beq.n	8001c8c <parseDHCPMSG+0x178>
 8001c18:	d813      	bhi.n	8001c42 <parseDHCPMSG+0x12e>
 8001c1a:	f1bc 0f06 	cmp.w	ip, #6
 8001c1e:	d808      	bhi.n	8001c32 <parseDHCPMSG+0x11e>
 8001c20:	f1bc 0f06 	cmp.w	ip, #6
 8001c24:	d808      	bhi.n	8001c38 <parseDHCPMSG+0x124>
 8001c26:	e8df f00c 	tbb	[pc, ip]
 8001c2a:	342f      	.short	0x342f
 8001c2c:	07074607 	.word	0x07074607
 8001c30:	5b          	.byte	0x5b
 8001c31:	00          	.byte	0x00
 8001c32:	f1bc 0f33 	cmp.w	ip, #51	; 0x33
 8001c36:	d066      	beq.n	8001d06 <parseDHCPMSG+0x1f2>
 8001c38:	f103 0c02 	add.w	ip, r3, #2
 8001c3c:	785b      	ldrb	r3, [r3, #1]
 8001c3e:	4463      	add	r3, ip
 8001c40:	e7e1      	b.n	8001c06 <parseDHCPMSG+0xf2>
 8001c42:	f1bc 0fe1 	cmp.w	ip, #225	; 0xe1
 8001c46:	f000 808c 	beq.w	8001d62 <parseDHCPMSG+0x24e>
 8001c4a:	d818      	bhi.n	8001c7e <parseDHCPMSG+0x16a>
 8001c4c:	f1bc 0f36 	cmp.w	ip, #54	; 0x36
 8001c50:	d06d      	beq.n	8001d2e <parseDHCPMSG+0x21a>
 8001c52:	f1bc 0fe0 	cmp.w	ip, #224	; 0xe0
 8001c56:	d1ef      	bne.n	8001c38 <parseDHCPMSG+0x124>
 8001c58:	f893 e002 	ldrb.w	lr, [r3, #2]
 8001c5c:	f893 c001 	ldrb.w	ip, [r3, #1]
 8001c60:	f884 e000 	strb.w	lr, [r4]
 8001c64:	f893 e003 	ldrb.w	lr, [r3, #3]
 8001c68:	f884 e001 	strb.w	lr, [r4, #1]
 8001c6c:	f893 e004 	ldrb.w	lr, [r3, #4]
 8001c70:	f884 e002 	strb.w	lr, [r4, #2]
 8001c74:	f893 e005 	ldrb.w	lr, [r3, #5]
 8001c78:	f884 e003 	strb.w	lr, [r4, #3]
 8001c7c:	e02d      	b.n	8001cda <parseDHCPMSG+0x1c6>
 8001c7e:	f1bc 0fff 	cmp.w	ip, #255	; 0xff
 8001c82:	d1d9      	bne.n	8001c38 <parseDHCPMSG+0x124>
 8001c84:	4653      	mov	r3, sl
 8001c86:	e7be      	b.n	8001c06 <parseDHCPMSG+0xf2>
 8001c88:	3301      	adds	r3, #1
 8001c8a:	e7bc      	b.n	8001c06 <parseDHCPMSG+0xf2>
 8001c8c:	7898      	ldrb	r0, [r3, #2]
 8001c8e:	3303      	adds	r3, #3
 8001c90:	e7b9      	b.n	8001c06 <parseDHCPMSG+0xf2>
 8001c92:	f893 c002 	ldrb.w	ip, [r3, #2]
 8001c96:	f887 c000 	strb.w	ip, [r7]
 8001c9a:	f893 c003 	ldrb.w	ip, [r3, #3]
 8001c9e:	f887 c001 	strb.w	ip, [r7, #1]
 8001ca2:	f893 c004 	ldrb.w	ip, [r3, #4]
 8001ca6:	f887 c002 	strb.w	ip, [r7, #2]
 8001caa:	f893 c005 	ldrb.w	ip, [r3, #5]
 8001cae:	f887 c003 	strb.w	ip, [r7, #3]
 8001cb2:	3306      	adds	r3, #6
 8001cb4:	e7a7      	b.n	8001c06 <parseDHCPMSG+0xf2>
 8001cb6:	f893 e002 	ldrb.w	lr, [r3, #2]
 8001cba:	f893 c001 	ldrb.w	ip, [r3, #1]
 8001cbe:	f886 e000 	strb.w	lr, [r6]
 8001cc2:	f893 e003 	ldrb.w	lr, [r3, #3]
 8001cc6:	f886 e001 	strb.w	lr, [r6, #1]
 8001cca:	f893 e004 	ldrb.w	lr, [r3, #4]
 8001cce:	f886 e002 	strb.w	lr, [r6, #2]
 8001cd2:	f893 e005 	ldrb.w	lr, [r3, #5]
 8001cd6:	f886 e003 	strb.w	lr, [r6, #3]
 8001cda:	4463      	add	r3, ip
 8001cdc:	3302      	adds	r3, #2
 8001cde:	e792      	b.n	8001c06 <parseDHCPMSG+0xf2>
 8001ce0:	f893 e002 	ldrb.w	lr, [r3, #2]
 8001ce4:	f893 c001 	ldrb.w	ip, [r3, #1]
 8001ce8:	f885 e000 	strb.w	lr, [r5]
 8001cec:	f893 e003 	ldrb.w	lr, [r3, #3]
 8001cf0:	f885 e001 	strb.w	lr, [r5, #1]
 8001cf4:	f893 e004 	ldrb.w	lr, [r3, #4]
 8001cf8:	f885 e002 	strb.w	lr, [r5, #2]
 8001cfc:	f893 e005 	ldrb.w	lr, [r3, #5]
 8001d00:	f885 e003 	strb.w	lr, [r5, #3]
 8001d04:	e7e9      	b.n	8001cda <parseDHCPMSG+0x1c6>
 8001d06:	f893 c002 	ldrb.w	ip, [r3, #2]
 8001d0a:	4a2e      	ldr	r2, [pc, #184]	; (8001dc4 <parseDHCPMSG+0x2b0>)
 8001d0c:	f8c2 c000 	str.w	ip, [r2]
 8001d10:	f893 e003 	ldrb.w	lr, [r3, #3]
 8001d14:	eb0e 2c0c 	add.w	ip, lr, ip, lsl #8
 8001d18:	f893 e004 	ldrb.w	lr, [r3, #4]
 8001d1c:	eb0e 2e0c 	add.w	lr, lr, ip, lsl #8
 8001d20:	f893 c005 	ldrb.w	ip, [r3, #5]
 8001d24:	eb0c 2c0e 	add.w	ip, ip, lr, lsl #8
 8001d28:	f8c2 c000 	str.w	ip, [r2]
 8001d2c:	e7c1      	b.n	8001cb2 <parseDHCPMSG+0x19e>
 8001d2e:	f893 c002 	ldrb.w	ip, [r3, #2]
 8001d32:	9a02      	ldr	r2, [sp, #8]
 8001d34:	f882 c000 	strb.w	ip, [r2]
 8001d38:	f893 c003 	ldrb.w	ip, [r3, #3]
 8001d3c:	f881 9000 	strb.w	r9, [r1]
 8001d40:	f882 c001 	strb.w	ip, [r2, #1]
 8001d44:	f893 c004 	ldrb.w	ip, [r3, #4]
 8001d48:	f882 c002 	strb.w	ip, [r2, #2]
 8001d4c:	f893 c005 	ldrb.w	ip, [r3, #5]
 8001d50:	f882 c003 	strb.w	ip, [r2, #3]
 8001d54:	9a03      	ldr	r2, [sp, #12]
 8001d56:	704a      	strb	r2, [r1, #1]
 8001d58:	9a04      	ldr	r2, [sp, #16]
 8001d5a:	708a      	strb	r2, [r1, #2]
 8001d5c:	9a05      	ldr	r2, [sp, #20]
 8001d5e:	70ca      	strb	r2, [r1, #3]
 8001d60:	e7a7      	b.n	8001cb2 <parseDHCPMSG+0x19e>
 8001d62:	1c9a      	adds	r2, r3, #2
 8001d64:	4696      	mov	lr, r2
 8001d66:	f893 c001 	ldrb.w	ip, [r3, #1]
 8001d6a:	f1c3 23ff 	rsb	r3, r3, #4278255360	; 0xff00ff00
 8001d6e:	f503 037f 	add.w	r3, r3, #16711680	; 0xff0000
 8001d72:	f8df 8054 	ldr.w	r8, [pc, #84]	; 8001dc8 <parseDHCPMSG+0x2b4>
 8001d76:	33fe      	adds	r3, #254	; 0xfe
 8001d78:	eb0e 0b03 	add.w	fp, lr, r3
 8001d7c:	45dc      	cmp	ip, fp
 8001d7e:	dc07      	bgt.n	8001d90 <parseDHCPMSG+0x27c>
 8001d80:	4613      	mov	r3, r2
 8001d82:	f04f 0e00 	mov.w	lr, #0
 8001d86:	4a10      	ldr	r2, [pc, #64]	; (8001dc8 <parseDHCPMSG+0x2b4>)
 8001d88:	4463      	add	r3, ip
 8001d8a:	f802 e00c 	strb.w	lr, [r2, ip]
 8001d8e:	e73a      	b.n	8001c06 <parseDHCPMSG+0xf2>
 8001d90:	f81e bb01 	ldrb.w	fp, [lr], #1
 8001d94:	f808 bb01 	strb.w	fp, [r8], #1
 8001d98:	e7ee      	b.n	8001d78 <parseDHCPMSG+0x264>
 8001d9a:	2000      	movs	r0, #0
 8001d9c:	e735      	b.n	8001c0a <parseDHCPMSG+0xf6>
 8001d9e:	bf00      	nop
 8001da0:	200005c8 	.word	0x200005c8
 8001da4:	200005c4 	.word	0x200005c4
 8001da8:	200005b0 	.word	0x200005b0
 8001dac:	200005c0 	.word	0x200005c0
 8001db0:	200005bc 	.word	0x200005bc
 8001db4:	20000474 	.word	0x20000474
 8001db8:	20000364 	.word	0x20000364
 8001dbc:	20000368 	.word	0x20000368
 8001dc0:	20000470 	.word	0x20000470
 8001dc4:	20000014 	.word	0x20000014
 8001dc8:	2000036c 	.word	0x2000036c

08001dcc <check_DHCP_leasedIP>:
 8001dcc:	b537      	push	{r0, r1, r2, r4, r5, lr}
 8001dce:	f44f 50d8 	mov.w	r0, #6912	; 0x1b00
 8001dd2:	f002 fc79 	bl	80046c8 <WIZCHIP_READ>
 8001dd6:	2103      	movs	r1, #3
 8001dd8:	4605      	mov	r5, r0
 8001dda:	f44f 50d8 	mov.w	r0, #6912	; 0x1b00
 8001dde:	f002 fca1 	bl	8004724 <WIZCHIP_WRITE>
 8001de2:	f241 3388 	movw	r3, #5000	; 0x1388
 8001de6:	480e      	ldr	r0, [pc, #56]	; (8001e20 <check_DHCP_leasedIP+0x54>)
 8001de8:	9300      	str	r3, [sp, #0]
 8001dea:	2211      	movs	r2, #17
 8001dec:	4b0d      	ldr	r3, [pc, #52]	; (8001e24 <check_DHCP_leasedIP+0x58>)
 8001dee:	490e      	ldr	r1, [pc, #56]	; (8001e28 <check_DHCP_leasedIP+0x5c>)
 8001df0:	7800      	ldrb	r0, [r0, #0]
 8001df2:	f001 fddb 	bl	80039ac <sendto>
 8001df6:	4604      	mov	r4, r0
 8001df8:	4629      	mov	r1, r5
 8001dfa:	f44f 50d8 	mov.w	r0, #6912	; 0x1b00
 8001dfe:	f002 fc91 	bl	8004724 <WIZCHIP_WRITE>
 8001e02:	340d      	adds	r4, #13
 8001e04:	d00a      	beq.n	8001e1c <check_DHCP_leasedIP+0x50>
 8001e06:	f7ff fe1b 	bl	8001a40 <send_DHCP_DECLINE>
 8001e0a:	4b08      	ldr	r3, [pc, #32]	; (8001e2c <check_DHCP_leasedIP+0x60>)
 8001e0c:	6819      	ldr	r1, [r3, #0]
 8001e0e:	681a      	ldr	r2, [r3, #0]
 8001e10:	1a52      	subs	r2, r2, r1
 8001e12:	2a01      	cmp	r2, #1
 8001e14:	d9fb      	bls.n	8001e0e <check_DHCP_leasedIP+0x42>
 8001e16:	2000      	movs	r0, #0
 8001e18:	b003      	add	sp, #12
 8001e1a:	bd30      	pop	{r4, r5, pc}
 8001e1c:	2001      	movs	r0, #1
 8001e1e:	e7fb      	b.n	8001e18 <check_DHCP_leasedIP+0x4c>
 8001e20:	200005c8 	.word	0x200005c8
 8001e24:	2000046c 	.word	0x2000046c
 8001e28:	0800ad48 	.word	0x0800ad48
 8001e2c:	20000480 	.word	0x20000480

08001e30 <reset_DHCP_timeout>:
 8001e30:	2300      	movs	r3, #0
 8001e32:	210a      	movs	r1, #10
 8001e34:	4a03      	ldr	r2, [pc, #12]	; (8001e44 <reset_DHCP_timeout+0x14>)
 8001e36:	6013      	str	r3, [r2, #0]
 8001e38:	4a03      	ldr	r2, [pc, #12]	; (8001e48 <reset_DHCP_timeout+0x18>)
 8001e3a:	6011      	str	r1, [r2, #0]
 8001e3c:	4a03      	ldr	r2, [pc, #12]	; (8001e4c <reset_DHCP_timeout+0x1c>)
 8001e3e:	7013      	strb	r3, [r2, #0]
 8001e40:	4770      	bx	lr
 8001e42:	bf00      	nop
 8001e44:	20000480 	.word	0x20000480
 8001e48:	20000018 	.word	0x20000018
 8001e4c:	2000047c 	.word	0x2000047c

08001e50 <DHCP_init>:
 8001e50:	2300      	movs	r3, #0
 8001e52:	b573      	push	{r0, r1, r4, r5, r6, lr}
 8001e54:	4c24      	ldr	r4, [pc, #144]	; (8001ee8 <DHCP_init+0x98>)
 8001e56:	2206      	movs	r2, #6
 8001e58:	4606      	mov	r6, r0
 8001e5a:	460d      	mov	r5, r1
 8001e5c:	f44f 6010 	mov.w	r0, #2304	; 0x900
 8001e60:	4621      	mov	r1, r4
 8001e62:	9301      	str	r3, [sp, #4]
 8001e64:	f002 fc90 	bl	8004788 <WIZCHIP_READ_BUF>
 8001e68:	7862      	ldrb	r2, [r4, #1]
 8001e6a:	7823      	ldrb	r3, [r4, #0]
 8001e6c:	4313      	orrs	r3, r2
 8001e6e:	78a2      	ldrb	r2, [r4, #2]
 8001e70:	4313      	orrs	r3, r2
 8001e72:	78e2      	ldrb	r2, [r4, #3]
 8001e74:	4313      	orrs	r3, r2
 8001e76:	7922      	ldrb	r2, [r4, #4]
 8001e78:	4313      	orrs	r3, r2
 8001e7a:	7962      	ldrb	r2, [r4, #5]
 8001e7c:	4313      	orrs	r3, r2
 8001e7e:	d10d      	bne.n	8001e9c <DHCP_init+0x4c>
 8001e80:	2208      	movs	r2, #8
 8001e82:	7062      	strb	r2, [r4, #1]
 8001e84:	22dc      	movs	r2, #220	; 0xdc
 8001e86:	4621      	mov	r1, r4
 8001e88:	70a2      	strb	r2, [r4, #2]
 8001e8a:	f44f 6010 	mov.w	r0, #2304	; 0x900
 8001e8e:	2206      	movs	r2, #6
 8001e90:	7023      	strb	r3, [r4, #0]
 8001e92:	70e3      	strb	r3, [r4, #3]
 8001e94:	7123      	strb	r3, [r4, #4]
 8001e96:	7163      	strb	r3, [r4, #5]
 8001e98:	f002 fcb0 	bl	80047fc <WIZCHIP_WRITE_BUF>
 8001e9c:	4b13      	ldr	r3, [pc, #76]	; (8001eec <DHCP_init+0x9c>)
 8001e9e:	7920      	ldrb	r0, [r4, #4]
 8001ea0:	701e      	strb	r6, [r3, #0]
 8001ea2:	4b13      	ldr	r3, [pc, #76]	; (8001ef0 <DHCP_init+0xa0>)
 8001ea4:	78e1      	ldrb	r1, [r4, #3]
 8001ea6:	601d      	str	r5, [r3, #0]
 8001ea8:	4b12      	ldr	r3, [pc, #72]	; (8001ef4 <DHCP_init+0xa4>)
 8001eaa:	7962      	ldrb	r2, [r4, #5]
 8001eac:	180c      	adds	r4, r1, r0
 8001eae:	4423      	add	r3, r4
 8001eb0:	4041      	eors	r1, r0
 8001eb2:	4413      	add	r3, r2
 8001eb4:	404a      	eors	r2, r1
 8001eb6:	4413      	add	r3, r2
 8001eb8:	4a0f      	ldr	r2, [pc, #60]	; (8001ef8 <DHCP_init+0xa8>)
 8001eba:	f44f 6070 	mov.w	r0, #3840	; 0xf00
 8001ebe:	6013      	str	r3, [r2, #0]
 8001ec0:	2204      	movs	r2, #4
 8001ec2:	eb0d 0102 	add.w	r1, sp, r2
 8001ec6:	f002 fc99 	bl	80047fc <WIZCHIP_WRITE_BUF>
 8001eca:	2204      	movs	r2, #4
 8001ecc:	f44f 7080 	mov.w	r0, #256	; 0x100
 8001ed0:	eb0d 0102 	add.w	r1, sp, r2
 8001ed4:	f002 fc92 	bl	80047fc <WIZCHIP_WRITE_BUF>
 8001ed8:	f7ff ffaa 	bl	8001e30 <reset_DHCP_timeout>
 8001edc:	2200      	movs	r2, #0
 8001ede:	4b07      	ldr	r3, [pc, #28]	; (8001efc <DHCP_init+0xac>)
 8001ee0:	701a      	strb	r2, [r3, #0]
 8001ee2:	b002      	add	sp, #8
 8001ee4:	bd70      	pop	{r4, r5, r6, pc}
 8001ee6:	bf00      	nop
 8001ee8:	200005b0 	.word	0x200005b0
 8001eec:	200005c8 	.word	0x200005c8
 8001ef0:	200005c4 	.word	0x200005c4
 8001ef4:	12345678 	.word	0x12345678
 8001ef8:	200005b8 	.word	0x200005b8
 8001efc:	2000047d 	.word	0x2000047d

08001f00 <DHCP_time_handler>:
 8001f00:	4a02      	ldr	r2, [pc, #8]	; (8001f0c <DHCP_time_handler+0xc>)
 8001f02:	6813      	ldr	r3, [r2, #0]
 8001f04:	3301      	adds	r3, #1
 8001f06:	6013      	str	r3, [r2, #0]
 8001f08:	4770      	bx	lr
 8001f0a:	bf00      	nop
 8001f0c:	20000480 	.word	0x20000480

08001f10 <getIPfromDHCP>:
 8001f10:	4b04      	ldr	r3, [pc, #16]	; (8001f24 <getIPfromDHCP+0x14>)
 8001f12:	781a      	ldrb	r2, [r3, #0]
 8001f14:	7002      	strb	r2, [r0, #0]
 8001f16:	785a      	ldrb	r2, [r3, #1]
 8001f18:	7042      	strb	r2, [r0, #1]
 8001f1a:	789a      	ldrb	r2, [r3, #2]
 8001f1c:	7082      	strb	r2, [r0, #2]
 8001f1e:	78db      	ldrb	r3, [r3, #3]
 8001f20:	70c3      	strb	r3, [r0, #3]
 8001f22:	4770      	bx	lr
 8001f24:	2000046c 	.word	0x2000046c

08001f28 <getGWfromDHCP>:
 8001f28:	4b04      	ldr	r3, [pc, #16]	; (8001f3c <getGWfromDHCP+0x14>)
 8001f2a:	781a      	ldrb	r2, [r3, #0]
 8001f2c:	7002      	strb	r2, [r0, #0]
 8001f2e:	785a      	ldrb	r2, [r3, #1]
 8001f30:	7042      	strb	r2, [r0, #1]
 8001f32:	789a      	ldrb	r2, [r3, #2]
 8001f34:	7082      	strb	r2, [r0, #2]
 8001f36:	78db      	ldrb	r3, [r3, #3]
 8001f38:	70c3      	strb	r3, [r0, #3]
 8001f3a:	4770      	bx	lr
 8001f3c:	20000368 	.word	0x20000368

08001f40 <getZABBIXfromDHCP>:
 8001f40:	4b04      	ldr	r3, [pc, #16]	; (8001f54 <getZABBIXfromDHCP+0x14>)
 8001f42:	781a      	ldrb	r2, [r3, #0]
 8001f44:	7002      	strb	r2, [r0, #0]
 8001f46:	785a      	ldrb	r2, [r3, #1]
 8001f48:	7042      	strb	r2, [r0, #1]
 8001f4a:	789a      	ldrb	r2, [r3, #2]
 8001f4c:	7082      	strb	r2, [r0, #2]
 8001f4e:	78db      	ldrb	r3, [r3, #3]
 8001f50:	70c3      	strb	r3, [r0, #3]
 8001f52:	4770      	bx	lr
 8001f54:	20000474 	.word	0x20000474

08001f58 <getHostNamefromDHCP>:
 8001f58:	4a05      	ldr	r2, [pc, #20]	; (8001f70 <getHostNamefromDHCP+0x18>)
 8001f5a:	1e43      	subs	r3, r0, #1
 8001f5c:	30fe      	adds	r0, #254	; 0xfe
 8001f5e:	7811      	ldrb	r1, [r2, #0]
 8001f60:	f803 1f01 	strb.w	r1, [r3, #1]!
 8001f64:	f812 1b01 	ldrb.w	r1, [r2], #1
 8001f68:	b109      	cbz	r1, 8001f6e <getHostNamefromDHCP+0x16>
 8001f6a:	4283      	cmp	r3, r0
 8001f6c:	d1f7      	bne.n	8001f5e <getHostNamefromDHCP+0x6>
 8001f6e:	4770      	bx	lr
 8001f70:	2000036c 	.word	0x2000036c

08001f74 <getSNfromDHCP>:
 8001f74:	4b04      	ldr	r3, [pc, #16]	; (8001f88 <getSNfromDHCP+0x14>)
 8001f76:	781a      	ldrb	r2, [r3, #0]
 8001f78:	7002      	strb	r2, [r0, #0]
 8001f7a:	785a      	ldrb	r2, [r3, #1]
 8001f7c:	7042      	strb	r2, [r0, #1]
 8001f7e:	789a      	ldrb	r2, [r3, #2]
 8001f80:	7082      	strb	r2, [r0, #2]
 8001f82:	78db      	ldrb	r3, [r3, #3]
 8001f84:	70c3      	strb	r3, [r0, #3]
 8001f86:	4770      	bx	lr
 8001f88:	20000470 	.word	0x20000470

08001f8c <NibbleToHex>:
 8001f8c:	f000 000f 	and.w	r0, r0, #15
 8001f90:	2809      	cmp	r0, #9
 8001f92:	bf94      	ite	ls
 8001f94:	3030      	addls	r0, #48	; 0x30
 8001f96:	3037      	addhi	r0, #55	; 0x37
 8001f98:	4770      	bx	lr
	...

08001f9c <send_DHCP_DISCOVER>:
 8001f9c:	e92d 43f0 	stmdb	sp!, {r4, r5, r6, r7, r8, r9, lr}
 8001fa0:	b085      	sub	sp, #20
 8001fa2:	f7ff fcfb 	bl	800199c <makeDHCPMSG>
 8001fa6:	2300      	movs	r3, #0
 8001fa8:	4a69      	ldr	r2, [pc, #420]	; (8002150 <send_DHCP_DISCOVER+0x1b4>)
 8001faa:	486a      	ldr	r0, [pc, #424]	; (8002154 <send_DHCP_DISCOVER+0x1b8>)
 8001fac:	7013      	strb	r3, [r2, #0]
 8001fae:	7053      	strb	r3, [r2, #1]
 8001fb0:	7093      	strb	r3, [r2, #2]
 8001fb2:	70d3      	strb	r3, [r2, #3]
 8001fb4:	4a68      	ldr	r2, [pc, #416]	; (8002158 <send_DHCP_DISCOVER+0x1bc>)
 8001fb6:	7013      	strb	r3, [r2, #0]
 8001fb8:	7053      	strb	r3, [r2, #1]
 8001fba:	7093      	strb	r3, [r2, #2]
 8001fbc:	70d3      	strb	r3, [r2, #3]
 8001fbe:	4b67      	ldr	r3, [pc, #412]	; (800215c <send_DHCP_DISCOVER+0x1c0>)
 8001fc0:	6819      	ldr	r1, [r3, #0]
 8001fc2:	4b67      	ldr	r3, [pc, #412]	; (8002160 <send_DHCP_DISCOVER+0x1c4>)
 8001fc4:	f8c1 30f0 	str.w	r3, [r1, #240]	; 0xf0
 8001fc8:	f240 1307 	movw	r3, #263	; 0x107
 8001fcc:	f8a1 30f4 	strh.w	r3, [r1, #244]	; 0xf4
 8001fd0:	4b64      	ldr	r3, [pc, #400]	; (8002164 <send_DHCP_DISCOVER+0x1c8>)
 8001fd2:	781a      	ldrb	r2, [r3, #0]
 8001fd4:	f893 8003 	ldrb.w	r8, [r3, #3]
 8001fd8:	f881 20f6 	strb.w	r2, [r1, #246]	; 0xf6
 8001fdc:	785a      	ldrb	r2, [r3, #1]
 8001fde:	791f      	ldrb	r7, [r3, #4]
 8001fe0:	795e      	ldrb	r6, [r3, #5]
 8001fe2:	f881 20f7 	strb.w	r2, [r1, #247]	; 0xf7
 8001fe6:	789a      	ldrb	r2, [r3, #2]
 8001fe8:	230c      	movs	r3, #12
 8001fea:	f8a1 30fc 	strh.w	r3, [r1, #252]	; 0xfc
 8001fee:	2312      	movs	r3, #18
 8001ff0:	f881 20f8 	strb.w	r2, [r1, #248]	; 0xf8
 8001ff4:	f881 80f9 	strb.w	r8, [r1, #249]	; 0xf9
 8001ff8:	f881 70fa 	strb.w	r7, [r1, #250]	; 0xfa
 8001ffc:	f881 60fb 	strb.w	r6, [r1, #251]	; 0xfb
 8002000:	f1a3 0212 	sub.w	r2, r3, #18
 8002004:	b292      	uxth	r2, r2
 8002006:	5c84      	ldrb	r4, [r0, r2]
 8002008:	1c5d      	adds	r5, r3, #1
 800200a:	b2ad      	uxth	r5, r5
 800200c:	eb01 0903 	add.w	r9, r1, r3
 8002010:	2c00      	cmp	r4, #0
 8002012:	f040 8093 	bne.w	800213c <send_DHCP_DISCOVER+0x1a0>
 8002016:	ea4f 1018 	mov.w	r0, r8, lsr #4
 800201a:	f7ff ffb7 	bl	8001f8c <NibbleToHex>
 800201e:	f889 00ec 	strb.w	r0, [r9, #236]	; 0xec
 8002022:	4640      	mov	r0, r8
 8002024:	f7ff ffb2 	bl	8001f8c <NibbleToHex>
 8002028:	440d      	add	r5, r1
 800202a:	f885 00ec 	strb.w	r0, [r5, #236]	; 0xec
 800202e:	0938      	lsrs	r0, r7, #4
 8002030:	f7ff ffac 	bl	8001f8c <NibbleToHex>
 8002034:	1c9d      	adds	r5, r3, #2
 8002036:	b2ad      	uxth	r5, r5
 8002038:	440d      	add	r5, r1
 800203a:	f885 00ec 	strb.w	r0, [r5, #236]	; 0xec
 800203e:	4638      	mov	r0, r7
 8002040:	f7ff ffa4 	bl	8001f8c <NibbleToHex>
 8002044:	1cdd      	adds	r5, r3, #3
 8002046:	b2ad      	uxth	r5, r5
 8002048:	440d      	add	r5, r1
 800204a:	f885 00ec 	strb.w	r0, [r5, #236]	; 0xec
 800204e:	0930      	lsrs	r0, r6, #4
 8002050:	f7ff ff9c 	bl	8001f8c <NibbleToHex>
 8002054:	1d1d      	adds	r5, r3, #4
 8002056:	b2ad      	uxth	r5, r5
 8002058:	440d      	add	r5, r1
 800205a:	f885 00ec 	strb.w	r0, [r5, #236]	; 0xec
 800205e:	4630      	mov	r0, r6
 8002060:	f7ff ff94 	bl	8001f8c <NibbleToHex>
 8002064:	1d5d      	adds	r5, r3, #5
 8002066:	b2ad      	uxth	r5, r5
 8002068:	440d      	add	r5, r1
 800206a:	f885 00ec 	strb.w	r0, [r5, #236]	; 0xec
 800206e:	1d98      	adds	r0, r3, #6
 8002070:	b280      	uxth	r0, r0
 8002072:	1dd5      	adds	r5, r2, #7
 8002074:	1b45      	subs	r5, r0, r5
 8002076:	3206      	adds	r2, #6
 8002078:	440d      	add	r5, r1
 800207a:	f885 20ec 	strb.w	r2, [r5, #236]	; 0xec
 800207e:	2237      	movs	r2, #55	; 0x37
 8002080:	4408      	add	r0, r1
 8002082:	f880 20ec 	strb.w	r2, [r0, #236]	; 0xec
 8002086:	2008      	movs	r0, #8
 8002088:	1dda      	adds	r2, r3, #7
 800208a:	b292      	uxth	r2, r2
 800208c:	440a      	add	r2, r1
 800208e:	f882 00ec 	strb.w	r0, [r2, #236]	; 0xec
 8002092:	181a      	adds	r2, r3, r0
 8002094:	2001      	movs	r0, #1
 8002096:	b292      	uxth	r2, r2
 8002098:	440a      	add	r2, r1
 800209a:	f882 00ec 	strb.w	r0, [r2, #236]	; 0xec
 800209e:	2003      	movs	r0, #3
 80020a0:	f103 0209 	add.w	r2, r3, #9
 80020a4:	b292      	uxth	r2, r2
 80020a6:	440a      	add	r2, r1
 80020a8:	f882 00ec 	strb.w	r0, [r2, #236]	; 0xec
 80020ac:	2006      	movs	r0, #6
 80020ae:	f103 020a 	add.w	r2, r3, #10
 80020b2:	b292      	uxth	r2, r2
 80020b4:	440a      	add	r2, r1
 80020b6:	f882 00ec 	strb.w	r0, [r2, #236]	; 0xec
 80020ba:	200f      	movs	r0, #15
 80020bc:	f103 020b 	add.w	r2, r3, #11
 80020c0:	b292      	uxth	r2, r2
 80020c2:	440a      	add	r2, r1
 80020c4:	f882 00ec 	strb.w	r0, [r2, #236]	; 0xec
 80020c8:	203a      	movs	r0, #58	; 0x3a
 80020ca:	f103 020c 	add.w	r2, r3, #12
 80020ce:	b292      	uxth	r2, r2
 80020d0:	440a      	add	r2, r1
 80020d2:	f882 00ec 	strb.w	r0, [r2, #236]	; 0xec
 80020d6:	203b      	movs	r0, #59	; 0x3b
 80020d8:	f103 020d 	add.w	r2, r3, #13
 80020dc:	b292      	uxth	r2, r2
 80020de:	440a      	add	r2, r1
 80020e0:	f882 00ec 	strb.w	r0, [r2, #236]	; 0xec
 80020e4:	20e0      	movs	r0, #224	; 0xe0
 80020e6:	f103 020e 	add.w	r2, r3, #14
 80020ea:	b292      	uxth	r2, r2
 80020ec:	440a      	add	r2, r1
 80020ee:	f882 00ec 	strb.w	r0, [r2, #236]	; 0xec
 80020f2:	20e1      	movs	r0, #225	; 0xe1
 80020f4:	f103 020f 	add.w	r2, r3, #15
 80020f8:	b292      	uxth	r2, r2
 80020fa:	440a      	add	r2, r1
 80020fc:	f882 00ec 	strb.w	r0, [r2, #236]	; 0xec
 8002100:	20ff      	movs	r0, #255	; 0xff
 8002102:	f103 0211 	add.w	r2, r3, #17
 8002106:	3310      	adds	r3, #16
 8002108:	b29b      	uxth	r3, r3
 800210a:	440b      	add	r3, r1
 800210c:	b292      	uxth	r2, r2
 800210e:	f883 00ec 	strb.w	r0, [r3, #236]	; 0xec
 8002112:	f102 03ec 	add.w	r3, r2, #236	; 0xec
 8002116:	440b      	add	r3, r1
 8002118:	f5b2 7f9c 	cmp.w	r2, #312	; 0x138
 800211c:	d312      	bcc.n	8002144 <send_DHCP_DISCOVER+0x1a8>
 800211e:	f04f 33ff 	mov.w	r3, #4294967295	; 0xffffffff
 8002122:	9303      	str	r3, [sp, #12]
 8002124:	2343      	movs	r3, #67	; 0x43
 8002126:	4810      	ldr	r0, [pc, #64]	; (8002168 <send_DHCP_DISCOVER+0x1cc>)
 8002128:	9300      	str	r3, [sp, #0]
 800212a:	f44f 7209 	mov.w	r2, #548	; 0x224
 800212e:	ab03      	add	r3, sp, #12
 8002130:	7800      	ldrb	r0, [r0, #0]
 8002132:	f001 fc3b 	bl	80039ac <sendto>
 8002136:	b005      	add	sp, #20
 8002138:	e8bd 83f0 	ldmia.w	sp!, {r4, r5, r6, r7, r8, r9, pc}
 800213c:	462b      	mov	r3, r5
 800213e:	f889 40ec 	strb.w	r4, [r9, #236]	; 0xec
 8002142:	e75d      	b.n	8002000 <send_DHCP_DISCOVER+0x64>
 8002144:	3201      	adds	r2, #1
 8002146:	f803 4b01 	strb.w	r4, [r3], #1
 800214a:	b292      	uxth	r2, r2
 800214c:	e7e4      	b.n	8002118 <send_DHCP_DISCOVER+0x17c>
 800214e:	bf00      	nop
 8002150:	200005c0 	.word	0x200005c0
 8002154:	20000000 	.word	0x20000000
 8002158:	200005bc 	.word	0x200005bc
 800215c:	200005c4 	.word	0x200005c4
 8002160:	3d010135 	.word	0x3d010135
 8002164:	200005b0 	.word	0x200005b0
 8002168:	200005c8 	.word	0x200005c8

0800216c <send_DHCP_REQUEST>:
 800216c:	e92d 43f0 	stmdb	sp!, {r4, r5, r6, r7, r8, r9, lr}
 8002170:	b085      	sub	sp, #20
 8002172:	f7ff fc13 	bl	800199c <makeDHCPMSG>
 8002176:	4b92      	ldr	r3, [pc, #584]	; (80023c0 <send_DHCP_REQUEST+0x254>)
 8002178:	4992      	ldr	r1, [pc, #584]	; (80023c4 <send_DHCP_REQUEST+0x258>)
 800217a:	781b      	ldrb	r3, [r3, #0]
 800217c:	3b03      	subs	r3, #3
 800217e:	2b01      	cmp	r3, #1
 8002180:	f200 8110 	bhi.w	80023a4 <send_DHCP_REQUEST+0x238>
 8002184:	2200      	movs	r2, #0
 8002186:	680b      	ldr	r3, [r1, #0]
 8002188:	729a      	strb	r2, [r3, #10]
 800218a:	72da      	strb	r2, [r3, #11]
 800218c:	4a8e      	ldr	r2, [pc, #568]	; (80023c8 <send_DHCP_REQUEST+0x25c>)
 800218e:	7810      	ldrb	r0, [r2, #0]
 8002190:	7318      	strb	r0, [r3, #12]
 8002192:	7850      	ldrb	r0, [r2, #1]
 8002194:	7358      	strb	r0, [r3, #13]
 8002196:	7890      	ldrb	r0, [r2, #2]
 8002198:	78d2      	ldrb	r2, [r2, #3]
 800219a:	7398      	strb	r0, [r3, #14]
 800219c:	73da      	strb	r2, [r3, #15]
 800219e:	4b8b      	ldr	r3, [pc, #556]	; (80023cc <send_DHCP_REQUEST+0x260>)
 80021a0:	781a      	ldrb	r2, [r3, #0]
 80021a2:	f88d 200c 	strb.w	r2, [sp, #12]
 80021a6:	785a      	ldrb	r2, [r3, #1]
 80021a8:	f88d 200d 	strb.w	r2, [sp, #13]
 80021ac:	789a      	ldrb	r2, [r3, #2]
 80021ae:	78db      	ldrb	r3, [r3, #3]
 80021b0:	f88d 200e 	strb.w	r2, [sp, #14]
 80021b4:	f88d 300f 	strb.w	r3, [sp, #15]
 80021b8:	6809      	ldr	r1, [r1, #0]
 80021ba:	4b85      	ldr	r3, [pc, #532]	; (80023d0 <send_DHCP_REQUEST+0x264>)
 80021bc:	f8c1 30f0 	str.w	r3, [r1, #240]	; 0xf0
 80021c0:	f240 1307 	movw	r3, #263	; 0x107
 80021c4:	f8a1 30f4 	strh.w	r3, [r1, #244]	; 0xf4
 80021c8:	4b82      	ldr	r3, [pc, #520]	; (80023d4 <send_DHCP_REQUEST+0x268>)
 80021ca:	781a      	ldrb	r2, [r3, #0]
 80021cc:	78df      	ldrb	r7, [r3, #3]
 80021ce:	f881 20f6 	strb.w	r2, [r1, #246]	; 0xf6
 80021d2:	785a      	ldrb	r2, [r3, #1]
 80021d4:	791e      	ldrb	r6, [r3, #4]
 80021d6:	f893 8005 	ldrb.w	r8, [r3, #5]
 80021da:	f881 20f7 	strb.w	r2, [r1, #247]	; 0xf7
 80021de:	789a      	ldrb	r2, [r3, #2]
 80021e0:	f89d 300f 	ldrb.w	r3, [sp, #15]
 80021e4:	f881 20f8 	strb.w	r2, [r1, #248]	; 0xf8
 80021e8:	2bff      	cmp	r3, #255	; 0xff
 80021ea:	f881 70f9 	strb.w	r7, [r1, #249]	; 0xf9
 80021ee:	f881 60fa 	strb.w	r6, [r1, #250]	; 0xfa
 80021f2:	f881 80fb 	strb.w	r8, [r1, #251]	; 0xfb
 80021f6:	f040 80d9 	bne.w	80023ac <send_DHCP_REQUEST+0x240>
 80021fa:	f240 4332 	movw	r3, #1074	; 0x432
 80021fe:	f8a1 30fc 	strh.w	r3, [r1, #252]	; 0xfc
 8002202:	4b71      	ldr	r3, [pc, #452]	; (80023c8 <send_DHCP_REQUEST+0x25c>)
 8002204:	781a      	ldrb	r2, [r3, #0]
 8002206:	f881 20fe 	strb.w	r2, [r1, #254]	; 0xfe
 800220a:	785a      	ldrb	r2, [r3, #1]
 800220c:	f881 20ff 	strb.w	r2, [r1, #255]	; 0xff
 8002210:	789a      	ldrb	r2, [r3, #2]
 8002212:	78db      	ldrb	r3, [r3, #3]
 8002214:	f881 2100 	strb.w	r2, [r1, #256]	; 0x100
 8002218:	f881 3101 	strb.w	r3, [r1, #257]	; 0x101
 800221c:	f240 4336 	movw	r3, #1078	; 0x436
 8002220:	f8a1 3102 	strh.w	r3, [r1, #258]	; 0x102
 8002224:	4b69      	ldr	r3, [pc, #420]	; (80023cc <send_DHCP_REQUEST+0x260>)
 8002226:	781a      	ldrb	r2, [r3, #0]
 8002228:	f881 2104 	strb.w	r2, [r1, #260]	; 0x104
 800222c:	785a      	ldrb	r2, [r3, #1]
 800222e:	f881 2105 	strb.w	r2, [r1, #261]	; 0x105
 8002232:	789a      	ldrb	r2, [r3, #2]
 8002234:	78db      	ldrb	r3, [r3, #3]
 8002236:	f881 2106 	strb.w	r2, [r1, #262]	; 0x106
 800223a:	221c      	movs	r2, #28
 800223c:	f881 3107 	strb.w	r3, [r1, #263]	; 0x107
 8002240:	200c      	movs	r0, #12
 8002242:	188b      	adds	r3, r1, r2
 8002244:	f883 00ec 	strb.w	r0, [r3, #236]	; 0xec
 8002248:	1c93      	adds	r3, r2, #2
 800224a:	3201      	adds	r2, #1
 800224c:	1888      	adds	r0, r1, r2
 800224e:	2200      	movs	r2, #0
 8002250:	f880 20ec 	strb.w	r2, [r0, #236]	; 0xec
 8002254:	4860      	ldr	r0, [pc, #384]	; (80023d8 <send_DHCP_REQUEST+0x26c>)
 8002256:	f810 5b01 	ldrb.w	r5, [r0], #1
 800225a:	1c5c      	adds	r4, r3, #1
 800225c:	b2a4      	uxth	r4, r4
 800225e:	eb01 0903 	add.w	r9, r1, r3
 8002262:	2d00      	cmp	r5, #0
 8002264:	f040 80a4 	bne.w	80023b0 <send_DHCP_REQUEST+0x244>
 8002268:	0938      	lsrs	r0, r7, #4
 800226a:	f7ff fe8f 	bl	8001f8c <NibbleToHex>
 800226e:	f889 00ec 	strb.w	r0, [r9, #236]	; 0xec
 8002272:	4638      	mov	r0, r7
 8002274:	f7ff fe8a 	bl	8001f8c <NibbleToHex>
 8002278:	440c      	add	r4, r1
 800227a:	f884 00ec 	strb.w	r0, [r4, #236]	; 0xec
 800227e:	0930      	lsrs	r0, r6, #4
 8002280:	f7ff fe84 	bl	8001f8c <NibbleToHex>
 8002284:	1c9c      	adds	r4, r3, #2
 8002286:	b2a4      	uxth	r4, r4
 8002288:	440c      	add	r4, r1
 800228a:	f884 00ec 	strb.w	r0, [r4, #236]	; 0xec
 800228e:	4630      	mov	r0, r6
 8002290:	f7ff fe7c 	bl	8001f8c <NibbleToHex>
 8002294:	1cdc      	adds	r4, r3, #3
 8002296:	b2a4      	uxth	r4, r4
 8002298:	440c      	add	r4, r1
 800229a:	f884 00ec 	strb.w	r0, [r4, #236]	; 0xec
 800229e:	ea4f 1018 	mov.w	r0, r8, lsr #4
 80022a2:	f7ff fe73 	bl	8001f8c <NibbleToHex>
 80022a6:	1d1c      	adds	r4, r3, #4
 80022a8:	b2a4      	uxth	r4, r4
 80022aa:	440c      	add	r4, r1
 80022ac:	f884 00ec 	strb.w	r0, [r4, #236]	; 0xec
 80022b0:	4640      	mov	r0, r8
 80022b2:	f7ff fe6b 	bl	8001f8c <NibbleToHex>
 80022b6:	1d5c      	adds	r4, r3, #5
 80022b8:	b2a4      	uxth	r4, r4
 80022ba:	440c      	add	r4, r1
 80022bc:	f884 00ec 	strb.w	r0, [r4, #236]	; 0xec
 80022c0:	1d98      	adds	r0, r3, #6
 80022c2:	b280      	uxth	r0, r0
 80022c4:	1dd4      	adds	r4, r2, #7
 80022c6:	1b04      	subs	r4, r0, r4
 80022c8:	3206      	adds	r2, #6
 80022ca:	440c      	add	r4, r1
 80022cc:	f884 20ec 	strb.w	r2, [r4, #236]	; 0xec
 80022d0:	2237      	movs	r2, #55	; 0x37
 80022d2:	4408      	add	r0, r1
 80022d4:	f880 20ec 	strb.w	r2, [r0, #236]	; 0xec
 80022d8:	200a      	movs	r0, #10
 80022da:	1dda      	adds	r2, r3, #7
 80022dc:	b292      	uxth	r2, r2
 80022de:	440a      	add	r2, r1
 80022e0:	f882 00ec 	strb.w	r0, [r2, #236]	; 0xec
 80022e4:	2001      	movs	r0, #1
 80022e6:	f103 0208 	add.w	r2, r3, #8
 80022ea:	b292      	uxth	r2, r2
 80022ec:	440a      	add	r2, r1
 80022ee:	f882 00ec 	strb.w	r0, [r2, #236]	; 0xec
 80022f2:	2003      	movs	r0, #3
 80022f4:	f103 0209 	add.w	r2, r3, #9
 80022f8:	b292      	uxth	r2, r2
 80022fa:	440a      	add	r2, r1
 80022fc:	f882 00ec 	strb.w	r0, [r2, #236]	; 0xec
 8002300:	2006      	movs	r0, #6
 8002302:	f103 020a 	add.w	r2, r3, #10
 8002306:	b292      	uxth	r2, r2
 8002308:	440a      	add	r2, r1
 800230a:	f882 00ec 	strb.w	r0, [r2, #236]	; 0xec
 800230e:	200f      	movs	r0, #15
 8002310:	f103 020b 	add.w	r2, r3, #11
 8002314:	b292      	uxth	r2, r2
 8002316:	440a      	add	r2, r1
 8002318:	f882 00ec 	strb.w	r0, [r2, #236]	; 0xec
 800231c:	203a      	movs	r0, #58	; 0x3a
 800231e:	f103 020c 	add.w	r2, r3, #12
 8002322:	b292      	uxth	r2, r2
 8002324:	440a      	add	r2, r1
 8002326:	f882 00ec 	strb.w	r0, [r2, #236]	; 0xec
 800232a:	203b      	movs	r0, #59	; 0x3b
 800232c:	f103 020d 	add.w	r2, r3, #13
 8002330:	b292      	uxth	r2, r2
 8002332:	440a      	add	r2, r1
 8002334:	f882 00ec 	strb.w	r0, [r2, #236]	; 0xec
 8002338:	201f      	movs	r0, #31
 800233a:	f103 020e 	add.w	r2, r3, #14
 800233e:	b292      	uxth	r2, r2
 8002340:	440a      	add	r2, r1
 8002342:	f882 00ec 	strb.w	r0, [r2, #236]	; 0xec
 8002346:	2021      	movs	r0, #33	; 0x21
 8002348:	f103 020f 	add.w	r2, r3, #15
 800234c:	b292      	uxth	r2, r2
 800234e:	440a      	add	r2, r1
 8002350:	f882 00ec 	strb.w	r0, [r2, #236]	; 0xec
 8002354:	20e0      	movs	r0, #224	; 0xe0
 8002356:	f103 0210 	add.w	r2, r3, #16
 800235a:	b292      	uxth	r2, r2
 800235c:	440a      	add	r2, r1
 800235e:	f882 00ec 	strb.w	r0, [r2, #236]	; 0xec
 8002362:	20e1      	movs	r0, #225	; 0xe1
 8002364:	f103 0211 	add.w	r2, r3, #17
 8002368:	b292      	uxth	r2, r2
 800236a:	440a      	add	r2, r1
 800236c:	f882 00ec 	strb.w	r0, [r2, #236]	; 0xec
 8002370:	20ff      	movs	r0, #255	; 0xff
 8002372:	f103 0212 	add.w	r2, r3, #18
 8002376:	b292      	uxth	r2, r2
 8002378:	440a      	add	r2, r1
 800237a:	3313      	adds	r3, #19
 800237c:	f882 00ec 	strb.w	r0, [r2, #236]	; 0xec
 8002380:	b29b      	uxth	r3, r3
 8002382:	f101 02ec 	add.w	r2, r1, #236	; 0xec
 8002386:	f5b3 7f9c 	cmp.w	r3, #312	; 0x138
 800238a:	db16      	blt.n	80023ba <send_DHCP_REQUEST+0x24e>
 800238c:	2343      	movs	r3, #67	; 0x43
 800238e:	4813      	ldr	r0, [pc, #76]	; (80023dc <send_DHCP_REQUEST+0x270>)
 8002390:	9300      	str	r3, [sp, #0]
 8002392:	f44f 7209 	mov.w	r2, #548	; 0x224
 8002396:	ab03      	add	r3, sp, #12
 8002398:	7800      	ldrb	r0, [r0, #0]
 800239a:	f001 fb07 	bl	80039ac <sendto>
 800239e:	b005      	add	sp, #20
 80023a0:	e8bd 83f0 	ldmia.w	sp!, {r4, r5, r6, r7, r8, r9, pc}
 80023a4:	f04f 33ff 	mov.w	r3, #4294967295	; 0xffffffff
 80023a8:	9303      	str	r3, [sp, #12]
 80023aa:	e705      	b.n	80021b8 <send_DHCP_REQUEST+0x4c>
 80023ac:	2210      	movs	r2, #16
 80023ae:	e747      	b.n	8002240 <send_DHCP_REQUEST+0xd4>
 80023b0:	4623      	mov	r3, r4
 80023b2:	f889 50ec 	strb.w	r5, [r9, #236]	; 0xec
 80023b6:	3201      	adds	r2, #1
 80023b8:	e74d      	b.n	8002256 <send_DHCP_REQUEST+0xea>
 80023ba:	54d5      	strb	r5, [r2, r3]
 80023bc:	3301      	adds	r3, #1
 80023be:	e7e2      	b.n	8002386 <send_DHCP_REQUEST+0x21a>
 80023c0:	2000047d 	.word	0x2000047d
 80023c4:	200005c4 	.word	0x200005c4
 80023c8:	2000046c 	.word	0x2000046c
 80023cc:	200005c0 	.word	0x200005c0
 80023d0:	3d030135 	.word	0x3d030135
 80023d4:	200005b0 	.word	0x200005b0
 80023d8:	20000000 	.word	0x20000000
 80023dc:	200005c8 	.word	0x200005c8

080023e0 <check_DHCP_timeout>:
 80023e0:	b570      	push	{r4, r5, r6, lr}
 80023e2:	4c1c      	ldr	r4, [pc, #112]	; (8002454 <check_DHCP_timeout+0x74>)
 80023e4:	f994 3000 	ldrsb.w	r3, [r4]
 80023e8:	2b01      	cmp	r3, #1
 80023ea:	dc1d      	bgt.n	8002428 <check_DHCP_timeout+0x48>
 80023ec:	4d1a      	ldr	r5, [pc, #104]	; (8002458 <check_DHCP_timeout+0x78>)
 80023ee:	4e1b      	ldr	r6, [pc, #108]	; (800245c <check_DHCP_timeout+0x7c>)
 80023f0:	682a      	ldr	r2, [r5, #0]
 80023f2:	6831      	ldr	r1, [r6, #0]
 80023f4:	4291      	cmp	r1, r2
 80023f6:	d212      	bcs.n	800241e <check_DHCP_timeout+0x3e>
 80023f8:	4b19      	ldr	r3, [pc, #100]	; (8002460 <check_DHCP_timeout+0x80>)
 80023fa:	f993 3000 	ldrsb.w	r3, [r3]
 80023fe:	2b02      	cmp	r3, #2
 8002400:	d00f      	beq.n	8002422 <check_DHCP_timeout+0x42>
 8002402:	2b04      	cmp	r3, #4
 8002404:	d00d      	beq.n	8002422 <check_DHCP_timeout+0x42>
 8002406:	2b01      	cmp	r3, #1
 8002408:	d101      	bne.n	800240e <check_DHCP_timeout+0x2e>
 800240a:	f7ff fdc7 	bl	8001f9c <send_DHCP_DISCOVER>
 800240e:	2300      	movs	r3, #0
 8002410:	602b      	str	r3, [r5, #0]
 8002412:	682b      	ldr	r3, [r5, #0]
 8002414:	330a      	adds	r3, #10
 8002416:	6033      	str	r3, [r6, #0]
 8002418:	7823      	ldrb	r3, [r4, #0]
 800241a:	3301      	adds	r3, #1
 800241c:	7023      	strb	r3, [r4, #0]
 800241e:	2001      	movs	r0, #1
 8002420:	e010      	b.n	8002444 <check_DHCP_timeout+0x64>
 8002422:	f7ff fea3 	bl	800216c <send_DHCP_REQUEST>
 8002426:	e7f2      	b.n	800240e <check_DHCP_timeout+0x2e>
 8002428:	4b0d      	ldr	r3, [pc, #52]	; (8002460 <check_DHCP_timeout+0x80>)
 800242a:	f993 2000 	ldrsb.w	r2, [r3]
 800242e:	461c      	mov	r4, r3
 8002430:	2a02      	cmp	r2, #2
 8002432:	d008      	beq.n	8002446 <check_DHCP_timeout+0x66>
 8002434:	2a04      	cmp	r2, #4
 8002436:	d006      	beq.n	8002446 <check_DHCP_timeout+0x66>
 8002438:	2a01      	cmp	r2, #1
 800243a:	d109      	bne.n	8002450 <check_DHCP_timeout+0x70>
 800243c:	2000      	movs	r0, #0
 800243e:	7018      	strb	r0, [r3, #0]
 8002440:	f7ff fcf6 	bl	8001e30 <reset_DHCP_timeout>
 8002444:	bd70      	pop	{r4, r5, r6, pc}
 8002446:	f7ff fda9 	bl	8001f9c <send_DHCP_DISCOVER>
 800244a:	2001      	movs	r0, #1
 800244c:	7020      	strb	r0, [r4, #0]
 800244e:	e7f7      	b.n	8002440 <check_DHCP_timeout+0x60>
 8002450:	2001      	movs	r0, #1
 8002452:	e7f5      	b.n	8002440 <check_DHCP_timeout+0x60>
 8002454:	2000047c 	.word	0x2000047c
 8002458:	20000480 	.word	0x20000480
 800245c:	20000018 	.word	0x20000018
 8002460:	2000047d 	.word	0x2000047d

08002464 <DHCP_run>:
 8002464:	b538      	push	{r3, r4, r5, lr}
 8002466:	4c52      	ldr	r4, [pc, #328]	; (80025b0 <DHCP_run+0x14c>)
 8002468:	f994 3000 	ldrsb.w	r3, [r4]
 800246c:	2b06      	cmp	r3, #6
 800246e:	f000 809c 	beq.w	80025aa <DHCP_run+0x146>
 8002472:	4d50      	ldr	r5, [pc, #320]	; (80025b4 <DHCP_run+0x150>)
 8002474:	7828      	ldrb	r0, [r5, #0]
 8002476:	0140      	lsls	r0, r0, #5
 8002478:	f500 7042 	add.w	r0, r0, #776	; 0x308
 800247c:	f002 f924 	bl	80046c8 <WIZCHIP_READ>
 8002480:	2822      	cmp	r0, #34	; 0x22
 8002482:	d005      	beq.n	8002490 <DHCP_run+0x2c>
 8002484:	2300      	movs	r3, #0
 8002486:	2244      	movs	r2, #68	; 0x44
 8002488:	2102      	movs	r1, #2
 800248a:	7828      	ldrb	r0, [r5, #0]
 800248c:	f001 f8fc 	bl	8003688 <socket>
 8002490:	f7ff fb40 	bl	8001b14 <parseDHCPMSG>
 8002494:	f994 3000 	ldrsb.w	r3, [r4]
 8002498:	b2c5      	uxtb	r5, r0
 800249a:	2b04      	cmp	r3, #4
 800249c:	d831      	bhi.n	8002502 <DHCP_run+0x9e>
 800249e:	e8df f003 	tbb	[pc, r3]
 80024a2:	0e03      	.short	0x0e03
 80024a4:	3d23      	.short	0x3d23
 80024a6:	5a          	.byte	0x5a
 80024a7:	00          	.byte	0x00
 80024a8:	2200      	movs	r2, #0
 80024aa:	4b43      	ldr	r3, [pc, #268]	; (80025b8 <DHCP_run+0x154>)
 80024ac:	701a      	strb	r2, [r3, #0]
 80024ae:	705a      	strb	r2, [r3, #1]
 80024b0:	709a      	strb	r2, [r3, #2]
 80024b2:	70da      	strb	r2, [r3, #3]
 80024b4:	f7ff fd72 	bl	8001f9c <send_DHCP_DISCOVER>
 80024b8:	2001      	movs	r0, #1
 80024ba:	7020      	strb	r0, [r4, #0]
 80024bc:	bd38      	pop	{r3, r4, r5, pc}
 80024be:	2d02      	cmp	r5, #2
 80024c0:	d10e      	bne.n	80024e0 <DHCP_run+0x7c>
 80024c2:	4b3e      	ldr	r3, [pc, #248]	; (80025bc <DHCP_run+0x158>)
 80024c4:	681a      	ldr	r2, [r3, #0]
 80024c6:	4b3c      	ldr	r3, [pc, #240]	; (80025b8 <DHCP_run+0x154>)
 80024c8:	7c11      	ldrb	r1, [r2, #16]
 80024ca:	7019      	strb	r1, [r3, #0]
 80024cc:	7c51      	ldrb	r1, [r2, #17]
 80024ce:	7059      	strb	r1, [r3, #1]
 80024d0:	7c91      	ldrb	r1, [r2, #18]
 80024d2:	7cd2      	ldrb	r2, [r2, #19]
 80024d4:	7099      	strb	r1, [r3, #2]
 80024d6:	70da      	strb	r2, [r3, #3]
 80024d8:	f7ff fe48 	bl	800216c <send_DHCP_REQUEST>
 80024dc:	7025      	strb	r5, [r4, #0]
 80024de:	e010      	b.n	8002502 <DHCP_run+0x9e>
 80024e0:	e8bd 4038 	ldmia.w	sp!, {r3, r4, r5, lr}
 80024e4:	f7ff bf7c 	b.w	80023e0 <check_DHCP_timeout>
 80024e8:	2d05      	cmp	r5, #5
 80024ea:	d112      	bne.n	8002512 <DHCP_run+0xae>
 80024ec:	f7ff fc6e 	bl	8001dcc <check_DHCP_leasedIP>
 80024f0:	4605      	mov	r5, r0
 80024f2:	b140      	cbz	r0, 8002506 <DHCP_run+0xa2>
 80024f4:	4b32      	ldr	r3, [pc, #200]	; (80025c0 <DHCP_run+0x15c>)
 80024f6:	681b      	ldr	r3, [r3, #0]
 80024f8:	4798      	blx	r3
 80024fa:	f7ff fc99 	bl	8001e30 <reset_DHCP_timeout>
 80024fe:	2303      	movs	r3, #3
 8002500:	7023      	strb	r3, [r4, #0]
 8002502:	2001      	movs	r0, #1
 8002504:	e7da      	b.n	80024bc <DHCP_run+0x58>
 8002506:	f7ff fc93 	bl	8001e30 <reset_DHCP_timeout>
 800250a:	4b2e      	ldr	r3, [pc, #184]	; (80025c4 <DHCP_run+0x160>)
 800250c:	681b      	ldr	r3, [r3, #0]
 800250e:	4798      	blx	r3
 8002510:	e7e4      	b.n	80024dc <DHCP_run+0x78>
 8002512:	2d06      	cmp	r5, #6
 8002514:	d1e4      	bne.n	80024e0 <DHCP_run+0x7c>
 8002516:	f7ff fc8b 	bl	8001e30 <reset_DHCP_timeout>
 800251a:	e7cd      	b.n	80024b8 <DHCP_run+0x54>
 800251c:	4b2a      	ldr	r3, [pc, #168]	; (80025c8 <DHCP_run+0x164>)
 800251e:	681b      	ldr	r3, [r3, #0]
 8002520:	1c5a      	adds	r2, r3, #1
 8002522:	d040      	beq.n	80025a6 <DHCP_run+0x142>
 8002524:	4a29      	ldr	r2, [pc, #164]	; (80025cc <DHCP_run+0x168>)
 8002526:	6812      	ldr	r2, [r2, #0]
 8002528:	ebb2 0f53 	cmp.w	r2, r3, lsr #1
 800252c:	d93b      	bls.n	80025a6 <DHCP_run+0x142>
 800252e:	4a22      	ldr	r2, [pc, #136]	; (80025b8 <DHCP_run+0x154>)
 8002530:	4b27      	ldr	r3, [pc, #156]	; (80025d0 <DHCP_run+0x16c>)
 8002532:	7811      	ldrb	r1, [r2, #0]
 8002534:	7019      	strb	r1, [r3, #0]
 8002536:	7851      	ldrb	r1, [r2, #1]
 8002538:	7059      	strb	r1, [r3, #1]
 800253a:	7891      	ldrb	r1, [r2, #2]
 800253c:	78d2      	ldrb	r2, [r2, #3]
 800253e:	7099      	strb	r1, [r3, #2]
 8002540:	70da      	strb	r2, [r3, #3]
 8002542:	4a24      	ldr	r2, [pc, #144]	; (80025d4 <DHCP_run+0x170>)
 8002544:	6813      	ldr	r3, [r2, #0]
 8002546:	3301      	adds	r3, #1
 8002548:	6013      	str	r3, [r2, #0]
 800254a:	f7ff fe0f 	bl	800216c <send_DHCP_REQUEST>
 800254e:	f7ff fc6f 	bl	8001e30 <reset_DHCP_timeout>
 8002552:	2004      	movs	r0, #4
 8002554:	e7b1      	b.n	80024ba <DHCP_run+0x56>
 8002556:	2d05      	cmp	r5, #5
 8002558:	d11f      	bne.n	800259a <DHCP_run+0x136>
 800255a:	2200      	movs	r2, #0
 800255c:	4b1e      	ldr	r3, [pc, #120]	; (80025d8 <DHCP_run+0x174>)
 800255e:	701a      	strb	r2, [r3, #0]
 8002560:	4a1b      	ldr	r2, [pc, #108]	; (80025d0 <DHCP_run+0x16c>)
 8002562:	4b15      	ldr	r3, [pc, #84]	; (80025b8 <DHCP_run+0x154>)
 8002564:	7810      	ldrb	r0, [r2, #0]
 8002566:	7819      	ldrb	r1, [r3, #0]
 8002568:	4288      	cmp	r0, r1
 800256a:	d10b      	bne.n	8002584 <DHCP_run+0x120>
 800256c:	7850      	ldrb	r0, [r2, #1]
 800256e:	7859      	ldrb	r1, [r3, #1]
 8002570:	4288      	cmp	r0, r1
 8002572:	d107      	bne.n	8002584 <DHCP_run+0x120>
 8002574:	7890      	ldrb	r0, [r2, #2]
 8002576:	7899      	ldrb	r1, [r3, #2]
 8002578:	4288      	cmp	r0, r1
 800257a:	d103      	bne.n	8002584 <DHCP_run+0x120>
 800257c:	78d2      	ldrb	r2, [r2, #3]
 800257e:	78db      	ldrb	r3, [r3, #3]
 8002580:	429a      	cmp	r2, r3
 8002582:	d008      	beq.n	8002596 <DHCP_run+0x132>
 8002584:	4b15      	ldr	r3, [pc, #84]	; (80025dc <DHCP_run+0x178>)
 8002586:	681b      	ldr	r3, [r3, #0]
 8002588:	4798      	blx	r3
 800258a:	2003      	movs	r0, #3
 800258c:	f7ff fc50 	bl	8001e30 <reset_DHCP_timeout>
 8002590:	2303      	movs	r3, #3
 8002592:	7023      	strb	r3, [r4, #0]
 8002594:	e792      	b.n	80024bc <DHCP_run+0x58>
 8002596:	2004      	movs	r0, #4
 8002598:	e7f8      	b.n	800258c <DHCP_run+0x128>
 800259a:	2d06      	cmp	r5, #6
 800259c:	d1a0      	bne.n	80024e0 <DHCP_run+0x7c>
 800259e:	f7ff fc47 	bl	8001e30 <reset_DHCP_timeout>
 80025a2:	2301      	movs	r3, #1
 80025a4:	7023      	strb	r3, [r4, #0]
 80025a6:	2004      	movs	r0, #4
 80025a8:	e788      	b.n	80024bc <DHCP_run+0x58>
 80025aa:	2005      	movs	r0, #5
 80025ac:	e786      	b.n	80024bc <DHCP_run+0x58>
 80025ae:	bf00      	nop
 80025b0:	2000047d 	.word	0x2000047d
 80025b4:	200005c8 	.word	0x200005c8
 80025b8:	2000046c 	.word	0x2000046c
 80025bc:	200005c4 	.word	0x200005c4
 80025c0:	20000008 	.word	0x20000008
 80025c4:	2000000c 	.word	0x2000000c
 80025c8:	20000014 	.word	0x20000014
 80025cc:	20000480 	.word	0x20000480
 80025d0:	20000478 	.word	0x20000478
 80025d4:	200005b8 	.word	0x200005b8
 80025d8:	2000047c 	.word	0x2000047c
 80025dc:	20000010 	.word	0x20000010

080025e0 <Callback_IPAssigned.9143>:
 80025e0:	2301      	movs	r3, #1
 80025e2:	f88c 3400 	strb.w	r3, [ip, #1024]	; 0x400
 80025e6:	4770      	bx	lr

080025e8 <Callback_IPConflict.9146>:
 80025e8:	4770      	bx	lr
	...

080025ec <W5500_Unselect.9124>:
 80025ec:	2201      	movs	r2, #1
 80025ee:	f44f 5180 	mov.w	r1, #4096	; 0x1000
 80025f2:	4801      	ldr	r0, [pc, #4]	; (80025f8 <W5500_Unselect.9124+0xc>)
 80025f4:	f002 bf36 	b.w	8005464 <HAL_GPIO_WritePin>
 80025f8:	40010c00 	.word	0x40010c00

080025fc <W5500_Select.9121>:
 80025fc:	2200      	movs	r2, #0
 80025fe:	f44f 5180 	mov.w	r1, #4096	; 0x1000
 8002602:	4801      	ldr	r0, [pc, #4]	; (8002608 <W5500_Select.9121+0xc>)
 8002604:	f002 bf2e 	b.w	8005464 <HAL_GPIO_WritePin>
 8002608:	40010c00 	.word	0x40010c00

0800260c <W5500_WriteBuff.9132>:
 800260c:	460a      	mov	r2, r1
 800260e:	f04f 33ff 	mov.w	r3, #4294967295	; 0xffffffff
 8002612:	4601      	mov	r1, r0
 8002614:	4801      	ldr	r0, [pc, #4]	; (800261c <W5500_WriteBuff.9132+0x10>)
 8002616:	f003 bef0 	b.w	80063fa <HAL_SPI_Transmit>
 800261a:	bf00      	nop
 800261c:	2000062c 	.word	0x2000062c

08002620 <W5500_WriteByte.9139>:
 8002620:	b507      	push	{r0, r1, r2, lr}
 8002622:	2101      	movs	r1, #1
 8002624:	f88d 0007 	strb.w	r0, [sp, #7]
 8002628:	f10d 0007 	add.w	r0, sp, #7
 800262c:	f7ff ffee 	bl	800260c <W5500_WriteBuff.9132>
 8002630:	b003      	add	sp, #12
 8002632:	f85d fb04 	ldr.w	pc, [sp], #4
	...

08002638 <W5500_ReadBuff.9128>:
 8002638:	460a      	mov	r2, r1
 800263a:	f04f 33ff 	mov.w	r3, #4294967295	; 0xffffffff
 800263e:	4601      	mov	r1, r0
 8002640:	4801      	ldr	r0, [pc, #4]	; (8002648 <W5500_ReadBuff.9128+0x10>)
 8002642:	f004 b876 	b.w	8006732 <HAL_SPI_Receive>
 8002646:	bf00      	nop
 8002648:	2000062c 	.word	0x2000062c

0800264c <W5500_ReadByte.9135>:
 800264c:	b507      	push	{r0, r1, r2, lr}
 800264e:	2101      	movs	r1, #1
 8002650:	f10d 0007 	add.w	r0, sp, #7
 8002654:	f7ff fff0 	bl	8002638 <W5500_ReadBuff.9128>
 8002658:	f89d 0007 	ldrb.w	r0, [sp, #7]
 800265c:	b003      	add	sp, #12
 800265e:	f85d fb04 	ldr.w	pc, [sp], #4
 8002662:	0000      	movs	r0, r0
 8002664:	0000      	movs	r0, r0
	...

08002668 <rwFlash.9089>:
 8002668:	4b79      	ldr	r3, [pc, #484]	; (8002850 <rwFlash.9089+0x1e8>)
 800266a:	e92d 41f0 	stmdb	sp!, {r4, r5, r6, r7, r8, lr}
 800266e:	681a      	ldr	r2, [r3, #0]
 8002670:	f103 6323 	add.w	r3, r3, #170917888	; 0xa300000
 8002674:	f503 3367 	add.w	r3, r3, #236544	; 0x39c00
 8002678:	3376      	adds	r3, #118	; 0x76
 800267a:	429a      	cmp	r2, r3
 800267c:	b08c      	sub	sp, #48	; 0x30
 800267e:	d155      	bne.n	800272c <rwFlash.9089+0xc4>
 8002680:	2801      	cmp	r0, #1
 8002682:	d067      	beq.n	8002754 <rwFlash.9089+0xec>
 8002684:	4b73      	ldr	r3, [pc, #460]	; (8002854 <rwFlash.9089+0x1ec>)
 8002686:	4974      	ldr	r1, [pc, #464]	; (8002858 <rwFlash.9089+0x1f0>)
 8002688:	881a      	ldrh	r2, [r3, #0]
 800268a:	4b74      	ldr	r3, [pc, #464]	; (800285c <rwFlash.9089+0x1f4>)
 800268c:	b292      	uxth	r2, r2
 800268e:	801a      	strh	r2, [r3, #0]
 8002690:	4b73      	ldr	r3, [pc, #460]	; (8002860 <rwFlash.9089+0x1f8>)
 8002692:	4874      	ldr	r0, [pc, #464]	; (8002864 <rwFlash.9089+0x1fc>)
 8002694:	881b      	ldrh	r3, [r3, #0]
 8002696:	4c74      	ldr	r4, [pc, #464]	; (8002868 <rwFlash.9089+0x200>)
 8002698:	b29b      	uxth	r3, r3
 800269a:	800b      	strh	r3, [r1, #0]
 800269c:	4973      	ldr	r1, [pc, #460]	; (800286c <rwFlash.9089+0x204>)
 800269e:	8809      	ldrh	r1, [r1, #0]
 80026a0:	b289      	uxth	r1, r1
 80026a2:	8001      	strh	r1, [r0, #0]
 80026a4:	4872      	ldr	r0, [pc, #456]	; (8002870 <rwFlash.9089+0x208>)
 80026a6:	8800      	ldrh	r0, [r0, #0]
 80026a8:	b280      	uxth	r0, r0
 80026aa:	8020      	strh	r0, [r4, #0]
 80026ac:	e9cd 1000 	strd	r1, r0, [sp]
 80026b0:	4970      	ldr	r1, [pc, #448]	; (8002874 <rwFlash.9089+0x20c>)
 80026b2:	4871      	ldr	r0, [pc, #452]	; (8002878 <rwFlash.9089+0x210>)
 80026b4:	f006 f902 	bl	80088bc <siprintf>
 80026b8:	22c8      	movs	r2, #200	; 0xc8
 80026ba:	f44f 737a 	mov.w	r3, #1000	; 0x3e8
 80026be:	496e      	ldr	r1, [pc, #440]	; (8002878 <rwFlash.9089+0x210>)
 80026c0:	486e      	ldr	r0, [pc, #440]	; (800287c <rwFlash.9089+0x214>)
 80026c2:	f005 f84b 	bl	800775c <HAL_UART_Transmit>
 80026c6:	4b6e      	ldr	r3, [pc, #440]	; (8002880 <rwFlash.9089+0x218>)
 80026c8:	6818      	ldr	r0, [r3, #0]
 80026ca:	4b6e      	ldr	r3, [pc, #440]	; (8002884 <rwFlash.9089+0x21c>)
 80026cc:	6018      	str	r0, [r3, #0]
 80026ce:	4b6e      	ldr	r3, [pc, #440]	; (8002888 <rwFlash.9089+0x220>)
 80026d0:	681e      	ldr	r6, [r3, #0]
 80026d2:	4b6e      	ldr	r3, [pc, #440]	; (800288c <rwFlash.9089+0x224>)
 80026d4:	601e      	str	r6, [r3, #0]
 80026d6:	4b6e      	ldr	r3, [pc, #440]	; (8002890 <rwFlash.9089+0x228>)
 80026d8:	681f      	ldr	r7, [r3, #0]
 80026da:	4b6e      	ldr	r3, [pc, #440]	; (8002894 <rwFlash.9089+0x22c>)
 80026dc:	601f      	str	r7, [r3, #0]
 80026de:	4b6e      	ldr	r3, [pc, #440]	; (8002898 <rwFlash.9089+0x230>)
 80026e0:	f8d3 8000 	ldr.w	r8, [r3]
 80026e4:	4b6d      	ldr	r3, [pc, #436]	; (800289c <rwFlash.9089+0x234>)
 80026e6:	f8c3 8000 	str.w	r8, [r3]
 80026ea:	f7fd fe9d 	bl	8000428 <__aeabi_f2d>
 80026ee:	4604      	mov	r4, r0
 80026f0:	4640      	mov	r0, r8
 80026f2:	460d      	mov	r5, r1
 80026f4:	f7fd fe98 	bl	8000428 <__aeabi_f2d>
 80026f8:	e9cd 0104 	strd	r0, r1, [sp, #16]
 80026fc:	4638      	mov	r0, r7
 80026fe:	f7fd fe93 	bl	8000428 <__aeabi_f2d>
 8002702:	e9cd 0102 	strd	r0, r1, [sp, #8]
 8002706:	4630      	mov	r0, r6
 8002708:	f7fd fe8e 	bl	8000428 <__aeabi_f2d>
 800270c:	4622      	mov	r2, r4
 800270e:	e9cd 0100 	strd	r0, r1, [sp]
 8002712:	462b      	mov	r3, r5
 8002714:	4962      	ldr	r1, [pc, #392]	; (80028a0 <rwFlash.9089+0x238>)
 8002716:	4858      	ldr	r0, [pc, #352]	; (8002878 <rwFlash.9089+0x210>)
 8002718:	f006 f8d0 	bl	80088bc <siprintf>
 800271c:	f44f 737a 	mov.w	r3, #1000	; 0x3e8
 8002720:	22c8      	movs	r2, #200	; 0xc8
 8002722:	4955      	ldr	r1, [pc, #340]	; (8002878 <rwFlash.9089+0x210>)
 8002724:	4855      	ldr	r0, [pc, #340]	; (800287c <rwFlash.9089+0x214>)
 8002726:	f005 f819 	bl	800775c <HAL_UART_Transmit>
 800272a:	e02d      	b.n	8002788 <rwFlash.9089+0x120>
 800272c:	b990      	cbnz	r0, 8002754 <rwFlash.9089+0xec>
 800272e:	f246 13a8 	movw	r3, #25000	; 0x61a8
 8002732:	4a4a      	ldr	r2, [pc, #296]	; (800285c <rwFlash.9089+0x1f4>)
 8002734:	8013      	strh	r3, [r2, #0]
 8002736:	4a48      	ldr	r2, [pc, #288]	; (8002858 <rwFlash.9089+0x1f0>)
 8002738:	8013      	strh	r3, [r2, #0]
 800273a:	4a4a      	ldr	r2, [pc, #296]	; (8002864 <rwFlash.9089+0x1fc>)
 800273c:	8013      	strh	r3, [r2, #0]
 800273e:	4a4a      	ldr	r2, [pc, #296]	; (8002868 <rwFlash.9089+0x200>)
 8002740:	8013      	strh	r3, [r2, #0]
 8002742:	2300      	movs	r3, #0
 8002744:	4a4f      	ldr	r2, [pc, #316]	; (8002884 <rwFlash.9089+0x21c>)
 8002746:	6013      	str	r3, [r2, #0]
 8002748:	4a50      	ldr	r2, [pc, #320]	; (800288c <rwFlash.9089+0x224>)
 800274a:	6013      	str	r3, [r2, #0]
 800274c:	4a51      	ldr	r2, [pc, #324]	; (8002894 <rwFlash.9089+0x22c>)
 800274e:	6013      	str	r3, [r2, #0]
 8002750:	4a52      	ldr	r2, [pc, #328]	; (800289c <rwFlash.9089+0x234>)
 8002752:	6013      	str	r3, [r2, #0]
 8002754:	2300      	movs	r3, #0
 8002756:	e9cd 3307 	strd	r3, r3, [sp, #28]
 800275a:	2301      	movs	r3, #1
 800275c:	4a3c      	ldr	r2, [pc, #240]	; (8002850 <rwFlash.9089+0x1e8>)
 800275e:	4c51      	ldr	r4, [pc, #324]	; (80028a4 <rwFlash.9089+0x23c>)
 8002760:	e9cd 230a 	strd	r2, r3, [sp, #40]	; 0x28
 8002764:	7023      	strb	r3, [r4, #0]
 8002766:	f002 fc99 	bl	800509c <HAL_FLASH_Unlock>
 800276a:	7020      	strb	r0, [r4, #0]
 800276c:	2800      	cmp	r0, #0
 800276e:	d1fa      	bne.n	8002766 <rwFlash.9089+0xfe>
 8002770:	a907      	add	r1, sp, #28
 8002772:	a808      	add	r0, sp, #32
 8002774:	f002 fd4e 	bl	8005214 <HAL_FLASHEx_Erase>
 8002778:	b148      	cbz	r0, 800278e <rwFlash.9089+0x126>
 800277a:	2301      	movs	r3, #1
 800277c:	7023      	strb	r3, [r4, #0]
 800277e:	f002 fc9f 	bl	80050c0 <HAL_FLASH_Lock>
 8002782:	7020      	strb	r0, [r4, #0]
 8002784:	2800      	cmp	r0, #0
 8002786:	d1fa      	bne.n	800277e <rwFlash.9089+0x116>
 8002788:	b00c      	add	sp, #48	; 0x30
 800278a:	e8bd 81f0 	ldmia.w	sp!, {r4, r5, r6, r7, r8, pc}
 800278e:	2301      	movs	r3, #1
 8002790:	a72d      	add	r7, pc, #180	; (adr r7, 8002848 <rwFlash.9089+0x1e0>)
 8002792:	e9d7 6700 	ldrd	r6, r7, [r7]
 8002796:	4d2e      	ldr	r5, [pc, #184]	; (8002850 <rwFlash.9089+0x1e8>)
 8002798:	7023      	strb	r3, [r4, #0]
 800279a:	4632      	mov	r2, r6
 800279c:	463b      	mov	r3, r7
 800279e:	4629      	mov	r1, r5
 80027a0:	2003      	movs	r0, #3
 80027a2:	f002 fcc1 	bl	8005128 <HAL_FLASH_Program>
 80027a6:	7020      	strb	r0, [r4, #0]
 80027a8:	2800      	cmp	r0, #0
 80027aa:	d1f6      	bne.n	800279a <rwFlash.9089+0x132>
 80027ac:	4b2a      	ldr	r3, [pc, #168]	; (8002858 <rwFlash.9089+0x1f0>)
 80027ae:	4f29      	ldr	r7, [pc, #164]	; (8002854 <rwFlash.9089+0x1ec>)
 80027b0:	8819      	ldrh	r1, [r3, #0]
 80027b2:	4b2c      	ldr	r3, [pc, #176]	; (8002864 <rwFlash.9089+0x1fc>)
 80027b4:	881d      	ldrh	r5, [r3, #0]
 80027b6:	4b29      	ldr	r3, [pc, #164]	; (800285c <rwFlash.9089+0x1f4>)
 80027b8:	881e      	ldrh	r6, [r3, #0]
 80027ba:	4b2b      	ldr	r3, [pc, #172]	; (8002868 <rwFlash.9089+0x200>)
 80027bc:	ea46 4601 	orr.w	r6, r6, r1, lsl #16
 80027c0:	881a      	ldrh	r2, [r3, #0]
 80027c2:	2301      	movs	r3, #1
 80027c4:	ea45 4502 	orr.w	r5, r5, r2, lsl #16
 80027c8:	7023      	strb	r3, [r4, #0]
 80027ca:	4632      	mov	r2, r6
 80027cc:	462b      	mov	r3, r5
 80027ce:	4639      	mov	r1, r7
 80027d0:	2003      	movs	r0, #3
 80027d2:	f002 fca9 	bl	8005128 <HAL_FLASH_Program>
 80027d6:	7020      	strb	r0, [r4, #0]
 80027d8:	2800      	cmp	r0, #0
 80027da:	d1f6      	bne.n	80027ca <rwFlash.9089+0x162>
 80027dc:	2301      	movs	r3, #1
 80027de:	4e29      	ldr	r6, [pc, #164]	; (8002884 <rwFlash.9089+0x21c>)
 80027e0:	4d27      	ldr	r5, [pc, #156]	; (8002880 <rwFlash.9089+0x218>)
 80027e2:	7023      	strb	r3, [r4, #0]
 80027e4:	2300      	movs	r3, #0
 80027e6:	4629      	mov	r1, r5
 80027e8:	2002      	movs	r0, #2
 80027ea:	6832      	ldr	r2, [r6, #0]
 80027ec:	f002 fc9c 	bl	8005128 <HAL_FLASH_Program>
 80027f0:	7020      	strb	r0, [r4, #0]
 80027f2:	2800      	cmp	r0, #0
 80027f4:	d1f6      	bne.n	80027e4 <rwFlash.9089+0x17c>
 80027f6:	2301      	movs	r3, #1
 80027f8:	4e24      	ldr	r6, [pc, #144]	; (800288c <rwFlash.9089+0x224>)
 80027fa:	4d23      	ldr	r5, [pc, #140]	; (8002888 <rwFlash.9089+0x220>)
 80027fc:	7023      	strb	r3, [r4, #0]
 80027fe:	2300      	movs	r3, #0
 8002800:	4629      	mov	r1, r5
 8002802:	2002      	movs	r0, #2
 8002804:	6832      	ldr	r2, [r6, #0]
 8002806:	f002 fc8f 	bl	8005128 <HAL_FLASH_Program>
 800280a:	7020      	strb	r0, [r4, #0]
 800280c:	2800      	cmp	r0, #0
 800280e:	d1f6      	bne.n	80027fe <rwFlash.9089+0x196>
 8002810:	2301      	movs	r3, #1
 8002812:	4e20      	ldr	r6, [pc, #128]	; (8002894 <rwFlash.9089+0x22c>)
 8002814:	4d1e      	ldr	r5, [pc, #120]	; (8002890 <rwFlash.9089+0x228>)
 8002816:	7023      	strb	r3, [r4, #0]
 8002818:	2300      	movs	r3, #0
 800281a:	4629      	mov	r1, r5
 800281c:	2002      	movs	r0, #2
 800281e:	6832      	ldr	r2, [r6, #0]
 8002820:	f002 fc82 	bl	8005128 <HAL_FLASH_Program>
 8002824:	7020      	strb	r0, [r4, #0]
 8002826:	2800      	cmp	r0, #0
 8002828:	d1f6      	bne.n	8002818 <rwFlash.9089+0x1b0>
 800282a:	2301      	movs	r3, #1
 800282c:	4e1b      	ldr	r6, [pc, #108]	; (800289c <rwFlash.9089+0x234>)
 800282e:	4d1a      	ldr	r5, [pc, #104]	; (8002898 <rwFlash.9089+0x230>)
 8002830:	7023      	strb	r3, [r4, #0]
 8002832:	2300      	movs	r3, #0
 8002834:	4629      	mov	r1, r5
 8002836:	2002      	movs	r0, #2
 8002838:	6832      	ldr	r2, [r6, #0]
 800283a:	f002 fc75 	bl	8005128 <HAL_FLASH_Program>
 800283e:	7020      	strb	r0, [r4, #0]
 8002840:	2800      	cmp	r0, #0
 8002842:	d1f6      	bne.n	8002832 <rwFlash.9089+0x1ca>
 8002844:	e799      	b.n	800277a <rwFlash.9089+0x112>
 8002846:	bf00      	nop
 8002848:	12349876 	.word	0x12349876
 800284c:	00000000 	.word	0x00000000
 8002850:	0800fc00 	.word	0x0800fc00
 8002854:	0800fc10 	.word	0x0800fc10
 8002858:	200005e2 	.word	0x200005e2
 800285c:	200005e0 	.word	0x200005e0
 8002860:	0800fc12 	.word	0x0800fc12
 8002864:	200009aa 	.word	0x200009aa
 8002868:	200007a4 	.word	0x200007a4
 800286c:	0800fc14 	.word	0x0800fc14
 8002870:	0800fc16 	.word	0x0800fc16
 8002874:	0800ad5a 	.word	0x0800ad5a
 8002878:	20000484 	.word	0x20000484
 800287c:	20000958 	.word	0x20000958
 8002880:	0800fc18 	.word	0x0800fc18
 8002884:	200005d0 	.word	0x200005d0
 8002888:	0800fc1c 	.word	0x0800fc1c
 800288c:	20000948 	.word	0x20000948
 8002890:	0800fc20 	.word	0x0800fc20
 8002894:	200005e4 	.word	0x200005e4
 8002898:	0800fc24 	.word	0x0800fc24
 800289c:	2000073c 	.word	0x2000073c
 80028a0:	0800ad88 	.word	0x0800ad88
 80028a4:	20000cda 	.word	0x20000cda

080028a8 <sendToZabbix.9153.constprop.0>:
 80028a8:	b5f0      	push	{r4, r5, r6, r7, lr}
 80028aa:	2300      	movs	r3, #0
 80028ac:	4606      	mov	r6, r0
 80028ae:	460f      	mov	r7, r1
 80028b0:	f642 2288 	movw	r2, #10888	; 0x2a88
 80028b4:	2101      	movs	r1, #1
 80028b6:	2002      	movs	r0, #2
 80028b8:	b0c1      	sub	sp, #260	; 0x104
 80028ba:	f000 fee5 	bl	8003688 <socket>
 80028be:	2802      	cmp	r0, #2
 80028c0:	4605      	mov	r5, r0
 80028c2:	d144      	bne.n	800294e <sendToZabbix.9153.constprop.0+0xa6>
 80028c4:	f242 7243 	movw	r2, #10051	; 0x2743
 80028c8:	4922      	ldr	r1, [pc, #136]	; (8002954 <sendToZabbix.9153.constprop.0+0xac>)
 80028ca:	f000 ff6f 	bl	80037ac <connect>
 80028ce:	2801      	cmp	r0, #1
 80028d0:	4604      	mov	r4, r0
 80028d2:	d006      	beq.n	80028e2 <sendToZabbix.9153.constprop.0+0x3a>
 80028d4:	4628      	mov	r0, r5
 80028d6:	f000 fe99 	bl	800360c <close>
 80028da:	24fe      	movs	r4, #254	; 0xfe
 80028dc:	4620      	mov	r0, r4
 80028de:	b041      	add	sp, #260	; 0x104
 80028e0:	bdf0      	pop	{r4, r5, r6, r7, pc}
 80028e2:	4638      	mov	r0, r7
 80028e4:	f7fd fda0 	bl	8000428 <__aeabi_f2d>
 80028e8:	4a1b      	ldr	r2, [pc, #108]	; (8002958 <sendToZabbix.9153.constprop.0+0xb0>)
 80028ea:	e9cd 0100 	strd	r0, r1, [sp]
 80028ee:	4633      	mov	r3, r6
 80028f0:	491a      	ldr	r1, [pc, #104]	; (800295c <sendToZabbix.9153.constprop.0+0xb4>)
 80028f2:	a803      	add	r0, sp, #12
 80028f4:	f005 ffe2 	bl	80088bc <siprintf>
 80028f8:	4b19      	ldr	r3, [pc, #100]	; (8002960 <sendToZabbix.9153.constprop.0+0xb8>)
 80028fa:	a803      	add	r0, sp, #12
 80028fc:	9320      	str	r3, [sp, #128]	; 0x80
 80028fe:	f88d 4084 	strb.w	r4, [sp, #132]	; 0x84
 8002902:	f7fd fc25 	bl	8000150 <strlen>
 8002906:	2300      	movs	r3, #0
 8002908:	b2c4      	uxtb	r4, r0
 800290a:	a903      	add	r1, sp, #12
 800290c:	f10d 008d 	add.w	r0, sp, #141	; 0x8d
 8002910:	f88d 4085 	strb.w	r4, [sp, #133]	; 0x85
 8002914:	f8ad 3086 	strh.w	r3, [sp, #134]	; 0x86
 8002918:	9322      	str	r3, [sp, #136]	; 0x88
 800291a:	f88d 308c 	strb.w	r3, [sp, #140]	; 0x8c
 800291e:	f005 ffed 	bl	80088fc <strcpy>
 8002922:	340d      	adds	r4, #13
 8002924:	b2e4      	uxtb	r4, r4
 8002926:	4622      	mov	r2, r4
 8002928:	2002      	movs	r0, #2
 800292a:	a920      	add	r1, sp, #128	; 0x80
 800292c:	f000 ffb4 	bl	8003898 <send>
 8002930:	2800      	cmp	r0, #0
 8002932:	dc04      	bgt.n	800293e <sendToZabbix.9153.constprop.0+0x96>
 8002934:	2002      	movs	r0, #2
 8002936:	f000 fe69 	bl	800360c <close>
 800293a:	24fd      	movs	r4, #253	; 0xfd
 800293c:	e7ce      	b.n	80028dc <sendToZabbix.9153.constprop.0+0x34>
 800293e:	1a24      	subs	r4, r4, r0
 8002940:	f014 04ff 	ands.w	r4, r4, #255	; 0xff
 8002944:	d1ef      	bne.n	8002926 <sendToZabbix.9153.constprop.0+0x7e>
 8002946:	2002      	movs	r0, #2
 8002948:	f000 fe60 	bl	800360c <close>
 800294c:	e7c6      	b.n	80028dc <sendToZabbix.9153.constprop.0+0x34>
 800294e:	24ff      	movs	r4, #255	; 0xff
 8002950:	e7c4      	b.n	80028dc <sendToZabbix.9153.constprop.0+0x34>
 8002952:	bf00      	nop
 8002954:	20000032 	.word	0x20000032
 8002958:	20000b8e 	.word	0x20000b8e
 800295c:	0800adba 	.word	0x0800adba
 8002960:	4458425a 	.word	0x4458425a

08002964 <SystemClock_Config>:
 8002964:	b510      	push	{r4, lr}
 8002966:	b090      	sub	sp, #64	; 0x40
 8002968:	2210      	movs	r2, #16
 800296a:	2100      	movs	r1, #0
 800296c:	a809      	add	r0, sp, #36	; 0x24
 800296e:	f005 fb3d 	bl	8007fec <memset>
 8002972:	2214      	movs	r2, #20
 8002974:	2100      	movs	r1, #0
 8002976:	a801      	add	r0, sp, #4
 8002978:	f005 fb38 	bl	8007fec <memset>
 800297c:	2402      	movs	r4, #2
 800297e:	f44f 3380 	mov.w	r3, #65536	; 0x10000
 8002982:	2201      	movs	r2, #1
 8002984:	2100      	movs	r1, #0
 8002986:	e9cd 2306 	strd	r2, r3, [sp, #24]
 800298a:	e9cd 430d 	strd	r4, r3, [sp, #52]	; 0x34
 800298e:	f44f 13c0 	mov.w	r3, #1572864	; 0x180000
 8002992:	a806      	add	r0, sp, #24
 8002994:	9108      	str	r1, [sp, #32]
 8002996:	920a      	str	r2, [sp, #40]	; 0x28
 8002998:	930f      	str	r3, [sp, #60]	; 0x3c
 800299a:	f003 f9b9 	bl	8005d10 <HAL_RCC_OscConfig>
 800299e:	b108      	cbz	r0, 80029a4 <SystemClock_Config+0x40>
 80029a0:	b672      	cpsid	i
 80029a2:	e7fe      	b.n	80029a2 <SystemClock_Config+0x3e>
 80029a4:	230f      	movs	r3, #15
 80029a6:	e9cd 3401 	strd	r3, r4, [sp, #4]
 80029aa:	f44f 6380 	mov.w	r3, #1024	; 0x400
 80029ae:	9003      	str	r0, [sp, #12]
 80029b0:	e9cd 3004 	strd	r3, r0, [sp, #16]
 80029b4:	4621      	mov	r1, r4
 80029b6:	a801      	add	r0, sp, #4
 80029b8:	f003 fb80 	bl	80060bc <HAL_RCC_ClockConfig>
 80029bc:	b108      	cbz	r0, 80029c2 <SystemClock_Config+0x5e>
 80029be:	b672      	cpsid	i
 80029c0:	e7fe      	b.n	80029c0 <SystemClock_Config+0x5c>
 80029c2:	b010      	add	sp, #64	; 0x40
 80029c4:	bd10      	pop	{r4, pc}
	...

080029c8 <main>:
 80029c8:	e92d 4ff0 	stmdb	sp!, {r4, r5, r6, r7, r8, r9, sl, fp, lr}
 80029cc:	2700      	movs	r7, #0
 80029ce:	f2ad 4dd4 	subw	sp, sp, #1236	; 0x4d4
 80029d2:	ae2e      	add	r6, sp, #184	; 0xb8
 80029d4:	f50d 639f 	add.w	r3, sp, #1272	; 0x4f8
 80029d8:	f8c6 3414 	str.w	r3, [r6, #1044]	; 0x414
 80029dc:	4bac      	ldr	r3, [pc, #688]	; (8002c90 <main+0x2c8>)
 80029de:	f20d 44bc 	addw	r4, sp, #1212	; 0x4bc
 80029e2:	cb0f      	ldmia	r3, {r0, r1, r2, r3}
 80029e4:	e884 000f 	stmia.w	r4, {r0, r1, r2, r3}
 80029e8:	4baa      	ldr	r3, [pc, #680]	; (8002c94 <main+0x2cc>)
 80029ea:	4dab      	ldr	r5, [pc, #684]	; (8002c98 <main+0x2d0>)
 80029ec:	60e3      	str	r3, [r4, #12]
 80029ee:	f20d 41cc 	addw	r1, sp, #1228	; 0x4cc
 80029f2:	4620      	mov	r0, r4
 80029f4:	60a6      	str	r6, [r4, #8]
 80029f6:	f7fe fb45 	bl	8001084 <__clear_cache>
 80029fa:	f886 7400 	strb.w	r7, [r6, #1024]	; 0x400
 80029fe:	f002 f933 	bl	8004c68 <HAL_Init>
 8002a02:	f7ff ffaf 	bl	8002964 <SystemClock_Config>
 8002a06:	2210      	movs	r2, #16
 8002a08:	4639      	mov	r1, r7
 8002a0a:	a826      	add	r0, sp, #152	; 0x98
 8002a0c:	f005 faee 	bl	8007fec <memset>
 8002a10:	69ab      	ldr	r3, [r5, #24]
 8002a12:	463a      	mov	r2, r7
 8002a14:	f043 0320 	orr.w	r3, r3, #32
 8002a18:	61ab      	str	r3, [r5, #24]
 8002a1a:	69ab      	ldr	r3, [r5, #24]
 8002a1c:	f641 411e 	movw	r1, #7198	; 0x1c1e
 8002a20:	f003 0320 	and.w	r3, r3, #32
 8002a24:	9316      	str	r3, [sp, #88]	; 0x58
 8002a26:	9b16      	ldr	r3, [sp, #88]	; 0x58
 8002a28:	69ab      	ldr	r3, [r5, #24]
 8002a2a:	489c      	ldr	r0, [pc, #624]	; (8002c9c <main+0x2d4>)
 8002a2c:	f043 0304 	orr.w	r3, r3, #4
 8002a30:	61ab      	str	r3, [r5, #24]
 8002a32:	69ab      	ldr	r3, [r5, #24]
 8002a34:	f04f 0901 	mov.w	r9, #1
 8002a38:	f003 0304 	and.w	r3, r3, #4
 8002a3c:	9317      	str	r3, [sp, #92]	; 0x5c
 8002a3e:	9b17      	ldr	r3, [sp, #92]	; 0x5c
 8002a40:	69ab      	ldr	r3, [r5, #24]
 8002a42:	f04f 0a02 	mov.w	sl, #2
 8002a46:	f043 0308 	orr.w	r3, r3, #8
 8002a4a:	61ab      	str	r3, [r5, #24]
 8002a4c:	69ab      	ldr	r3, [r5, #24]
 8002a4e:	f44f 5880 	mov.w	r8, #4096	; 0x1000
 8002a52:	f003 0308 	and.w	r3, r3, #8
 8002a56:	9318      	str	r3, [sp, #96]	; 0x60
 8002a58:	9b18      	ldr	r3, [sp, #96]	; 0x60
 8002a5a:	f002 fd03 	bl	8005464 <HAL_GPIO_WritePin>
 8002a5e:	463a      	mov	r2, r7
 8002a60:	f44f 5180 	mov.w	r1, #4096	; 0x1000
 8002a64:	488e      	ldr	r0, [pc, #568]	; (8002ca0 <main+0x2d8>)
 8002a66:	f002 fcfd 	bl	8005464 <HAL_GPIO_WritePin>
 8002a6a:	f640 4306 	movw	r3, #3078	; 0xc06
 8002a6e:	e9cd 3926 	strd	r3, r9, [sp, #152]	; 0x98
 8002a72:	2303      	movs	r3, #3
 8002a74:	4889      	ldr	r0, [pc, #548]	; (8002c9c <main+0x2d4>)
 8002a76:	a926      	add	r1, sp, #152	; 0x98
 8002a78:	9329      	str	r3, [sp, #164]	; 0xa4
 8002a7a:	9728      	str	r7, [sp, #160]	; 0xa0
 8002a7c:	f002 fc16 	bl	80052ac <HAL_GPIO_Init>
 8002a80:	f241 0318 	movw	r3, #4120	; 0x1018
 8002a84:	4885      	ldr	r0, [pc, #532]	; (8002c9c <main+0x2d4>)
 8002a86:	a926      	add	r1, sp, #152	; 0x98
 8002a88:	e9cd 3926 	strd	r3, r9, [sp, #152]	; 0x98
 8002a8c:	9728      	str	r7, [sp, #160]	; 0xa0
 8002a8e:	f8cd a0a4 	str.w	sl, [sp, #164]	; 0xa4
 8002a92:	f002 fc0b 	bl	80052ac <HAL_GPIO_Init>
 8002a96:	4882      	ldr	r0, [pc, #520]	; (8002ca0 <main+0x2d8>)
 8002a98:	a926      	add	r1, sp, #152	; 0x98
 8002a9a:	e9cd 8926 	strd	r8, r9, [sp, #152]	; 0x98
 8002a9e:	e9cd 7a28 	strd	r7, sl, [sp, #160]	; 0xa0
 8002aa2:	f002 fc03 	bl	80052ac <HAL_GPIO_Init>
 8002aa6:	696b      	ldr	r3, [r5, #20]
 8002aa8:	463a      	mov	r2, r7
 8002aaa:	ea43 0309 	orr.w	r3, r3, r9
 8002aae:	616b      	str	r3, [r5, #20]
 8002ab0:	696b      	ldr	r3, [r5, #20]
 8002ab2:	4639      	mov	r1, r7
 8002ab4:	ea03 0309 	and.w	r3, r3, r9
 8002ab8:	200f      	movs	r0, #15
 8002aba:	9315      	str	r3, [sp, #84]	; 0x54
 8002abc:	9b15      	ldr	r3, [sp, #84]	; 0x54
 8002abe:	f002 f91b 	bl	8004cf8 <HAL_NVIC_SetPriority>
 8002ac2:	200f      	movs	r0, #15
 8002ac4:	f002 f94a 	bl	8004d5c <HAL_NVIC_EnableIRQ>
 8002ac8:	2210      	movs	r2, #16
 8002aca:	4639      	mov	r1, r7
 8002acc:	a81b      	add	r0, sp, #108	; 0x6c
 8002ace:	f005 fa8d 	bl	8007fec <memset>
 8002ad2:	221c      	movs	r2, #28
 8002ad4:	4639      	mov	r1, r7
 8002ad6:	a81f      	add	r0, sp, #124	; 0x7c
 8002ad8:	e9cd 7719 	strd	r7, r7, [sp, #100]	; 0x64
 8002adc:	f005 fa86 	bl	8007fec <memset>
 8002ae0:	2220      	movs	r2, #32
 8002ae2:	4639      	mov	r1, r7
 8002ae4:	a826      	add	r0, sp, #152	; 0x98
 8002ae6:	f005 fa81 	bl	8007fec <memset>
 8002aea:	4d6e      	ldr	r5, [pc, #440]	; (8002ca4 <main+0x2dc>)
 8002aec:	4b6e      	ldr	r3, [pc, #440]	; (8002ca8 <main+0x2e0>)
 8002aee:	f04f 0980 	mov.w	r9, #128	; 0x80
 8002af2:	e9c5 3700 	strd	r3, r7, [r5]
 8002af6:	f240 331f 	movw	r3, #799	; 0x31f
 8002afa:	e9c5 3703 	strd	r3, r7, [r5, #12]
 8002afe:	2307      	movs	r3, #7
 8002b00:	4628      	mov	r0, r5
 8002b02:	e9c5 3905 	strd	r3, r9, [r5, #20]
 8002b06:	60af      	str	r7, [r5, #8]
 8002b08:	f004 f8b6 	bl	8006c78 <HAL_TIM_Base_Init>
 8002b0c:	b108      	cbz	r0, 8002b12 <main+0x14a>
 8002b0e:	b672      	cpsid	i
 8002b10:	e7fe      	b.n	8002b10 <main+0x148>
 8002b12:	4628      	mov	r0, r5
 8002b14:	a91b      	add	r1, sp, #108	; 0x6c
 8002b16:	f8cd 806c 	str.w	r8, [sp, #108]	; 0x6c
 8002b1a:	f004 fa6b 	bl	8006ff4 <HAL_TIM_ConfigClockSource>
 8002b1e:	b108      	cbz	r0, 8002b24 <main+0x15c>
 8002b20:	b672      	cpsid	i
 8002b22:	e7fe      	b.n	8002b22 <main+0x15a>
 8002b24:	4628      	mov	r0, r5
 8002b26:	f004 f8d3 	bl	8006cd0 <HAL_TIM_OC_Init>
 8002b2a:	b108      	cbz	r0, 8002b30 <main+0x168>
 8002b2c:	b672      	cpsid	i
 8002b2e:	e7fe      	b.n	8002b2e <main+0x166>
 8002b30:	2108      	movs	r1, #8
 8002b32:	4628      	mov	r0, r5
 8002b34:	f004 f924 	bl	8006d80 <HAL_TIM_OnePulse_Init>
 8002b38:	b108      	cbz	r0, 8002b3e <main+0x176>
 8002b3a:	b672      	cpsid	i
 8002b3c:	e7fe      	b.n	8002b3c <main+0x174>
 8002b3e:	2730      	movs	r7, #48	; 0x30
 8002b40:	4628      	mov	r0, r5
 8002b42:	a919      	add	r1, sp, #100	; 0x64
 8002b44:	e9cd 7919 	strd	r7, r9, [sp, #100]	; 0x64
 8002b48:	f004 fd22 	bl	8007590 <HAL_TIMEx_MasterConfigSynchronization>
 8002b4c:	4602      	mov	r2, r0
 8002b4e:	b108      	cbz	r0, 8002b54 <main+0x18c>
 8002b50:	b672      	cpsid	i
 8002b52:	e7fe      	b.n	8002b52 <main+0x18a>
 8002b54:	e9cd 701f 	strd	r7, r0, [sp, #124]	; 0x7c
 8002b58:	e9cd 0021 	strd	r0, r0, [sp, #132]	; 0x84
 8002b5c:	e9cd 0023 	strd	r0, r0, [sp, #140]	; 0x8c
 8002b60:	9025      	str	r0, [sp, #148]	; 0x94
 8002b62:	a91f      	add	r1, sp, #124	; 0x7c
 8002b64:	4628      	mov	r0, r5
 8002b66:	f004 f965 	bl	8006e34 <HAL_TIM_OC_ConfigChannel>
 8002b6a:	b108      	cbz	r0, 8002b70 <main+0x1a8>
 8002b6c:	b672      	cpsid	i
 8002b6e:	e7fe      	b.n	8002b6e <main+0x1a6>
 8002b70:	682a      	ldr	r2, [r5, #0]
 8002b72:	4628      	mov	r0, r5
 8002b74:	6993      	ldr	r3, [r2, #24]
 8002b76:	a91f      	add	r1, sp, #124	; 0x7c
 8002b78:	f043 0308 	orr.w	r3, r3, #8
 8002b7c:	6193      	str	r3, [r2, #24]
 8002b7e:	2204      	movs	r2, #4
 8002b80:	f004 f958 	bl	8006e34 <HAL_TIM_OC_ConfigChannel>
 8002b84:	b108      	cbz	r0, 8002b8a <main+0x1c2>
 8002b86:	b672      	cpsid	i
 8002b88:	e7fe      	b.n	8002b88 <main+0x1c0>
 8002b8a:	2208      	movs	r2, #8
 8002b8c:	4628      	mov	r0, r5
 8002b8e:	a91f      	add	r1, sp, #124	; 0x7c
 8002b90:	f004 f950 	bl	8006e34 <HAL_TIM_OC_ConfigChannel>
 8002b94:	b108      	cbz	r0, 8002b9a <main+0x1d2>
 8002b96:	b672      	cpsid	i
 8002b98:	e7fe      	b.n	8002b98 <main+0x1d0>
 8002b9a:	220c      	movs	r2, #12
 8002b9c:	4628      	mov	r0, r5
 8002b9e:	a91f      	add	r1, sp, #124	; 0x7c
 8002ba0:	f004 f948 	bl	8006e34 <HAL_TIM_OC_ConfigChannel>
 8002ba4:	b108      	cbz	r0, 8002baa <main+0x1e2>
 8002ba6:	b672      	cpsid	i
 8002ba8:	e7fe      	b.n	8002ba8 <main+0x1e0>
 8002baa:	f44f 5300 	mov.w	r3, #8192	; 0x2000
 8002bae:	e9cd 0026 	strd	r0, r0, [sp, #152]	; 0x98
 8002bb2:	e9cd 0028 	strd	r0, r0, [sp, #160]	; 0xa0
 8002bb6:	902a      	str	r0, [sp, #168]	; 0xa8
 8002bb8:	902d      	str	r0, [sp, #180]	; 0xb4
 8002bba:	a926      	add	r1, sp, #152	; 0x98
 8002bbc:	4628      	mov	r0, r5
 8002bbe:	932b      	str	r3, [sp, #172]	; 0xac
 8002bc0:	f004 fd14 	bl	80075ec <HAL_TIMEx_ConfigBreakDeadTime>
 8002bc4:	b108      	cbz	r0, 8002bca <main+0x202>
 8002bc6:	b672      	cpsid	i
 8002bc8:	e7fe      	b.n	8002bc8 <main+0x200>
 8002bca:	4836      	ldr	r0, [pc, #216]	; (8002ca4 <main+0x2dc>)
 8002bcc:	f001 f9c4 	bl	8003f58 <HAL_TIM_MspPostInit>
 8002bd0:	f44f 33e1 	mov.w	r3, #115200	; 0x1c200
 8002bd4:	4835      	ldr	r0, [pc, #212]	; (8002cac <main+0x2e4>)
 8002bd6:	f8df e0dc 	ldr.w	lr, [pc, #220]	; 8002cb4 <main+0x2ec>
 8002bda:	220c      	movs	r2, #12
 8002bdc:	e9c0 e300 	strd	lr, r3, [r0]
 8002be0:	2300      	movs	r3, #0
 8002be2:	e9c0 3302 	strd	r3, r3, [r0, #8]
 8002be6:	e9c0 2305 	strd	r2, r3, [r0, #20]
 8002bea:	6103      	str	r3, [r0, #16]
 8002bec:	61c3      	str	r3, [r0, #28]
 8002bee:	f004 fd87 	bl	8007700 <HAL_UART_Init>
 8002bf2:	4607      	mov	r7, r0
 8002bf4:	b108      	cbz	r0, 8002bfa <main+0x232>
 8002bf6:	b672      	cpsid	i
 8002bf8:	e7fe      	b.n	8002bf8 <main+0x230>
 8002bfa:	4601      	mov	r1, r0
 8002bfc:	2210      	movs	r2, #16
 8002bfe:	a81b      	add	r0, sp, #108	; 0x6c
 8002c00:	f005 f9f4 	bl	8007fec <memset>
 8002c04:	2214      	movs	r2, #20
 8002c06:	4639      	mov	r1, r7
 8002c08:	a826      	add	r0, sp, #152	; 0x98
 8002c0a:	f005 f9ef 	bl	8007fec <memset>
 8002c0e:	2210      	movs	r2, #16
 8002c10:	4639      	mov	r1, r7
 8002c12:	a81f      	add	r0, sp, #124	; 0x7c
 8002c14:	f64f 79ff 	movw	r9, #65535	; 0xffff
 8002c18:	f04f 0a80 	mov.w	sl, #128	; 0x80
 8002c1c:	e9cd 7719 	strd	r7, r7, [sp, #100]	; 0x64
 8002c20:	f005 f9e4 	bl	8007fec <memset>
 8002c24:	f04f 4380 	mov.w	r3, #1073741824	; 0x40000000
 8002c28:	4d21      	ldr	r5, [pc, #132]	; (8002cb0 <main+0x2e8>)
 8002c2a:	4628      	mov	r0, r5
 8002c2c:	e9c5 3700 	strd	r3, r7, [r5]
 8002c30:	e9c5 9703 	strd	r9, r7, [r5, #12]
 8002c34:	60af      	str	r7, [r5, #8]
 8002c36:	f8c5 a018 	str.w	sl, [r5, #24]
 8002c3a:	f004 f81d 	bl	8006c78 <HAL_TIM_Base_Init>
 8002c3e:	b108      	cbz	r0, 8002c44 <main+0x27c>
 8002c40:	b672      	cpsid	i
 8002c42:	e7fe      	b.n	8002c42 <main+0x27a>
 8002c44:	f44f 5880 	mov.w	r8, #4096	; 0x1000
 8002c48:	4628      	mov	r0, r5
 8002c4a:	a91b      	add	r1, sp, #108	; 0x6c
 8002c4c:	f8cd 806c 	str.w	r8, [sp, #108]	; 0x6c
 8002c50:	f004 f9d0 	bl	8006ff4 <HAL_TIM_ConfigClockSource>
 8002c54:	b108      	cbz	r0, 8002c5a <main+0x292>
 8002c56:	b672      	cpsid	i
 8002c58:	e7fe      	b.n	8002c58 <main+0x290>
 8002c5a:	4628      	mov	r0, r5
 8002c5c:	f004 f864 	bl	8006d28 <HAL_TIM_IC_Init>
 8002c60:	b108      	cbz	r0, 8002c66 <main+0x29e>
 8002c62:	b672      	cpsid	i
 8002c64:	e7fe      	b.n	8002c64 <main+0x29c>
 8002c66:	2304      	movs	r3, #4
 8002c68:	2720      	movs	r7, #32
 8002c6a:	4628      	mov	r0, r5
 8002c6c:	a926      	add	r1, sp, #152	; 0x98
 8002c6e:	e9cd 3726 	strd	r3, r7, [sp, #152]	; 0x98
 8002c72:	f004 faa5 	bl	80071c0 <HAL_TIM_SlaveConfigSynchro>
 8002c76:	b108      	cbz	r0, 8002c7c <main+0x2b4>
 8002c78:	b672      	cpsid	i
 8002c7a:	e7fe      	b.n	8002c7a <main+0x2b2>
 8002c7c:	e9cd 0019 	strd	r0, r0, [sp, #100]	; 0x64
 8002c80:	a919      	add	r1, sp, #100	; 0x64
 8002c82:	4628      	mov	r0, r5
 8002c84:	f004 fc84 	bl	8007590 <HAL_TIMEx_MasterConfigSynchronization>
 8002c88:	4602      	mov	r2, r0
 8002c8a:	b1a8      	cbz	r0, 8002cb8 <main+0x2f0>
 8002c8c:	b672      	cpsid	i
 8002c8e:	e7fe      	b.n	8002c8e <main+0x2c6>
 8002c90:	0800ad38 	.word	0x0800ad38
 8002c94:	080025e1 	.word	0x080025e1
 8002c98:	40021000 	.word	0x40021000
 8002c9c:	40010c00 	.word	0x40010c00
 8002ca0:	40010800 	.word	0x40010800
 8002ca4:	20000b3c 	.word	0x20000b3c
 8002ca8:	40012c00 	.word	0x40012c00
 8002cac:	20000958 	.word	0x20000958
 8002cb0:	20000c90 	.word	0x20000c90
 8002cb4:	40013800 	.word	0x40013800
 8002cb8:	2301      	movs	r3, #1
 8002cba:	901f      	str	r0, [sp, #124]	; 0x7c
 8002cbc:	e9cd 3020 	strd	r3, r0, [sp, #128]	; 0x80
 8002cc0:	9022      	str	r0, [sp, #136]	; 0x88
 8002cc2:	a91f      	add	r1, sp, #124	; 0x7c
 8002cc4:	4628      	mov	r0, r5
 8002cc6:	f004 f907 	bl	8006ed8 <HAL_TIM_IC_ConfigChannel>
 8002cca:	4683      	mov	fp, r0
 8002ccc:	b108      	cbz	r0, 8002cd2 <main+0x30a>
 8002cce:	b672      	cpsid	i
 8002cd0:	e7fe      	b.n	8002cd0 <main+0x308>
 8002cd2:	4601      	mov	r1, r0
 8002cd4:	2210      	movs	r2, #16
 8002cd6:	a826      	add	r0, sp, #152	; 0x98
 8002cd8:	f005 f988 	bl	8007fec <memset>
 8002cdc:	2302      	movs	r3, #2
 8002cde:	4d58      	ldr	r5, [pc, #352]	; (8002e40 <main+0x478>)
 8002ce0:	f8df c17c 	ldr.w	ip, [pc, #380]	; 8002e60 <main+0x498>
 8002ce4:	4628      	mov	r0, r5
 8002ce6:	e9cd bb1f 	strd	fp, fp, [sp, #124]	; 0x7c
 8002cea:	e9c5 c300 	strd	ip, r3, [r5]
 8002cee:	e9c5 b902 	strd	fp, r9, [r5, #8]
 8002cf2:	f8c5 b010 	str.w	fp, [r5, #16]
 8002cf6:	f8c5 a018 	str.w	sl, [r5, #24]
 8002cfa:	f003 ffbd 	bl	8006c78 <HAL_TIM_Base_Init>
 8002cfe:	b108      	cbz	r0, 8002d04 <main+0x33c>
 8002d00:	b672      	cpsid	i
 8002d02:	e7fe      	b.n	8002d02 <main+0x33a>
 8002d04:	4628      	mov	r0, r5
 8002d06:	a926      	add	r1, sp, #152	; 0x98
 8002d08:	f8cd 8098 	str.w	r8, [sp, #152]	; 0x98
 8002d0c:	f004 f972 	bl	8006ff4 <HAL_TIM_ConfigClockSource>
 8002d10:	b108      	cbz	r0, 8002d16 <main+0x34e>
 8002d12:	b672      	cpsid	i
 8002d14:	e7fe      	b.n	8002d14 <main+0x34c>
 8002d16:	e9cd 701f 	strd	r7, r0, [sp, #124]	; 0x7c
 8002d1a:	a91f      	add	r1, sp, #124	; 0x7c
 8002d1c:	4628      	mov	r0, r5
 8002d1e:	f004 fc37 	bl	8007590 <HAL_TIMEx_MasterConfigSynchronization>
 8002d22:	b108      	cbz	r0, 8002d28 <main+0x360>
 8002d24:	b672      	cpsid	i
 8002d26:	e7fe      	b.n	8002d26 <main+0x35e>
 8002d28:	f04f 0810 	mov.w	r8, #16
 8002d2c:	2700      	movs	r7, #0
 8002d2e:	4642      	mov	r2, r8
 8002d30:	2100      	movs	r1, #0
 8002d32:	a81b      	add	r0, sp, #108	; 0x6c
 8002d34:	f005 f95a 	bl	8007fec <memset>
 8002d38:	2214      	movs	r2, #20
 8002d3a:	2100      	movs	r1, #0
 8002d3c:	a81f      	add	r0, sp, #124	; 0x7c
 8002d3e:	f005 f955 	bl	8007fec <memset>
 8002d42:	4639      	mov	r1, r7
 8002d44:	221c      	movs	r2, #28
 8002d46:	a826      	add	r0, sp, #152	; 0x98
 8002d48:	4d3e      	ldr	r5, [pc, #248]	; (8002e44 <main+0x47c>)
 8002d4a:	e9cd 7719 	strd	r7, r7, [sp, #100]	; 0x64
 8002d4e:	f005 f94d 	bl	8007fec <memset>
 8002d52:	4b3d      	ldr	r3, [pc, #244]	; (8002e48 <main+0x480>)
 8002d54:	60af      	str	r7, [r5, #8]
 8002d56:	e9c5 3700 	strd	r3, r7, [r5]
 8002d5a:	f647 0350 	movw	r3, #30800	; 0x7850
 8002d5e:	e9c5 3703 	strd	r3, r7, [r5, #12]
 8002d62:	2780      	movs	r7, #128	; 0x80
 8002d64:	4628      	mov	r0, r5
 8002d66:	61af      	str	r7, [r5, #24]
 8002d68:	f003 ff86 	bl	8006c78 <HAL_TIM_Base_Init>
 8002d6c:	b108      	cbz	r0, 8002d72 <main+0x3aa>
 8002d6e:	b672      	cpsid	i
 8002d70:	e7fe      	b.n	8002d70 <main+0x3a8>
 8002d72:	f44f 5980 	mov.w	r9, #4096	; 0x1000
 8002d76:	4628      	mov	r0, r5
 8002d78:	a91b      	add	r1, sp, #108	; 0x6c
 8002d7a:	f8cd 906c 	str.w	r9, [sp, #108]	; 0x6c
 8002d7e:	f004 f939 	bl	8006ff4 <HAL_TIM_ConfigClockSource>
 8002d82:	b108      	cbz	r0, 8002d88 <main+0x3c0>
 8002d84:	b672      	cpsid	i
 8002d86:	e7fe      	b.n	8002d86 <main+0x3be>
 8002d88:	4628      	mov	r0, r5
 8002d8a:	f003 ffa1 	bl	8006cd0 <HAL_TIM_OC_Init>
 8002d8e:	b108      	cbz	r0, 8002d94 <main+0x3cc>
 8002d90:	b672      	cpsid	i
 8002d92:	e7fe      	b.n	8002d92 <main+0x3ca>
 8002d94:	2108      	movs	r1, #8
 8002d96:	4628      	mov	r0, r5
 8002d98:	f003 fff2 	bl	8006d80 <HAL_TIM_OnePulse_Init>
 8002d9c:	b108      	cbz	r0, 8002da2 <main+0x3da>
 8002d9e:	b672      	cpsid	i
 8002da0:	e7fe      	b.n	8002da0 <main+0x3d8>
 8002da2:	f04f 0b06 	mov.w	fp, #6
 8002da6:	a91f      	add	r1, sp, #124	; 0x7c
 8002da8:	e9cd b01f 	strd	fp, r0, [sp, #124]	; 0x7c
 8002dac:	4628      	mov	r0, r5
 8002dae:	f004 fa07 	bl	80071c0 <HAL_TIM_SlaveConfigSynchro>
 8002db2:	b108      	cbz	r0, 8002db8 <main+0x3f0>
 8002db4:	b672      	cpsid	i
 8002db6:	e7fe      	b.n	8002db6 <main+0x3ee>
 8002db8:	2330      	movs	r3, #48	; 0x30
 8002dba:	4628      	mov	r0, r5
 8002dbc:	a919      	add	r1, sp, #100	; 0x64
 8002dbe:	e9cd 3719 	strd	r3, r7, [sp, #100]	; 0x64
 8002dc2:	f004 fbe5 	bl	8007590 <HAL_TIMEx_MasterConfigSynchronization>
 8002dc6:	4602      	mov	r2, r0
 8002dc8:	b108      	cbz	r0, 8002dce <main+0x406>
 8002dca:	b672      	cpsid	i
 8002dcc:	e7fe      	b.n	8002dcc <main+0x404>
 8002dce:	e9cd 8026 	strd	r8, r0, [sp, #152]	; 0x98
 8002dd2:	9028      	str	r0, [sp, #160]	; 0xa0
 8002dd4:	902a      	str	r0, [sp, #168]	; 0xa8
 8002dd6:	a926      	add	r1, sp, #152	; 0x98
 8002dd8:	4628      	mov	r0, r5
 8002dda:	f004 f82b 	bl	8006e34 <HAL_TIM_OC_ConfigChannel>
 8002dde:	4603      	mov	r3, r0
 8002de0:	b108      	cbz	r0, 8002de6 <main+0x41e>
 8002de2:	b672      	cpsid	i
 8002de4:	e7fe      	b.n	8002de4 <main+0x41c>
 8002de6:	4819      	ldr	r0, [pc, #100]	; (8002e4c <main+0x484>)
 8002de8:	4a19      	ldr	r2, [pc, #100]	; (8002e50 <main+0x488>)
 8002dea:	4d1a      	ldr	r5, [pc, #104]	; (8002e54 <main+0x48c>)
 8002dec:	e9c0 3302 	strd	r3, r3, [r0, #8]
 8002df0:	e9c0 5200 	strd	r5, r2, [r0]
 8002df4:	f44f 4280 	mov.w	r2, #16384	; 0x4000
 8002df8:	e9c0 3306 	strd	r3, r3, [r0, #24]
 8002dfc:	e9c0 2304 	strd	r2, r3, [r0, #16]
 8002e00:	6203      	str	r3, [r0, #32]
 8002e02:	f002 fd0f 	bl	8005824 <HAL_I2C_Init>
 8002e06:	4603      	mov	r3, r0
 8002e08:	b108      	cbz	r0, 8002e0e <main+0x446>
 8002e0a:	b672      	cpsid	i
 8002e0c:	e7fe      	b.n	8002e0c <main+0x444>
 8002e0e:	f44f 7282 	mov.w	r2, #260	; 0x104
 8002e12:	4811      	ldr	r0, [pc, #68]	; (8002e58 <main+0x490>)
 8002e14:	4911      	ldr	r1, [pc, #68]	; (8002e5c <main+0x494>)
 8002e16:	e9c0 3302 	strd	r3, r3, [r0, #8]
 8002e1a:	e9c0 1200 	strd	r1, r2, [r0]
 8002e1e:	f44f 7200 	mov.w	r2, #512	; 0x200
 8002e22:	e9c0 3304 	strd	r3, r3, [r0, #16]
 8002e26:	e9c0 2306 	strd	r2, r3, [r0, #24]
 8002e2a:	e9c0 3308 	strd	r3, r3, [r0, #32]
 8002e2e:	6283      	str	r3, [r0, #40]	; 0x28
 8002e30:	230a      	movs	r3, #10
 8002e32:	62c3      	str	r3, [r0, #44]	; 0x2c
 8002e34:	f003 fa89 	bl	800634a <HAL_SPI_Init>
 8002e38:	4605      	mov	r5, r0
 8002e3a:	b198      	cbz	r0, 8002e64 <main+0x49c>
 8002e3c:	b672      	cpsid	i
 8002e3e:	e7fe      	b.n	8002e3e <main+0x476>
 8002e40:	20000684 	.word	0x20000684
 8002e44:	2000075c 	.word	0x2000075c
 8002e48:	40000400 	.word	0x40000400
 8002e4c:	200006dc 	.word	0x200006dc
 8002e50:	000186a0 	.word	0x000186a0
 8002e54:	40005400 	.word	0x40005400
 8002e58:	2000062c 	.word	0x2000062c
 8002e5c:	40003800 	.word	0x40003800
 8002e60:	40000800 	.word	0x40000800
 8002e64:	f04f 0a01 	mov.w	sl, #1
 8002e68:	2201      	movs	r2, #1
 8002e6a:	4649      	mov	r1, r9
 8002e6c:	48b5      	ldr	r0, [pc, #724]	; (8003144 <main+0x77c>)
 8002e6e:	f002 faf9 	bl	8005464 <HAL_GPIO_WritePin>
 8002e72:	4bb5      	ldr	r3, [pc, #724]	; (8003148 <main+0x780>)
 8002e74:	4fb5      	ldr	r7, [pc, #724]	; (800314c <main+0x784>)
 8002e76:	f883 a000 	strb.w	sl, [r3]
 8002e7a:	4bb5      	ldr	r3, [pc, #724]	; (8003150 <main+0x788>)
 8002e7c:	2215      	movs	r2, #21
 8002e7e:	601d      	str	r5, [r3, #0]
 8002e80:	68fb      	ldr	r3, [r7, #12]
 8002e82:	49b4      	ldr	r1, [pc, #720]	; (8003154 <main+0x78c>)
 8002e84:	f423 6340 	bic.w	r3, r3, #3072	; 0xc00
 8002e88:	f023 0306 	bic.w	r3, r3, #6
 8002e8c:	60fb      	str	r3, [r7, #12]
 8002e8e:	48b2      	ldr	r0, [pc, #712]	; (8003158 <main+0x790>)
 8002e90:	f04f 33ff 	mov.w	r3, #4294967295	; 0xffffffff
 8002e94:	f004 fc62 	bl	800775c <HAL_UART_Transmit>
 8002e98:	462a      	mov	r2, r5
 8002e9a:	4641      	mov	r1, r8
 8002e9c:	4638      	mov	r0, r7
 8002e9e:	f002 fae1 	bl	8005464 <HAL_GPIO_WritePin>
 8002ea2:	4652      	mov	r2, sl
 8002ea4:	4641      	mov	r1, r8
 8002ea6:	4638      	mov	r0, r7
 8002ea8:	f002 fadc 	bl	8005464 <HAL_GPIO_WritePin>
 8002eac:	4652      	mov	r2, sl
 8002eae:	4649      	mov	r1, r9
 8002eb0:	4638      	mov	r0, r7
 8002eb2:	f002 fad7 	bl	8005464 <HAL_GPIO_WritePin>
 8002eb6:	f44f 60fa 	mov.w	r0, #2000	; 0x7d0
 8002eba:	f001 fef9 	bl	8004cb0 <HAL_Delay>
 8002ebe:	49a7      	ldr	r1, [pc, #668]	; (800315c <main+0x794>)
 8002ec0:	48a7      	ldr	r0, [pc, #668]	; (8003160 <main+0x798>)
 8002ec2:	f001 fd9d 	bl	8004a00 <reg_wizchip_cs_cbfunc>
 8002ec6:	49a7      	ldr	r1, [pc, #668]	; (8003164 <main+0x79c>)
 8002ec8:	48a7      	ldr	r0, [pc, #668]	; (8003168 <main+0x7a0>)
 8002eca:	f001 fdab 	bl	8004a24 <reg_wizchip_spi_cbfunc>
 8002ece:	49a7      	ldr	r1, [pc, #668]	; (800316c <main+0x7a4>)
 8002ed0:	48a7      	ldr	r0, [pc, #668]	; (8003170 <main+0x7a8>)
 8002ed2:	f001 fdbf 	bl	8004a54 <reg_wizchip_spiburst_cbfunc>
 8002ed6:	4aa7      	ldr	r2, [pc, #668]	; (8003174 <main+0x7ac>)
 8002ed8:	ab26      	add	r3, sp, #152	; 0x98
 8002eda:	6810      	ldr	r0, [r2, #0]
 8002edc:	6851      	ldr	r1, [r2, #4]
 8002ede:	c303      	stmia	r3!, {r0, r1}
 8002ee0:	a926      	add	r1, sp, #152	; 0x98
 8002ee2:	4608      	mov	r0, r1
 8002ee4:	f001 fe0b 	bl	8004afe <wizchip_init>
 8002ee8:	465a      	mov	r2, fp
 8002eea:	f44f 6010 	mov.w	r0, #2304	; 0x900
 8002eee:	49a2      	ldr	r1, [pc, #648]	; (8003178 <main+0x7b0>)
 8002ef0:	f001 fc84 	bl	80047fc <WIZCHIP_WRITE_BUF>
 8002ef4:	4631      	mov	r1, r6
 8002ef6:	4628      	mov	r0, r5
 8002ef8:	f7fe ffaa 	bl	8001e50 <DHCP_init>
 8002efc:	ea44 010a 	orr.w	r1, r4, sl
 8002f00:	f242 7411 	movw	r4, #10001	; 0x2711
 8002f04:	4608      	mov	r0, r1
 8002f06:	4a9d      	ldr	r2, [pc, #628]	; (800317c <main+0x7b4>)
 8002f08:	f7fe fd28 	bl	800195c <reg_dhcp_cbfunc>
 8002f0c:	4b8e      	ldr	r3, [pc, #568]	; (8003148 <main+0x780>)
 8002f0e:	930e      	str	r3, [sp, #56]	; 0x38
 8002f10:	f896 3400 	ldrb.w	r3, [r6, #1024]	; 0x400
 8002f14:	b913      	cbnz	r3, 8002f1c <main+0x554>
 8002f16:	3c01      	subs	r4, #1
 8002f18:	f040 81a6 	bne.w	8003268 <main+0x8a0>
 8002f1c:	f89d 34b8 	ldrb.w	r3, [sp, #1208]	; 0x4b8
 8002f20:	b1f3      	cbz	r3, 8002f60 <main+0x598>
 8002f22:	4c95      	ldr	r4, [pc, #596]	; (8003178 <main+0x7b0>)
 8002f24:	1da0      	adds	r0, r4, #6
 8002f26:	f7fe fff3 	bl	8001f10 <getIPfromDHCP>
 8002f2a:	f104 000e 	add.w	r0, r4, #14
 8002f2e:	f7fe fffb 	bl	8001f28 <getGWfromDHCP>
 8002f32:	f104 000a 	add.w	r0, r4, #10
 8002f36:	f7ff f81d 	bl	8001f74 <getSNfromDHCP>
 8002f3a:	f104 0016 	add.w	r0, r4, #22
 8002f3e:	f7fe ffff 	bl	8001f40 <getZABBIXfromDHCP>
 8002f42:	f104 001a 	add.w	r0, r4, #26
 8002f46:	f7ff f807 	bl	8001f58 <getHostNamefromDHCP>
 8002f4a:	7ea3      	ldrb	r3, [r4, #26]
 8002f4c:	2b00      	cmp	r3, #0
 8002f4e:	f040 8191 	bne.w	8003274 <main+0x8ac>
 8002f52:	498b      	ldr	r1, [pc, #556]	; (8003180 <main+0x7b8>)
 8002f54:	488b      	ldr	r0, [pc, #556]	; (8003184 <main+0x7bc>)
 8002f56:	f005 fcd1 	bl	80088fc <strcpy>
 8002f5a:	4887      	ldr	r0, [pc, #540]	; (8003178 <main+0x7b0>)
 8002f5c:	f001 fe0c 	bl	8004b78 <wizchip_setnetinfo>
 8002f60:	2000      	movs	r0, #0
 8002f62:	2400      	movs	r4, #0
 8002f64:	f7ff fb80 	bl	8002668 <rwFlash.9089>
 8002f68:	2301      	movs	r3, #1
 8002f6a:	4e87      	ldr	r6, [pc, #540]	; (8003188 <main+0x7c0>)
 8002f6c:	4d87      	ldr	r5, [pc, #540]	; (800318c <main+0x7c4>)
 8002f6e:	4621      	mov	r1, r4
 8002f70:	4887      	ldr	r0, [pc, #540]	; (8003190 <main+0x7c8>)
 8002f72:	7033      	strb	r3, [r6, #0]
 8002f74:	802c      	strh	r4, [r5, #0]
 8002f76:	f004 fab7 	bl	80074e8 <HAL_TIM_IC_Stop_DMA>
 8002f7a:	2264      	movs	r2, #100	; 0x64
 8002f7c:	4b85      	ldr	r3, [pc, #532]	; (8003194 <main+0x7cc>)
 8002f7e:	f8df c278 	ldr.w	ip, [pc, #632]	; 80031f8 <main+0x830>
 8002f82:	801a      	strh	r2, [r3, #0]
 8002f84:	2200      	movs	r2, #0
 8002f86:	2300      	movs	r3, #0
 8002f88:	4f83      	ldr	r7, [pc, #524]	; (8003198 <main+0x7d0>)
 8002f8a:	4884      	ldr	r0, [pc, #528]	; (800319c <main+0x7d4>)
 8002f8c:	e9cc 2300 	strd	r2, r3, [ip]
 8002f90:	e9c7 2300 	strd	r2, r3, [r7]
 8002f94:	e9c0 2300 	strd	r2, r3, [r0]
 8002f98:	46b3      	mov	fp, r6
 8002f9a:	2200      	movs	r2, #0
 8002f9c:	e9cd c712 	strd	ip, r7, [sp, #72]	; 0x48
 8002fa0:	497f      	ldr	r1, [pc, #508]	; (80031a0 <main+0x7d8>)
 8002fa2:	4b80      	ldr	r3, [pc, #512]	; (80031a4 <main+0x7dc>)
 8002fa4:	900f      	str	r0, [sp, #60]	; 0x3c
 8002fa6:	3401      	adds	r4, #1
 8002fa8:	2c64      	cmp	r4, #100	; 0x64
 8002faa:	f841 2b04 	str.w	r2, [r1], #4
 8002fae:	f843 2b04 	str.w	r2, [r3], #4
 8002fb2:	d1f8      	bne.n	8002fa6 <main+0x5de>
 8002fb4:	2400      	movs	r4, #0
 8002fb6:	4b7c      	ldr	r3, [pc, #496]	; (80031a8 <main+0x7e0>)
 8002fb8:	701c      	strb	r4, [r3, #0]
 8002fba:	4b7c      	ldr	r3, [pc, #496]	; (80031ac <main+0x7e4>)
 8002fbc:	701c      	strb	r4, [r3, #0]
 8002fbe:	4b7c      	ldr	r3, [pc, #496]	; (80031b0 <main+0x7e8>)
 8002fc0:	701c      	strb	r4, [r3, #0]
 8002fc2:	4b7c      	ldr	r3, [pc, #496]	; (80031b4 <main+0x7ec>)
 8002fc4:	701c      	strb	r4, [r3, #0]
 8002fc6:	f7fe fc5b 	bl	8001880 <BME280_Init>
 8002fca:	487b      	ldr	r0, [pc, #492]	; (80031b8 <main+0x7f0>)
 8002fcc:	f003 fcc0 	bl	8006950 <HAL_TIM_Base_Start_IT>
 8002fd0:	487a      	ldr	r0, [pc, #488]	; (80031bc <main+0x7f4>)
 8002fd2:	f003 fcbd 	bl	8006950 <HAL_TIM_Base_Start_IT>
 8002fd6:	f04f 33ff 	mov.w	r3, #4294967295	; 0xffffffff
 8002fda:	220f      	movs	r2, #15
 8002fdc:	4978      	ldr	r1, [pc, #480]	; (80031c0 <main+0x7f8>)
 8002fde:	485e      	ldr	r0, [pc, #376]	; (8003158 <main+0x790>)
 8002fe0:	f004 fbbc 	bl	800775c <HAL_UART_Transmit>
 8002fe4:	9b0e      	ldr	r3, [sp, #56]	; 0x38
 8002fe6:	4622      	mov	r2, r4
 8002fe8:	f44f 5180 	mov.w	r1, #4096	; 0x1000
 8002fec:	4855      	ldr	r0, [pc, #340]	; (8003144 <main+0x77c>)
 8002fee:	701c      	strb	r4, [r3, #0]
 8002ff0:	802c      	strh	r4, [r5, #0]
 8002ff2:	f002 fa37 	bl	8005464 <HAL_GPIO_WritePin>
 8002ff6:	9b0e      	ldr	r3, [sp, #56]	; 0x38
 8002ff8:	781b      	ldrb	r3, [r3, #0]
 8002ffa:	2b00      	cmp	r3, #0
 8002ffc:	f000 8097 	beq.w	800312e <main+0x766>
 8003000:	2300      	movs	r3, #0
 8003002:	9a0e      	ldr	r2, [sp, #56]	; 0x38
 8003004:	4c6f      	ldr	r4, [pc, #444]	; (80031c4 <main+0x7fc>)
 8003006:	7013      	strb	r3, [r2, #0]
 8003008:	8822      	ldrh	r2, [r4, #0]
 800300a:	2a00      	cmp	r2, #0
 800300c:	f000 808f 	beq.w	800312e <main+0x766>
 8003010:	f8df 81e8 	ldr.w	r8, [pc, #488]	; 80031fc <main+0x834>
 8003014:	f8b8 3000 	ldrh.w	r3, [r8]
 8003018:	2b00      	cmp	r3, #0
 800301a:	f000 8088 	beq.w	800312e <main+0x766>
 800301e:	f8df 91e0 	ldr.w	r9, [pc, #480]	; 8003200 <main+0x838>
 8003022:	f8b9 1000 	ldrh.w	r1, [r9]
 8003026:	2900      	cmp	r1, #0
 8003028:	f000 8224 	beq.w	8003474 <main+0xaac>
 800302c:	4e5e      	ldr	r6, [pc, #376]	; (80031a8 <main+0x7e0>)
 800302e:	7831      	ldrb	r1, [r6, #0]
 8003030:	b951      	cbnz	r1, 8003048 <main+0x680>
 8003032:	485e      	ldr	r0, [pc, #376]	; (80031ac <main+0x7e4>)
 8003034:	7800      	ldrb	r0, [r0, #0]
 8003036:	b938      	cbnz	r0, 8003048 <main+0x680>
 8003038:	485d      	ldr	r0, [pc, #372]	; (80031b0 <main+0x7e8>)
 800303a:	7800      	ldrb	r0, [r0, #0]
 800303c:	b920      	cbnz	r0, 8003048 <main+0x680>
 800303e:	485d      	ldr	r0, [pc, #372]	; (80031b4 <main+0x7ec>)
 8003040:	7800      	ldrb	r0, [r0, #0]
 8003042:	2800      	cmp	r0, #0
 8003044:	f000 812c 	beq.w	80032a0 <main+0x8d8>
 8003048:	4d5f      	ldr	r5, [pc, #380]	; (80031c8 <main+0x800>)
 800304a:	8828      	ldrh	r0, [r5, #0]
 800304c:	f5b0 6fc8 	cmp.w	r0, #1600	; 0x640
 8003050:	f080 811f 	bcs.w	8003292 <main+0x8ca>
 8003054:	495d      	ldr	r1, [pc, #372]	; (80031cc <main+0x804>)
 8003056:	4f5e      	ldr	r7, [pc, #376]	; (80031d0 <main+0x808>)
 8003058:	8809      	ldrh	r1, [r1, #0]
 800305a:	f8df 81a8 	ldr.w	r8, [pc, #424]	; 8003204 <main+0x83c>
 800305e:	9105      	str	r1, [sp, #20]
 8003060:	8839      	ldrh	r1, [r7, #0]
 8003062:	f8df 91a4 	ldr.w	r9, [pc, #420]	; 8003208 <main+0x840>
 8003066:	9104      	str	r1, [sp, #16]
 8003068:	495a      	ldr	r1, [pc, #360]	; (80031d4 <main+0x80c>)
 800306a:	485b      	ldr	r0, [pc, #364]	; (80031d8 <main+0x810>)
 800306c:	8809      	ldrh	r1, [r1, #0]
 800306e:	9103      	str	r1, [sp, #12]
 8003070:	f8b8 1000 	ldrh.w	r1, [r8]
 8003074:	9102      	str	r1, [sp, #8]
 8003076:	f8b9 1000 	ldrh.w	r1, [r9]
 800307a:	9101      	str	r1, [sp, #4]
 800307c:	4957      	ldr	r1, [pc, #348]	; (80031dc <main+0x814>)
 800307e:	8809      	ldrh	r1, [r1, #0]
 8003080:	9100      	str	r1, [sp, #0]
 8003082:	4957      	ldr	r1, [pc, #348]	; (80031e0 <main+0x818>)
 8003084:	f005 fc1a 	bl	80088bc <siprintf>
 8003088:	f44f 737a 	mov.w	r3, #1000	; 0x3e8
 800308c:	22c8      	movs	r2, #200	; 0xc8
 800308e:	4952      	ldr	r1, [pc, #328]	; (80031d8 <main+0x810>)
 8003090:	4831      	ldr	r0, [pc, #196]	; (8003158 <main+0x790>)
 8003092:	f004 fb63 	bl	800775c <HAL_UART_Transmit>
 8003096:	7833      	ldrb	r3, [r6, #0]
 8003098:	2b00      	cmp	r3, #0
 800309a:	f000 80ee 	beq.w	800327a <main+0x8b2>
 800309e:	8823      	ldrh	r3, [r4, #0]
 80030a0:	f5a3 7348 	sub.w	r3, r3, #800	; 0x320
 80030a4:	2b00      	cmp	r3, #0
 80030a6:	bfb8      	it	lt
 80030a8:	425b      	neglt	r3, r3
 80030aa:	2b03      	cmp	r3, #3
 80030ac:	f340 80e5 	ble.w	800327a <main+0x8b2>
 80030b0:	4a4c      	ldr	r2, [pc, #304]	; (80031e4 <main+0x81c>)
 80030b2:	8813      	ldrh	r3, [r2, #0]
 80030b4:	3301      	adds	r3, #1
 80030b6:	8013      	strh	r3, [r2, #0]
 80030b8:	4a3c      	ldr	r2, [pc, #240]	; (80031ac <main+0x7e4>)
 80030ba:	7813      	ldrb	r3, [r2, #0]
 80030bc:	2b00      	cmp	r3, #0
 80030be:	f000 80df 	beq.w	8003280 <main+0x8b8>
 80030c2:	f8b9 3000 	ldrh.w	r3, [r9]
 80030c6:	f5a3 7348 	sub.w	r3, r3, #800	; 0x320
 80030ca:	2b00      	cmp	r3, #0
 80030cc:	bfb8      	it	lt
 80030ce:	425b      	neglt	r3, r3
 80030d0:	2b03      	cmp	r3, #3
 80030d2:	f340 80d5 	ble.w	8003280 <main+0x8b8>
 80030d6:	4a44      	ldr	r2, [pc, #272]	; (80031e8 <main+0x820>)
 80030d8:	8813      	ldrh	r3, [r2, #0]
 80030da:	3301      	adds	r3, #1
 80030dc:	8013      	strh	r3, [r2, #0]
 80030de:	4a34      	ldr	r2, [pc, #208]	; (80031b0 <main+0x7e8>)
 80030e0:	7813      	ldrb	r3, [r2, #0]
 80030e2:	2b00      	cmp	r3, #0
 80030e4:	f000 80cf 	beq.w	8003286 <main+0x8be>
 80030e8:	f8b8 3000 	ldrh.w	r3, [r8]
 80030ec:	f5a3 7348 	sub.w	r3, r3, #800	; 0x320
 80030f0:	2b00      	cmp	r3, #0
 80030f2:	bfb8      	it	lt
 80030f4:	425b      	neglt	r3, r3
 80030f6:	2b03      	cmp	r3, #3
 80030f8:	f340 80c5 	ble.w	8003286 <main+0x8be>
 80030fc:	4a3b      	ldr	r2, [pc, #236]	; (80031ec <main+0x824>)
 80030fe:	8813      	ldrh	r3, [r2, #0]
 8003100:	3301      	adds	r3, #1
 8003102:	8013      	strh	r3, [r2, #0]
 8003104:	4a2b      	ldr	r2, [pc, #172]	; (80031b4 <main+0x7ec>)
 8003106:	7813      	ldrb	r3, [r2, #0]
 8003108:	2b00      	cmp	r3, #0
 800310a:	f000 80bf 	beq.w	800328c <main+0x8c4>
 800310e:	883b      	ldrh	r3, [r7, #0]
 8003110:	f5a3 7348 	sub.w	r3, r3, #800	; 0x320
 8003114:	2b00      	cmp	r3, #0
 8003116:	bfb8      	it	lt
 8003118:	425b      	neglt	r3, r3
 800311a:	2b03      	cmp	r3, #3
 800311c:	f340 80b6 	ble.w	800328c <main+0x8c4>
 8003120:	4a33      	ldr	r2, [pc, #204]	; (80031f0 <main+0x828>)
 8003122:	8813      	ldrh	r3, [r2, #0]
 8003124:	3301      	adds	r3, #1
 8003126:	8013      	strh	r3, [r2, #0]
 8003128:	882b      	ldrh	r3, [r5, #0]
 800312a:	3301      	adds	r3, #1
 800312c:	802b      	strh	r3, [r5, #0]
 800312e:	4c31      	ldr	r4, [pc, #196]	; (80031f4 <main+0x82c>)
 8003130:	230a      	movs	r3, #10
 8003132:	2201      	movs	r2, #1
 8003134:	4621      	mov	r1, r4
 8003136:	4808      	ldr	r0, [pc, #32]	; (8003158 <main+0x790>)
 8003138:	f004 fb65 	bl	8007806 <HAL_UART_Receive>
 800313c:	2800      	cmp	r0, #0
 800313e:	f43f af5a 	beq.w	8002ff6 <main+0x62e>
 8003142:	e063      	b.n	800320c <main+0x844>
 8003144:	40010800 	.word	0x40010800
 8003148:	200005d4 	.word	0x200005d4
 800314c:	40010c00 	.word	0x40010c00
 8003150:	20000758 	.word	0x20000758
 8003154:	0800ae06 	.word	0x0800ae06
 8003158:	20000958 	.word	0x20000958
 800315c:	080025ed 	.word	0x080025ed
 8003160:	080025fd 	.word	0x080025fd
 8003164:	08002621 	.word	0x08002621
 8003168:	0800264d 	.word	0x0800264d
 800316c:	0800260d 	.word	0x0800260d
 8003170:	08002639 	.word	0x08002639
 8003174:	0800afc0 	.word	0x0800afc0
 8003178:	2000001c 	.word	0x2000001c
 800317c:	080025e9 	.word	0x080025e9
 8003180:	0800ae1b 	.word	0x0800ae1b
 8003184:	20000b8e 	.word	0x20000b8e
 8003188:	20000cd9 	.word	0x20000cd9
 800318c:	20000b86 	.word	0x20000b86
 8003190:	20000c90 	.word	0x20000c90
 8003194:	200006da 	.word	0x200006da
 8003198:	200005d8 	.word	0x200005d8
 800319c:	200006d0 	.word	0x200006d0
 80031a0:	200009ac 	.word	0x200009ac
 80031a4:	200007a8 	.word	0x200007a8
 80031a8:	20000740 	.word	0x20000740
 80031ac:	20000cd8 	.word	0x20000cd8
 80031b0:	2000093c 	.word	0x2000093c
 80031b4:	20000738 	.word	0x20000738
 80031b8:	2000075c 	.word	0x2000075c
 80031bc:	20000684 	.word	0x20000684
 80031c0:	0800ae26 	.word	0x0800ae26
 80031c4:	2000099e 	.word	0x2000099e
 80031c8:	20000b8c 	.word	0x20000b8c
 80031cc:	20000b84 	.word	0x20000b84
 80031d0:	20000b88 	.word	0x20000b88
 80031d4:	20000742 	.word	0x20000742
 80031d8:	20000484 	.word	0x20000484
 80031dc:	200009a8 	.word	0x200009a8
 80031e0:	0800ae35 	.word	0x0800ae35
 80031e4:	200005e0 	.word	0x200005e0
 80031e8:	200005e2 	.word	0x200005e2
 80031ec:	200009aa 	.word	0x200009aa
 80031f0:	200007a4 	.word	0x200007a4
 80031f4:	2000054c 	.word	0x2000054c
 80031f8:	200009a0 	.word	0x200009a0
 80031fc:	2000073a 	.word	0x2000073a
 8003200:	20000b8a 	.word	0x20000b8a
 8003204:	200006d8 	.word	0x200006d8
 8003208:	20000754 	.word	0x20000754
 800320c:	7823      	ldrb	r3, [r4, #0]
 800320e:	2b63      	cmp	r3, #99	; 0x63
 8003210:	d127      	bne.n	8003262 <main+0x89a>
 8003212:	f44f 737a 	mov.w	r3, #1000	; 0x3e8
 8003216:	2216      	movs	r2, #22
 8003218:	497b      	ldr	r1, [pc, #492]	; (8003408 <main+0xa40>)
 800321a:	487c      	ldr	r0, [pc, #496]	; (800340c <main+0xa44>)
 800321c:	f004 fa9e 	bl	800775c <HAL_UART_Transmit>
 8003220:	2301      	movs	r3, #1
 8003222:	4a7b      	ldr	r2, [pc, #492]	; (8003410 <main+0xa48>)
 8003224:	497b      	ldr	r1, [pc, #492]	; (8003414 <main+0xa4c>)
 8003226:	7013      	strb	r3, [r2, #0]
 8003228:	4a7b      	ldr	r2, [pc, #492]	; (8003418 <main+0xa50>)
 800322a:	7013      	strb	r3, [r2, #0]
 800322c:	4a7b      	ldr	r2, [pc, #492]	; (800341c <main+0xa54>)
 800322e:	7013      	strb	r3, [r2, #0]
 8003230:	4a7b      	ldr	r2, [pc, #492]	; (8003420 <main+0xa58>)
 8003232:	7013      	strb	r3, [r2, #0]
 8003234:	2300      	movs	r3, #0
 8003236:	4a7b      	ldr	r2, [pc, #492]	; (8003424 <main+0xa5c>)
 8003238:	8013      	strh	r3, [r2, #0]
 800323a:	f246 12a8 	movw	r2, #25000	; 0x61a8
 800323e:	800a      	strh	r2, [r1, #0]
 8003240:	4979      	ldr	r1, [pc, #484]	; (8003428 <main+0xa60>)
 8003242:	800a      	strh	r2, [r1, #0]
 8003244:	4979      	ldr	r1, [pc, #484]	; (800342c <main+0xa64>)
 8003246:	800a      	strh	r2, [r1, #0]
 8003248:	4979      	ldr	r1, [pc, #484]	; (8003430 <main+0xa68>)
 800324a:	800a      	strh	r2, [r1, #0]
 800324c:	4a79      	ldr	r2, [pc, #484]	; (8003434 <main+0xa6c>)
 800324e:	6013      	str	r3, [r2, #0]
 8003250:	4a79      	ldr	r2, [pc, #484]	; (8003438 <main+0xa70>)
 8003252:	6013      	str	r3, [r2, #0]
 8003254:	4a79      	ldr	r2, [pc, #484]	; (800343c <main+0xa74>)
 8003256:	6013      	str	r3, [r2, #0]
 8003258:	4a79      	ldr	r2, [pc, #484]	; (8003440 <main+0xa78>)
 800325a:	6013      	str	r3, [r2, #0]
 800325c:	2264      	movs	r2, #100	; 0x64
 800325e:	4b79      	ldr	r3, [pc, #484]	; (8003444 <main+0xa7c>)
 8003260:	801a      	strh	r2, [r3, #0]
 8003262:	2300      	movs	r3, #0
 8003264:	7023      	strb	r3, [r4, #0]
 8003266:	e6c6      	b.n	8002ff6 <main+0x62e>
 8003268:	f7ff f8fc 	bl	8002464 <DHCP_run>
 800326c:	2064      	movs	r0, #100	; 0x64
 800326e:	f001 fd1f 	bl	8004cb0 <HAL_Delay>
 8003272:	e64d      	b.n	8002f10 <main+0x548>
 8003274:	f104 011a 	add.w	r1, r4, #26
 8003278:	e66c      	b.n	8002f54 <main+0x58c>
 800327a:	2300      	movs	r3, #0
 800327c:	7033      	strb	r3, [r6, #0]
 800327e:	e71b      	b.n	80030b8 <main+0x6f0>
 8003280:	2300      	movs	r3, #0
 8003282:	7013      	strb	r3, [r2, #0]
 8003284:	e72b      	b.n	80030de <main+0x716>
 8003286:	2300      	movs	r3, #0
 8003288:	7013      	strb	r3, [r2, #0]
 800328a:	e73b      	b.n	8003104 <main+0x73c>
 800328c:	2300      	movs	r3, #0
 800328e:	7013      	strb	r3, [r2, #0]
 8003290:	e74a      	b.n	8003128 <main+0x760>
 8003292:	b969      	cbnz	r1, 80032b0 <main+0x8e8>
 8003294:	4b60      	ldr	r3, [pc, #384]	; (8003418 <main+0xa50>)
 8003296:	781b      	ldrb	r3, [r3, #0]
 8003298:	b953      	cbnz	r3, 80032b0 <main+0x8e8>
 800329a:	4b60      	ldr	r3, [pc, #384]	; (800341c <main+0xa54>)
 800329c:	781b      	ldrb	r3, [r3, #0]
 800329e:	b913      	cbnz	r3, 80032a6 <main+0x8de>
 80032a0:	4b5f      	ldr	r3, [pc, #380]	; (8003420 <main+0xa58>)
 80032a2:	781b      	ldrb	r3, [r3, #0]
 80032a4:	b17b      	cbz	r3, 80032c6 <main+0x8fe>
 80032a6:	4b5f      	ldr	r3, [pc, #380]	; (8003424 <main+0xa5c>)
 80032a8:	881b      	ldrh	r3, [r3, #0]
 80032aa:	f5b3 6fc8 	cmp.w	r3, #1600	; 0x640
 80032ae:	d30a      	bcc.n	80032c6 <main+0x8fe>
 80032b0:	22c8      	movs	r2, #200	; 0xc8
 80032b2:	2100      	movs	r1, #0
 80032b4:	4864      	ldr	r0, [pc, #400]	; (8003448 <main+0xa80>)
 80032b6:	f004 fe99 	bl	8007fec <memset>
 80032ba:	4964      	ldr	r1, [pc, #400]	; (800344c <main+0xa84>)
 80032bc:	4862      	ldr	r0, [pc, #392]	; (8003448 <main+0xa80>)
 80032be:	f005 fb1d 	bl	80088fc <strcpy>
 80032c2:	f001 fd59 	bl	8004d78 <HAL_NVIC_SystemReset>
 80032c6:	f8b9 a000 	ldrh.w	sl, [r9]
 80032ca:	f1ba 0f00 	cmp.w	sl, #0
 80032ce:	f43f af2e 	beq.w	800312e <main+0x766>
 80032d2:	f8b8 3000 	ldrh.w	r3, [r8]
 80032d6:	8820      	ldrh	r0, [r4, #0]
 80032d8:	4f56      	ldr	r7, [pc, #344]	; (8003434 <main+0xa6c>)
 80032da:	1ac0      	subs	r0, r0, r3
 80032dc:	f7fd fcde 	bl	8000c9c <__aeabi_i2f>
 80032e0:	6839      	ldr	r1, [r7, #0]
 80032e2:	f7fd fc27 	bl	8000b34 <__addsf3>
 80032e6:	4b5a      	ldr	r3, [pc, #360]	; (8003450 <main+0xa88>)
 80032e8:	6038      	str	r0, [r7, #0]
 80032ea:	8818      	ldrh	r0, [r3, #0]
 80032ec:	4b59      	ldr	r3, [pc, #356]	; (8003454 <main+0xa8c>)
 80032ee:	4d52      	ldr	r5, [pc, #328]	; (8003438 <main+0xa70>)
 80032f0:	881b      	ldrh	r3, [r3, #0]
 80032f2:	4e52      	ldr	r6, [pc, #328]	; (800343c <main+0xa74>)
 80032f4:	1ac0      	subs	r0, r0, r3
 80032f6:	f7fd fcd1 	bl	8000c9c <__aeabi_i2f>
 80032fa:	6829      	ldr	r1, [r5, #0]
 80032fc:	f7fd fc1a 	bl	8000b34 <__addsf3>
 8003300:	4b55      	ldr	r3, [pc, #340]	; (8003458 <main+0xa90>)
 8003302:	6028      	str	r0, [r5, #0]
 8003304:	8818      	ldrh	r0, [r3, #0]
 8003306:	4b55      	ldr	r3, [pc, #340]	; (800345c <main+0xa94>)
 8003308:	f8df 8134 	ldr.w	r8, [pc, #308]	; 8003440 <main+0xa78>
 800330c:	881b      	ldrh	r3, [r3, #0]
 800330e:	f10a 34ff 	add.w	r4, sl, #4294967295	; 0xffffffff
 8003312:	1ac0      	subs	r0, r0, r3
 8003314:	f7fd fcc2 	bl	8000c9c <__aeabi_i2f>
 8003318:	6831      	ldr	r1, [r6, #0]
 800331a:	f7fd fc0b 	bl	8000b34 <__addsf3>
 800331e:	4b50      	ldr	r3, [pc, #320]	; (8003460 <main+0xa98>)
 8003320:	6030      	str	r0, [r6, #0]
 8003322:	8818      	ldrh	r0, [r3, #0]
 8003324:	4b4f      	ldr	r3, [pc, #316]	; (8003464 <main+0xa9c>)
 8003326:	b2a4      	uxth	r4, r4
 8003328:	881b      	ldrh	r3, [r3, #0]
 800332a:	1ac0      	subs	r0, r0, r3
 800332c:	f7fd fcb6 	bl	8000c9c <__aeabi_i2f>
 8003330:	f8d8 1000 	ldr.w	r1, [r8]
 8003334:	f7fd fbfe 	bl	8000b34 <__addsf3>
 8003338:	f8a9 4000 	strh.w	r4, [r9]
 800333c:	f8c8 0000 	str.w	r0, [r8]
 8003340:	2c00      	cmp	r4, #0
 8003342:	f47f aef4 	bne.w	800312e <main+0x766>
 8003346:	22c8      	movs	r2, #200	; 0xc8
 8003348:	4621      	mov	r1, r4
 800334a:	483f      	ldr	r0, [pc, #252]	; (8003448 <main+0xa80>)
 800334c:	f004 fe4e 	bl	8007fec <memset>
 8003350:	4b37      	ldr	r3, [pc, #220]	; (8003430 <main+0xa68>)
 8003352:	4a30      	ldr	r2, [pc, #192]	; (8003414 <main+0xa4c>)
 8003354:	881b      	ldrh	r3, [r3, #0]
 8003356:	4944      	ldr	r1, [pc, #272]	; (8003468 <main+0xaa0>)
 8003358:	9301      	str	r3, [sp, #4]
 800335a:	4b34      	ldr	r3, [pc, #208]	; (800342c <main+0xa64>)
 800335c:	483a      	ldr	r0, [pc, #232]	; (8003448 <main+0xa80>)
 800335e:	881b      	ldrh	r3, [r3, #0]
 8003360:	9300      	str	r3, [sp, #0]
 8003362:	4b31      	ldr	r3, [pc, #196]	; (8003428 <main+0xa60>)
 8003364:	8812      	ldrh	r2, [r2, #0]
 8003366:	881b      	ldrh	r3, [r3, #0]
 8003368:	f005 faa8 	bl	80088bc <siprintf>
 800336c:	f44f 737a 	mov.w	r3, #1000	; 0x3e8
 8003370:	22c8      	movs	r2, #200	; 0xc8
 8003372:	4935      	ldr	r1, [pc, #212]	; (8003448 <main+0xa80>)
 8003374:	4825      	ldr	r0, [pc, #148]	; (800340c <main+0xa44>)
 8003376:	f004 f9f1 	bl	800775c <HAL_UART_Transmit>
 800337a:	6838      	ldr	r0, [r7, #0]
 800337c:	493b      	ldr	r1, [pc, #236]	; (800346c <main+0xaa4>)
 800337e:	f7fd fd95 	bl	8000eac <__aeabi_fdiv>
 8003382:	493a      	ldr	r1, [pc, #232]	; (800346c <main+0xaa4>)
 8003384:	6038      	str	r0, [r7, #0]
 8003386:	6828      	ldr	r0, [r5, #0]
 8003388:	f7fd fd90 	bl	8000eac <__aeabi_fdiv>
 800338c:	4937      	ldr	r1, [pc, #220]	; (800346c <main+0xaa4>)
 800338e:	6028      	str	r0, [r5, #0]
 8003390:	6830      	ldr	r0, [r6, #0]
 8003392:	f7fd fd8b 	bl	8000eac <__aeabi_fdiv>
 8003396:	4935      	ldr	r1, [pc, #212]	; (800346c <main+0xaa4>)
 8003398:	6030      	str	r0, [r6, #0]
 800339a:	f8d8 0000 	ldr.w	r0, [r8]
 800339e:	f7fd fd85 	bl	8000eac <__aeabi_fdiv>
 80033a2:	f8c8 0000 	str.w	r0, [r8]
 80033a6:	2001      	movs	r0, #1
 80033a8:	f7ff f95e 	bl	8002668 <rwFlash.9089>
 80033ac:	22c8      	movs	r2, #200	; 0xc8
 80033ae:	4621      	mov	r1, r4
 80033b0:	4825      	ldr	r0, [pc, #148]	; (8003448 <main+0xa80>)
 80033b2:	f004 fe1b 	bl	8007fec <memset>
 80033b6:	6838      	ldr	r0, [r7, #0]
 80033b8:	f7fd f836 	bl	8000428 <__aeabi_f2d>
 80033bc:	4681      	mov	r9, r0
 80033be:	f8d8 0000 	ldr.w	r0, [r8]
 80033c2:	468a      	mov	sl, r1
 80033c4:	f7fd f830 	bl	8000428 <__aeabi_f2d>
 80033c8:	e9cd 0104 	strd	r0, r1, [sp, #16]
 80033cc:	6830      	ldr	r0, [r6, #0]
 80033ce:	f7fd f82b 	bl	8000428 <__aeabi_f2d>
 80033d2:	e9cd 0102 	strd	r0, r1, [sp, #8]
 80033d6:	6828      	ldr	r0, [r5, #0]
 80033d8:	f7fd f826 	bl	8000428 <__aeabi_f2d>
 80033dc:	464a      	mov	r2, r9
 80033de:	e9cd 0100 	strd	r0, r1, [sp]
 80033e2:	4653      	mov	r3, sl
 80033e4:	4922      	ldr	r1, [pc, #136]	; (8003470 <main+0xaa8>)
 80033e6:	4818      	ldr	r0, [pc, #96]	; (8003448 <main+0xa80>)
 80033e8:	f005 fa68 	bl	80088bc <siprintf>
 80033ec:	f44f 737a 	mov.w	r3, #1000	; 0x3e8
 80033f0:	22c8      	movs	r2, #200	; 0xc8
 80033f2:	4915      	ldr	r1, [pc, #84]	; (8003448 <main+0xa80>)
 80033f4:	4805      	ldr	r0, [pc, #20]	; (800340c <main+0xa44>)
 80033f6:	f004 f9b1 	bl	800775c <HAL_UART_Transmit>
 80033fa:	4b0a      	ldr	r3, [pc, #40]	; (8003424 <main+0xa5c>)
 80033fc:	801c      	strh	r4, [r3, #0]
 80033fe:	2301      	movs	r3, #1
 8003400:	f88b 3000 	strb.w	r3, [fp]
 8003404:	e693      	b.n	800312e <main+0x766>
 8003406:	bf00      	nop
 8003408:	0800afaa 	.word	0x0800afaa
 800340c:	20000958 	.word	0x20000958
 8003410:	20000740 	.word	0x20000740
 8003414:	200005e0 	.word	0x200005e0
 8003418:	20000cd8 	.word	0x20000cd8
 800341c:	2000093c 	.word	0x2000093c
 8003420:	20000738 	.word	0x20000738
 8003424:	20000b8c 	.word	0x20000b8c
 8003428:	200005e2 	.word	0x200005e2
 800342c:	200009aa 	.word	0x200009aa
 8003430:	200007a4 	.word	0x200007a4
 8003434:	200005d0 	.word	0x200005d0
 8003438:	20000948 	.word	0x20000948
 800343c:	200005e4 	.word	0x200005e4
 8003440:	2000073c 	.word	0x2000073c
 8003444:	20000b8a 	.word	0x20000b8a
 8003448:	20000484 	.word	0x20000484
 800344c:	0800ae80 	.word	0x0800ae80
 8003450:	200009a8 	.word	0x200009a8
 8003454:	20000754 	.word	0x20000754
 8003458:	200006d8 	.word	0x200006d8
 800345c:	20000742 	.word	0x20000742
 8003460:	20000b88 	.word	0x20000b88
 8003464:	20000b84 	.word	0x20000b84
 8003468:	0800ae95 	.word	0x0800ae95
 800346c:	42c80000 	.word	0x42c80000
 8003470:	0800aed5 	.word	0x0800aed5
 8003474:	f7fe f8aa 	bl	80015cc <BME280_ReadTemperature>
 8003478:	f8df 8180 	ldr.w	r8, [pc, #384]	; 80035fc <main+0xc34>
 800347c:	4c51      	ldr	r4, [pc, #324]	; (80035c4 <main+0xbfc>)
 800347e:	f8c8 0000 	str.w	r0, [r8]
 8003482:	f7fe f8cf 	bl	8001624 <BME280_ReadPressure>
 8003486:	4950      	ldr	r1, [pc, #320]	; (80035c8 <main+0xc00>)
 8003488:	f7fd fc5c 	bl	8000d44 <__aeabi_fmul>
 800348c:	6020      	str	r0, [r4, #0]
 800348e:	f7fe f9ad 	bl	80017ec <BME280_ReadHumidity>
 8003492:	4d4e      	ldr	r5, [pc, #312]	; (80035cc <main+0xc04>)
 8003494:	f8d8 1000 	ldr.w	r1, [r8]
 8003498:	6028      	str	r0, [r5, #0]
 800349a:	484d      	ldr	r0, [pc, #308]	; (80035d0 <main+0xc08>)
 800349c:	f7ff fa04 	bl	80028a8 <sendToZabbix.9153.constprop.0>
 80034a0:	f8df a15c 	ldr.w	sl, [pc, #348]	; 8003600 <main+0xc38>
 80034a4:	6821      	ldr	r1, [r4, #0]
 80034a6:	484b      	ldr	r0, [pc, #300]	; (80035d4 <main+0xc0c>)
 80034a8:	f7ff f9fe 	bl	80028a8 <sendToZabbix.9153.constprop.0>
 80034ac:	6829      	ldr	r1, [r5, #0]
 80034ae:	484a      	ldr	r0, [pc, #296]	; (80035d8 <main+0xc10>)
 80034b0:	f7ff f9fa 	bl	80028a8 <sendToZabbix.9153.constprop.0>
 80034b4:	e9da 0100 	ldrd	r0, r1, [sl]
 80034b8:	2300      	movs	r3, #0
 80034ba:	2200      	movs	r2, #0
 80034bc:	f7fd fa74 	bl	80009a8 <__aeabi_dcmpeq>
 80034c0:	f89b 3000 	ldrb.w	r3, [fp]
 80034c4:	2800      	cmp	r0, #0
 80034c6:	d16a      	bne.n	800359e <main+0xbd6>
 80034c8:	2b00      	cmp	r3, #0
 80034ca:	d141      	bne.n	8003550 <main+0xb88>
 80034cc:	4b43      	ldr	r3, [pc, #268]	; (80035dc <main+0xc14>)
 80034ce:	f8df 9134 	ldr.w	r9, [pc, #308]	; 8003604 <main+0xc3c>
 80034d2:	e9d3 6700 	ldrd	r6, r7, [r3]
 80034d6:	e9d9 2300 	ldrd	r2, r3, [r9]
 80034da:	4630      	mov	r0, r6
 80034dc:	e9cd 2310 	strd	r2, r3, [sp, #64]	; 0x40
 80034e0:	4639      	mov	r1, r7
 80034e2:	2200      	movs	r2, #0
 80034e4:	4b3e      	ldr	r3, [pc, #248]	; (80035e0 <main+0xc18>)
 80034e6:	f7fd fa69 	bl	80009bc <__aeabi_dcmplt>
 80034ea:	2800      	cmp	r0, #0
 80034ec:	d132      	bne.n	8003554 <main+0xb8c>
 80034ee:	6828      	ldr	r0, [r5, #0]
 80034f0:	f7fc ff9a 	bl	8000428 <__aeabi_f2d>
 80034f4:	e9cd 010c 	strd	r0, r1, [sp, #48]	; 0x30
 80034f8:	6820      	ldr	r0, [r4, #0]
 80034fa:	f7fc ff95 	bl	8000428 <__aeabi_f2d>
 80034fe:	e9cd 010a 	strd	r0, r1, [sp, #40]	; 0x28
 8003502:	f8d8 0000 	ldr.w	r0, [r8]
 8003506:	f7fc ff8f 	bl	8000428 <__aeabi_f2d>
 800350a:	e9cd 0108 	strd	r0, r1, [sp, #32]
 800350e:	e9da 2300 	ldrd	r2, r3, [sl]
 8003512:	e9cd 2306 	strd	r2, r3, [sp, #24]
 8003516:	9b0f      	ldr	r3, [sp, #60]	; 0x3c
 8003518:	4932      	ldr	r1, [pc, #200]	; (80035e4 <main+0xc1c>)
 800351a:	e9d3 2300 	ldrd	r2, r3, [r3]
 800351e:	e9cd 2304 	strd	r2, r3, [sp, #16]
 8003522:	4b2e      	ldr	r3, [pc, #184]	; (80035dc <main+0xc14>)
 8003524:	4830      	ldr	r0, [pc, #192]	; (80035e8 <main+0xc20>)
 8003526:	e9d3 2300 	ldrd	r2, r3, [r3]
 800352a:	e9cd 2302 	strd	r2, r3, [sp, #8]
 800352e:	9b13      	ldr	r3, [sp, #76]	; 0x4c
 8003530:	e9d3 2300 	ldrd	r2, r3, [r3]
 8003534:	e9cd 2300 	strd	r2, r3, [sp]
 8003538:	9b12      	ldr	r3, [sp, #72]	; 0x48
 800353a:	e9d3 2300 	ldrd	r2, r3, [r3]
 800353e:	f005 f9bd 	bl	80088bc <siprintf>
 8003542:	f44f 737a 	mov.w	r3, #1000	; 0x3e8
 8003546:	22c8      	movs	r2, #200	; 0xc8
 8003548:	4927      	ldr	r1, [pc, #156]	; (80035e8 <main+0xc20>)
 800354a:	4828      	ldr	r0, [pc, #160]	; (80035ec <main+0xc24>)
 800354c:	f004 f906 	bl	800775c <HAL_UART_Transmit>
 8003550:	2300      	movs	r3, #0
 8003552:	e755      	b.n	8003400 <main+0xa38>
 8003554:	2200      	movs	r2, #0
 8003556:	e9dd 0110 	ldrd	r0, r1, [sp, #64]	; 0x40
 800355a:	4b21      	ldr	r3, [pc, #132]	; (80035e0 <main+0xc18>)
 800355c:	f7fd fa2e 	bl	80009bc <__aeabi_dcmplt>
 8003560:	2800      	cmp	r0, #0
 8003562:	d0c4      	beq.n	80034ee <main+0xb26>
 8003564:	4639      	mov	r1, r7
 8003566:	4630      	mov	r0, r6
 8003568:	f7fd fa8e 	bl	8000a88 <__aeabi_d2f>
 800356c:	4601      	mov	r1, r0
 800356e:	4820      	ldr	r0, [pc, #128]	; (80035f0 <main+0xc28>)
 8003570:	f7ff f99a 	bl	80028a8 <sendToZabbix.9153.constprop.0>
 8003574:	e9da 0100 	ldrd	r0, r1, [sl]
 8003578:	f7fd fa86 	bl	8000a88 <__aeabi_d2f>
 800357c:	4601      	mov	r1, r0
 800357e:	481d      	ldr	r0, [pc, #116]	; (80035f4 <main+0xc2c>)
 8003580:	f7ff f992 	bl	80028a8 <sendToZabbix.9153.constprop.0>
 8003584:	e9d9 0100 	ldrd	r0, r1, [r9]
 8003588:	f7fd fa7e 	bl	8000a88 <__aeabi_d2f>
 800358c:	4601      	mov	r1, r0
 800358e:	481a      	ldr	r0, [pc, #104]	; (80035f8 <main+0xc30>)
 8003590:	f7ff f98a 	bl	80028a8 <sendToZabbix.9153.constprop.0>
 8003594:	f89b 3000 	ldrb.w	r3, [fp]
 8003598:	2b00      	cmp	r3, #0
 800359a:	d1d9      	bne.n	8003550 <main+0xb88>
 800359c:	e7a7      	b.n	80034ee <main+0xb26>
 800359e:	2b00      	cmp	r3, #0
 80035a0:	d1d6      	bne.n	8003550 <main+0xb88>
 80035a2:	990f      	ldr	r1, [sp, #60]	; 0x3c
 80035a4:	2200      	movs	r2, #0
 80035a6:	e9d1 0100 	ldrd	r0, r1, [r1]
 80035aa:	4b0d      	ldr	r3, [pc, #52]	; (80035e0 <main+0xc18>)
 80035ac:	f7fd fa06 	bl	80009bc <__aeabi_dcmplt>
 80035b0:	2800      	cmp	r0, #0
 80035b2:	d09c      	beq.n	80034ee <main+0xb26>
 80035b4:	2100      	movs	r1, #0
 80035b6:	480e      	ldr	r0, [pc, #56]	; (80035f0 <main+0xc28>)
 80035b8:	f7ff f976 	bl	80028a8 <sendToZabbix.9153.constprop.0>
 80035bc:	9b0f      	ldr	r3, [sp, #60]	; 0x3c
 80035be:	e9d3 0100 	ldrd	r0, r1, [r3]
 80035c2:	e7e1      	b.n	8003588 <main+0xbc0>
 80035c4:	20000938 	.word	0x20000938
 80035c8:	3a449fca 	.word	0x3a449fca
 80035cc:	20000944 	.word	0x20000944
 80035d0:	0800af04 	.word	0x0800af04
 80035d4:	0800af16 	.word	0x0800af16
 80035d8:	0800af25 	.word	0x0800af25
 80035dc:	20000950 	.word	0x20000950
 80035e0:	40440000 	.word	0x40440000
 80035e4:	0800af34 	.word	0x0800af34
 80035e8:	20000484 	.word	0x20000484
 80035ec:	20000958 	.word	0x20000958
 80035f0:	0800af82 	.word	0x0800af82
 80035f4:	0800af8e 	.word	0x0800af8e
 80035f8:	0800af9b 	.word	0x0800af9b
 80035fc:	20000750 	.word	0x20000750
 8003600:	20000730 	.word	0x20000730
 8003604:	200006d0 	.word	0x200006d0

08003608 <Error_Handler>:
 8003608:	b672      	cpsid	i
 800360a:	e7fe      	b.n	800360a <Error_Handler+0x2>

0800360c <close>:
 800360c:	2808      	cmp	r0, #8
 800360e:	b5f8      	push	{r3, r4, r5, r6, r7, lr}
 8003610:	4604      	mov	r4, r0
 8003612:	d82d      	bhi.n	8003670 <close+0x64>
 8003614:	0147      	lsls	r7, r0, #5
 8003616:	f107 0608 	add.w	r6, r7, #8
 800361a:	f507 7784 	add.w	r7, r7, #264	; 0x108
 800361e:	2110      	movs	r1, #16
 8003620:	4638      	mov	r0, r7
 8003622:	f001 f87f 	bl	8004724 <WIZCHIP_WRITE>
 8003626:	4638      	mov	r0, r7
 8003628:	f001 f84e 	bl	80046c8 <WIZCHIP_READ>
 800362c:	4605      	mov	r5, r0
 800362e:	2800      	cmp	r0, #0
 8003630:	d1f9      	bne.n	8003626 <close+0x1a>
 8003632:	211f      	movs	r1, #31
 8003634:	f506 7000 	add.w	r0, r6, #512	; 0x200
 8003638:	f001 f874 	bl	8004724 <WIZCHIP_WRITE>
 800363c:	2301      	movs	r3, #1
 800363e:	40a3      	lsls	r3, r4
 8003640:	43db      	mvns	r3, r3
 8003642:	490d      	ldr	r1, [pc, #52]	; (8003678 <close+0x6c>)
 8003644:	b21b      	sxth	r3, r3
 8003646:	880a      	ldrh	r2, [r1, #0]
 8003648:	f506 7640 	add.w	r6, r6, #768	; 0x300
 800364c:	401a      	ands	r2, r3
 800364e:	800a      	strh	r2, [r1, #0]
 8003650:	4a0a      	ldr	r2, [pc, #40]	; (800367c <close+0x70>)
 8003652:	8811      	ldrh	r1, [r2, #0]
 8003654:	400b      	ands	r3, r1
 8003656:	8013      	strh	r3, [r2, #0]
 8003658:	4b09      	ldr	r3, [pc, #36]	; (8003680 <close+0x74>)
 800365a:	f823 5014 	strh.w	r5, [r3, r4, lsl #1]
 800365e:	4b09      	ldr	r3, [pc, #36]	; (8003684 <close+0x78>)
 8003660:	551d      	strb	r5, [r3, r4]
 8003662:	4630      	mov	r0, r6
 8003664:	f001 f830 	bl	80046c8 <WIZCHIP_READ>
 8003668:	2800      	cmp	r0, #0
 800366a:	d1fa      	bne.n	8003662 <close+0x56>
 800366c:	2001      	movs	r0, #1
 800366e:	bdf8      	pop	{r3, r4, r5, r6, r7, pc}
 8003670:	f04f 30ff 	mov.w	r0, #4294967295	; 0xffffffff
 8003674:	e7fb      	b.n	800366e <close+0x62>
 8003676:	bf00      	nop
 8003678:	20000556 	.word	0x20000556
 800367c:	20000558 	.word	0x20000558
 8003680:	20000562 	.word	0x20000562
 8003684:	2000055a 	.word	0x2000055a

08003688 <socket>:
 8003688:	2808      	cmp	r0, #8
 800368a:	e92d 41f3 	stmdb	sp!, {r0, r1, r4, r5, r6, r7, r8, lr}
 800368e:	4604      	mov	r4, r0
 8003690:	4688      	mov	r8, r1
 8003692:	4617      	mov	r7, r2
 8003694:	461d      	mov	r5, r3
 8003696:	d87c      	bhi.n	8003792 <socket+0x10a>
 8003698:	2901      	cmp	r1, #1
 800369a:	d005      	beq.n	80036a8 <socket+0x20>
 800369c:	1e8b      	subs	r3, r1, #2
 800369e:	2b02      	cmp	r3, #2
 80036a0:	d910      	bls.n	80036c4 <socket+0x3c>
 80036a2:	f06f 0004 	mvn.w	r0, #4
 80036a6:	e00a      	b.n	80036be <socket+0x36>
 80036a8:	2204      	movs	r2, #4
 80036aa:	f44f 6070 	mov.w	r0, #3840	; 0xf00
 80036ae:	eb0d 0102 	add.w	r1, sp, r2
 80036b2:	f001 f869 	bl	8004788 <WIZCHIP_READ_BUF>
 80036b6:	9b01      	ldr	r3, [sp, #4]
 80036b8:	b923      	cbnz	r3, 80036c4 <socket+0x3c>
 80036ba:	f06f 0002 	mvn.w	r0, #2
 80036be:	b002      	add	sp, #8
 80036c0:	e8bd 81f0 	ldmia.w	sp!, {r4, r5, r6, r7, r8, pc}
 80036c4:	0768      	lsls	r0, r5, #29
 80036c6:	d457      	bmi.n	8003778 <socket+0xf0>
 80036c8:	b12d      	cbz	r5, 80036d6 <socket+0x4e>
 80036ca:	f1b8 0f01 	cmp.w	r8, #1
 80036ce:	d050      	beq.n	8003772 <socket+0xea>
 80036d0:	f1b8 0f02 	cmp.w	r8, #2
 80036d4:	d053      	beq.n	800377e <socket+0xf6>
 80036d6:	4620      	mov	r0, r4
 80036d8:	0166      	lsls	r6, r4, #5
 80036da:	f7ff ff97 	bl	800360c <close>
 80036de:	3608      	adds	r6, #8
 80036e0:	f025 010f 	bic.w	r1, r5, #15
 80036e4:	4630      	mov	r0, r6
 80036e6:	ea41 0108 	orr.w	r1, r1, r8
 80036ea:	f001 f81b 	bl	8004724 <WIZCHIP_WRITE>
 80036ee:	b96f      	cbnz	r7, 800370c <socket+0x84>
 80036f0:	f64f 71f0 	movw	r1, #65520	; 0xfff0
 80036f4:	4a28      	ldr	r2, [pc, #160]	; (8003798 <socket+0x110>)
 80036f6:	8817      	ldrh	r7, [r2, #0]
 80036f8:	1c7b      	adds	r3, r7, #1
 80036fa:	b29b      	uxth	r3, r3
 80036fc:	428b      	cmp	r3, r1
 80036fe:	bf05      	ittet	eq
 8003700:	f44f 4340 	moveq.w	r3, #49152	; 0xc000
 8003704:	f64f 77ef 	movweq	r7, #65519	; 0xffef
 8003708:	8013      	strhne	r3, [r2, #0]
 800370a:	8013      	strheq	r3, [r2, #0]
 800370c:	0a39      	lsrs	r1, r7, #8
 800370e:	f506 6080 	add.w	r0, r6, #1024	; 0x400
 8003712:	f001 f807 	bl	8004724 <WIZCHIP_WRITE>
 8003716:	b2f9      	uxtb	r1, r7
 8003718:	f506 60a0 	add.w	r0, r6, #1280	; 0x500
 800371c:	f506 7780 	add.w	r7, r6, #256	; 0x100
 8003720:	f001 f800 	bl	8004724 <WIZCHIP_WRITE>
 8003724:	2101      	movs	r1, #1
 8003726:	4638      	mov	r0, r7
 8003728:	f000 fffc 	bl	8004724 <WIZCHIP_WRITE>
 800372c:	4638      	mov	r0, r7
 800372e:	f000 ffcb 	bl	80046c8 <WIZCHIP_READ>
 8003732:	2800      	cmp	r0, #0
 8003734:	d1fa      	bne.n	800372c <socket+0xa4>
 8003736:	2301      	movs	r3, #1
 8003738:	40a3      	lsls	r3, r4
 800373a:	43db      	mvns	r3, r3
 800373c:	4917      	ldr	r1, [pc, #92]	; (800379c <socket+0x114>)
 800373e:	b21b      	sxth	r3, r3
 8003740:	880a      	ldrh	r2, [r1, #0]
 8003742:	f005 0501 	and.w	r5, r5, #1
 8003746:	401a      	ands	r2, r3
 8003748:	40a5      	lsls	r5, r4
 800374a:	4315      	orrs	r5, r2
 800374c:	4a14      	ldr	r2, [pc, #80]	; (80037a0 <socket+0x118>)
 800374e:	800d      	strh	r5, [r1, #0]
 8003750:	8811      	ldrh	r1, [r2, #0]
 8003752:	f506 7640 	add.w	r6, r6, #768	; 0x300
 8003756:	400b      	ands	r3, r1
 8003758:	8013      	strh	r3, [r2, #0]
 800375a:	4b12      	ldr	r3, [pc, #72]	; (80037a4 <socket+0x11c>)
 800375c:	f823 0014 	strh.w	r0, [r3, r4, lsl #1]
 8003760:	4b11      	ldr	r3, [pc, #68]	; (80037a8 <socket+0x120>)
 8003762:	5518      	strb	r0, [r3, r4]
 8003764:	4630      	mov	r0, r6
 8003766:	f000 ffaf 	bl	80046c8 <WIZCHIP_READ>
 800376a:	2800      	cmp	r0, #0
 800376c:	d0fa      	beq.n	8003764 <socket+0xdc>
 800376e:	b260      	sxtb	r0, r4
 8003770:	e7a5      	b.n	80036be <socket+0x36>
 8003772:	f015 0f21 	tst.w	r5, #33	; 0x21
 8003776:	d1ae      	bne.n	80036d6 <socket+0x4e>
 8003778:	f06f 0005 	mvn.w	r0, #5
 800377c:	e79f      	b.n	80036be <socket+0x36>
 800377e:	06a9      	lsls	r1, r5, #26
 8003780:	b26b      	sxtb	r3, r5
 8003782:	d501      	bpl.n	8003788 <socket+0x100>
 8003784:	2b00      	cmp	r3, #0
 8003786:	daf7      	bge.n	8003778 <socket+0xf0>
 8003788:	06ea      	lsls	r2, r5, #27
 800378a:	d5a4      	bpl.n	80036d6 <socket+0x4e>
 800378c:	2b00      	cmp	r3, #0
 800378e:	dba2      	blt.n	80036d6 <socket+0x4e>
 8003790:	e7f2      	b.n	8003778 <socket+0xf0>
 8003792:	f04f 30ff 	mov.w	r0, #4294967295	; 0xffffffff
 8003796:	e792      	b.n	80036be <socket+0x36>
 8003798:	20000136 	.word	0x20000136
 800379c:	20000556 	.word	0x20000556
 80037a0:	20000558 	.word	0x20000558
 80037a4:	20000562 	.word	0x20000562
 80037a8:	2000055a 	.word	0x2000055a

080037ac <connect>:
 80037ac:	2808      	cmp	r0, #8
 80037ae:	e92d 41f0 	stmdb	sp!, {r4, r5, r6, r7, r8, lr}
 80037b2:	4606      	mov	r6, r0
 80037b4:	460d      	mov	r5, r1
 80037b6:	4617      	mov	r7, r2
 80037b8:	d85d      	bhi.n	8003876 <connect+0xca>
 80037ba:	0144      	lsls	r4, r0, #5
 80037bc:	3408      	adds	r4, #8
 80037be:	4620      	mov	r0, r4
 80037c0:	f000 ff82 	bl	80046c8 <WIZCHIP_READ>
 80037c4:	f000 000f 	and.w	r0, r0, #15
 80037c8:	2801      	cmp	r0, #1
 80037ca:	d157      	bne.n	800387c <connect+0xd0>
 80037cc:	f504 7840 	add.w	r8, r4, #768	; 0x300
 80037d0:	4640      	mov	r0, r8
 80037d2:	f000 ff79 	bl	80046c8 <WIZCHIP_READ>
 80037d6:	2813      	cmp	r0, #19
 80037d8:	d153      	bne.n	8003882 <connect+0xd6>
 80037da:	782b      	ldrb	r3, [r5, #0]
 80037dc:	786a      	ldrb	r2, [r5, #1]
 80037de:	eb02 2203 	add.w	r2, r2, r3, lsl #8
 80037e2:	78ab      	ldrb	r3, [r5, #2]
 80037e4:	eb03 2202 	add.w	r2, r3, r2, lsl #8
 80037e8:	78eb      	ldrb	r3, [r5, #3]
 80037ea:	3b01      	subs	r3, #1
 80037ec:	eb03 2302 	add.w	r3, r3, r2, lsl #8
 80037f0:	3303      	adds	r3, #3
 80037f2:	d849      	bhi.n	8003888 <connect+0xdc>
 80037f4:	2f00      	cmp	r7, #0
 80037f6:	d04a      	beq.n	800388e <connect+0xe2>
 80037f8:	2204      	movs	r2, #4
 80037fa:	4629      	mov	r1, r5
 80037fc:	f504 6040 	add.w	r0, r4, #3072	; 0xc00
 8003800:	f000 fffc 	bl	80047fc <WIZCHIP_WRITE_BUF>
 8003804:	0a39      	lsrs	r1, r7, #8
 8003806:	f504 5080 	add.w	r0, r4, #4096	; 0x1000
 800380a:	f000 ff8b 	bl	8004724 <WIZCHIP_WRITE>
 800380e:	f504 7580 	add.w	r5, r4, #256	; 0x100
 8003812:	b2f9      	uxtb	r1, r7
 8003814:	f504 5088 	add.w	r0, r4, #4352	; 0x1100
 8003818:	f000 ff84 	bl	8004724 <WIZCHIP_WRITE>
 800381c:	2104      	movs	r1, #4
 800381e:	4628      	mov	r0, r5
 8003820:	f000 ff80 	bl	8004724 <WIZCHIP_WRITE>
 8003824:	4628      	mov	r0, r5
 8003826:	f000 ff4f 	bl	80046c8 <WIZCHIP_READ>
 800382a:	2800      	cmp	r0, #0
 800382c:	d1fa      	bne.n	8003824 <connect+0x78>
 800382e:	4b19      	ldr	r3, [pc, #100]	; (8003894 <connect+0xe8>)
 8003830:	881b      	ldrh	r3, [r3, #0]
 8003832:	fa43 f606 	asr.w	r6, r3, r6
 8003836:	07f2      	lsls	r2, r6, #31
 8003838:	d413      	bmi.n	8003862 <connect+0xb6>
 800383a:	f504 7400 	add.w	r4, r4, #512	; 0x200
 800383e:	4640      	mov	r0, r8
 8003840:	f000 ff42 	bl	80046c8 <WIZCHIP_READ>
 8003844:	2817      	cmp	r0, #23
 8003846:	d101      	bne.n	800384c <connect+0xa0>
 8003848:	2001      	movs	r0, #1
 800384a:	e00a      	b.n	8003862 <connect+0xb6>
 800384c:	4620      	mov	r0, r4
 800384e:	f000 ff3b 	bl	80046c8 <WIZCHIP_READ>
 8003852:	0703      	lsls	r3, r0, #28
 8003854:	d507      	bpl.n	8003866 <connect+0xba>
 8003856:	4620      	mov	r0, r4
 8003858:	2108      	movs	r1, #8
 800385a:	f000 ff63 	bl	8004724 <WIZCHIP_WRITE>
 800385e:	f06f 000c 	mvn.w	r0, #12
 8003862:	e8bd 81f0 	ldmia.w	sp!, {r4, r5, r6, r7, r8, pc}
 8003866:	4640      	mov	r0, r8
 8003868:	f000 ff2e 	bl	80046c8 <WIZCHIP_READ>
 800386c:	2800      	cmp	r0, #0
 800386e:	d1e6      	bne.n	800383e <connect+0x92>
 8003870:	f06f 0003 	mvn.w	r0, #3
 8003874:	e7f5      	b.n	8003862 <connect+0xb6>
 8003876:	f04f 30ff 	mov.w	r0, #4294967295	; 0xffffffff
 800387a:	e7f2      	b.n	8003862 <connect+0xb6>
 800387c:	f06f 0004 	mvn.w	r0, #4
 8003880:	e7ef      	b.n	8003862 <connect+0xb6>
 8003882:	f06f 0002 	mvn.w	r0, #2
 8003886:	e7ec      	b.n	8003862 <connect+0xb6>
 8003888:	f06f 000b 	mvn.w	r0, #11
 800388c:	e7e9      	b.n	8003862 <connect+0xb6>
 800388e:	f06f 000a 	mvn.w	r0, #10
 8003892:	e7e6      	b.n	8003862 <connect+0xb6>
 8003894:	20000556 	.word	0x20000556

08003898 <send>:
 8003898:	2808      	cmp	r0, #8
 800389a:	e92d 4ff8 	stmdb	sp!, {r3, r4, r5, r6, r7, r8, r9, sl, fp, lr}
 800389e:	4606      	mov	r6, r0
 80038a0:	4688      	mov	r8, r1
 80038a2:	4614      	mov	r4, r2
 80038a4:	d874      	bhi.n	8003990 <send+0xf8>
 80038a6:	0145      	lsls	r5, r0, #5
 80038a8:	3508      	adds	r5, #8
 80038aa:	4628      	mov	r0, r5
 80038ac:	f000 ff0c 	bl	80046c8 <WIZCHIP_READ>
 80038b0:	f000 000f 	and.w	r0, r0, #15
 80038b4:	2801      	cmp	r0, #1
 80038b6:	d16e      	bne.n	8003996 <send+0xfe>
 80038b8:	2c00      	cmp	r4, #0
 80038ba:	d06f      	beq.n	800399c <send+0x104>
 80038bc:	f505 7940 	add.w	r9, r5, #768	; 0x300
 80038c0:	4648      	mov	r0, r9
 80038c2:	f000 ff01 	bl	80046c8 <WIZCHIP_READ>
 80038c6:	2817      	cmp	r0, #23
 80038c8:	d001      	beq.n	80038ce <send+0x36>
 80038ca:	281c      	cmp	r0, #28
 80038cc:	d132      	bne.n	8003934 <send+0x9c>
 80038ce:	4f35      	ldr	r7, [pc, #212]	; (80039a4 <send+0x10c>)
 80038d0:	883b      	ldrh	r3, [r7, #0]
 80038d2:	4133      	asrs	r3, r6
 80038d4:	07d9      	lsls	r1, r3, #31
 80038d6:	d511      	bpl.n	80038fc <send+0x64>
 80038d8:	f505 7a00 	add.w	sl, r5, #512	; 0x200
 80038dc:	4650      	mov	r0, sl
 80038de:	f000 fef3 	bl	80046c8 <WIZCHIP_READ>
 80038e2:	06c2      	lsls	r2, r0, #27
 80038e4:	d529      	bpl.n	800393a <send+0xa2>
 80038e6:	2110      	movs	r1, #16
 80038e8:	4650      	mov	r0, sl
 80038ea:	f000 ff1b 	bl	8004724 <WIZCHIP_WRITE>
 80038ee:	2301      	movs	r3, #1
 80038f0:	fa03 f206 	lsl.w	r2, r3, r6
 80038f4:	883b      	ldrh	r3, [r7, #0]
 80038f6:	ea23 0302 	bic.w	r3, r3, r2
 80038fa:	803b      	strh	r3, [r7, #0]
 80038fc:	f505 50f8 	add.w	r0, r5, #7936	; 0x1f00
 8003900:	f000 fee2 	bl	80046c8 <WIZCHIP_READ>
 8003904:	0283      	lsls	r3, r0, #10
 8003906:	b298      	uxth	r0, r3
 8003908:	f04f 0a01 	mov.w	sl, #1
 800390c:	4284      	cmp	r4, r0
 800390e:	bf28      	it	cs
 8003910:	4604      	movcs	r4, r0
 8003912:	fa0a fa06 	lsl.w	sl, sl, r6
 8003916:	4630      	mov	r0, r6
 8003918:	f000 ffaa 	bl	8004870 <getSn_TX_FSR>
 800391c:	4683      	mov	fp, r0
 800391e:	4648      	mov	r0, r9
 8003920:	f000 fed2 	bl	80046c8 <WIZCHIP_READ>
 8003924:	2817      	cmp	r0, #23
 8003926:	4b20      	ldr	r3, [pc, #128]	; (80039a8 <send+0x110>)
 8003928:	d012      	beq.n	8003950 <send+0xb8>
 800392a:	281c      	cmp	r0, #28
 800392c:	d010      	beq.n	8003950 <send+0xb8>
 800392e:	4630      	mov	r0, r6
 8003930:	f7ff fe6c 	bl	800360c <close>
 8003934:	f06f 0006 	mvn.w	r0, #6
 8003938:	e002      	b.n	8003940 <send+0xa8>
 800393a:	0703      	lsls	r3, r0, #28
 800393c:	d402      	bmi.n	8003944 <send+0xac>
 800393e:	2000      	movs	r0, #0
 8003940:	e8bd 8ff8 	ldmia.w	sp!, {r3, r4, r5, r6, r7, r8, r9, sl, fp, pc}
 8003944:	4630      	mov	r0, r6
 8003946:	f7ff fe61 	bl	800360c <close>
 800394a:	f06f 000c 	mvn.w	r0, #12
 800394e:	e7f7      	b.n	8003940 <send+0xa8>
 8003950:	881a      	ldrh	r2, [r3, #0]
 8003952:	ea12 0f0a 	tst.w	r2, sl
 8003956:	d018      	beq.n	800398a <send+0xf2>
 8003958:	455c      	cmp	r4, fp
 800395a:	d8f0      	bhi.n	800393e <send+0xa6>
 800395c:	4641      	mov	r1, r8
 800395e:	4630      	mov	r0, r6
 8003960:	4622      	mov	r2, r4
 8003962:	f505 7580 	add.w	r5, r5, #256	; 0x100
 8003966:	f000 ffc5 	bl	80048f4 <wiz_send_data>
 800396a:	2120      	movs	r1, #32
 800396c:	4628      	mov	r0, r5
 800396e:	f000 fed9 	bl	8004724 <WIZCHIP_WRITE>
 8003972:	4628      	mov	r0, r5
 8003974:	f000 fea8 	bl	80046c8 <WIZCHIP_READ>
 8003978:	2800      	cmp	r0, #0
 800397a:	d1fa      	bne.n	8003972 <send+0xda>
 800397c:	883b      	ldrh	r3, [r7, #0]
 800397e:	4620      	mov	r0, r4
 8003980:	ea4a 0a03 	orr.w	sl, sl, r3
 8003984:	f8a7 a000 	strh.w	sl, [r7]
 8003988:	e7da      	b.n	8003940 <send+0xa8>
 800398a:	455c      	cmp	r4, fp
 800398c:	d8c3      	bhi.n	8003916 <send+0x7e>
 800398e:	e7e5      	b.n	800395c <send+0xc4>
 8003990:	f04f 30ff 	mov.w	r0, #4294967295	; 0xffffffff
 8003994:	e7d4      	b.n	8003940 <send+0xa8>
 8003996:	f06f 0004 	mvn.w	r0, #4
 800399a:	e7d1      	b.n	8003940 <send+0xa8>
 800399c:	f06f 000d 	mvn.w	r0, #13
 80039a0:	e7ce      	b.n	8003940 <send+0xa8>
 80039a2:	bf00      	nop
 80039a4:	20000558 	.word	0x20000558
 80039a8:	20000556 	.word	0x20000556

080039ac <sendto>:
 80039ac:	e92d 4ff8 	stmdb	sp!, {r3, r4, r5, r6, r7, r8, r9, sl, fp, lr}
 80039b0:	2808      	cmp	r0, #8
 80039b2:	4606      	mov	r6, r0
 80039b4:	4688      	mov	r8, r1
 80039b6:	4614      	mov	r4, r2
 80039b8:	461f      	mov	r7, r3
 80039ba:	f8bd a028 	ldrh.w	sl, [sp, #40]	; 0x28
 80039be:	f200 8097 	bhi.w	8003af0 <sendto+0x144>
 80039c2:	0145      	lsls	r5, r0, #5
 80039c4:	3508      	adds	r5, #8
 80039c6:	4628      	mov	r0, r5
 80039c8:	f000 fe7e 	bl	80046c8 <WIZCHIP_READ>
 80039cc:	f000 000f 	and.w	r0, r0, #15
 80039d0:	3802      	subs	r0, #2
 80039d2:	2802      	cmp	r0, #2
 80039d4:	f200 808f 	bhi.w	8003af6 <sendto+0x14a>
 80039d8:	2c00      	cmp	r4, #0
 80039da:	f000 808f 	beq.w	8003afc <sendto+0x150>
 80039de:	783b      	ldrb	r3, [r7, #0]
 80039e0:	787a      	ldrb	r2, [r7, #1]
 80039e2:	eb02 2203 	add.w	r2, r2, r3, lsl #8
 80039e6:	78bb      	ldrb	r3, [r7, #2]
 80039e8:	eb03 2202 	add.w	r2, r3, r2, lsl #8
 80039ec:	78fb      	ldrb	r3, [r7, #3]
 80039ee:	eb03 2302 	add.w	r3, r3, r2, lsl #8
 80039f2:	2b00      	cmp	r3, #0
 80039f4:	d03c      	beq.n	8003a70 <sendto+0xc4>
 80039f6:	f1ba 0f00 	cmp.w	sl, #0
 80039fa:	d041      	beq.n	8003a80 <sendto+0xd4>
 80039fc:	f505 7940 	add.w	r9, r5, #768	; 0x300
 8003a00:	4648      	mov	r0, r9
 8003a02:	f000 fe61 	bl	80046c8 <WIZCHIP_READ>
 8003a06:	2842      	cmp	r0, #66	; 0x42
 8003a08:	d142      	bne.n	8003a90 <sendto+0xe4>
 8003a0a:	2204      	movs	r2, #4
 8003a0c:	4639      	mov	r1, r7
 8003a0e:	f505 6040 	add.w	r0, r5, #3072	; 0xc00
 8003a12:	f000 fef3 	bl	80047fc <WIZCHIP_WRITE_BUF>
 8003a16:	ea4f 211a 	mov.w	r1, sl, lsr #8
 8003a1a:	f505 5080 	add.w	r0, r5, #4096	; 0x1000
 8003a1e:	f000 fe81 	bl	8004724 <WIZCHIP_WRITE>
 8003a22:	fa5f f18a 	uxtb.w	r1, sl
 8003a26:	f505 5088 	add.w	r0, r5, #4352	; 0x1100
 8003a2a:	f000 fe7b 	bl	8004724 <WIZCHIP_WRITE>
 8003a2e:	f505 50f8 	add.w	r0, r5, #7936	; 0x1f00
 8003a32:	f000 fe49 	bl	80046c8 <WIZCHIP_READ>
 8003a36:	0280      	lsls	r0, r0, #10
 8003a38:	b280      	uxth	r0, r0
 8003a3a:	f04f 0a01 	mov.w	sl, #1
 8003a3e:	4284      	cmp	r4, r0
 8003a40:	bf28      	it	cs
 8003a42:	4604      	movcs	r4, r0
 8003a44:	f8df b0c0 	ldr.w	fp, [pc, #192]	; 8003b08 <sendto+0x15c>
 8003a48:	fa0a fa06 	lsl.w	sl, sl, r6
 8003a4c:	4630      	mov	r0, r6
 8003a4e:	f000 ff0f 	bl	8004870 <getSn_TX_FSR>
 8003a52:	4607      	mov	r7, r0
 8003a54:	4648      	mov	r0, r9
 8003a56:	f000 fe37 	bl	80046c8 <WIZCHIP_READ>
 8003a5a:	2800      	cmp	r0, #0
 8003a5c:	d051      	beq.n	8003b02 <sendto+0x156>
 8003a5e:	f8bb 3000 	ldrh.w	r3, [fp]
 8003a62:	ea13 0f0a 	tst.w	r3, sl
 8003a66:	d01a      	beq.n	8003a9e <sendto+0xf2>
 8003a68:	42bc      	cmp	r4, r7
 8003a6a:	d91a      	bls.n	8003aa2 <sendto+0xf6>
 8003a6c:	2000      	movs	r0, #0
 8003a6e:	e034      	b.n	8003ada <sendto+0x12e>
 8003a70:	4628      	mov	r0, r5
 8003a72:	f000 fe29 	bl	80046c8 <WIZCHIP_READ>
 8003a76:	0740      	lsls	r0, r0, #29
 8003a78:	d4bd      	bmi.n	80039f6 <sendto+0x4a>
 8003a7a:	f06f 000b 	mvn.w	r0, #11
 8003a7e:	e02c      	b.n	8003ada <sendto+0x12e>
 8003a80:	4628      	mov	r0, r5
 8003a82:	f000 fe21 	bl	80046c8 <WIZCHIP_READ>
 8003a86:	0741      	lsls	r1, r0, #29
 8003a88:	d4b8      	bmi.n	80039fc <sendto+0x50>
 8003a8a:	f06f 000a 	mvn.w	r0, #10
 8003a8e:	e024      	b.n	8003ada <sendto+0x12e>
 8003a90:	f000 00ef 	and.w	r0, r0, #239	; 0xef
 8003a94:	2822      	cmp	r0, #34	; 0x22
 8003a96:	d0b8      	beq.n	8003a0a <sendto+0x5e>
 8003a98:	f06f 0006 	mvn.w	r0, #6
 8003a9c:	e01d      	b.n	8003ada <sendto+0x12e>
 8003a9e:	42bc      	cmp	r4, r7
 8003aa0:	d8d4      	bhi.n	8003a4c <sendto+0xa0>
 8003aa2:	4630      	mov	r0, r6
 8003aa4:	4641      	mov	r1, r8
 8003aa6:	4622      	mov	r2, r4
 8003aa8:	f505 7680 	add.w	r6, r5, #256	; 0x100
 8003aac:	f000 ff22 	bl	80048f4 <wiz_send_data>
 8003ab0:	2120      	movs	r1, #32
 8003ab2:	4630      	mov	r0, r6
 8003ab4:	f000 fe36 	bl	8004724 <WIZCHIP_WRITE>
 8003ab8:	4630      	mov	r0, r6
 8003aba:	f000 fe05 	bl	80046c8 <WIZCHIP_READ>
 8003abe:	2800      	cmp	r0, #0
 8003ac0:	d1fa      	bne.n	8003ab8 <sendto+0x10c>
 8003ac2:	f505 7500 	add.w	r5, r5, #512	; 0x200
 8003ac6:	4628      	mov	r0, r5
 8003ac8:	f000 fdfe 	bl	80046c8 <WIZCHIP_READ>
 8003acc:	06c2      	lsls	r2, r0, #27
 8003ace:	d506      	bpl.n	8003ade <sendto+0x132>
 8003ad0:	4628      	mov	r0, r5
 8003ad2:	2110      	movs	r1, #16
 8003ad4:	f000 fe26 	bl	8004724 <WIZCHIP_WRITE>
 8003ad8:	4620      	mov	r0, r4
 8003ada:	e8bd 8ff8 	ldmia.w	sp!, {r3, r4, r5, r6, r7, r8, r9, sl, fp, pc}
 8003ade:	0703      	lsls	r3, r0, #28
 8003ae0:	d5f1      	bpl.n	8003ac6 <sendto+0x11a>
 8003ae2:	4628      	mov	r0, r5
 8003ae4:	2108      	movs	r1, #8
 8003ae6:	f000 fe1d 	bl	8004724 <WIZCHIP_WRITE>
 8003aea:	f06f 000c 	mvn.w	r0, #12
 8003aee:	e7f4      	b.n	8003ada <sendto+0x12e>
 8003af0:	f04f 30ff 	mov.w	r0, #4294967295	; 0xffffffff
 8003af4:	e7f1      	b.n	8003ada <sendto+0x12e>
 8003af6:	f06f 0004 	mvn.w	r0, #4
 8003afa:	e7ee      	b.n	8003ada <sendto+0x12e>
 8003afc:	f06f 000d 	mvn.w	r0, #13
 8003b00:	e7eb      	b.n	8003ada <sendto+0x12e>
 8003b02:	f06f 0003 	mvn.w	r0, #3
 8003b06:	e7e8      	b.n	8003ada <sendto+0x12e>
 8003b08:	20000556 	.word	0x20000556

08003b0c <recvfrom>:
 8003b0c:	e92d 4ff0 	stmdb	sp!, {r4, r5, r6, r7, r8, r9, sl, fp, lr}
 8003b10:	2808      	cmp	r0, #8
 8003b12:	4604      	mov	r4, r0
 8003b14:	468a      	mov	sl, r1
 8003b16:	4691      	mov	r9, r2
 8003b18:	4698      	mov	r8, r3
 8003b1a:	b085      	sub	sp, #20
 8003b1c:	f200 80e8 	bhi.w	8003cf0 <recvfrom+0x1e4>
 8003b20:	0147      	lsls	r7, r0, #5
 8003b22:	3708      	adds	r7, #8
 8003b24:	4638      	mov	r0, r7
 8003b26:	f000 fdcf 	bl	80046c8 <WIZCHIP_READ>
 8003b2a:	f000 020f 	and.w	r2, r0, #15
 8003b2e:	3a02      	subs	r2, #2
 8003b30:	2a02      	cmp	r2, #2
 8003b32:	4683      	mov	fp, r0
 8003b34:	f200 80df 	bhi.w	8003cf6 <recvfrom+0x1ea>
 8003b38:	f1b9 0f00 	cmp.w	r9, #0
 8003b3c:	f000 80de 	beq.w	8003cfc <recvfrom+0x1f0>
 8003b40:	4e71      	ldr	r6, [pc, #452]	; (8003d08 <recvfrom+0x1fc>)
 8003b42:	f836 2014 	ldrh.w	r2, [r6, r4, lsl #1]
 8003b46:	2a00      	cmp	r2, #0
 8003b48:	d17a      	bne.n	8003c40 <recvfrom+0x134>
 8003b4a:	2101      	movs	r1, #1
 8003b4c:	f507 7340 	add.w	r3, r7, #768	; 0x300
 8003b50:	40a1      	lsls	r1, r4
 8003b52:	9300      	str	r3, [sp, #0]
 8003b54:	4620      	mov	r0, r4
 8003b56:	9101      	str	r1, [sp, #4]
 8003b58:	f000 feab 	bl	80048b2 <getSn_RX_RSR>
 8003b5c:	4605      	mov	r5, r0
 8003b5e:	9800      	ldr	r0, [sp, #0]
 8003b60:	f000 fdb2 	bl	80046c8 <WIZCHIP_READ>
 8003b64:	2800      	cmp	r0, #0
 8003b66:	f000 80cc 	beq.w	8003d02 <recvfrom+0x1f6>
 8003b6a:	4b68      	ldr	r3, [pc, #416]	; (8003d0c <recvfrom+0x200>)
 8003b6c:	9901      	ldr	r1, [sp, #4]
 8003b6e:	881a      	ldrh	r2, [r3, #0]
 8003b70:	420a      	tst	r2, r1
 8003b72:	d002      	beq.n	8003b7a <recvfrom+0x6e>
 8003b74:	b91d      	cbnz	r5, 8003b7e <recvfrom+0x72>
 8003b76:	4628      	mov	r0, r5
 8003b78:	e089      	b.n	8003c8e <recvfrom+0x182>
 8003b7a:	2d00      	cmp	r5, #0
 8003b7c:	d0ea      	beq.n	8003b54 <recvfrom+0x48>
 8003b7e:	f00b 0007 	and.w	r0, fp, #7
 8003b82:	2803      	cmp	r0, #3
 8003b84:	f507 7780 	add.w	r7, r7, #256	; 0x100
 8003b88:	f000 8084 	beq.w	8003c94 <recvfrom+0x188>
 8003b8c:	2804      	cmp	r0, #4
 8003b8e:	d059      	beq.n	8003c44 <recvfrom+0x138>
 8003b90:	2802      	cmp	r0, #2
 8003b92:	f040 80a6 	bne.w	8003ce2 <recvfrom+0x1d6>
 8003b96:	f836 3014 	ldrh.w	r3, [r6, r4, lsl #1]
 8003b9a:	bb8b      	cbnz	r3, 8003c00 <recvfrom+0xf4>
 8003b9c:	2208      	movs	r2, #8
 8003b9e:	4620      	mov	r0, r4
 8003ba0:	eb0d 0102 	add.w	r1, sp, r2
 8003ba4:	f000 fed3 	bl	800494e <wiz_recv_data>
 8003ba8:	2140      	movs	r1, #64	; 0x40
 8003baa:	4638      	mov	r0, r7
 8003bac:	f000 fdba 	bl	8004724 <WIZCHIP_WRITE>
 8003bb0:	4638      	mov	r0, r7
 8003bb2:	f000 fd89 	bl	80046c8 <WIZCHIP_READ>
 8003bb6:	2800      	cmp	r0, #0
 8003bb8:	d1fa      	bne.n	8003bb0 <recvfrom+0xa4>
 8003bba:	f89d 3008 	ldrb.w	r3, [sp, #8]
 8003bbe:	f89d 200c 	ldrb.w	r2, [sp, #12]
 8003bc2:	f888 3000 	strb.w	r3, [r8]
 8003bc6:	f89d 3009 	ldrb.w	r3, [sp, #9]
 8003bca:	f888 3001 	strb.w	r3, [r8, #1]
 8003bce:	f89d 300a 	ldrb.w	r3, [sp, #10]
 8003bd2:	f888 3002 	strb.w	r3, [r8, #2]
 8003bd6:	f89d 300b 	ldrb.w	r3, [sp, #11]
 8003bda:	f888 3003 	strb.w	r3, [r8, #3]
 8003bde:	f89d 300d 	ldrb.w	r3, [sp, #13]
 8003be2:	eb03 2302 	add.w	r3, r3, r2, lsl #8
 8003be6:	9a0e      	ldr	r2, [sp, #56]	; 0x38
 8003be8:	8013      	strh	r3, [r2, #0]
 8003bea:	f89d 200e 	ldrb.w	r2, [sp, #14]
 8003bee:	f89d 300f 	ldrb.w	r3, [sp, #15]
 8003bf2:	eb03 2302 	add.w	r3, r3, r2, lsl #8
 8003bf6:	f826 3014 	strh.w	r3, [r6, r4, lsl #1]
 8003bfa:	2280      	movs	r2, #128	; 0x80
 8003bfc:	4b44      	ldr	r3, [pc, #272]	; (8003d10 <recvfrom+0x204>)
 8003bfe:	551a      	strb	r2, [r3, r4]
 8003c00:	f836 5014 	ldrh.w	r5, [r6, r4, lsl #1]
 8003c04:	4651      	mov	r1, sl
 8003c06:	454d      	cmp	r5, r9
 8003c08:	bf28      	it	cs
 8003c0a:	464d      	movcs	r5, r9
 8003c0c:	4620      	mov	r0, r4
 8003c0e:	462a      	mov	r2, r5
 8003c10:	f000 fe9d 	bl	800494e <wiz_recv_data>
 8003c14:	2140      	movs	r1, #64	; 0x40
 8003c16:	4638      	mov	r0, r7
 8003c18:	f000 fd84 	bl	8004724 <WIZCHIP_WRITE>
 8003c1c:	4638      	mov	r0, r7
 8003c1e:	f000 fd53 	bl	80046c8 <WIZCHIP_READ>
 8003c22:	2800      	cmp	r0, #0
 8003c24:	d1fa      	bne.n	8003c1c <recvfrom+0x110>
 8003c26:	f836 3014 	ldrh.w	r3, [r6, r4, lsl #1]
 8003c2a:	4a39      	ldr	r2, [pc, #228]	; (8003d10 <recvfrom+0x204>)
 8003c2c:	1b5b      	subs	r3, r3, r5
 8003c2e:	b29b      	uxth	r3, r3
 8003c30:	f826 3014 	strh.w	r3, [r6, r4, lsl #1]
 8003c34:	b113      	cbz	r3, 8003c3c <recvfrom+0x130>
 8003c36:	5d10      	ldrb	r0, [r2, r4]
 8003c38:	f040 0001 	orr.w	r0, r0, #1
 8003c3c:	5510      	strb	r0, [r2, r4]
 8003c3e:	e79a      	b.n	8003b76 <recvfrom+0x6a>
 8003c40:	2500      	movs	r5, #0
 8003c42:	e79c      	b.n	8003b7e <recvfrom+0x72>
 8003c44:	f836 3014 	ldrh.w	r3, [r6, r4, lsl #1]
 8003c48:	2b00      	cmp	r3, #0
 8003c4a:	d1d9      	bne.n	8003c00 <recvfrom+0xf4>
 8003c4c:	4620      	mov	r0, r4
 8003c4e:	a902      	add	r1, sp, #8
 8003c50:	2202      	movs	r2, #2
 8003c52:	f000 fe7c 	bl	800494e <wiz_recv_data>
 8003c56:	2140      	movs	r1, #64	; 0x40
 8003c58:	4638      	mov	r0, r7
 8003c5a:	f000 fd63 	bl	8004724 <WIZCHIP_WRITE>
 8003c5e:	4638      	mov	r0, r7
 8003c60:	f000 fd32 	bl	80046c8 <WIZCHIP_READ>
 8003c64:	2800      	cmp	r0, #0
 8003c66:	d1fa      	bne.n	8003c5e <recvfrom+0x152>
 8003c68:	f89d 3009 	ldrb.w	r3, [sp, #9]
 8003c6c:	f89d 2008 	ldrb.w	r2, [sp, #8]
 8003c70:	3b02      	subs	r3, #2
 8003c72:	eb03 2302 	add.w	r3, r3, r2, lsl #8
 8003c76:	f240 52ea 	movw	r2, #1514	; 0x5ea
 8003c7a:	b29b      	uxth	r3, r3
 8003c7c:	4293      	cmp	r3, r2
 8003c7e:	f826 3014 	strh.w	r3, [r6, r4, lsl #1]
 8003c82:	d9ba      	bls.n	8003bfa <recvfrom+0xee>
 8003c84:	4620      	mov	r0, r4
 8003c86:	f7ff fcc1 	bl	800360c <close>
 8003c8a:	f46f 707a 	mvn.w	r0, #1000	; 0x3e8
 8003c8e:	b005      	add	sp, #20
 8003c90:	e8bd 8ff0 	ldmia.w	sp!, {r4, r5, r6, r7, r8, r9, sl, fp, pc}
 8003c94:	f836 3014 	ldrh.w	r3, [r6, r4, lsl #1]
 8003c98:	2b00      	cmp	r3, #0
 8003c9a:	d1b1      	bne.n	8003c00 <recvfrom+0xf4>
 8003c9c:	4620      	mov	r0, r4
 8003c9e:	a902      	add	r1, sp, #8
 8003ca0:	2206      	movs	r2, #6
 8003ca2:	f000 fe54 	bl	800494e <wiz_recv_data>
 8003ca6:	2140      	movs	r1, #64	; 0x40
 8003ca8:	4638      	mov	r0, r7
 8003caa:	f000 fd3b 	bl	8004724 <WIZCHIP_WRITE>
 8003cae:	4638      	mov	r0, r7
 8003cb0:	f000 fd0a 	bl	80046c8 <WIZCHIP_READ>
 8003cb4:	2800      	cmp	r0, #0
 8003cb6:	d1fa      	bne.n	8003cae <recvfrom+0x1a2>
 8003cb8:	f89d 3008 	ldrb.w	r3, [sp, #8]
 8003cbc:	f89d 200c 	ldrb.w	r2, [sp, #12]
 8003cc0:	f888 3000 	strb.w	r3, [r8]
 8003cc4:	f89d 3009 	ldrb.w	r3, [sp, #9]
 8003cc8:	f888 3001 	strb.w	r3, [r8, #1]
 8003ccc:	f89d 300a 	ldrb.w	r3, [sp, #10]
 8003cd0:	f888 3002 	strb.w	r3, [r8, #2]
 8003cd4:	f89d 300b 	ldrb.w	r3, [sp, #11]
 8003cd8:	f888 3003 	strb.w	r3, [r8, #3]
 8003cdc:	f89d 300d 	ldrb.w	r3, [sp, #13]
 8003ce0:	e787      	b.n	8003bf2 <recvfrom+0xe6>
 8003ce2:	4629      	mov	r1, r5
 8003ce4:	4620      	mov	r0, r4
 8003ce6:	f000 fe5f 	bl	80049a8 <wiz_recv_ignore>
 8003cea:	f826 5014 	strh.w	r5, [r6, r4, lsl #1]
 8003cee:	e791      	b.n	8003c14 <recvfrom+0x108>
 8003cf0:	f04f 30ff 	mov.w	r0, #4294967295	; 0xffffffff
 8003cf4:	e7cb      	b.n	8003c8e <recvfrom+0x182>
 8003cf6:	f06f 0004 	mvn.w	r0, #4
 8003cfa:	e7c8      	b.n	8003c8e <recvfrom+0x182>
 8003cfc:	f06f 000d 	mvn.w	r0, #13
 8003d00:	e7c5      	b.n	8003c8e <recvfrom+0x182>
 8003d02:	f06f 0003 	mvn.w	r0, #3
 8003d06:	e7c2      	b.n	8003c8e <recvfrom+0x182>
 8003d08:	20000562 	.word	0x20000562
 8003d0c:	20000556 	.word	0x20000556
 8003d10:	2000055a 	.word	0x2000055a

08003d14 <HAL_MspInit>:
 8003d14:	4b0e      	ldr	r3, [pc, #56]	; (8003d50 <HAL_MspInit+0x3c>)
 8003d16:	b082      	sub	sp, #8
 8003d18:	699a      	ldr	r2, [r3, #24]
 8003d1a:	f042 0201 	orr.w	r2, r2, #1
 8003d1e:	619a      	str	r2, [r3, #24]
 8003d20:	699a      	ldr	r2, [r3, #24]
 8003d22:	f002 0201 	and.w	r2, r2, #1
 8003d26:	9200      	str	r2, [sp, #0]
 8003d28:	9a00      	ldr	r2, [sp, #0]
 8003d2a:	69da      	ldr	r2, [r3, #28]
 8003d2c:	f042 5280 	orr.w	r2, r2, #268435456	; 0x10000000
 8003d30:	61da      	str	r2, [r3, #28]
 8003d32:	69db      	ldr	r3, [r3, #28]
 8003d34:	4a07      	ldr	r2, [pc, #28]	; (8003d54 <HAL_MspInit+0x40>)
 8003d36:	f003 5380 	and.w	r3, r3, #268435456	; 0x10000000
 8003d3a:	9301      	str	r3, [sp, #4]
 8003d3c:	9b01      	ldr	r3, [sp, #4]
 8003d3e:	6853      	ldr	r3, [r2, #4]
 8003d40:	f023 63e0 	bic.w	r3, r3, #117440512	; 0x7000000
 8003d44:	f043 6380 	orr.w	r3, r3, #67108864	; 0x4000000
 8003d48:	6053      	str	r3, [r2, #4]
 8003d4a:	b002      	add	sp, #8
 8003d4c:	4770      	bx	lr
 8003d4e:	bf00      	nop
 8003d50:	40021000 	.word	0x40021000
 8003d54:	40010000 	.word	0x40010000

08003d58 <HAL_I2C_MspInit>:
 8003d58:	b510      	push	{r4, lr}
 8003d5a:	4604      	mov	r4, r0
 8003d5c:	b086      	sub	sp, #24
 8003d5e:	2210      	movs	r2, #16
 8003d60:	2100      	movs	r1, #0
 8003d62:	a802      	add	r0, sp, #8
 8003d64:	f004 f942 	bl	8007fec <memset>
 8003d68:	6822      	ldr	r2, [r4, #0]
 8003d6a:	4b15      	ldr	r3, [pc, #84]	; (8003dc0 <HAL_I2C_MspInit+0x68>)
 8003d6c:	429a      	cmp	r2, r3
 8003d6e:	d124      	bne.n	8003dba <HAL_I2C_MspInit+0x62>
 8003d70:	4c14      	ldr	r4, [pc, #80]	; (8003dc4 <HAL_I2C_MspInit+0x6c>)
 8003d72:	f44f 7240 	mov.w	r2, #768	; 0x300
 8003d76:	69a3      	ldr	r3, [r4, #24]
 8003d78:	4813      	ldr	r0, [pc, #76]	; (8003dc8 <HAL_I2C_MspInit+0x70>)
 8003d7a:	f043 0308 	orr.w	r3, r3, #8
 8003d7e:	61a3      	str	r3, [r4, #24]
 8003d80:	69a3      	ldr	r3, [r4, #24]
 8003d82:	a902      	add	r1, sp, #8
 8003d84:	f003 0308 	and.w	r3, r3, #8
 8003d88:	9300      	str	r3, [sp, #0]
 8003d8a:	9b00      	ldr	r3, [sp, #0]
 8003d8c:	2312      	movs	r3, #18
 8003d8e:	e9cd 2302 	strd	r2, r3, [sp, #8]
 8003d92:	2303      	movs	r3, #3
 8003d94:	9305      	str	r3, [sp, #20]
 8003d96:	f001 fa89 	bl	80052ac <HAL_GPIO_Init>
 8003d9a:	4a0c      	ldr	r2, [pc, #48]	; (8003dcc <HAL_I2C_MspInit+0x74>)
 8003d9c:	6853      	ldr	r3, [r2, #4]
 8003d9e:	f043 63e0 	orr.w	r3, r3, #117440512	; 0x7000000
 8003da2:	f043 0302 	orr.w	r3, r3, #2
 8003da6:	6053      	str	r3, [r2, #4]
 8003da8:	69e3      	ldr	r3, [r4, #28]
 8003daa:	f443 1300 	orr.w	r3, r3, #2097152	; 0x200000
 8003dae:	61e3      	str	r3, [r4, #28]
 8003db0:	69e3      	ldr	r3, [r4, #28]
 8003db2:	f403 1300 	and.w	r3, r3, #2097152	; 0x200000
 8003db6:	9301      	str	r3, [sp, #4]
 8003db8:	9b01      	ldr	r3, [sp, #4]
 8003dba:	b006      	add	sp, #24
 8003dbc:	bd10      	pop	{r4, pc}
 8003dbe:	bf00      	nop
 8003dc0:	40005400 	.word	0x40005400
 8003dc4:	40021000 	.word	0x40021000
 8003dc8:	40010c00 	.word	0x40010c00
 8003dcc:	40010000 	.word	0x40010000

08003dd0 <HAL_SPI_MspInit>:
 8003dd0:	b510      	push	{r4, lr}
 8003dd2:	4604      	mov	r4, r0
 8003dd4:	b086      	sub	sp, #24
 8003dd6:	2210      	movs	r2, #16
 8003dd8:	2100      	movs	r1, #0
 8003dda:	a802      	add	r0, sp, #8
 8003ddc:	f004 f906 	bl	8007fec <memset>
 8003de0:	6822      	ldr	r2, [r4, #0]
 8003de2:	4b17      	ldr	r3, [pc, #92]	; (8003e40 <HAL_SPI_MspInit+0x70>)
 8003de4:	429a      	cmp	r2, r3
 8003de6:	d128      	bne.n	8003e3a <HAL_SPI_MspInit+0x6a>
 8003de8:	f503 33ec 	add.w	r3, r3, #120832	; 0x1d800
 8003dec:	69da      	ldr	r2, [r3, #28]
 8003dee:	4815      	ldr	r0, [pc, #84]	; (8003e44 <HAL_SPI_MspInit+0x74>)
 8003df0:	f442 4280 	orr.w	r2, r2, #16384	; 0x4000
 8003df4:	61da      	str	r2, [r3, #28]
 8003df6:	69da      	ldr	r2, [r3, #28]
 8003df8:	a902      	add	r1, sp, #8
 8003dfa:	f402 4280 	and.w	r2, r2, #16384	; 0x4000
 8003dfe:	9200      	str	r2, [sp, #0]
 8003e00:	9a00      	ldr	r2, [sp, #0]
 8003e02:	699a      	ldr	r2, [r3, #24]
 8003e04:	f042 0208 	orr.w	r2, r2, #8
 8003e08:	619a      	str	r2, [r3, #24]
 8003e0a:	699b      	ldr	r3, [r3, #24]
 8003e0c:	f44f 4220 	mov.w	r2, #40960	; 0xa000
 8003e10:	f003 0308 	and.w	r3, r3, #8
 8003e14:	9301      	str	r3, [sp, #4]
 8003e16:	9b01      	ldr	r3, [sp, #4]
 8003e18:	2302      	movs	r3, #2
 8003e1a:	e9cd 2302 	strd	r2, r3, [sp, #8]
 8003e1e:	2303      	movs	r3, #3
 8003e20:	9305      	str	r3, [sp, #20]
 8003e22:	f001 fa43 	bl	80052ac <HAL_GPIO_Init>
 8003e26:	f44f 4180 	mov.w	r1, #16384	; 0x4000
 8003e2a:	2300      	movs	r3, #0
 8003e2c:	4805      	ldr	r0, [pc, #20]	; (8003e44 <HAL_SPI_MspInit+0x74>)
 8003e2e:	e9cd 1302 	strd	r1, r3, [sp, #8]
 8003e32:	a902      	add	r1, sp, #8
 8003e34:	9304      	str	r3, [sp, #16]
 8003e36:	f001 fa39 	bl	80052ac <HAL_GPIO_Init>
 8003e3a:	b006      	add	sp, #24
 8003e3c:	bd10      	pop	{r4, pc}
 8003e3e:	bf00      	nop
 8003e40:	40003800 	.word	0x40003800
 8003e44:	40010c00 	.word	0x40010c00

08003e48 <HAL_TIM_Base_MspInit>:
 8003e48:	b570      	push	{r4, r5, r6, lr}
 8003e4a:	4606      	mov	r6, r0
 8003e4c:	b08a      	sub	sp, #40	; 0x28
 8003e4e:	2210      	movs	r2, #16
 8003e50:	2100      	movs	r1, #0
 8003e52:	a806      	add	r0, sp, #24
 8003e54:	f004 f8ca 	bl	8007fec <memset>
 8003e58:	6833      	ldr	r3, [r6, #0]
 8003e5a:	4a38      	ldr	r2, [pc, #224]	; (8003f3c <HAL_TIM_Base_MspInit+0xf4>)
 8003e5c:	4293      	cmp	r3, r2
 8003e5e:	d10b      	bne.n	8003e78 <HAL_TIM_Base_MspInit+0x30>
 8003e60:	4b37      	ldr	r3, [pc, #220]	; (8003f40 <HAL_TIM_Base_MspInit+0xf8>)
 8003e62:	699a      	ldr	r2, [r3, #24]
 8003e64:	f442 6200 	orr.w	r2, r2, #2048	; 0x800
 8003e68:	619a      	str	r2, [r3, #24]
 8003e6a:	699b      	ldr	r3, [r3, #24]
 8003e6c:	f403 6300 	and.w	r3, r3, #2048	; 0x800
 8003e70:	9301      	str	r3, [sp, #4]
 8003e72:	9b01      	ldr	r3, [sp, #4]
 8003e74:	b00a      	add	sp, #40	; 0x28
 8003e76:	bd70      	pop	{r4, r5, r6, pc}
 8003e78:	f1b3 4f80 	cmp.w	r3, #1073741824	; 0x40000000
 8003e7c:	d134      	bne.n	8003ee8 <HAL_TIM_Base_MspInit+0xa0>
 8003e7e:	f503 3304 	add.w	r3, r3, #135168	; 0x21000
 8003e82:	69da      	ldr	r2, [r3, #28]
 8003e84:	2500      	movs	r5, #0
 8003e86:	f042 0201 	orr.w	r2, r2, #1
 8003e8a:	61da      	str	r2, [r3, #28]
 8003e8c:	69da      	ldr	r2, [r3, #28]
 8003e8e:	482d      	ldr	r0, [pc, #180]	; (8003f44 <HAL_TIM_Base_MspInit+0xfc>)
 8003e90:	f002 0201 	and.w	r2, r2, #1
 8003e94:	9202      	str	r2, [sp, #8]
 8003e96:	9a02      	ldr	r2, [sp, #8]
 8003e98:	699a      	ldr	r2, [r3, #24]
 8003e9a:	a906      	add	r1, sp, #24
 8003e9c:	f042 0204 	orr.w	r2, r2, #4
 8003ea0:	619a      	str	r2, [r3, #24]
 8003ea2:	699b      	ldr	r3, [r3, #24]
 8003ea4:	4c28      	ldr	r4, [pc, #160]	; (8003f48 <HAL_TIM_Base_MspInit+0x100>)
 8003ea6:	f003 0304 	and.w	r3, r3, #4
 8003eaa:	9303      	str	r3, [sp, #12]
 8003eac:	9b03      	ldr	r3, [sp, #12]
 8003eae:	2301      	movs	r3, #1
 8003eb0:	9508      	str	r5, [sp, #32]
 8003eb2:	e9cd 3506 	strd	r3, r5, [sp, #24]
 8003eb6:	f001 f9f9 	bl	80052ac <HAL_GPIO_Init>
 8003eba:	4b24      	ldr	r3, [pc, #144]	; (8003f4c <HAL_TIM_Base_MspInit+0x104>)
 8003ebc:	f44f 7280 	mov.w	r2, #256	; 0x100
 8003ec0:	e9c4 3500 	strd	r3, r5, [r4]
 8003ec4:	f44f 6380 	mov.w	r3, #1024	; 0x400
 8003ec8:	e9c4 2304 	strd	r2, r3, [r4, #16]
 8003ecc:	2320      	movs	r3, #32
 8003ece:	4620      	mov	r0, r4
 8003ed0:	e9c4 5502 	strd	r5, r5, [r4, #8]
 8003ed4:	e9c4 3506 	strd	r3, r5, [r4, #24]
 8003ed8:	f000 ff76 	bl	8004dc8 <HAL_DMA_Init>
 8003edc:	b108      	cbz	r0, 8003ee2 <HAL_TIM_Base_MspInit+0x9a>
 8003ede:	f7ff fb93 	bl	8003608 <Error_Handler>
 8003ee2:	6274      	str	r4, [r6, #36]	; 0x24
 8003ee4:	6266      	str	r6, [r4, #36]	; 0x24
 8003ee6:	e7c5      	b.n	8003e74 <HAL_TIM_Base_MspInit+0x2c>
 8003ee8:	4a19      	ldr	r2, [pc, #100]	; (8003f50 <HAL_TIM_Base_MspInit+0x108>)
 8003eea:	4293      	cmp	r3, r2
 8003eec:	d112      	bne.n	8003f14 <HAL_TIM_Base_MspInit+0xcc>
 8003eee:	4b14      	ldr	r3, [pc, #80]	; (8003f40 <HAL_TIM_Base_MspInit+0xf8>)
 8003ef0:	201d      	movs	r0, #29
 8003ef2:	69da      	ldr	r2, [r3, #28]
 8003ef4:	f042 0202 	orr.w	r2, r2, #2
 8003ef8:	61da      	str	r2, [r3, #28]
 8003efa:	2200      	movs	r2, #0
 8003efc:	69db      	ldr	r3, [r3, #28]
 8003efe:	4611      	mov	r1, r2
 8003f00:	f003 0302 	and.w	r3, r3, #2
 8003f04:	9304      	str	r3, [sp, #16]
 8003f06:	9b04      	ldr	r3, [sp, #16]
 8003f08:	f000 fef6 	bl	8004cf8 <HAL_NVIC_SetPriority>
 8003f0c:	201d      	movs	r0, #29
 8003f0e:	f000 ff25 	bl	8004d5c <HAL_NVIC_EnableIRQ>
 8003f12:	e7af      	b.n	8003e74 <HAL_TIM_Base_MspInit+0x2c>
 8003f14:	4a0f      	ldr	r2, [pc, #60]	; (8003f54 <HAL_TIM_Base_MspInit+0x10c>)
 8003f16:	4293      	cmp	r3, r2
 8003f18:	d1ac      	bne.n	8003e74 <HAL_TIM_Base_MspInit+0x2c>
 8003f1a:	4b09      	ldr	r3, [pc, #36]	; (8003f40 <HAL_TIM_Base_MspInit+0xf8>)
 8003f1c:	201e      	movs	r0, #30
 8003f1e:	69da      	ldr	r2, [r3, #28]
 8003f20:	f042 0204 	orr.w	r2, r2, #4
 8003f24:	61da      	str	r2, [r3, #28]
 8003f26:	2200      	movs	r2, #0
 8003f28:	69db      	ldr	r3, [r3, #28]
 8003f2a:	4611      	mov	r1, r2
 8003f2c:	f003 0304 	and.w	r3, r3, #4
 8003f30:	9305      	str	r3, [sp, #20]
 8003f32:	9b05      	ldr	r3, [sp, #20]
 8003f34:	f000 fee0 	bl	8004cf8 <HAL_NVIC_SetPriority>
 8003f38:	201e      	movs	r0, #30
 8003f3a:	e7e8      	b.n	8003f0e <HAL_TIM_Base_MspInit+0xc6>
 8003f3c:	40012c00 	.word	0x40012c00
 8003f40:	40021000 	.word	0x40021000
 8003f44:	40010800 	.word	0x40010800
 8003f48:	200005e8 	.word	0x200005e8
 8003f4c:	40020058 	.word	0x40020058
 8003f50:	40000400 	.word	0x40000400
 8003f54:	40000800 	.word	0x40000800

08003f58 <HAL_TIM_MspPostInit>:
 8003f58:	b510      	push	{r4, lr}
 8003f5a:	4604      	mov	r4, r0
 8003f5c:	b086      	sub	sp, #24
 8003f5e:	2210      	movs	r2, #16
 8003f60:	2100      	movs	r1, #0
 8003f62:	a802      	add	r0, sp, #8
 8003f64:	f004 f842 	bl	8007fec <memset>
 8003f68:	6822      	ldr	r2, [r4, #0]
 8003f6a:	4b0d      	ldr	r3, [pc, #52]	; (8003fa0 <HAL_TIM_MspPostInit+0x48>)
 8003f6c:	429a      	cmp	r2, r3
 8003f6e:	d115      	bne.n	8003f9c <HAL_TIM_MspPostInit+0x44>
 8003f70:	f503 4364 	add.w	r3, r3, #58368	; 0xe400
 8003f74:	699a      	ldr	r2, [r3, #24]
 8003f76:	480b      	ldr	r0, [pc, #44]	; (8003fa4 <HAL_TIM_MspPostInit+0x4c>)
 8003f78:	f042 0204 	orr.w	r2, r2, #4
 8003f7c:	619a      	str	r2, [r3, #24]
 8003f7e:	699b      	ldr	r3, [r3, #24]
 8003f80:	f44f 6270 	mov.w	r2, #3840	; 0xf00
 8003f84:	f003 0304 	and.w	r3, r3, #4
 8003f88:	9301      	str	r3, [sp, #4]
 8003f8a:	9b01      	ldr	r3, [sp, #4]
 8003f8c:	2302      	movs	r3, #2
 8003f8e:	e9cd 2302 	strd	r2, r3, [sp, #8]
 8003f92:	2303      	movs	r3, #3
 8003f94:	a902      	add	r1, sp, #8
 8003f96:	9305      	str	r3, [sp, #20]
 8003f98:	f001 f988 	bl	80052ac <HAL_GPIO_Init>
 8003f9c:	b006      	add	sp, #24
 8003f9e:	bd10      	pop	{r4, pc}
 8003fa0:	40012c00 	.word	0x40012c00
 8003fa4:	40010800 	.word	0x40010800

08003fa8 <HAL_UART_MspInit>:
 8003fa8:	b510      	push	{r4, lr}
 8003faa:	4604      	mov	r4, r0
 8003fac:	b086      	sub	sp, #24
 8003fae:	2210      	movs	r2, #16
 8003fb0:	2100      	movs	r1, #0
 8003fb2:	a802      	add	r0, sp, #8
 8003fb4:	f004 f81a 	bl	8007fec <memset>
 8003fb8:	6822      	ldr	r2, [r4, #0]
 8003fba:	4b19      	ldr	r3, [pc, #100]	; (8004020 <HAL_UART_MspInit+0x78>)
 8003fbc:	429a      	cmp	r2, r3
 8003fbe:	d12d      	bne.n	800401c <HAL_UART_MspInit+0x74>
 8003fc0:	f503 4358 	add.w	r3, r3, #55296	; 0xd800
 8003fc4:	699a      	ldr	r2, [r3, #24]
 8003fc6:	4817      	ldr	r0, [pc, #92]	; (8004024 <HAL_UART_MspInit+0x7c>)
 8003fc8:	f442 4280 	orr.w	r2, r2, #16384	; 0x4000
 8003fcc:	619a      	str	r2, [r3, #24]
 8003fce:	699a      	ldr	r2, [r3, #24]
 8003fd0:	a902      	add	r1, sp, #8
 8003fd2:	f402 4280 	and.w	r2, r2, #16384	; 0x4000
 8003fd6:	9200      	str	r2, [sp, #0]
 8003fd8:	9a00      	ldr	r2, [sp, #0]
 8003fda:	699a      	ldr	r2, [r3, #24]
 8003fdc:	f042 0208 	orr.w	r2, r2, #8
 8003fe0:	619a      	str	r2, [r3, #24]
 8003fe2:	699b      	ldr	r3, [r3, #24]
 8003fe4:	2240      	movs	r2, #64	; 0x40
 8003fe6:	f003 0308 	and.w	r3, r3, #8
 8003fea:	9301      	str	r3, [sp, #4]
 8003fec:	9b01      	ldr	r3, [sp, #4]
 8003fee:	2302      	movs	r3, #2
 8003ff0:	e9cd 2302 	strd	r2, r3, [sp, #8]
 8003ff4:	2303      	movs	r3, #3
 8003ff6:	9305      	str	r3, [sp, #20]
 8003ff8:	f001 f958 	bl	80052ac <HAL_GPIO_Init>
 8003ffc:	2300      	movs	r3, #0
 8003ffe:	2180      	movs	r1, #128	; 0x80
 8004000:	4808      	ldr	r0, [pc, #32]	; (8004024 <HAL_UART_MspInit+0x7c>)
 8004002:	e9cd 1302 	strd	r1, r3, [sp, #8]
 8004006:	a902      	add	r1, sp, #8
 8004008:	9304      	str	r3, [sp, #16]
 800400a:	f001 f94f 	bl	80052ac <HAL_GPIO_Init>
 800400e:	4a06      	ldr	r2, [pc, #24]	; (8004028 <HAL_UART_MspInit+0x80>)
 8004010:	6853      	ldr	r3, [r2, #4]
 8004012:	f043 63e0 	orr.w	r3, r3, #117440512	; 0x7000000
 8004016:	f043 0304 	orr.w	r3, r3, #4
 800401a:	6053      	str	r3, [r2, #4]
 800401c:	b006      	add	sp, #24
 800401e:	bd10      	pop	{r4, pc}
 8004020:	40013800 	.word	0x40013800
 8004024:	40010c00 	.word	0x40010c00
 8004028:	40010000 	.word	0x40010000

0800402c <NMI_Handler>:
 800402c:	e7fe      	b.n	800402c <NMI_Handler>

0800402e <HardFault_Handler>:
 800402e:	e7fe      	b.n	800402e <HardFault_Handler>

08004030 <MemManage_Handler>:
 8004030:	e7fe      	b.n	8004030 <MemManage_Handler>

08004032 <BusFault_Handler>:
 8004032:	e7fe      	b.n	8004032 <BusFault_Handler>

08004034 <UsageFault_Handler>:
 8004034:	e7fe      	b.n	8004034 <UsageFault_Handler>

08004036 <SVC_Handler>:
 8004036:	4770      	bx	lr

08004038 <DebugMon_Handler>:
 8004038:	4770      	bx	lr

0800403a <PendSV_Handler>:
 800403a:	4770      	bx	lr

0800403c <SysTick_Handler>:
 800403c:	b510      	push	{r4, lr}
 800403e:	4c08      	ldr	r4, [pc, #32]	; (8004060 <SysTick_Handler+0x24>)
 8004040:	8823      	ldrh	r3, [r4, #0]
 8004042:	3301      	adds	r3, #1
 8004044:	b29b      	uxth	r3, r3
 8004046:	f5b3 7f7a 	cmp.w	r3, #1000	; 0x3e8
 800404a:	8023      	strh	r3, [r4, #0]
 800404c:	d303      	bcc.n	8004056 <SysTick_Handler+0x1a>
 800404e:	f7fd ff57 	bl	8001f00 <DHCP_time_handler>
 8004052:	2300      	movs	r3, #0
 8004054:	8023      	strh	r3, [r4, #0]
 8004056:	e8bd 4010 	ldmia.w	sp!, {r4, lr}
 800405a:	f000 be17 	b.w	8004c8c <HAL_IncTick>
 800405e:	bf00      	nop
 8004060:	20000572 	.word	0x20000572

08004064 <DMA1_Channel5_IRQHandler>:
 8004064:	b508      	push	{r3, lr}
 8004066:	4b24      	ldr	r3, [pc, #144]	; (80040f8 <DMA1_Channel5_IRQHandler+0x94>)
 8004068:	781a      	ldrb	r2, [r3, #0]
 800406a:	b31a      	cbz	r2, 80040b4 <DMA1_Channel5_IRQHandler+0x50>
 800406c:	4a23      	ldr	r2, [pc, #140]	; (80040fc <DMA1_Channel5_IRQHandler+0x98>)
 800406e:	6892      	ldr	r2, [r2, #8]
 8004070:	07d2      	lsls	r2, r2, #31
 8004072:	d51f      	bpl.n	80040b4 <DMA1_Channel5_IRQHandler+0x50>
 8004074:	2100      	movs	r1, #0
 8004076:	4822      	ldr	r0, [pc, #136]	; (8004100 <DMA1_Channel5_IRQHandler+0x9c>)
 8004078:	7019      	strb	r1, [r3, #0]
 800407a:	f003 fa35 	bl	80074e8 <HAL_TIM_IC_Stop_DMA>
 800407e:	4a21      	ldr	r2, [pc, #132]	; (8004104 <DMA1_Channel5_IRQHandler+0xa0>)
 8004080:	6813      	ldr	r3, [r2, #0]
 8004082:	f043 0301 	orr.w	r3, r3, #1
 8004086:	6013      	str	r3, [r2, #0]
 8004088:	4a1f      	ldr	r2, [pc, #124]	; (8004108 <DMA1_Channel5_IRQHandler+0xa4>)
 800408a:	68d3      	ldr	r3, [r2, #12]
 800408c:	f423 6340 	bic.w	r3, r3, #3072	; 0xc00
 8004090:	f023 0306 	bic.w	r3, r3, #6
 8004094:	60d3      	str	r3, [r2, #12]
 8004096:	4b1d      	ldr	r3, [pc, #116]	; (800410c <DMA1_Channel5_IRQHandler+0xa8>)
 8004098:	881b      	ldrh	r3, [r3, #0]
 800409a:	3b01      	subs	r3, #1
 800409c:	2b07      	cmp	r3, #7
 800409e:	d809      	bhi.n	80040b4 <DMA1_Channel5_IRQHandler+0x50>
 80040a0:	e8df f003 	tbb	[pc, r3]
 80040a4:	15110d04 	.word	0x15110d04
 80040a8:	25211d19 	.word	0x25211d19
 80040ac:	4b18      	ldr	r3, [pc, #96]	; (8004110 <DMA1_Channel5_IRQHandler+0xac>)
 80040ae:	681a      	ldr	r2, [r3, #0]
 80040b0:	4b18      	ldr	r3, [pc, #96]	; (8004114 <DMA1_Channel5_IRQHandler+0xb0>)
 80040b2:	801a      	strh	r2, [r3, #0]
 80040b4:	4818      	ldr	r0, [pc, #96]	; (8004118 <DMA1_Channel5_IRQHandler+0xb4>)
 80040b6:	e8bd 4008 	ldmia.w	sp!, {r3, lr}
 80040ba:	f000 bf35 	b.w	8004f28 <HAL_DMA_IRQHandler>
 80040be:	4b14      	ldr	r3, [pc, #80]	; (8004110 <DMA1_Channel5_IRQHandler+0xac>)
 80040c0:	681a      	ldr	r2, [r3, #0]
 80040c2:	4b16      	ldr	r3, [pc, #88]	; (800411c <DMA1_Channel5_IRQHandler+0xb8>)
 80040c4:	e7f5      	b.n	80040b2 <DMA1_Channel5_IRQHandler+0x4e>
 80040c6:	4b12      	ldr	r3, [pc, #72]	; (8004110 <DMA1_Channel5_IRQHandler+0xac>)
 80040c8:	681a      	ldr	r2, [r3, #0]
 80040ca:	4b15      	ldr	r3, [pc, #84]	; (8004120 <DMA1_Channel5_IRQHandler+0xbc>)
 80040cc:	e7f1      	b.n	80040b2 <DMA1_Channel5_IRQHandler+0x4e>
 80040ce:	4b10      	ldr	r3, [pc, #64]	; (8004110 <DMA1_Channel5_IRQHandler+0xac>)
 80040d0:	681a      	ldr	r2, [r3, #0]
 80040d2:	4b14      	ldr	r3, [pc, #80]	; (8004124 <DMA1_Channel5_IRQHandler+0xc0>)
 80040d4:	e7ed      	b.n	80040b2 <DMA1_Channel5_IRQHandler+0x4e>
 80040d6:	4b0e      	ldr	r3, [pc, #56]	; (8004110 <DMA1_Channel5_IRQHandler+0xac>)
 80040d8:	681a      	ldr	r2, [r3, #0]
 80040da:	4b13      	ldr	r3, [pc, #76]	; (8004128 <DMA1_Channel5_IRQHandler+0xc4>)
 80040dc:	e7e9      	b.n	80040b2 <DMA1_Channel5_IRQHandler+0x4e>
 80040de:	4b0c      	ldr	r3, [pc, #48]	; (8004110 <DMA1_Channel5_IRQHandler+0xac>)
 80040e0:	681a      	ldr	r2, [r3, #0]
 80040e2:	4b12      	ldr	r3, [pc, #72]	; (800412c <DMA1_Channel5_IRQHandler+0xc8>)
 80040e4:	e7e5      	b.n	80040b2 <DMA1_Channel5_IRQHandler+0x4e>
 80040e6:	4b0a      	ldr	r3, [pc, #40]	; (8004110 <DMA1_Channel5_IRQHandler+0xac>)
 80040e8:	681a      	ldr	r2, [r3, #0]
 80040ea:	4b11      	ldr	r3, [pc, #68]	; (8004130 <DMA1_Channel5_IRQHandler+0xcc>)
 80040ec:	e7e1      	b.n	80040b2 <DMA1_Channel5_IRQHandler+0x4e>
 80040ee:	4b08      	ldr	r3, [pc, #32]	; (8004110 <DMA1_Channel5_IRQHandler+0xac>)
 80040f0:	681a      	ldr	r2, [r3, #0]
 80040f2:	4b10      	ldr	r3, [pc, #64]	; (8004134 <DMA1_Channel5_IRQHandler+0xd0>)
 80040f4:	e7dd      	b.n	80040b2 <DMA1_Channel5_IRQHandler+0x4e>
 80040f6:	bf00      	nop
 80040f8:	2000099c 	.word	0x2000099c
 80040fc:	40010800 	.word	0x40010800
 8004100:	20000c90 	.word	0x20000c90
 8004104:	e000e010 	.word	0xe000e010
 8004108:	40010c00 	.word	0x40010c00
 800410c:	20000b86 	.word	0x20000b86
 8004110:	20000940 	.word	0x20000940
 8004114:	2000099e 	.word	0x2000099e
 8004118:	200005e8 	.word	0x200005e8
 800411c:	2000073a 	.word	0x2000073a
 8004120:	20000b88 	.word	0x20000b88
 8004124:	20000b84 	.word	0x20000b84
 8004128:	20000754 	.word	0x20000754
 800412c:	200009a8 	.word	0x200009a8
 8004130:	20000742 	.word	0x20000742
 8004134:	200006d8 	.word	0x200006d8

08004138 <TIM3_IRQHandler>:
 8004138:	2201      	movs	r2, #1
 800413a:	4b02      	ldr	r3, [pc, #8]	; (8004144 <TIM3_IRQHandler+0xc>)
 800413c:	4802      	ldr	r0, [pc, #8]	; (8004148 <TIM3_IRQHandler+0x10>)
 800413e:	701a      	strb	r2, [r3, #0]
 8004140:	f002 bc92 	b.w	8006a68 <HAL_TIM_IRQHandler>
 8004144:	2000099c 	.word	0x2000099c
 8004148:	2000075c 	.word	0x2000075c
 800414c:	00000000 	.word	0x00000000

08004150 <TIM4_IRQHandler>:
 8004150:	4a6f      	ldr	r2, [pc, #444]	; (8004310 <TIM4_IRQHandler+0x1c0>)
 8004152:	e92d 4ff0 	stmdb	sp!, {r4, r5, r6, r7, r8, r9, sl, fp, lr}
 8004156:	68d3      	ldr	r3, [r2, #12]
 8004158:	b087      	sub	sp, #28
 800415a:	f423 6340 	bic.w	r3, r3, #3072	; 0xc00
 800415e:	f023 0306 	bic.w	r3, r3, #6
 8004162:	60d3      	str	r3, [r2, #12]
 8004164:	2100      	movs	r1, #0
 8004166:	486b      	ldr	r0, [pc, #428]	; (8004314 <TIM4_IRQHandler+0x1c4>)
 8004168:	f003 f9be 	bl	80074e8 <HAL_TIM_IC_Stop_DMA>
 800416c:	2100      	movs	r1, #0
 800416e:	486a      	ldr	r0, [pc, #424]	; (8004318 <TIM4_IRQHandler+0x1c8>)
 8004170:	f003 f8aa 	bl	80072c8 <HAL_TIM_OC_Stop>
 8004174:	2104      	movs	r1, #4
 8004176:	4868      	ldr	r0, [pc, #416]	; (8004318 <TIM4_IRQHandler+0x1c8>)
 8004178:	f003 f8a6 	bl	80072c8 <HAL_TIM_OC_Stop>
 800417c:	2108      	movs	r1, #8
 800417e:	4866      	ldr	r0, [pc, #408]	; (8004318 <TIM4_IRQHandler+0x1c8>)
 8004180:	f003 f8a2 	bl	80072c8 <HAL_TIM_OC_Stop>
 8004184:	210c      	movs	r1, #12
 8004186:	4864      	ldr	r0, [pc, #400]	; (8004318 <TIM4_IRQHandler+0x1c8>)
 8004188:	f003 f89e 	bl	80072c8 <HAL_TIM_OC_Stop>
 800418c:	4b63      	ldr	r3, [pc, #396]	; (800431c <TIM4_IRQHandler+0x1cc>)
 800418e:	685a      	ldr	r2, [r3, #4]
 8004190:	0c12      	lsrs	r2, r2, #16
 8004192:	0412      	lsls	r2, r2, #16
 8004194:	f442 4288 	orr.w	r2, r2, #17408	; 0x4400
 8004198:	f042 0244 	orr.w	r2, r2, #68	; 0x44
 800419c:	605a      	str	r2, [r3, #4]
 800419e:	4a60      	ldr	r2, [pc, #384]	; (8004320 <TIM4_IRQHandler+0x1d0>)
 80041a0:	8811      	ldrh	r1, [r2, #0]
 80041a2:	1c48      	adds	r0, r1, #1
 80041a4:	8010      	strh	r0, [r2, #0]
 80041a6:	2908      	cmp	r1, #8
 80041a8:	d834      	bhi.n	8004214 <TIM4_IRQHandler+0xc4>
 80041aa:	e8df f011 	tbh	[pc, r1, lsl #1]
 80041ae:	0009      	.short	0x0009
 80041b0:	0041001b 	.word	0x0041001b
 80041b4:	00670051 	.word	0x00670051
 80041b8:	008d0077 	.word	0x008d0077
 80041bc:	00cd009d 	.word	0x00cd009d
 80041c0:	4958      	ldr	r1, [pc, #352]	; (8004324 <TIM4_IRQHandler+0x1d4>)
 80041c2:	680a      	ldr	r2, [r1, #0]
 80041c4:	f022 0201 	bic.w	r2, r2, #1
 80041c8:	600a      	str	r2, [r1, #0]
 80041ca:	685a      	ldr	r2, [r3, #4]
 80041cc:	f022 020e 	bic.w	r2, r2, #14
 80041d0:	f042 020a 	orr.w	r2, r2, #10
 80041d4:	605a      	str	r2, [r3, #4]
 80041d6:	4a4e      	ldr	r2, [pc, #312]	; (8004310 <TIM4_IRQHandler+0x1c0>)
 80041d8:	68d3      	ldr	r3, [r2, #12]
 80041da:	f043 0304 	orr.w	r3, r3, #4
 80041de:	2100      	movs	r1, #0
 80041e0:	60d3      	str	r3, [r2, #12]
 80041e2:	e014      	b.n	800420e <TIM4_IRQHandler+0xbe>
 80041e4:	494f      	ldr	r1, [pc, #316]	; (8004324 <TIM4_IRQHandler+0x1d4>)
 80041e6:	680a      	ldr	r2, [r1, #0]
 80041e8:	f022 0201 	bic.w	r2, r2, #1
 80041ec:	600a      	str	r2, [r1, #0]
 80041ee:	4a4e      	ldr	r2, [pc, #312]	; (8004328 <TIM4_IRQHandler+0x1d8>)
 80041f0:	8811      	ldrh	r1, [r2, #0]
 80041f2:	4a4e      	ldr	r2, [pc, #312]	; (800432c <TIM4_IRQHandler+0x1dc>)
 80041f4:	62d1      	str	r1, [r2, #44]	; 0x2c
 80041f6:	685a      	ldr	r2, [r3, #4]
 80041f8:	f022 02e0 	bic.w	r2, r2, #224	; 0xe0
 80041fc:	f042 02a0 	orr.w	r2, r2, #160	; 0xa0
 8004200:	605a      	str	r2, [r3, #4]
 8004202:	4a43      	ldr	r2, [pc, #268]	; (8004310 <TIM4_IRQHandler+0x1c0>)
 8004204:	68d3      	ldr	r3, [r2, #12]
 8004206:	f043 0302 	orr.w	r3, r3, #2
 800420a:	2104      	movs	r1, #4
 800420c:	60d3      	str	r3, [r2, #12]
 800420e:	4842      	ldr	r0, [pc, #264]	; (8004318 <TIM4_IRQHandler+0x1c8>)
 8004210:	f003 f80c 	bl	800722c <HAL_TIM_OC_Start>
 8004214:	2100      	movs	r1, #0
 8004216:	4b46      	ldr	r3, [pc, #280]	; (8004330 <TIM4_IRQHandler+0x1e0>)
 8004218:	4a46      	ldr	r2, [pc, #280]	; (8004334 <TIM4_IRQHandler+0x1e4>)
 800421a:	7019      	strb	r1, [r3, #0]
 800421c:	483d      	ldr	r0, [pc, #244]	; (8004314 <TIM4_IRQHandler+0x1c4>)
 800421e:	2301      	movs	r3, #1
 8004220:	f003 f88e 	bl	8007340 <HAL_TIM_IC_Start_DMA>
 8004224:	4844      	ldr	r0, [pc, #272]	; (8004338 <TIM4_IRQHandler+0x1e8>)
 8004226:	b007      	add	sp, #28
 8004228:	e8bd 4ff0 	ldmia.w	sp!, {r4, r5, r6, r7, r8, r9, sl, fp, lr}
 800422c:	f002 bc1c 	b.w	8006a68 <HAL_TIM_IRQHandler>
 8004230:	493c      	ldr	r1, [pc, #240]	; (8004324 <TIM4_IRQHandler+0x1d4>)
 8004232:	680a      	ldr	r2, [r1, #0]
 8004234:	f022 0201 	bic.w	r2, r2, #1
 8004238:	600a      	str	r2, [r1, #0]
 800423a:	685a      	ldr	r2, [r3, #4]
 800423c:	f022 02e0 	bic.w	r2, r2, #224	; 0xe0
 8004240:	f042 02a0 	orr.w	r2, r2, #160	; 0xa0
 8004244:	605a      	str	r2, [r3, #4]
 8004246:	4a32      	ldr	r2, [pc, #200]	; (8004310 <TIM4_IRQHandler+0x1c0>)
 8004248:	68d3      	ldr	r3, [r2, #12]
 800424a:	f443 6380 	orr.w	r3, r3, #1024	; 0x400
 800424e:	e7dc      	b.n	800420a <TIM4_IRQHandler+0xba>
 8004250:	4934      	ldr	r1, [pc, #208]	; (8004324 <TIM4_IRQHandler+0x1d4>)
 8004252:	680a      	ldr	r2, [r1, #0]
 8004254:	f022 0201 	bic.w	r2, r2, #1
 8004258:	600a      	str	r2, [r1, #0]
 800425a:	4a38      	ldr	r2, [pc, #224]	; (800433c <TIM4_IRQHandler+0x1ec>)
 800425c:	8811      	ldrh	r1, [r2, #0]
 800425e:	4a33      	ldr	r2, [pc, #204]	; (800432c <TIM4_IRQHandler+0x1dc>)
 8004260:	62d1      	str	r1, [r2, #44]	; 0x2c
 8004262:	685a      	ldr	r2, [r3, #4]
 8004264:	f422 6260 	bic.w	r2, r2, #3584	; 0xe00
 8004268:	f442 6220 	orr.w	r2, r2, #2560	; 0xa00
 800426c:	605a      	str	r2, [r3, #4]
 800426e:	4a28      	ldr	r2, [pc, #160]	; (8004310 <TIM4_IRQHandler+0x1c0>)
 8004270:	68d3      	ldr	r3, [r2, #12]
 8004272:	f043 0304 	orr.w	r3, r3, #4
 8004276:	2108      	movs	r1, #8
 8004278:	60d3      	str	r3, [r2, #12]
 800427a:	e7c8      	b.n	800420e <TIM4_IRQHandler+0xbe>
 800427c:	4929      	ldr	r1, [pc, #164]	; (8004324 <TIM4_IRQHandler+0x1d4>)
 800427e:	680a      	ldr	r2, [r1, #0]
 8004280:	f022 0201 	bic.w	r2, r2, #1
 8004284:	600a      	str	r2, [r1, #0]
 8004286:	685a      	ldr	r2, [r3, #4]
 8004288:	f422 6260 	bic.w	r2, r2, #3584	; 0xe00
 800428c:	f442 6220 	orr.w	r2, r2, #2560	; 0xa00
 8004290:	605a      	str	r2, [r3, #4]
 8004292:	4a1f      	ldr	r2, [pc, #124]	; (8004310 <TIM4_IRQHandler+0x1c0>)
 8004294:	68d3      	ldr	r3, [r2, #12]
 8004296:	f443 6300 	orr.w	r3, r3, #2048	; 0x800
 800429a:	e7ec      	b.n	8004276 <TIM4_IRQHandler+0x126>
 800429c:	4921      	ldr	r1, [pc, #132]	; (8004324 <TIM4_IRQHandler+0x1d4>)
 800429e:	680a      	ldr	r2, [r1, #0]
 80042a0:	f022 0201 	bic.w	r2, r2, #1
 80042a4:	600a      	str	r2, [r1, #0]
 80042a6:	4a26      	ldr	r2, [pc, #152]	; (8004340 <TIM4_IRQHandler+0x1f0>)
 80042a8:	8811      	ldrh	r1, [r2, #0]
 80042aa:	4a20      	ldr	r2, [pc, #128]	; (800432c <TIM4_IRQHandler+0x1dc>)
 80042ac:	62d1      	str	r1, [r2, #44]	; 0x2c
 80042ae:	685a      	ldr	r2, [r3, #4]
 80042b0:	f422 4260 	bic.w	r2, r2, #57344	; 0xe000
 80042b4:	f442 4220 	orr.w	r2, r2, #40960	; 0xa000
 80042b8:	605a      	str	r2, [r3, #4]
 80042ba:	4a15      	ldr	r2, [pc, #84]	; (8004310 <TIM4_IRQHandler+0x1c0>)
 80042bc:	68d3      	ldr	r3, [r2, #12]
 80042be:	f443 6380 	orr.w	r3, r3, #1024	; 0x400
 80042c2:	210c      	movs	r1, #12
 80042c4:	60d3      	str	r3, [r2, #12]
 80042c6:	e7a2      	b.n	800420e <TIM4_IRQHandler+0xbe>
 80042c8:	4916      	ldr	r1, [pc, #88]	; (8004324 <TIM4_IRQHandler+0x1d4>)
 80042ca:	680a      	ldr	r2, [r1, #0]
 80042cc:	f022 0201 	bic.w	r2, r2, #1
 80042d0:	600a      	str	r2, [r1, #0]
 80042d2:	685a      	ldr	r2, [r3, #4]
 80042d4:	f422 4260 	bic.w	r2, r2, #57344	; 0xe000
 80042d8:	f442 4220 	orr.w	r2, r2, #40960	; 0xa000
 80042dc:	605a      	str	r2, [r3, #4]
 80042de:	4a0c      	ldr	r2, [pc, #48]	; (8004310 <TIM4_IRQHandler+0x1c0>)
 80042e0:	68d3      	ldr	r3, [r2, #12]
 80042e2:	f043 0302 	orr.w	r3, r3, #2
 80042e6:	e7ec      	b.n	80042c2 <TIM4_IRQHandler+0x172>
 80042e8:	490e      	ldr	r1, [pc, #56]	; (8004324 <TIM4_IRQHandler+0x1d4>)
 80042ea:	680a      	ldr	r2, [r1, #0]
 80042ec:	f022 0201 	bic.w	r2, r2, #1
 80042f0:	600a      	str	r2, [r1, #0]
 80042f2:	4a14      	ldr	r2, [pc, #80]	; (8004344 <TIM4_IRQHandler+0x1f4>)
 80042f4:	8811      	ldrh	r1, [r2, #0]
 80042f6:	4a0d      	ldr	r2, [pc, #52]	; (800432c <TIM4_IRQHandler+0x1dc>)
 80042f8:	62d1      	str	r1, [r2, #44]	; 0x2c
 80042fa:	685a      	ldr	r2, [r3, #4]
 80042fc:	f022 020e 	bic.w	r2, r2, #14
 8004300:	f042 020a 	orr.w	r2, r2, #10
 8004304:	605a      	str	r2, [r3, #4]
 8004306:	4a02      	ldr	r2, [pc, #8]	; (8004310 <TIM4_IRQHandler+0x1c0>)
 8004308:	68d3      	ldr	r3, [r2, #12]
 800430a:	f443 6300 	orr.w	r3, r3, #2048	; 0x800
 800430e:	e766      	b.n	80041de <TIM4_IRQHandler+0x8e>
 8004310:	40010c00 	.word	0x40010c00
 8004314:	20000c90 	.word	0x20000c90
 8004318:	20000b3c 	.word	0x20000b3c
 800431c:	40010800 	.word	0x40010800
 8004320:	20000b86 	.word	0x20000b86
 8004324:	e000e010 	.word	0xe000e010
 8004328:	200007a4 	.word	0x200007a4
 800432c:	40000400 	.word	0x40000400
 8004330:	2000099c 	.word	0x2000099c
 8004334:	20000940 	.word	0x20000940
 8004338:	20000684 	.word	0x20000684
 800433c:	200005e2 	.word	0x200005e2
 8004340:	200009aa 	.word	0x200009aa
 8004344:	200005e0 	.word	0x200005e0
 8004348:	2300      	movs	r3, #0
 800434a:	8013      	strh	r3, [r2, #0]
 800434c:	4b98      	ldr	r3, [pc, #608]	; (80045b0 <TIM4_IRQHandler+0x460>)
 800434e:	881e      	ldrh	r6, [r3, #0]
 8004350:	2e00      	cmp	r6, #0
 8004352:	f040 80ab 	bne.w	80044ac <TIM4_IRQHandler+0x35c>
 8004356:	4d97      	ldr	r5, [pc, #604]	; (80045b4 <TIM4_IRQHandler+0x464>)
 8004358:	f8df b2b8 	ldr.w	fp, [pc, #696]	; 8004614 <TIM4_IRQHandler+0x4c4>
 800435c:	882c      	ldrh	r4, [r5, #0]
 800435e:	4f96      	ldr	r7, [pc, #600]	; (80045b8 <TIM4_IRQHandler+0x468>)
 8004360:	2c64      	cmp	r4, #100	; 0x64
 8004362:	f240 80cd 	bls.w	8004500 <TIM4_IRQHandler+0x3b0>
 8004366:	2200      	movs	r2, #0
 8004368:	2300      	movs	r3, #0
 800436a:	4994      	ldr	r1, [pc, #592]	; (80045bc <TIM4_IRQHandler+0x46c>)
 800436c:	9703      	str	r7, [sp, #12]
 800436e:	468a      	mov	sl, r1
 8004370:	460f      	mov	r7, r1
 8004372:	4d93      	ldr	r5, [pc, #588]	; (80045c0 <TIM4_IRQHandler+0x470>)
 8004374:	4c93      	ldr	r4, [pc, #588]	; (80045c4 <TIM4_IRQHandler+0x474>)
 8004376:	e9c5 2300 	strd	r2, r3, [r5]
 800437a:	e9c1 2300 	strd	r2, r3, [r1]
 800437e:	e9c4 2300 	strd	r2, r3, [r4]
 8004382:	e9cd 2304 	strd	r2, r3, [sp, #16]
 8004386:	f85b 0b04 	ldr.w	r0, [fp], #4
 800438a:	f7fc f84d 	bl	8000428 <__aeabi_f2d>
 800438e:	4602      	mov	r2, r0
 8004390:	460b      	mov	r3, r1
 8004392:	e9cd 0100 	strd	r0, r1, [sp]
 8004396:	e9d7 0100 	ldrd	r0, r1, [r7]
 800439a:	f7fb fee7 	bl	800016c <__adddf3>
 800439e:	9b03      	ldr	r3, [sp, #12]
 80043a0:	e9c7 0100 	strd	r0, r1, [r7]
 80043a4:	f853 0b04 	ldr.w	r0, [r3], #4
 80043a8:	9303      	str	r3, [sp, #12]
 80043aa:	f7fc f83d 	bl	8000428 <__aeabi_f2d>
 80043ae:	4680      	mov	r8, r0
 80043b0:	4689      	mov	r9, r1
 80043b2:	4602      	mov	r2, r0
 80043b4:	460b      	mov	r3, r1
 80043b6:	e9d4 0100 	ldrd	r0, r1, [r4]
 80043ba:	f7fb fed7 	bl	800016c <__adddf3>
 80043be:	4642      	mov	r2, r8
 80043c0:	464b      	mov	r3, r9
 80043c2:	e9c4 0100 	strd	r0, r1, [r4]
 80043c6:	4640      	mov	r0, r8
 80043c8:	4649      	mov	r1, r9
 80043ca:	f7fc f885 	bl	80004d8 <__aeabi_dmul>
 80043ce:	e9dd 2300 	ldrd	r2, r3, [sp]
 80043d2:	4680      	mov	r8, r0
 80043d4:	4689      	mov	r9, r1
 80043d6:	4610      	mov	r0, r2
 80043d8:	4619      	mov	r1, r3
 80043da:	f7fc f87d 	bl	80004d8 <__aeabi_dmul>
 80043de:	4602      	mov	r2, r0
 80043e0:	460b      	mov	r3, r1
 80043e2:	4640      	mov	r0, r8
 80043e4:	4649      	mov	r1, r9
 80043e6:	f7fb fec1 	bl	800016c <__adddf3>
 80043ea:	f003 fa99 	bl	8007920 <sqrt>
 80043ee:	4680      	mov	r8, r0
 80043f0:	4689      	mov	r9, r1
 80043f2:	4b75      	ldr	r3, [pc, #468]	; (80045c8 <TIM4_IRQHandler+0x478>)
 80043f4:	e9c3 8900 	strd	r8, r9, [r3]
 80043f8:	e9d5 2300 	ldrd	r2, r3, [r5]
 80043fc:	f7fc fafc 	bl	80009f8 <__aeabi_dcmpgt>
 8004400:	b108      	cbz	r0, 8004406 <TIM4_IRQHandler+0x2b6>
 8004402:	e9c5 8900 	strd	r8, r9, [r5]
 8004406:	3601      	adds	r6, #1
 8004408:	2e64      	cmp	r6, #100	; 0x64
 800440a:	d1bc      	bne.n	8004386 <TIM4_IRQHandler+0x236>
 800440c:	e9d4 0100 	ldrd	r0, r1, [r4]
 8004410:	2200      	movs	r2, #0
 8004412:	4b6e      	ldr	r3, [pc, #440]	; (80045cc <TIM4_IRQHandler+0x47c>)
 8004414:	f7fc f98a 	bl	800072c <__aeabi_ddiv>
 8004418:	2200      	movs	r2, #0
 800441a:	4680      	mov	r8, r0
 800441c:	4689      	mov	r9, r1
 800441e:	e9da 0100 	ldrd	r0, r1, [sl]
 8004422:	4b6a      	ldr	r3, [pc, #424]	; (80045cc <TIM4_IRQHandler+0x47c>)
 8004424:	f7fc f982 	bl	800072c <__aeabi_ddiv>
 8004428:	2200      	movs	r2, #0
 800442a:	4b69      	ldr	r3, [pc, #420]	; (80045d0 <TIM4_IRQHandler+0x480>)
 800442c:	f7fc f97e 	bl	800072c <__aeabi_ddiv>
 8004430:	4606      	mov	r6, r0
 8004432:	460f      	mov	r7, r1
 8004434:	2200      	movs	r2, #0
 8004436:	e9ca 6700 	strd	r6, r7, [sl]
 800443a:	4640      	mov	r0, r8
 800443c:	4649      	mov	r1, r9
 800443e:	4b64      	ldr	r3, [pc, #400]	; (80045d0 <TIM4_IRQHandler+0x480>)
 8004440:	f7fc f974 	bl	800072c <__aeabi_ddiv>
 8004444:	4680      	mov	r8, r0
 8004446:	4689      	mov	r9, r1
 8004448:	e9d5 0100 	ldrd	r0, r1, [r5]
 800444c:	e9c4 8900 	strd	r8, r9, [r4]
 8004450:	2200      	movs	r2, #0
 8004452:	4b5f      	ldr	r3, [pc, #380]	; (80045d0 <TIM4_IRQHandler+0x480>)
 8004454:	f7fc f96a 	bl	800072c <__aeabi_ddiv>
 8004458:	4642      	mov	r2, r8
 800445a:	e9c5 0100 	strd	r0, r1, [r5]
 800445e:	464b      	mov	r3, r9
 8004460:	4640      	mov	r0, r8
 8004462:	4649      	mov	r1, r9
 8004464:	f7fc f838 	bl	80004d8 <__aeabi_dmul>
 8004468:	4632      	mov	r2, r6
 800446a:	463b      	mov	r3, r7
 800446c:	4680      	mov	r8, r0
 800446e:	4689      	mov	r9, r1
 8004470:	4630      	mov	r0, r6
 8004472:	4639      	mov	r1, r7
 8004474:	f7fc f830 	bl	80004d8 <__aeabi_dmul>
 8004478:	4602      	mov	r2, r0
 800447a:	460b      	mov	r3, r1
 800447c:	4640      	mov	r0, r8
 800447e:	4649      	mov	r1, r9
 8004480:	f7fb fe74 	bl	800016c <__adddf3>
 8004484:	f003 fa4c 	bl	8007920 <sqrt>
 8004488:	4606      	mov	r6, r0
 800448a:	460f      	mov	r7, r1
 800448c:	4b4e      	ldr	r3, [pc, #312]	; (80045c8 <TIM4_IRQHandler+0x478>)
 800448e:	2200      	movs	r2, #0
 8004490:	e9c3 6700 	strd	r6, r7, [r3]
 8004494:	2300      	movs	r3, #0
 8004496:	f7fc fa87 	bl	80009a8 <__aeabi_dcmpeq>
 800449a:	4d4e      	ldr	r5, [pc, #312]	; (80045d4 <TIM4_IRQHandler+0x484>)
 800449c:	b150      	cbz	r0, 80044b4 <TIM4_IRQHandler+0x364>
 800449e:	e9dd 3404 	ldrd	r3, r4, [sp, #16]
 80044a2:	e9c5 3400 	strd	r3, r4, [r5]
 80044a6:	2300      	movs	r3, #0
 80044a8:	4a42      	ldr	r2, [pc, #264]	; (80045b4 <TIM4_IRQHandler+0x464>)
 80044aa:	8013      	strh	r3, [r2, #0]
 80044ac:	2201      	movs	r2, #1
 80044ae:	4b4a      	ldr	r3, [pc, #296]	; (80045d8 <TIM4_IRQHandler+0x488>)
 80044b0:	701a      	strb	r2, [r3, #0]
 80044b2:	e6af      	b.n	8004214 <TIM4_IRQHandler+0xc4>
 80044b4:	4632      	mov	r2, r6
 80044b6:	e9da 0100 	ldrd	r0, r1, [sl]
 80044ba:	463b      	mov	r3, r7
 80044bc:	f7fc f936 	bl	800072c <__aeabi_ddiv>
 80044c0:	f003 fa00 	bl	80078c4 <acos>
 80044c4:	2200      	movs	r2, #0
 80044c6:	4b45      	ldr	r3, [pc, #276]	; (80045dc <TIM4_IRQHandler+0x48c>)
 80044c8:	f7fc f806 	bl	80004d8 <__aeabi_dmul>
 80044cc:	a336      	add	r3, pc, #216	; (adr r3, 80045a8 <TIM4_IRQHandler+0x458>)
 80044ce:	e9d3 2300 	ldrd	r2, r3, [r3]
 80044d2:	f7fc f92b 	bl	800072c <__aeabi_ddiv>
 80044d6:	4606      	mov	r6, r0
 80044d8:	460f      	mov	r7, r1
 80044da:	e9d4 0100 	ldrd	r0, r1, [r4]
 80044de:	2200      	movs	r2, #0
 80044e0:	2300      	movs	r3, #0
 80044e2:	e9c5 6700 	strd	r6, r7, [r5]
 80044e6:	f7fc fa69 	bl	80009bc <__aeabi_dcmplt>
 80044ea:	2800      	cmp	r0, #0
 80044ec:	d0db      	beq.n	80044a6 <TIM4_IRQHandler+0x356>
 80044ee:	4632      	mov	r2, r6
 80044f0:	463b      	mov	r3, r7
 80044f2:	2000      	movs	r0, #0
 80044f4:	493a      	ldr	r1, [pc, #232]	; (80045e0 <TIM4_IRQHandler+0x490>)
 80044f6:	f7fb fe37 	bl	8000168 <__aeabi_dsub>
 80044fa:	e9c5 0100 	strd	r0, r1, [r5]
 80044fe:	e7d2      	b.n	80044a6 <TIM4_IRQHandler+0x356>
 8004500:	4b38      	ldr	r3, [pc, #224]	; (80045e4 <TIM4_IRQHandler+0x494>)
 8004502:	8818      	ldrh	r0, [r3, #0]
 8004504:	4b38      	ldr	r3, [pc, #224]	; (80045e8 <TIM4_IRQHandler+0x498>)
 8004506:	881b      	ldrh	r3, [r3, #0]
 8004508:	1ac0      	subs	r0, r0, r3
 800450a:	f7fc fbc7 	bl	8000c9c <__aeabi_i2f>
 800450e:	4b37      	ldr	r3, [pc, #220]	; (80045ec <TIM4_IRQHandler+0x49c>)
 8004510:	6819      	ldr	r1, [r3, #0]
 8004512:	f7fc fb0d 	bl	8000b30 <__aeabi_fsub>
 8004516:	4b36      	ldr	r3, [pc, #216]	; (80045f0 <TIM4_IRQHandler+0x4a0>)
 8004518:	4606      	mov	r6, r0
 800451a:	8818      	ldrh	r0, [r3, #0]
 800451c:	f7fc fbbe 	bl	8000c9c <__aeabi_i2f>
 8004520:	4601      	mov	r1, r0
 8004522:	4630      	mov	r0, r6
 8004524:	f7fc fb06 	bl	8000b34 <__addsf3>
 8004528:	4b32      	ldr	r3, [pc, #200]	; (80045f4 <TIM4_IRQHandler+0x4a4>)
 800452a:	4606      	mov	r6, r0
 800452c:	8818      	ldrh	r0, [r3, #0]
 800452e:	f7fc fbb5 	bl	8000c9c <__aeabi_i2f>
 8004532:	4601      	mov	r1, r0
 8004534:	4630      	mov	r0, r6
 8004536:	f7fc fafb 	bl	8000b30 <__aeabi_fsub>
 800453a:	4b2f      	ldr	r3, [pc, #188]	; (80045f8 <TIM4_IRQHandler+0x4a8>)
 800453c:	6819      	ldr	r1, [r3, #0]
 800453e:	f7fc faf7 	bl	8000b30 <__aeabi_fsub>
 8004542:	f04f 517c 	mov.w	r1, #1056964608	; 0x3f000000
 8004546:	f7fc fbfd 	bl	8000d44 <__aeabi_fmul>
 800454a:	4b2c      	ldr	r3, [pc, #176]	; (80045fc <TIM4_IRQHandler+0x4ac>)
 800454c:	f84b 0024 	str.w	r0, [fp, r4, lsl #2]
 8004550:	8818      	ldrh	r0, [r3, #0]
 8004552:	4b2b      	ldr	r3, [pc, #172]	; (8004600 <TIM4_IRQHandler+0x4b0>)
 8004554:	881b      	ldrh	r3, [r3, #0]
 8004556:	1ac0      	subs	r0, r0, r3
 8004558:	f7fc fba0 	bl	8000c9c <__aeabi_i2f>
 800455c:	4b29      	ldr	r3, [pc, #164]	; (8004604 <TIM4_IRQHandler+0x4b4>)
 800455e:	6819      	ldr	r1, [r3, #0]
 8004560:	f7fc fae6 	bl	8000b30 <__aeabi_fsub>
 8004564:	4b28      	ldr	r3, [pc, #160]	; (8004608 <TIM4_IRQHandler+0x4b8>)
 8004566:	4606      	mov	r6, r0
 8004568:	8818      	ldrh	r0, [r3, #0]
 800456a:	f7fc fb97 	bl	8000c9c <__aeabi_i2f>
 800456e:	4601      	mov	r1, r0
 8004570:	4630      	mov	r0, r6
 8004572:	f7fc fadf 	bl	8000b34 <__addsf3>
 8004576:	4b25      	ldr	r3, [pc, #148]	; (800460c <TIM4_IRQHandler+0x4bc>)
 8004578:	4606      	mov	r6, r0
 800457a:	8818      	ldrh	r0, [r3, #0]
 800457c:	f7fc fb8e 	bl	8000c9c <__aeabi_i2f>
 8004580:	4601      	mov	r1, r0
 8004582:	4630      	mov	r0, r6
 8004584:	f7fc fad4 	bl	8000b30 <__aeabi_fsub>
 8004588:	4b21      	ldr	r3, [pc, #132]	; (8004610 <TIM4_IRQHandler+0x4c0>)
 800458a:	6819      	ldr	r1, [r3, #0]
 800458c:	f7fc fad0 	bl	8000b30 <__aeabi_fsub>
 8004590:	f04f 517c 	mov.w	r1, #1056964608	; 0x3f000000
 8004594:	f7fc fbd6 	bl	8000d44 <__aeabi_fmul>
 8004598:	f847 0024 	str.w	r0, [r7, r4, lsl #2]
 800459c:	3401      	adds	r4, #1
 800459e:	802c      	strh	r4, [r5, #0]
 80045a0:	e638      	b.n	8004214 <TIM4_IRQHandler+0xc4>
 80045a2:	bf00      	nop
 80045a4:	f3af 8000 	nop.w
 80045a8:	4d12d84a 	.word	0x4d12d84a
 80045ac:	400921fb 	.word	0x400921fb
 80045b0:	20000b8a 	.word	0x20000b8a
 80045b4:	200006da 	.word	0x200006da
 80045b8:	200007a8 	.word	0x200007a8
 80045bc:	200009a0 	.word	0x200009a0
 80045c0:	200006d0 	.word	0x200006d0
 80045c4:	200005d8 	.word	0x200005d8
 80045c8:	20000950 	.word	0x20000950
 80045cc:	40590000 	.word	0x40590000
 80045d0:	40418000 	.word	0x40418000
 80045d4:	20000730 	.word	0x20000730
 80045d8:	200005d4 	.word	0x200005d4
 80045dc:	40668000 	.word	0x40668000
 80045e0:	40768000 	.word	0x40768000
 80045e4:	2000099e 	.word	0x2000099e
 80045e8:	2000073a 	.word	0x2000073a
 80045ec:	200005d0 	.word	0x200005d0
 80045f0:	200009a8 	.word	0x200009a8
 80045f4:	20000754 	.word	0x20000754
 80045f8:	20000948 	.word	0x20000948
 80045fc:	20000b88 	.word	0x20000b88
 8004600:	20000b84 	.word	0x20000b84
 8004604:	2000073c 	.word	0x2000073c
 8004608:	200006d8 	.word	0x200006d8
 800460c:	20000742 	.word	0x20000742
 8004610:	200005e4 	.word	0x200005e4
 8004614:	200009ac 	.word	0x200009ac

08004618 <_getpid>:
 8004618:	2001      	movs	r0, #1
 800461a:	4770      	bx	lr

0800461c <_kill>:
 800461c:	b508      	push	{r3, lr}
 800461e:	f003 fcad 	bl	8007f7c <__errno>
 8004622:	2316      	movs	r3, #22
 8004624:	6003      	str	r3, [r0, #0]
 8004626:	f04f 30ff 	mov.w	r0, #4294967295	; 0xffffffff
 800462a:	bd08      	pop	{r3, pc}

0800462c <_exit>:
 800462c:	b508      	push	{r3, lr}
 800462e:	f003 fca5 	bl	8007f7c <__errno>
 8004632:	2316      	movs	r3, #22
 8004634:	6003      	str	r3, [r0, #0]
 8004636:	e7fe      	b.n	8004636 <_exit+0xa>

08004638 <_read>:
 8004638:	b570      	push	{r4, r5, r6, lr}
 800463a:	460e      	mov	r6, r1
 800463c:	4614      	mov	r4, r2
 800463e:	2500      	movs	r5, #0
 8004640:	42a5      	cmp	r5, r4
 8004642:	db01      	blt.n	8004648 <_read+0x10>
 8004644:	4620      	mov	r0, r4
 8004646:	bd70      	pop	{r4, r5, r6, pc}
 8004648:	f3af 8000 	nop.w
 800464c:	5570      	strb	r0, [r6, r5]
 800464e:	3501      	adds	r5, #1
 8004650:	e7f6      	b.n	8004640 <_read+0x8>

08004652 <_write>:
 8004652:	b570      	push	{r4, r5, r6, lr}
 8004654:	460e      	mov	r6, r1
 8004656:	4614      	mov	r4, r2
 8004658:	2500      	movs	r5, #0
 800465a:	42a5      	cmp	r5, r4
 800465c:	db01      	blt.n	8004662 <_write+0x10>
 800465e:	4620      	mov	r0, r4
 8004660:	bd70      	pop	{r4, r5, r6, pc}
 8004662:	5d70      	ldrb	r0, [r6, r5]
 8004664:	f3af 8000 	nop.w
 8004668:	3501      	adds	r5, #1
 800466a:	e7f6      	b.n	800465a <_write+0x8>

0800466c <_close>:
 800466c:	f04f 30ff 	mov.w	r0, #4294967295	; 0xffffffff
 8004670:	4770      	bx	lr

08004672 <_fstat>:
 8004672:	f44f 5300 	mov.w	r3, #8192	; 0x2000
 8004676:	2000      	movs	r0, #0
 8004678:	604b      	str	r3, [r1, #4]
 800467a:	4770      	bx	lr

0800467c <_isatty>:
 800467c:	2001      	movs	r0, #1
 800467e:	4770      	bx	lr

08004680 <_lseek>:
 8004680:	2000      	movs	r0, #0
 8004682:	4770      	bx	lr

08004684 <_sbrk>:
 8004684:	4b0b      	ldr	r3, [pc, #44]	; (80046b4 <_sbrk+0x30>)
 8004686:	4602      	mov	r2, r0
 8004688:	6819      	ldr	r1, [r3, #0]
 800468a:	b510      	push	{r4, lr}
 800468c:	b909      	cbnz	r1, 8004692 <_sbrk+0xe>
 800468e:	490a      	ldr	r1, [pc, #40]	; (80046b8 <_sbrk+0x34>)
 8004690:	6019      	str	r1, [r3, #0]
 8004692:	6818      	ldr	r0, [r3, #0]
 8004694:	4909      	ldr	r1, [pc, #36]	; (80046bc <_sbrk+0x38>)
 8004696:	4c0a      	ldr	r4, [pc, #40]	; (80046c0 <_sbrk+0x3c>)
 8004698:	4402      	add	r2, r0
 800469a:	1b09      	subs	r1, r1, r4
 800469c:	428a      	cmp	r2, r1
 800469e:	d906      	bls.n	80046ae <_sbrk+0x2a>
 80046a0:	f003 fc6c 	bl	8007f7c <__errno>
 80046a4:	230c      	movs	r3, #12
 80046a6:	6003      	str	r3, [r0, #0]
 80046a8:	f04f 30ff 	mov.w	r0, #4294967295	; 0xffffffff
 80046ac:	bd10      	pop	{r4, pc}
 80046ae:	601a      	str	r2, [r3, #0]
 80046b0:	e7fc      	b.n	80046ac <_sbrk+0x28>
 80046b2:	bf00      	nop
 80046b4:	20000574 	.word	0x20000574
 80046b8:	20000d20 	.word	0x20000d20
 80046bc:	20005000 	.word	0x20005000
 80046c0:	00000400 	.word	0x00000400

080046c4 <SystemInit>:
 80046c4:	4770      	bx	lr
	...

080046c8 <WIZCHIP_READ>:
 80046c8:	b573      	push	{r0, r1, r4, r5, r6, lr}
 80046ca:	4605      	mov	r5, r0
 80046cc:	4c14      	ldr	r4, [pc, #80]	; (8004720 <WIZCHIP_READ+0x58>)
 80046ce:	f3c5 2607 	ubfx	r6, r5, #8, #8
 80046d2:	68e3      	ldr	r3, [r4, #12]
 80046d4:	4798      	blx	r3
 80046d6:	6963      	ldr	r3, [r4, #20]
 80046d8:	4798      	blx	r3
 80046da:	6a63      	ldr	r3, [r4, #36]	; 0x24
 80046dc:	f3c5 4007 	ubfx	r0, r5, #16, #8
 80046e0:	b2ed      	uxtb	r5, r5
 80046e2:	b10b      	cbz	r3, 80046e8 <WIZCHIP_READ+0x20>
 80046e4:	6aa3      	ldr	r3, [r4, #40]	; 0x28
 80046e6:	b98b      	cbnz	r3, 800470c <WIZCHIP_READ+0x44>
 80046e8:	6a23      	ldr	r3, [r4, #32]
 80046ea:	4798      	blx	r3
 80046ec:	4630      	mov	r0, r6
 80046ee:	6a23      	ldr	r3, [r4, #32]
 80046f0:	4798      	blx	r3
 80046f2:	4628      	mov	r0, r5
 80046f4:	6a23      	ldr	r3, [r4, #32]
 80046f6:	4798      	blx	r3
 80046f8:	69e3      	ldr	r3, [r4, #28]
 80046fa:	4798      	blx	r3
 80046fc:	4605      	mov	r5, r0
 80046fe:	69a3      	ldr	r3, [r4, #24]
 8004700:	4798      	blx	r3
 8004702:	6923      	ldr	r3, [r4, #16]
 8004704:	4798      	blx	r3
 8004706:	4628      	mov	r0, r5
 8004708:	b002      	add	sp, #8
 800470a:	bd70      	pop	{r4, r5, r6, pc}
 800470c:	f88d 0004 	strb.w	r0, [sp, #4]
 8004710:	2103      	movs	r1, #3
 8004712:	f88d 6005 	strb.w	r6, [sp, #5]
 8004716:	f88d 5006 	strb.w	r5, [sp, #6]
 800471a:	a801      	add	r0, sp, #4
 800471c:	4798      	blx	r3
 800471e:	e7eb      	b.n	80046f8 <WIZCHIP_READ+0x30>
 8004720:	2000013c 	.word	0x2000013c

08004724 <WIZCHIP_WRITE>:
 8004724:	b5f7      	push	{r0, r1, r2, r4, r5, r6, r7, lr}
 8004726:	4605      	mov	r5, r0
 8004728:	4c16      	ldr	r4, [pc, #88]	; (8004784 <WIZCHIP_WRITE+0x60>)
 800472a:	460f      	mov	r7, r1
 800472c:	68e3      	ldr	r3, [r4, #12]
 800472e:	4798      	blx	r3
 8004730:	6963      	ldr	r3, [r4, #20]
 8004732:	4798      	blx	r3
 8004734:	6aa3      	ldr	r3, [r4, #40]	; 0x28
 8004736:	f045 0604 	orr.w	r6, r5, #4
 800473a:	f3c5 4007 	ubfx	r0, r5, #16, #8
 800473e:	b2f6      	uxtb	r6, r6
 8004740:	f3c5 2507 	ubfx	r5, r5, #8, #8
 8004744:	b983      	cbnz	r3, 8004768 <WIZCHIP_WRITE+0x44>
 8004746:	6a23      	ldr	r3, [r4, #32]
 8004748:	4798      	blx	r3
 800474a:	4628      	mov	r0, r5
 800474c:	6a23      	ldr	r3, [r4, #32]
 800474e:	4798      	blx	r3
 8004750:	4630      	mov	r0, r6
 8004752:	6a23      	ldr	r3, [r4, #32]
 8004754:	4798      	blx	r3
 8004756:	4638      	mov	r0, r7
 8004758:	6a23      	ldr	r3, [r4, #32]
 800475a:	4798      	blx	r3
 800475c:	69a3      	ldr	r3, [r4, #24]
 800475e:	4798      	blx	r3
 8004760:	6923      	ldr	r3, [r4, #16]
 8004762:	4798      	blx	r3
 8004764:	b003      	add	sp, #12
 8004766:	bdf0      	pop	{r4, r5, r6, r7, pc}
 8004768:	2104      	movs	r1, #4
 800476a:	f88d 0004 	strb.w	r0, [sp, #4]
 800476e:	f88d 5005 	strb.w	r5, [sp, #5]
 8004772:	f88d 6006 	strb.w	r6, [sp, #6]
 8004776:	f88d 7007 	strb.w	r7, [sp, #7]
 800477a:	eb0d 0001 	add.w	r0, sp, r1
 800477e:	4798      	blx	r3
 8004780:	e7ec      	b.n	800475c <WIZCHIP_WRITE+0x38>
 8004782:	bf00      	nop
 8004784:	2000013c 	.word	0x2000013c

08004788 <WIZCHIP_READ_BUF>:
 8004788:	e92d 41f3 	stmdb	sp!, {r0, r1, r4, r5, r6, r7, r8, lr}
 800478c:	4605      	mov	r5, r0
 800478e:	4c1a      	ldr	r4, [pc, #104]	; (80047f8 <WIZCHIP_READ_BUF+0x70>)
 8004790:	460e      	mov	r6, r1
 8004792:	68e3      	ldr	r3, [r4, #12]
 8004794:	4617      	mov	r7, r2
 8004796:	4798      	blx	r3
 8004798:	6963      	ldr	r3, [r4, #20]
 800479a:	4798      	blx	r3
 800479c:	6a63      	ldr	r3, [r4, #36]	; 0x24
 800479e:	f3c5 4007 	ubfx	r0, r5, #16, #8
 80047a2:	f3c5 2807 	ubfx	r8, r5, #8, #8
 80047a6:	b2ed      	uxtb	r5, r5
 80047a8:	b10b      	cbz	r3, 80047ae <WIZCHIP_READ_BUF+0x26>
 80047aa:	6aa3      	ldr	r3, [r4, #40]	; 0x28
 80047ac:	b9b3      	cbnz	r3, 80047dc <WIZCHIP_READ_BUF+0x54>
 80047ae:	6a23      	ldr	r3, [r4, #32]
 80047b0:	4798      	blx	r3
 80047b2:	4640      	mov	r0, r8
 80047b4:	6a23      	ldr	r3, [r4, #32]
 80047b6:	4798      	blx	r3
 80047b8:	4628      	mov	r0, r5
 80047ba:	6a23      	ldr	r3, [r4, #32]
 80047bc:	4798      	blx	r3
 80047be:	4437      	add	r7, r6
 80047c0:	42b7      	cmp	r7, r6
 80047c2:	d106      	bne.n	80047d2 <WIZCHIP_READ_BUF+0x4a>
 80047c4:	69a3      	ldr	r3, [r4, #24]
 80047c6:	4798      	blx	r3
 80047c8:	6923      	ldr	r3, [r4, #16]
 80047ca:	4798      	blx	r3
 80047cc:	b002      	add	sp, #8
 80047ce:	e8bd 81f0 	ldmia.w	sp!, {r4, r5, r6, r7, r8, pc}
 80047d2:	69e3      	ldr	r3, [r4, #28]
 80047d4:	4798      	blx	r3
 80047d6:	f806 0b01 	strb.w	r0, [r6], #1
 80047da:	e7f1      	b.n	80047c0 <WIZCHIP_READ_BUF+0x38>
 80047dc:	f88d 0004 	strb.w	r0, [sp, #4]
 80047e0:	2103      	movs	r1, #3
 80047e2:	a801      	add	r0, sp, #4
 80047e4:	f88d 8005 	strb.w	r8, [sp, #5]
 80047e8:	f88d 5006 	strb.w	r5, [sp, #6]
 80047ec:	4798      	blx	r3
 80047ee:	4639      	mov	r1, r7
 80047f0:	4630      	mov	r0, r6
 80047f2:	6a63      	ldr	r3, [r4, #36]	; 0x24
 80047f4:	4798      	blx	r3
 80047f6:	e7e5      	b.n	80047c4 <WIZCHIP_READ_BUF+0x3c>
 80047f8:	2000013c 	.word	0x2000013c

080047fc <WIZCHIP_WRITE_BUF>:
 80047fc:	e92d 41f3 	stmdb	sp!, {r0, r1, r4, r5, r6, r7, r8, lr}
 8004800:	4605      	mov	r5, r0
 8004802:	4c1a      	ldr	r4, [pc, #104]	; (800486c <WIZCHIP_WRITE_BUF+0x70>)
 8004804:	4688      	mov	r8, r1
 8004806:	68e3      	ldr	r3, [r4, #12]
 8004808:	4617      	mov	r7, r2
 800480a:	4798      	blx	r3
 800480c:	6963      	ldr	r3, [r4, #20]
 800480e:	4798      	blx	r3
 8004810:	6aa3      	ldr	r3, [r4, #40]	; 0x28
 8004812:	f045 0604 	orr.w	r6, r5, #4
 8004816:	f3c5 4007 	ubfx	r0, r5, #16, #8
 800481a:	b2f6      	uxtb	r6, r6
 800481c:	f3c5 2507 	ubfx	r5, r5, #8, #8
 8004820:	b9b3      	cbnz	r3, 8004850 <WIZCHIP_WRITE_BUF+0x54>
 8004822:	6a23      	ldr	r3, [r4, #32]
 8004824:	4798      	blx	r3
 8004826:	4628      	mov	r0, r5
 8004828:	6a23      	ldr	r3, [r4, #32]
 800482a:	4798      	blx	r3
 800482c:	4630      	mov	r0, r6
 800482e:	6a23      	ldr	r3, [r4, #32]
 8004830:	4798      	blx	r3
 8004832:	4447      	add	r7, r8
 8004834:	4547      	cmp	r7, r8
 8004836:	d106      	bne.n	8004846 <WIZCHIP_WRITE_BUF+0x4a>
 8004838:	69a3      	ldr	r3, [r4, #24]
 800483a:	4798      	blx	r3
 800483c:	6923      	ldr	r3, [r4, #16]
 800483e:	4798      	blx	r3
 8004840:	b002      	add	sp, #8
 8004842:	e8bd 81f0 	ldmia.w	sp!, {r4, r5, r6, r7, r8, pc}
 8004846:	6a23      	ldr	r3, [r4, #32]
 8004848:	f818 0b01 	ldrb.w	r0, [r8], #1
 800484c:	4798      	blx	r3
 800484e:	e7f1      	b.n	8004834 <WIZCHIP_WRITE_BUF+0x38>
 8004850:	f88d 0004 	strb.w	r0, [sp, #4]
 8004854:	2103      	movs	r1, #3
 8004856:	a801      	add	r0, sp, #4
 8004858:	f88d 5005 	strb.w	r5, [sp, #5]
 800485c:	f88d 6006 	strb.w	r6, [sp, #6]
 8004860:	4798      	blx	r3
 8004862:	4639      	mov	r1, r7
 8004864:	4640      	mov	r0, r8
 8004866:	6aa3      	ldr	r3, [r4, #40]	; 0x28
 8004868:	4798      	blx	r3
 800486a:	e7e5      	b.n	8004838 <WIZCHIP_WRITE_BUF+0x3c>
 800486c:	2000013c 	.word	0x2000013c

08004870 <getSn_TX_FSR>:
 8004870:	b5f8      	push	{r3, r4, r5, r6, r7, lr}
 8004872:	2400      	movs	r4, #0
 8004874:	0146      	lsls	r6, r0, #5
 8004876:	3608      	adds	r6, #8
 8004878:	f506 5700 	add.w	r7, r6, #8192	; 0x2000
 800487c:	f506 5604 	add.w	r6, r6, #8448	; 0x2100
 8004880:	4638      	mov	r0, r7
 8004882:	f7ff ff21 	bl	80046c8 <WIZCHIP_READ>
 8004886:	0205      	lsls	r5, r0, #8
 8004888:	4630      	mov	r0, r6
 800488a:	f7ff ff1d 	bl	80046c8 <WIZCHIP_READ>
 800488e:	b2ad      	uxth	r5, r5
 8004890:	4405      	add	r5, r0
 8004892:	b2ad      	uxth	r5, r5
 8004894:	b14d      	cbz	r5, 80048aa <getSn_TX_FSR+0x3a>
 8004896:	4638      	mov	r0, r7
 8004898:	f7ff ff16 	bl	80046c8 <WIZCHIP_READ>
 800489c:	0204      	lsls	r4, r0, #8
 800489e:	4630      	mov	r0, r6
 80048a0:	f7ff ff12 	bl	80046c8 <WIZCHIP_READ>
 80048a4:	b2a4      	uxth	r4, r4
 80048a6:	4404      	add	r4, r0
 80048a8:	b2a4      	uxth	r4, r4
 80048aa:	42ac      	cmp	r4, r5
 80048ac:	d1e8      	bne.n	8004880 <getSn_TX_FSR+0x10>
 80048ae:	4620      	mov	r0, r4
 80048b0:	bdf8      	pop	{r3, r4, r5, r6, r7, pc}

080048b2 <getSn_RX_RSR>:
 80048b2:	b5f8      	push	{r3, r4, r5, r6, r7, lr}
 80048b4:	2400      	movs	r4, #0
 80048b6:	0146      	lsls	r6, r0, #5
 80048b8:	3608      	adds	r6, #8
 80048ba:	f506 5718 	add.w	r7, r6, #9728	; 0x2600
 80048be:	f506 561c 	add.w	r6, r6, #9984	; 0x2700
 80048c2:	4638      	mov	r0, r7
 80048c4:	f7ff ff00 	bl	80046c8 <WIZCHIP_READ>
 80048c8:	0205      	lsls	r5, r0, #8
 80048ca:	4630      	mov	r0, r6
 80048cc:	f7ff fefc 	bl	80046c8 <WIZCHIP_READ>
 80048d0:	b2ad      	uxth	r5, r5
 80048d2:	4405      	add	r5, r0
 80048d4:	b2ad      	uxth	r5, r5
 80048d6:	b14d      	cbz	r5, 80048ec <getSn_RX_RSR+0x3a>
 80048d8:	4638      	mov	r0, r7
 80048da:	f7ff fef5 	bl	80046c8 <WIZCHIP_READ>
 80048de:	0204      	lsls	r4, r0, #8
 80048e0:	4630      	mov	r0, r6
 80048e2:	f7ff fef1 	bl	80046c8 <WIZCHIP_READ>
 80048e6:	b2a4      	uxth	r4, r4
 80048e8:	4404      	add	r4, r0
 80048ea:	b2a4      	uxth	r4, r4
 80048ec:	42ac      	cmp	r4, r5
 80048ee:	d1e8      	bne.n	80048c2 <getSn_RX_RSR+0x10>
 80048f0:	4620      	mov	r0, r4
 80048f2:	bdf8      	pop	{r3, r4, r5, r6, r7, pc}

080048f4 <wiz_send_data>:
 80048f4:	e92d 43f8 	stmdb	sp!, {r3, r4, r5, r6, r7, r8, r9, lr}
 80048f8:	4689      	mov	r9, r1
 80048fa:	4614      	mov	r4, r2
 80048fc:	b32a      	cbz	r2, 800494a <wiz_send_data+0x56>
 80048fe:	0085      	lsls	r5, r0, #2
 8004900:	1c6f      	adds	r7, r5, #1
 8004902:	00ff      	lsls	r7, r7, #3
 8004904:	f507 5810 	add.w	r8, r7, #9216	; 0x2400
 8004908:	4640      	mov	r0, r8
 800490a:	f7ff fedd 	bl	80046c8 <WIZCHIP_READ>
 800490e:	f507 5714 	add.w	r7, r7, #9472	; 0x2500
 8004912:	4606      	mov	r6, r0
 8004914:	4638      	mov	r0, r7
 8004916:	f7ff fed7 	bl	80046c8 <WIZCHIP_READ>
 800491a:	eb00 2006 	add.w	r0, r0, r6, lsl #8
 800491e:	b286      	uxth	r6, r0
 8004920:	3502      	adds	r5, #2
 8004922:	0230      	lsls	r0, r6, #8
 8004924:	4622      	mov	r2, r4
 8004926:	4649      	mov	r1, r9
 8004928:	eb00 00c5 	add.w	r0, r0, r5, lsl #3
 800492c:	f7ff ff66 	bl	80047fc <WIZCHIP_WRITE_BUF>
 8004930:	19a1      	adds	r1, r4, r6
 8004932:	4640      	mov	r0, r8
 8004934:	b28c      	uxth	r4, r1
 8004936:	f3c1 2107 	ubfx	r1, r1, #8, #8
 800493a:	f7ff fef3 	bl	8004724 <WIZCHIP_WRITE>
 800493e:	4638      	mov	r0, r7
 8004940:	b2e1      	uxtb	r1, r4
 8004942:	e8bd 43f8 	ldmia.w	sp!, {r3, r4, r5, r6, r7, r8, r9, lr}
 8004946:	f7ff beed 	b.w	8004724 <WIZCHIP_WRITE>
 800494a:	e8bd 83f8 	ldmia.w	sp!, {r3, r4, r5, r6, r7, r8, r9, pc}

0800494e <wiz_recv_data>:
 800494e:	e92d 43f8 	stmdb	sp!, {r3, r4, r5, r6, r7, r8, r9, lr}
 8004952:	4689      	mov	r9, r1
 8004954:	4614      	mov	r4, r2
 8004956:	b32a      	cbz	r2, 80049a4 <wiz_recv_data+0x56>
 8004958:	0085      	lsls	r5, r0, #2
 800495a:	1c6f      	adds	r7, r5, #1
 800495c:	00ff      	lsls	r7, r7, #3
 800495e:	f507 5820 	add.w	r8, r7, #10240	; 0x2800
 8004962:	4640      	mov	r0, r8
 8004964:	f7ff feb0 	bl	80046c8 <WIZCHIP_READ>
 8004968:	f507 5724 	add.w	r7, r7, #10496	; 0x2900
 800496c:	4606      	mov	r6, r0
 800496e:	4638      	mov	r0, r7
 8004970:	f7ff feaa 	bl	80046c8 <WIZCHIP_READ>
 8004974:	eb00 2006 	add.w	r0, r0, r6, lsl #8
 8004978:	b286      	uxth	r6, r0
 800497a:	3503      	adds	r5, #3
 800497c:	0230      	lsls	r0, r6, #8
 800497e:	4622      	mov	r2, r4
 8004980:	4649      	mov	r1, r9
 8004982:	eb00 00c5 	add.w	r0, r0, r5, lsl #3
 8004986:	f7ff feff 	bl	8004788 <WIZCHIP_READ_BUF>
 800498a:	19a1      	adds	r1, r4, r6
 800498c:	4640      	mov	r0, r8
 800498e:	b28c      	uxth	r4, r1
 8004990:	f3c1 2107 	ubfx	r1, r1, #8, #8
 8004994:	f7ff fec6 	bl	8004724 <WIZCHIP_WRITE>
 8004998:	4638      	mov	r0, r7
 800499a:	b2e1      	uxtb	r1, r4
 800499c:	e8bd 43f8 	ldmia.w	sp!, {r3, r4, r5, r6, r7, r8, r9, lr}
 80049a0:	f7ff bec0 	b.w	8004724 <WIZCHIP_WRITE>
 80049a4:	e8bd 83f8 	ldmia.w	sp!, {r3, r4, r5, r6, r7, r8, r9, pc}

080049a8 <wiz_recv_ignore>:
 80049a8:	b5f8      	push	{r3, r4, r5, r6, r7, lr}
 80049aa:	0144      	lsls	r4, r0, #5
 80049ac:	3408      	adds	r4, #8
 80049ae:	f504 5720 	add.w	r7, r4, #10240	; 0x2800
 80049b2:	4638      	mov	r0, r7
 80049b4:	460d      	mov	r5, r1
 80049b6:	f7ff fe87 	bl	80046c8 <WIZCHIP_READ>
 80049ba:	f504 5424 	add.w	r4, r4, #10496	; 0x2900
 80049be:	4606      	mov	r6, r0
 80049c0:	4620      	mov	r0, r4
 80049c2:	f7ff fe81 	bl	80046c8 <WIZCHIP_READ>
 80049c6:	1829      	adds	r1, r5, r0
 80049c8:	eb01 2106 	add.w	r1, r1, r6, lsl #8
 80049cc:	4638      	mov	r0, r7
 80049ce:	b28d      	uxth	r5, r1
 80049d0:	f3c1 2107 	ubfx	r1, r1, #8, #8
 80049d4:	f7ff fea6 	bl	8004724 <WIZCHIP_WRITE>
 80049d8:	4620      	mov	r0, r4
 80049da:	b2e9      	uxtb	r1, r5
 80049dc:	e8bd 40f8 	ldmia.w	sp!, {r3, r4, r5, r6, r7, lr}
 80049e0:	f7ff bea0 	b.w	8004724 <WIZCHIP_WRITE>

080049e4 <wizchip_cris_enter>:
 80049e4:	4770      	bx	lr

080049e6 <wizchip_bus_readdata>:
 80049e6:	7800      	ldrb	r0, [r0, #0]
 80049e8:	4770      	bx	lr

080049ea <wizchip_bus_writedata>:
 80049ea:	7001      	strb	r1, [r0, #0]
 80049ec:	4770      	bx	lr

080049ee <wizchip_spi_readbyte>:
 80049ee:	2000      	movs	r0, #0
 80049f0:	4770      	bx	lr

080049f2 <wizchip_spi_writebyte>:
 80049f2:	4770      	bx	lr

080049f4 <wizchip_spi_readburst>:
 80049f4:	4770      	bx	lr

080049f6 <wizchip_spi_writeburst>:
 80049f6:	4770      	bx	lr

080049f8 <wizchip_cris_exit>:
 80049f8:	4770      	bx	lr

080049fa <wizchip_cs_select>:
 80049fa:	4770      	bx	lr

080049fc <wizchip_cs_deselect>:
 80049fc:	4770      	bx	lr
	...

08004a00 <reg_wizchip_cs_cbfunc>:
 8004a00:	4b05      	ldr	r3, [pc, #20]	; (8004a18 <reg_wizchip_cs_cbfunc+0x18>)
 8004a02:	b100      	cbz	r0, 8004a06 <reg_wizchip_cs_cbfunc+0x6>
 8004a04:	b921      	cbnz	r1, 8004a10 <reg_wizchip_cs_cbfunc+0x10>
 8004a06:	4a05      	ldr	r2, [pc, #20]	; (8004a1c <reg_wizchip_cs_cbfunc+0x1c>)
 8004a08:	615a      	str	r2, [r3, #20]
 8004a0a:	4a05      	ldr	r2, [pc, #20]	; (8004a20 <reg_wizchip_cs_cbfunc+0x20>)
 8004a0c:	619a      	str	r2, [r3, #24]
 8004a0e:	4770      	bx	lr
 8004a10:	e9c3 0105 	strd	r0, r1, [r3, #20]
 8004a14:	4770      	bx	lr
 8004a16:	bf00      	nop
 8004a18:	2000013c 	.word	0x2000013c
 8004a1c:	080049fb 	.word	0x080049fb
 8004a20:	080049fd 	.word	0x080049fd

08004a24 <reg_wizchip_spi_cbfunc>:
 8004a24:	4b08      	ldr	r3, [pc, #32]	; (8004a48 <reg_wizchip_spi_cbfunc+0x24>)
 8004a26:	b510      	push	{r4, lr}
 8004a28:	881c      	ldrh	r4, [r3, #0]
 8004a2a:	461a      	mov	r2, r3
 8004a2c:	05a4      	lsls	r4, r4, #22
 8004a2e:	d400      	bmi.n	8004a32 <reg_wizchip_spi_cbfunc+0xe>
 8004a30:	e7fe      	b.n	8004a30 <reg_wizchip_spi_cbfunc+0xc>
 8004a32:	b100      	cbz	r0, 8004a36 <reg_wizchip_spi_cbfunc+0x12>
 8004a34:	b921      	cbnz	r1, 8004a40 <reg_wizchip_spi_cbfunc+0x1c>
 8004a36:	4b05      	ldr	r3, [pc, #20]	; (8004a4c <reg_wizchip_spi_cbfunc+0x28>)
 8004a38:	61d3      	str	r3, [r2, #28]
 8004a3a:	4b05      	ldr	r3, [pc, #20]	; (8004a50 <reg_wizchip_spi_cbfunc+0x2c>)
 8004a3c:	6213      	str	r3, [r2, #32]
 8004a3e:	bd10      	pop	{r4, pc}
 8004a40:	e9c3 0107 	strd	r0, r1, [r3, #28]
 8004a44:	e7fb      	b.n	8004a3e <reg_wizchip_spi_cbfunc+0x1a>
 8004a46:	bf00      	nop
 8004a48:	2000013c 	.word	0x2000013c
 8004a4c:	080049ef 	.word	0x080049ef
 8004a50:	080049f3 	.word	0x080049f3

08004a54 <reg_wizchip_spiburst_cbfunc>:
 8004a54:	4b08      	ldr	r3, [pc, #32]	; (8004a78 <reg_wizchip_spiburst_cbfunc+0x24>)
 8004a56:	b510      	push	{r4, lr}
 8004a58:	881c      	ldrh	r4, [r3, #0]
 8004a5a:	461a      	mov	r2, r3
 8004a5c:	05a4      	lsls	r4, r4, #22
 8004a5e:	d400      	bmi.n	8004a62 <reg_wizchip_spiburst_cbfunc+0xe>
 8004a60:	e7fe      	b.n	8004a60 <reg_wizchip_spiburst_cbfunc+0xc>
 8004a62:	b100      	cbz	r0, 8004a66 <reg_wizchip_spiburst_cbfunc+0x12>
 8004a64:	b921      	cbnz	r1, 8004a70 <reg_wizchip_spiburst_cbfunc+0x1c>
 8004a66:	4b05      	ldr	r3, [pc, #20]	; (8004a7c <reg_wizchip_spiburst_cbfunc+0x28>)
 8004a68:	6253      	str	r3, [r2, #36]	; 0x24
 8004a6a:	4b05      	ldr	r3, [pc, #20]	; (8004a80 <reg_wizchip_spiburst_cbfunc+0x2c>)
 8004a6c:	6293      	str	r3, [r2, #40]	; 0x28
 8004a6e:	bd10      	pop	{r4, pc}
 8004a70:	e9c3 0109 	strd	r0, r1, [r3, #36]	; 0x24
 8004a74:	e7fb      	b.n	8004a6e <reg_wizchip_spiburst_cbfunc+0x1a>
 8004a76:	bf00      	nop
 8004a78:	2000013c 	.word	0x2000013c
 8004a7c:	080049f5 	.word	0x080049f5
 8004a80:	080049f7 	.word	0x080049f7

08004a84 <wizchip_sw_reset>:
 8004a84:	b57f      	push	{r0, r1, r2, r3, r4, r5, r6, lr}
 8004a86:	2206      	movs	r2, #6
 8004a88:	a904      	add	r1, sp, #16
 8004a8a:	f44f 6010 	mov.w	r0, #2304	; 0x900
 8004a8e:	f7ff fe7b 	bl	8004788 <WIZCHIP_READ_BUF>
 8004a92:	2204      	movs	r2, #4
 8004a94:	f44f 7080 	mov.w	r0, #256	; 0x100
 8004a98:	eb0d 0102 	add.w	r1, sp, r2
 8004a9c:	f7ff fe74 	bl	8004788 <WIZCHIP_READ_BUF>
 8004aa0:	a902      	add	r1, sp, #8
 8004aa2:	2204      	movs	r2, #4
 8004aa4:	f44f 60a0 	mov.w	r0, #1280	; 0x500
 8004aa8:	f7ff fe6e 	bl	8004788 <WIZCHIP_READ_BUF>
 8004aac:	2204      	movs	r2, #4
 8004aae:	a903      	add	r1, sp, #12
 8004ab0:	f44f 6070 	mov.w	r0, #3840	; 0xf00
 8004ab4:	f7ff fe68 	bl	8004788 <WIZCHIP_READ_BUF>
 8004ab8:	2180      	movs	r1, #128	; 0x80
 8004aba:	2000      	movs	r0, #0
 8004abc:	f7ff fe32 	bl	8004724 <WIZCHIP_WRITE>
 8004ac0:	2000      	movs	r0, #0
 8004ac2:	f7ff fe01 	bl	80046c8 <WIZCHIP_READ>
 8004ac6:	a904      	add	r1, sp, #16
 8004ac8:	2206      	movs	r2, #6
 8004aca:	f44f 6010 	mov.w	r0, #2304	; 0x900
 8004ace:	f7ff fe95 	bl	80047fc <WIZCHIP_WRITE_BUF>
 8004ad2:	2204      	movs	r2, #4
 8004ad4:	f44f 7080 	mov.w	r0, #256	; 0x100
 8004ad8:	eb0d 0102 	add.w	r1, sp, r2
 8004adc:	f7ff fe8e 	bl	80047fc <WIZCHIP_WRITE_BUF>
 8004ae0:	a902      	add	r1, sp, #8
 8004ae2:	2204      	movs	r2, #4
 8004ae4:	f44f 60a0 	mov.w	r0, #1280	; 0x500
 8004ae8:	f7ff fe88 	bl	80047fc <WIZCHIP_WRITE_BUF>
 8004aec:	2204      	movs	r2, #4
 8004aee:	f44f 6070 	mov.w	r0, #3840	; 0xf00
 8004af2:	a903      	add	r1, sp, #12
 8004af4:	f7ff fe82 	bl	80047fc <WIZCHIP_WRITE_BUF>
 8004af8:	b007      	add	sp, #28
 8004afa:	f85d fb04 	ldr.w	pc, [sp], #4

08004afe <wizchip_init>:
 8004afe:	b5f8      	push	{r3, r4, r5, r6, r7, lr}
 8004b00:	4605      	mov	r5, r0
 8004b02:	460c      	mov	r4, r1
 8004b04:	f7ff ffbe 	bl	8004a84 <wizchip_sw_reset>
 8004b08:	b1bd      	cbz	r5, 8004b3a <wizchip_init+0x3c>
 8004b0a:	1e6e      	subs	r6, r5, #1
 8004b0c:	4632      	mov	r2, r6
 8004b0e:	2300      	movs	r3, #0
 8004b10:	3507      	adds	r5, #7
 8004b12:	f812 1f01 	ldrb.w	r1, [r2, #1]!
 8004b16:	440b      	add	r3, r1
 8004b18:	b25b      	sxtb	r3, r3
 8004b1a:	2b10      	cmp	r3, #16
 8004b1c:	dc29      	bgt.n	8004b72 <wizchip_init+0x74>
 8004b1e:	42aa      	cmp	r2, r5
 8004b20:	d1f7      	bne.n	8004b12 <wizchip_init+0x14>
 8004b22:	f641 7508 	movw	r5, #7944	; 0x1f08
 8004b26:	f242 0708 	movw	r7, #8200	; 0x2008
 8004b2a:	4628      	mov	r0, r5
 8004b2c:	f816 1f01 	ldrb.w	r1, [r6, #1]!
 8004b30:	3520      	adds	r5, #32
 8004b32:	f7ff fdf7 	bl	8004724 <WIZCHIP_WRITE>
 8004b36:	42bd      	cmp	r5, r7
 8004b38:	d1f7      	bne.n	8004b2a <wizchip_init+0x2c>
 8004b3a:	b90c      	cbnz	r4, 8004b40 <wizchip_init+0x42>
 8004b3c:	2000      	movs	r0, #0
 8004b3e:	bdf8      	pop	{r3, r4, r5, r6, r7, pc}
 8004b40:	1e65      	subs	r5, r4, #1
 8004b42:	462a      	mov	r2, r5
 8004b44:	2300      	movs	r3, #0
 8004b46:	3407      	adds	r4, #7
 8004b48:	f812 1f01 	ldrb.w	r1, [r2, #1]!
 8004b4c:	440b      	add	r3, r1
 8004b4e:	b25b      	sxtb	r3, r3
 8004b50:	2b10      	cmp	r3, #16
 8004b52:	dc0e      	bgt.n	8004b72 <wizchip_init+0x74>
 8004b54:	4294      	cmp	r4, r2
 8004b56:	d1f7      	bne.n	8004b48 <wizchip_init+0x4a>
 8004b58:	f641 6408 	movw	r4, #7688	; 0x1e08
 8004b5c:	f641 7608 	movw	r6, #7944	; 0x1f08
 8004b60:	4620      	mov	r0, r4
 8004b62:	f815 1f01 	ldrb.w	r1, [r5, #1]!
 8004b66:	3420      	adds	r4, #32
 8004b68:	f7ff fddc 	bl	8004724 <WIZCHIP_WRITE>
 8004b6c:	42b4      	cmp	r4, r6
 8004b6e:	d1f7      	bne.n	8004b60 <wizchip_init+0x62>
 8004b70:	e7e4      	b.n	8004b3c <wizchip_init+0x3e>
 8004b72:	f04f 30ff 	mov.w	r0, #4294967295	; 0xffffffff
 8004b76:	e7e2      	b.n	8004b3e <wizchip_init+0x40>

08004b78 <wizchip_setnetinfo>:
 8004b78:	b510      	push	{r4, lr}
 8004b7a:	4604      	mov	r4, r0
 8004b7c:	4601      	mov	r1, r0
 8004b7e:	2206      	movs	r2, #6
 8004b80:	f44f 6010 	mov.w	r0, #2304	; 0x900
 8004b84:	f7ff fe3a 	bl	80047fc <WIZCHIP_WRITE_BUF>
 8004b88:	2204      	movs	r2, #4
 8004b8a:	f44f 7080 	mov.w	r0, #256	; 0x100
 8004b8e:	f104 010e 	add.w	r1, r4, #14
 8004b92:	f7ff fe33 	bl	80047fc <WIZCHIP_WRITE_BUF>
 8004b96:	2204      	movs	r2, #4
 8004b98:	f44f 60a0 	mov.w	r0, #1280	; 0x500
 8004b9c:	f104 010a 	add.w	r1, r4, #10
 8004ba0:	f7ff fe2c 	bl	80047fc <WIZCHIP_WRITE_BUF>
 8004ba4:	2204      	movs	r2, #4
 8004ba6:	f44f 6070 	mov.w	r0, #3840	; 0xf00
 8004baa:	1da1      	adds	r1, r4, #6
 8004bac:	f7ff fe26 	bl	80047fc <WIZCHIP_WRITE_BUF>
 8004bb0:	4b06      	ldr	r3, [pc, #24]	; (8004bcc <wizchip_setnetinfo+0x54>)
 8004bb2:	7ca2      	ldrb	r2, [r4, #18]
 8004bb4:	701a      	strb	r2, [r3, #0]
 8004bb6:	7ce2      	ldrb	r2, [r4, #19]
 8004bb8:	705a      	strb	r2, [r3, #1]
 8004bba:	7d22      	ldrb	r2, [r4, #20]
 8004bbc:	709a      	strb	r2, [r3, #2]
 8004bbe:	7d62      	ldrb	r2, [r4, #21]
 8004bc0:	70da      	strb	r2, [r3, #3]
 8004bc2:	f894 2119 	ldrb.w	r2, [r4, #281]	; 0x119
 8004bc6:	4b02      	ldr	r3, [pc, #8]	; (8004bd0 <wizchip_setnetinfo+0x58>)
 8004bc8:	701a      	strb	r2, [r3, #0]
 8004bca:	bd10      	pop	{r4, pc}
 8004bcc:	20000579 	.word	0x20000579
 8004bd0:	20000578 	.word	0x20000578

08004bd4 <Reset_Handler>:
 8004bd4:	480c      	ldr	r0, [pc, #48]	; (8004c08 <LoopFillZerobss+0x12>)
 8004bd6:	490d      	ldr	r1, [pc, #52]	; (8004c0c <LoopFillZerobss+0x16>)
 8004bd8:	4a0d      	ldr	r2, [pc, #52]	; (8004c10 <LoopFillZerobss+0x1a>)
 8004bda:	2300      	movs	r3, #0
 8004bdc:	e002      	b.n	8004be4 <LoopCopyDataInit>

08004bde <CopyDataInit>:
 8004bde:	58d4      	ldr	r4, [r2, r3]
 8004be0:	50c4      	str	r4, [r0, r3]
 8004be2:	3304      	adds	r3, #4

08004be4 <LoopCopyDataInit>:
 8004be4:	18c4      	adds	r4, r0, r3
 8004be6:	428c      	cmp	r4, r1
 8004be8:	d3f9      	bcc.n	8004bde <CopyDataInit>
 8004bea:	4a0a      	ldr	r2, [pc, #40]	; (8004c14 <LoopFillZerobss+0x1e>)
 8004bec:	4c0a      	ldr	r4, [pc, #40]	; (8004c18 <LoopFillZerobss+0x22>)
 8004bee:	2300      	movs	r3, #0
 8004bf0:	e001      	b.n	8004bf6 <LoopFillZerobss>

08004bf2 <FillZerobss>:
 8004bf2:	6013      	str	r3, [r2, #0]
 8004bf4:	3204      	adds	r2, #4

08004bf6 <LoopFillZerobss>:
 8004bf6:	42a2      	cmp	r2, r4
 8004bf8:	d3fb      	bcc.n	8004bf2 <FillZerobss>
 8004bfa:	f7ff fd63 	bl	80046c4 <SystemInit>
 8004bfe:	f003 f9c3 	bl	8007f88 <__libc_init_array>
 8004c02:	f7fd fee1 	bl	80029c8 <main>
 8004c06:	4770      	bx	lr
 8004c08:	20000000 	.word	0x20000000
 8004c0c:	20000344 	.word	0x20000344
 8004c10:	0800b3e4 	.word	0x0800b3e4
 8004c14:	20000348 	.word	0x20000348
 8004c18:	20000d20 	.word	0x20000d20

08004c1c <ADC1_2_IRQHandler>:
 8004c1c:	e7fe      	b.n	8004c1c <ADC1_2_IRQHandler>
	...

08004c20 <HAL_InitTick>:
 8004c20:	b538      	push	{r3, r4, r5, lr}
 8004c22:	4b0e      	ldr	r3, [pc, #56]	; (8004c5c <HAL_InitTick+0x3c>)
 8004c24:	4605      	mov	r5, r0
 8004c26:	7818      	ldrb	r0, [r3, #0]
 8004c28:	f44f 737a 	mov.w	r3, #1000	; 0x3e8
 8004c2c:	fbb3 f3f0 	udiv	r3, r3, r0
 8004c30:	4a0b      	ldr	r2, [pc, #44]	; (8004c60 <HAL_InitTick+0x40>)
 8004c32:	6810      	ldr	r0, [r2, #0]
 8004c34:	fbb0 f0f3 	udiv	r0, r0, r3
 8004c38:	f000 f8b0 	bl	8004d9c <HAL_SYSTICK_Config>
 8004c3c:	4604      	mov	r4, r0
 8004c3e:	b958      	cbnz	r0, 8004c58 <HAL_InitTick+0x38>
 8004c40:	2d0f      	cmp	r5, #15
 8004c42:	d809      	bhi.n	8004c58 <HAL_InitTick+0x38>
 8004c44:	4602      	mov	r2, r0
 8004c46:	4629      	mov	r1, r5
 8004c48:	f04f 30ff 	mov.w	r0, #4294967295	; 0xffffffff
 8004c4c:	f000 f854 	bl	8004cf8 <HAL_NVIC_SetPriority>
 8004c50:	4620      	mov	r0, r4
 8004c52:	4b04      	ldr	r3, [pc, #16]	; (8004c64 <HAL_InitTick+0x44>)
 8004c54:	601d      	str	r5, [r3, #0]
 8004c56:	bd38      	pop	{r3, r4, r5, pc}
 8004c58:	2001      	movs	r0, #1
 8004c5a:	e7fc      	b.n	8004c56 <HAL_InitTick+0x36>
 8004c5c:	20000168 	.word	0x20000168
 8004c60:	20000138 	.word	0x20000138
 8004c64:	2000016c 	.word	0x2000016c

08004c68 <HAL_Init>:
 8004c68:	4a07      	ldr	r2, [pc, #28]	; (8004c88 <HAL_Init+0x20>)
 8004c6a:	b508      	push	{r3, lr}
 8004c6c:	6813      	ldr	r3, [r2, #0]
 8004c6e:	2003      	movs	r0, #3
 8004c70:	f043 0310 	orr.w	r3, r3, #16
 8004c74:	6013      	str	r3, [r2, #0]
 8004c76:	f000 f82d 	bl	8004cd4 <HAL_NVIC_SetPriorityGrouping>
 8004c7a:	2000      	movs	r0, #0
 8004c7c:	f7ff ffd0 	bl	8004c20 <HAL_InitTick>
 8004c80:	f7ff f848 	bl	8003d14 <HAL_MspInit>
 8004c84:	2000      	movs	r0, #0
 8004c86:	bd08      	pop	{r3, pc}
 8004c88:	40022000 	.word	0x40022000

08004c8c <HAL_IncTick>:
 8004c8c:	4a03      	ldr	r2, [pc, #12]	; (8004c9c <HAL_IncTick+0x10>)
 8004c8e:	4b04      	ldr	r3, [pc, #16]	; (8004ca0 <HAL_IncTick+0x14>)
 8004c90:	6811      	ldr	r1, [r2, #0]
 8004c92:	781b      	ldrb	r3, [r3, #0]
 8004c94:	440b      	add	r3, r1
 8004c96:	6013      	str	r3, [r2, #0]
 8004c98:	4770      	bx	lr
 8004c9a:	bf00      	nop
 8004c9c:	20000ce8 	.word	0x20000ce8
 8004ca0:	20000168 	.word	0x20000168

08004ca4 <HAL_GetTick>:
 8004ca4:	4b01      	ldr	r3, [pc, #4]	; (8004cac <HAL_GetTick+0x8>)
 8004ca6:	6818      	ldr	r0, [r3, #0]
 8004ca8:	4770      	bx	lr
 8004caa:	bf00      	nop
 8004cac:	20000ce8 	.word	0x20000ce8

08004cb0 <HAL_Delay>:
 8004cb0:	b538      	push	{r3, r4, r5, lr}
 8004cb2:	4604      	mov	r4, r0
 8004cb4:	f7ff fff6 	bl	8004ca4 <HAL_GetTick>
 8004cb8:	4605      	mov	r5, r0
 8004cba:	1c63      	adds	r3, r4, #1
 8004cbc:	bf1e      	ittt	ne
 8004cbe:	4b04      	ldrne	r3, [pc, #16]	; (8004cd0 <HAL_Delay+0x20>)
 8004cc0:	781b      	ldrbne	r3, [r3, #0]
 8004cc2:	18e4      	addne	r4, r4, r3
 8004cc4:	f7ff ffee 	bl	8004ca4 <HAL_GetTick>
 8004cc8:	1b43      	subs	r3, r0, r5
 8004cca:	42a3      	cmp	r3, r4
 8004ccc:	d3fa      	bcc.n	8004cc4 <HAL_Delay+0x14>
 8004cce:	bd38      	pop	{r3, r4, r5, pc}
 8004cd0:	20000168 	.word	0x20000168

08004cd4 <HAL_NVIC_SetPriorityGrouping>:
 8004cd4:	4907      	ldr	r1, [pc, #28]	; (8004cf4 <HAL_NVIC_SetPriorityGrouping+0x20>)
 8004cd6:	0203      	lsls	r3, r0, #8
 8004cd8:	68ca      	ldr	r2, [r1, #12]
 8004cda:	f403 63e0 	and.w	r3, r3, #1792	; 0x700
 8004cde:	f422 62e0 	bic.w	r2, r2, #1792	; 0x700
 8004ce2:	0412      	lsls	r2, r2, #16
 8004ce4:	0c12      	lsrs	r2, r2, #16
 8004ce6:	4313      	orrs	r3, r2
 8004ce8:	f043 63bf 	orr.w	r3, r3, #100139008	; 0x5f80000
 8004cec:	f443 3300 	orr.w	r3, r3, #131072	; 0x20000
 8004cf0:	60cb      	str	r3, [r1, #12]
 8004cf2:	4770      	bx	lr
 8004cf4:	e000ed00 	.word	0xe000ed00

08004cf8 <HAL_NVIC_SetPriority>:
 8004cf8:	4b16      	ldr	r3, [pc, #88]	; (8004d54 <HAL_NVIC_SetPriority+0x5c>)
 8004cfa:	b530      	push	{r4, r5, lr}
 8004cfc:	68dc      	ldr	r4, [r3, #12]
 8004cfe:	f3c4 2402 	ubfx	r4, r4, #8, #3
 8004d02:	f1c4 0307 	rsb	r3, r4, #7
 8004d06:	1d25      	adds	r5, r4, #4
 8004d08:	2b04      	cmp	r3, #4
 8004d0a:	bf28      	it	cs
 8004d0c:	2304      	movcs	r3, #4
 8004d0e:	2d06      	cmp	r5, #6
 8004d10:	f04f 35ff 	mov.w	r5, #4294967295	; 0xffffffff
 8004d14:	bf98      	it	ls
 8004d16:	2400      	movls	r4, #0
 8004d18:	fa05 f303 	lsl.w	r3, r5, r3
 8004d1c:	bf88      	it	hi
 8004d1e:	3c03      	subhi	r4, #3
 8004d20:	ea21 0303 	bic.w	r3, r1, r3
 8004d24:	40a3      	lsls	r3, r4
 8004d26:	fa05 f404 	lsl.w	r4, r5, r4
 8004d2a:	ea22 0204 	bic.w	r2, r2, r4
 8004d2e:	2800      	cmp	r0, #0
 8004d30:	ea43 0302 	orr.w	r3, r3, r2
 8004d34:	bfac      	ite	ge
 8004d36:	f100 4060 	addge.w	r0, r0, #3758096384	; 0xe0000000
 8004d3a:	4a07      	ldrlt	r2, [pc, #28]	; (8004d58 <HAL_NVIC_SetPriority+0x60>)
 8004d3c:	ea4f 1303 	mov.w	r3, r3, lsl #4
 8004d40:	b2db      	uxtb	r3, r3
 8004d42:	bfab      	itete	ge
 8004d44:	f500 4061 	addge.w	r0, r0, #57600	; 0xe100
 8004d48:	f000 000f 	andlt.w	r0, r0, #15
 8004d4c:	f880 3300 	strbge.w	r3, [r0, #768]	; 0x300
 8004d50:	5413      	strblt	r3, [r2, r0]
 8004d52:	bd30      	pop	{r4, r5, pc}
 8004d54:	e000ed00 	.word	0xe000ed00
 8004d58:	e000ed14 	.word	0xe000ed14

08004d5c <HAL_NVIC_EnableIRQ>:
 8004d5c:	2800      	cmp	r0, #0
 8004d5e:	db08      	blt.n	8004d72 <HAL_NVIC_EnableIRQ+0x16>
 8004d60:	2301      	movs	r3, #1
 8004d62:	0942      	lsrs	r2, r0, #5
 8004d64:	f000 001f 	and.w	r0, r0, #31
 8004d68:	fa03 f000 	lsl.w	r0, r3, r0
 8004d6c:	4b01      	ldr	r3, [pc, #4]	; (8004d74 <HAL_NVIC_EnableIRQ+0x18>)
 8004d6e:	f843 0022 	str.w	r0, [r3, r2, lsl #2]
 8004d72:	4770      	bx	lr
 8004d74:	e000e100 	.word	0xe000e100

08004d78 <HAL_NVIC_SystemReset>:
 8004d78:	f3bf 8f4f 	dsb	sy
 8004d7c:	4905      	ldr	r1, [pc, #20]	; (8004d94 <HAL_NVIC_SystemReset+0x1c>)
 8004d7e:	4b06      	ldr	r3, [pc, #24]	; (8004d98 <HAL_NVIC_SystemReset+0x20>)
 8004d80:	68ca      	ldr	r2, [r1, #12]
 8004d82:	f402 62e0 	and.w	r2, r2, #1792	; 0x700
 8004d86:	4313      	orrs	r3, r2
 8004d88:	60cb      	str	r3, [r1, #12]
 8004d8a:	f3bf 8f4f 	dsb	sy
 8004d8e:	bf00      	nop
 8004d90:	e7fd      	b.n	8004d8e <HAL_NVIC_SystemReset+0x16>
 8004d92:	bf00      	nop
 8004d94:	e000ed00 	.word	0xe000ed00
 8004d98:	05fa0004 	.word	0x05fa0004

08004d9c <HAL_SYSTICK_Config>:
 8004d9c:	3801      	subs	r0, #1
 8004d9e:	f1b0 7f80 	cmp.w	r0, #16777216	; 0x1000000
 8004da2:	d20a      	bcs.n	8004dba <HAL_SYSTICK_Config+0x1e>
 8004da4:	21f0      	movs	r1, #240	; 0xf0
 8004da6:	4b06      	ldr	r3, [pc, #24]	; (8004dc0 <HAL_SYSTICK_Config+0x24>)
 8004da8:	4a06      	ldr	r2, [pc, #24]	; (8004dc4 <HAL_SYSTICK_Config+0x28>)
 8004daa:	6058      	str	r0, [r3, #4]
 8004dac:	f882 1023 	strb.w	r1, [r2, #35]	; 0x23
 8004db0:	2000      	movs	r0, #0
 8004db2:	2207      	movs	r2, #7
 8004db4:	6098      	str	r0, [r3, #8]
 8004db6:	601a      	str	r2, [r3, #0]
 8004db8:	4770      	bx	lr
 8004dba:	2001      	movs	r0, #1
 8004dbc:	4770      	bx	lr
 8004dbe:	bf00      	nop
 8004dc0:	e000e010 	.word	0xe000e010
 8004dc4:	e000ed00 	.word	0xe000ed00

08004dc8 <HAL_DMA_Init>:
 8004dc8:	b510      	push	{r4, lr}
 8004dca:	b320      	cbz	r0, 8004e16 <HAL_DMA_Init+0x4e>
 8004dcc:	2214      	movs	r2, #20
 8004dce:	6801      	ldr	r1, [r0, #0]
 8004dd0:	4b12      	ldr	r3, [pc, #72]	; (8004e1c <HAL_DMA_Init+0x54>)
 8004dd2:	440b      	add	r3, r1
 8004dd4:	fbb3 f3f2 	udiv	r3, r3, r2
 8004dd8:	009b      	lsls	r3, r3, #2
 8004dda:	6403      	str	r3, [r0, #64]	; 0x40
 8004ddc:	4b10      	ldr	r3, [pc, #64]	; (8004e20 <HAL_DMA_Init+0x58>)
 8004dde:	680a      	ldr	r2, [r1, #0]
 8004de0:	63c3      	str	r3, [r0, #60]	; 0x3c
 8004de2:	e9d0 3401 	ldrd	r3, r4, [r0, #4]
 8004de6:	4323      	orrs	r3, r4
 8004de8:	68c4      	ldr	r4, [r0, #12]
 8004dea:	f422 527f 	bic.w	r2, r2, #16320	; 0x3fc0
 8004dee:	4323      	orrs	r3, r4
 8004df0:	6904      	ldr	r4, [r0, #16]
 8004df2:	f022 0230 	bic.w	r2, r2, #48	; 0x30
 8004df6:	4323      	orrs	r3, r4
 8004df8:	6944      	ldr	r4, [r0, #20]
 8004dfa:	4323      	orrs	r3, r4
 8004dfc:	6984      	ldr	r4, [r0, #24]
 8004dfe:	4323      	orrs	r3, r4
 8004e00:	69c4      	ldr	r4, [r0, #28]
 8004e02:	4323      	orrs	r3, r4
 8004e04:	4313      	orrs	r3, r2
 8004e06:	600b      	str	r3, [r1, #0]
 8004e08:	f44f 7280 	mov.w	r2, #256	; 0x100
 8004e0c:	2300      	movs	r3, #0
 8004e0e:	8402      	strh	r2, [r0, #32]
 8004e10:	6383      	str	r3, [r0, #56]	; 0x38
 8004e12:	4618      	mov	r0, r3
 8004e14:	bd10      	pop	{r4, pc}
 8004e16:	2001      	movs	r0, #1
 8004e18:	e7fc      	b.n	8004e14 <HAL_DMA_Init+0x4c>
 8004e1a:	bf00      	nop
 8004e1c:	bffdfff8 	.word	0xbffdfff8
 8004e20:	40020000 	.word	0x40020000

08004e24 <HAL_DMA_Start_IT>:
 8004e24:	b5f0      	push	{r4, r5, r6, r7, lr}
 8004e26:	f890 4020 	ldrb.w	r4, [r0, #32]
 8004e2a:	2c01      	cmp	r4, #1
 8004e2c:	d034      	beq.n	8004e98 <HAL_DMA_Start_IT+0x74>
 8004e2e:	2401      	movs	r4, #1
 8004e30:	f890 5021 	ldrb.w	r5, [r0, #33]	; 0x21
 8004e34:	f880 4020 	strb.w	r4, [r0, #32]
 8004e38:	42a5      	cmp	r5, r4
 8004e3a:	f04f 0600 	mov.w	r6, #0
 8004e3e:	f04f 0402 	mov.w	r4, #2
 8004e42:	d127      	bne.n	8004e94 <HAL_DMA_Start_IT+0x70>
 8004e44:	f880 4021 	strb.w	r4, [r0, #33]	; 0x21
 8004e48:	6804      	ldr	r4, [r0, #0]
 8004e4a:	6386      	str	r6, [r0, #56]	; 0x38
 8004e4c:	6826      	ldr	r6, [r4, #0]
 8004e4e:	f026 0601 	bic.w	r6, r6, #1
 8004e52:	6026      	str	r6, [r4, #0]
 8004e54:	e9d0 670f 	ldrd	r6, r7, [r0, #60]	; 0x3c
 8004e58:	40bd      	lsls	r5, r7
 8004e5a:	6075      	str	r5, [r6, #4]
 8004e5c:	6063      	str	r3, [r4, #4]
 8004e5e:	6843      	ldr	r3, [r0, #4]
 8004e60:	2b10      	cmp	r3, #16
 8004e62:	6ac3      	ldr	r3, [r0, #44]	; 0x2c
 8004e64:	bf0b      	itete	eq
 8004e66:	60a2      	streq	r2, [r4, #8]
 8004e68:	60a1      	strne	r1, [r4, #8]
 8004e6a:	60e1      	streq	r1, [r4, #12]
 8004e6c:	60e2      	strne	r2, [r4, #12]
 8004e6e:	b14b      	cbz	r3, 8004e84 <HAL_DMA_Start_IT+0x60>
 8004e70:	6823      	ldr	r3, [r4, #0]
 8004e72:	f043 030e 	orr.w	r3, r3, #14
 8004e76:	2000      	movs	r0, #0
 8004e78:	6023      	str	r3, [r4, #0]
 8004e7a:	6823      	ldr	r3, [r4, #0]
 8004e7c:	f043 0301 	orr.w	r3, r3, #1
 8004e80:	6023      	str	r3, [r4, #0]
 8004e82:	bdf0      	pop	{r4, r5, r6, r7, pc}
 8004e84:	6823      	ldr	r3, [r4, #0]
 8004e86:	f023 0304 	bic.w	r3, r3, #4
 8004e8a:	6023      	str	r3, [r4, #0]
 8004e8c:	6823      	ldr	r3, [r4, #0]
 8004e8e:	f043 030a 	orr.w	r3, r3, #10
 8004e92:	e7f0      	b.n	8004e76 <HAL_DMA_Start_IT+0x52>
 8004e94:	f880 6020 	strb.w	r6, [r0, #32]
 8004e98:	2002      	movs	r0, #2
 8004e9a:	e7f2      	b.n	8004e82 <HAL_DMA_Start_IT+0x5e>

08004e9c <HAL_DMA_Abort_IT>:
 8004e9c:	b508      	push	{r3, lr}
 8004e9e:	f890 3021 	ldrb.w	r3, [r0, #33]	; 0x21
 8004ea2:	2b02      	cmp	r3, #2
 8004ea4:	d003      	beq.n	8004eae <HAL_DMA_Abort_IT+0x12>
 8004ea6:	2304      	movs	r3, #4
 8004ea8:	6383      	str	r3, [r0, #56]	; 0x38
 8004eaa:	2001      	movs	r0, #1
 8004eac:	bd08      	pop	{r3, pc}
 8004eae:	6803      	ldr	r3, [r0, #0]
 8004eb0:	681a      	ldr	r2, [r3, #0]
 8004eb2:	f022 020e 	bic.w	r2, r2, #14
 8004eb6:	601a      	str	r2, [r3, #0]
 8004eb8:	681a      	ldr	r2, [r3, #0]
 8004eba:	f022 0201 	bic.w	r2, r2, #1
 8004ebe:	601a      	str	r2, [r3, #0]
 8004ec0:	4a17      	ldr	r2, [pc, #92]	; (8004f20 <HAL_DMA_Abort_IT+0x84>)
 8004ec2:	4293      	cmp	r3, r2
 8004ec4:	d01c      	beq.n	8004f00 <HAL_DMA_Abort_IT+0x64>
 8004ec6:	3214      	adds	r2, #20
 8004ec8:	4293      	cmp	r3, r2
 8004eca:	d01b      	beq.n	8004f04 <HAL_DMA_Abort_IT+0x68>
 8004ecc:	3214      	adds	r2, #20
 8004ece:	4293      	cmp	r3, r2
 8004ed0:	d01a      	beq.n	8004f08 <HAL_DMA_Abort_IT+0x6c>
 8004ed2:	3214      	adds	r2, #20
 8004ed4:	4293      	cmp	r3, r2
 8004ed6:	d01a      	beq.n	8004f0e <HAL_DMA_Abort_IT+0x72>
 8004ed8:	3214      	adds	r2, #20
 8004eda:	4293      	cmp	r3, r2
 8004edc:	d01a      	beq.n	8004f14 <HAL_DMA_Abort_IT+0x78>
 8004ede:	3214      	adds	r2, #20
 8004ee0:	4293      	cmp	r3, r2
 8004ee2:	bf0c      	ite	eq
 8004ee4:	f44f 1380 	moveq.w	r3, #1048576	; 0x100000
 8004ee8:	f04f 7380 	movne.w	r3, #16777216	; 0x1000000
 8004eec:	4a0d      	ldr	r2, [pc, #52]	; (8004f24 <HAL_DMA_Abort_IT+0x88>)
 8004eee:	6053      	str	r3, [r2, #4]
 8004ef0:	f44f 7380 	mov.w	r3, #256	; 0x100
 8004ef4:	8403      	strh	r3, [r0, #32]
 8004ef6:	6b43      	ldr	r3, [r0, #52]	; 0x34
 8004ef8:	b17b      	cbz	r3, 8004f1a <HAL_DMA_Abort_IT+0x7e>
 8004efa:	4798      	blx	r3
 8004efc:	2000      	movs	r0, #0
 8004efe:	e7d5      	b.n	8004eac <HAL_DMA_Abort_IT+0x10>
 8004f00:	2301      	movs	r3, #1
 8004f02:	e7f3      	b.n	8004eec <HAL_DMA_Abort_IT+0x50>
 8004f04:	2310      	movs	r3, #16
 8004f06:	e7f1      	b.n	8004eec <HAL_DMA_Abort_IT+0x50>
 8004f08:	f44f 7380 	mov.w	r3, #256	; 0x100
 8004f0c:	e7ee      	b.n	8004eec <HAL_DMA_Abort_IT+0x50>
 8004f0e:	f44f 5380 	mov.w	r3, #4096	; 0x1000
 8004f12:	e7eb      	b.n	8004eec <HAL_DMA_Abort_IT+0x50>
 8004f14:	f44f 3380 	mov.w	r3, #65536	; 0x10000
 8004f18:	e7e8      	b.n	8004eec <HAL_DMA_Abort_IT+0x50>
 8004f1a:	4618      	mov	r0, r3
 8004f1c:	e7c6      	b.n	8004eac <HAL_DMA_Abort_IT+0x10>
 8004f1e:	bf00      	nop
 8004f20:	40020008 	.word	0x40020008
 8004f24:	40020000 	.word	0x40020000

08004f28 <HAL_DMA_IRQHandler>:
 8004f28:	b470      	push	{r4, r5, r6}
 8004f2a:	2504      	movs	r5, #4
 8004f2c:	6bc6      	ldr	r6, [r0, #60]	; 0x3c
 8004f2e:	6c02      	ldr	r2, [r0, #64]	; 0x40
 8004f30:	6834      	ldr	r4, [r6, #0]
 8004f32:	6803      	ldr	r3, [r0, #0]
 8004f34:	4095      	lsls	r5, r2
 8004f36:	4225      	tst	r5, r4
 8004f38:	6819      	ldr	r1, [r3, #0]
 8004f3a:	d032      	beq.n	8004fa2 <HAL_DMA_IRQHandler+0x7a>
 8004f3c:	074d      	lsls	r5, r1, #29
 8004f3e:	d530      	bpl.n	8004fa2 <HAL_DMA_IRQHandler+0x7a>
 8004f40:	681a      	ldr	r2, [r3, #0]
 8004f42:	0696      	lsls	r6, r2, #26
 8004f44:	bf5e      	ittt	pl
 8004f46:	681a      	ldrpl	r2, [r3, #0]
 8004f48:	f022 0204 	bicpl.w	r2, r2, #4
 8004f4c:	601a      	strpl	r2, [r3, #0]
 8004f4e:	4a3d      	ldr	r2, [pc, #244]	; (8005044 <HAL_DMA_IRQHandler+0x11c>)
 8004f50:	4293      	cmp	r3, r2
 8004f52:	d019      	beq.n	8004f88 <HAL_DMA_IRQHandler+0x60>
 8004f54:	3214      	adds	r2, #20
 8004f56:	4293      	cmp	r3, r2
 8004f58:	d018      	beq.n	8004f8c <HAL_DMA_IRQHandler+0x64>
 8004f5a:	3214      	adds	r2, #20
 8004f5c:	4293      	cmp	r3, r2
 8004f5e:	d017      	beq.n	8004f90 <HAL_DMA_IRQHandler+0x68>
 8004f60:	3214      	adds	r2, #20
 8004f62:	4293      	cmp	r3, r2
 8004f64:	d017      	beq.n	8004f96 <HAL_DMA_IRQHandler+0x6e>
 8004f66:	3214      	adds	r2, #20
 8004f68:	4293      	cmp	r3, r2
 8004f6a:	d017      	beq.n	8004f9c <HAL_DMA_IRQHandler+0x74>
 8004f6c:	3214      	adds	r2, #20
 8004f6e:	4293      	cmp	r3, r2
 8004f70:	bf0c      	ite	eq
 8004f72:	f44f 0380 	moveq.w	r3, #4194304	; 0x400000
 8004f76:	f04f 6380 	movne.w	r3, #67108864	; 0x4000000
 8004f7a:	4a33      	ldr	r2, [pc, #204]	; (8005048 <HAL_DMA_IRQHandler+0x120>)
 8004f7c:	6053      	str	r3, [r2, #4]
 8004f7e:	6ac3      	ldr	r3, [r0, #44]	; 0x2c
 8004f80:	2b00      	cmp	r3, #0
 8004f82:	d05c      	beq.n	800503e <HAL_DMA_IRQHandler+0x116>
 8004f84:	bc70      	pop	{r4, r5, r6}
 8004f86:	4718      	bx	r3
 8004f88:	2304      	movs	r3, #4
 8004f8a:	e7f6      	b.n	8004f7a <HAL_DMA_IRQHandler+0x52>
 8004f8c:	2340      	movs	r3, #64	; 0x40
 8004f8e:	e7f4      	b.n	8004f7a <HAL_DMA_IRQHandler+0x52>
 8004f90:	f44f 6380 	mov.w	r3, #1024	; 0x400
 8004f94:	e7f1      	b.n	8004f7a <HAL_DMA_IRQHandler+0x52>
 8004f96:	f44f 4380 	mov.w	r3, #16384	; 0x4000
 8004f9a:	e7ee      	b.n	8004f7a <HAL_DMA_IRQHandler+0x52>
 8004f9c:	f44f 2380 	mov.w	r3, #262144	; 0x40000
 8004fa0:	e7eb      	b.n	8004f7a <HAL_DMA_IRQHandler+0x52>
 8004fa2:	2502      	movs	r5, #2
 8004fa4:	4095      	lsls	r5, r2
 8004fa6:	4225      	tst	r5, r4
 8004fa8:	d035      	beq.n	8005016 <HAL_DMA_IRQHandler+0xee>
 8004faa:	078d      	lsls	r5, r1, #30
 8004fac:	d533      	bpl.n	8005016 <HAL_DMA_IRQHandler+0xee>
 8004fae:	681a      	ldr	r2, [r3, #0]
 8004fb0:	0694      	lsls	r4, r2, #26
 8004fb2:	d406      	bmi.n	8004fc2 <HAL_DMA_IRQHandler+0x9a>
 8004fb4:	681a      	ldr	r2, [r3, #0]
 8004fb6:	f022 020a 	bic.w	r2, r2, #10
 8004fba:	601a      	str	r2, [r3, #0]
 8004fbc:	2201      	movs	r2, #1
 8004fbe:	f880 2021 	strb.w	r2, [r0, #33]	; 0x21
 8004fc2:	4a20      	ldr	r2, [pc, #128]	; (8005044 <HAL_DMA_IRQHandler+0x11c>)
 8004fc4:	4293      	cmp	r3, r2
 8004fc6:	d019      	beq.n	8004ffc <HAL_DMA_IRQHandler+0xd4>
 8004fc8:	3214      	adds	r2, #20
 8004fca:	4293      	cmp	r3, r2
 8004fcc:	d018      	beq.n	8005000 <HAL_DMA_IRQHandler+0xd8>
 8004fce:	3214      	adds	r2, #20
 8004fd0:	4293      	cmp	r3, r2
 8004fd2:	d017      	beq.n	8005004 <HAL_DMA_IRQHandler+0xdc>
 8004fd4:	3214      	adds	r2, #20
 8004fd6:	4293      	cmp	r3, r2
 8004fd8:	d017      	beq.n	800500a <HAL_DMA_IRQHandler+0xe2>
 8004fda:	3214      	adds	r2, #20
 8004fdc:	4293      	cmp	r3, r2
 8004fde:	d017      	beq.n	8005010 <HAL_DMA_IRQHandler+0xe8>
 8004fe0:	3214      	adds	r2, #20
 8004fe2:	4293      	cmp	r3, r2
 8004fe4:	bf0c      	ite	eq
 8004fe6:	f44f 1300 	moveq.w	r3, #2097152	; 0x200000
 8004fea:	f04f 7300 	movne.w	r3, #33554432	; 0x2000000
 8004fee:	4a16      	ldr	r2, [pc, #88]	; (8005048 <HAL_DMA_IRQHandler+0x120>)
 8004ff0:	6053      	str	r3, [r2, #4]
 8004ff2:	2300      	movs	r3, #0
 8004ff4:	f880 3020 	strb.w	r3, [r0, #32]
 8004ff8:	6a83      	ldr	r3, [r0, #40]	; 0x28
 8004ffa:	e7c1      	b.n	8004f80 <HAL_DMA_IRQHandler+0x58>
 8004ffc:	2302      	movs	r3, #2
 8004ffe:	e7f6      	b.n	8004fee <HAL_DMA_IRQHandler+0xc6>
 8005000:	2320      	movs	r3, #32
 8005002:	e7f4      	b.n	8004fee <HAL_DMA_IRQHandler+0xc6>
 8005004:	f44f 7300 	mov.w	r3, #512	; 0x200
 8005008:	e7f1      	b.n	8004fee <HAL_DMA_IRQHandler+0xc6>
 800500a:	f44f 5300 	mov.w	r3, #8192	; 0x2000
 800500e:	e7ee      	b.n	8004fee <HAL_DMA_IRQHandler+0xc6>
 8005010:	f44f 3300 	mov.w	r3, #131072	; 0x20000
 8005014:	e7eb      	b.n	8004fee <HAL_DMA_IRQHandler+0xc6>
 8005016:	2508      	movs	r5, #8
 8005018:	4095      	lsls	r5, r2
 800501a:	4225      	tst	r5, r4
 800501c:	d00f      	beq.n	800503e <HAL_DMA_IRQHandler+0x116>
 800501e:	0709      	lsls	r1, r1, #28
 8005020:	d50d      	bpl.n	800503e <HAL_DMA_IRQHandler+0x116>
 8005022:	6819      	ldr	r1, [r3, #0]
 8005024:	f021 010e 	bic.w	r1, r1, #14
 8005028:	6019      	str	r1, [r3, #0]
 800502a:	2301      	movs	r3, #1
 800502c:	fa03 f202 	lsl.w	r2, r3, r2
 8005030:	6072      	str	r2, [r6, #4]
 8005032:	6383      	str	r3, [r0, #56]	; 0x38
 8005034:	f44f 7380 	mov.w	r3, #256	; 0x100
 8005038:	8403      	strh	r3, [r0, #32]
 800503a:	6b03      	ldr	r3, [r0, #48]	; 0x30
 800503c:	e7a0      	b.n	8004f80 <HAL_DMA_IRQHandler+0x58>
 800503e:	bc70      	pop	{r4, r5, r6}
 8005040:	4770      	bx	lr
 8005042:	bf00      	nop
 8005044:	40020008 	.word	0x40020008
 8005048:	40020000 	.word	0x40020000

0800504c <FLASH_SetErrorCode>:
 800504c:	4a11      	ldr	r2, [pc, #68]	; (8005094 <FLASH_SetErrorCode+0x48>)
 800504e:	68d3      	ldr	r3, [r2, #12]
 8005050:	f013 0310 	ands.w	r3, r3, #16
 8005054:	d005      	beq.n	8005062 <FLASH_SetErrorCode+0x16>
 8005056:	4910      	ldr	r1, [pc, #64]	; (8005098 <FLASH_SetErrorCode+0x4c>)
 8005058:	69cb      	ldr	r3, [r1, #28]
 800505a:	f043 0302 	orr.w	r3, r3, #2
 800505e:	61cb      	str	r3, [r1, #28]
 8005060:	2310      	movs	r3, #16
 8005062:	68d2      	ldr	r2, [r2, #12]
 8005064:	0750      	lsls	r0, r2, #29
 8005066:	d506      	bpl.n	8005076 <FLASH_SetErrorCode+0x2a>
 8005068:	490b      	ldr	r1, [pc, #44]	; (8005098 <FLASH_SetErrorCode+0x4c>)
 800506a:	f043 0304 	orr.w	r3, r3, #4
 800506e:	69ca      	ldr	r2, [r1, #28]
 8005070:	f042 0201 	orr.w	r2, r2, #1
 8005074:	61ca      	str	r2, [r1, #28]
 8005076:	4a07      	ldr	r2, [pc, #28]	; (8005094 <FLASH_SetErrorCode+0x48>)
 8005078:	69d1      	ldr	r1, [r2, #28]
 800507a:	07c9      	lsls	r1, r1, #31
 800507c:	d508      	bpl.n	8005090 <FLASH_SetErrorCode+0x44>
 800507e:	4806      	ldr	r0, [pc, #24]	; (8005098 <FLASH_SetErrorCode+0x4c>)
 8005080:	69c1      	ldr	r1, [r0, #28]
 8005082:	f041 0104 	orr.w	r1, r1, #4
 8005086:	61c1      	str	r1, [r0, #28]
 8005088:	69d1      	ldr	r1, [r2, #28]
 800508a:	f021 0101 	bic.w	r1, r1, #1
 800508e:	61d1      	str	r1, [r2, #28]
 8005090:	60d3      	str	r3, [r2, #12]
 8005092:	4770      	bx	lr
 8005094:	40022000 	.word	0x40022000
 8005098:	20000cf0 	.word	0x20000cf0

0800509c <HAL_FLASH_Unlock>:
 800509c:	4b06      	ldr	r3, [pc, #24]	; (80050b8 <HAL_FLASH_Unlock+0x1c>)
 800509e:	6918      	ldr	r0, [r3, #16]
 80050a0:	f010 0080 	ands.w	r0, r0, #128	; 0x80
 80050a4:	d007      	beq.n	80050b6 <HAL_FLASH_Unlock+0x1a>
 80050a6:	4a05      	ldr	r2, [pc, #20]	; (80050bc <HAL_FLASH_Unlock+0x20>)
 80050a8:	605a      	str	r2, [r3, #4]
 80050aa:	f102 3288 	add.w	r2, r2, #2290649224	; 0x88888888
 80050ae:	605a      	str	r2, [r3, #4]
 80050b0:	6918      	ldr	r0, [r3, #16]
 80050b2:	f3c0 10c0 	ubfx	r0, r0, #7, #1
 80050b6:	4770      	bx	lr
 80050b8:	40022000 	.word	0x40022000
 80050bc:	45670123 	.word	0x45670123

080050c0 <HAL_FLASH_Lock>:
 80050c0:	4a03      	ldr	r2, [pc, #12]	; (80050d0 <HAL_FLASH_Lock+0x10>)
 80050c2:	2000      	movs	r0, #0
 80050c4:	6913      	ldr	r3, [r2, #16]
 80050c6:	f043 0380 	orr.w	r3, r3, #128	; 0x80
 80050ca:	6113      	str	r3, [r2, #16]
 80050cc:	4770      	bx	lr
 80050ce:	bf00      	nop
 80050d0:	40022000 	.word	0x40022000

080050d4 <FLASH_WaitForLastOperation>:
 80050d4:	b5f8      	push	{r3, r4, r5, r6, r7, lr}
 80050d6:	4604      	mov	r4, r0
 80050d8:	f7ff fde4 	bl	8004ca4 <HAL_GetTick>
 80050dc:	4d11      	ldr	r5, [pc, #68]	; (8005124 <FLASH_WaitForLastOperation+0x50>)
 80050de:	4607      	mov	r7, r0
 80050e0:	462e      	mov	r6, r5
 80050e2:	68eb      	ldr	r3, [r5, #12]
 80050e4:	07d8      	lsls	r0, r3, #31
 80050e6:	d412      	bmi.n	800510e <FLASH_WaitForLastOperation+0x3a>
 80050e8:	68eb      	ldr	r3, [r5, #12]
 80050ea:	0699      	lsls	r1, r3, #26
 80050ec:	bf44      	itt	mi
 80050ee:	2320      	movmi	r3, #32
 80050f0:	60eb      	strmi	r3, [r5, #12]
 80050f2:	68f3      	ldr	r3, [r6, #12]
 80050f4:	06da      	lsls	r2, r3, #27
 80050f6:	d406      	bmi.n	8005106 <FLASH_WaitForLastOperation+0x32>
 80050f8:	69f3      	ldr	r3, [r6, #28]
 80050fa:	07db      	lsls	r3, r3, #31
 80050fc:	d403      	bmi.n	8005106 <FLASH_WaitForLastOperation+0x32>
 80050fe:	68f0      	ldr	r0, [r6, #12]
 8005100:	f010 0004 	ands.w	r0, r0, #4
 8005104:	d007      	beq.n	8005116 <FLASH_WaitForLastOperation+0x42>
 8005106:	f7ff ffa1 	bl	800504c <FLASH_SetErrorCode>
 800510a:	2001      	movs	r0, #1
 800510c:	e003      	b.n	8005116 <FLASH_WaitForLastOperation+0x42>
 800510e:	1c63      	adds	r3, r4, #1
 8005110:	d0e7      	beq.n	80050e2 <FLASH_WaitForLastOperation+0xe>
 8005112:	b90c      	cbnz	r4, 8005118 <FLASH_WaitForLastOperation+0x44>
 8005114:	2003      	movs	r0, #3
 8005116:	bdf8      	pop	{r3, r4, r5, r6, r7, pc}
 8005118:	f7ff fdc4 	bl	8004ca4 <HAL_GetTick>
 800511c:	1bc0      	subs	r0, r0, r7
 800511e:	42a0      	cmp	r0, r4
 8005120:	d9df      	bls.n	80050e2 <FLASH_WaitForLastOperation+0xe>
 8005122:	e7f7      	b.n	8005114 <FLASH_WaitForLastOperation+0x40>
 8005124:	40022000 	.word	0x40022000

08005128 <HAL_FLASH_Program>:
 8005128:	e92d 4ff8 	stmdb	sp!, {r3, r4, r5, r6, r7, r8, r9, sl, fp, lr}
 800512c:	4e25      	ldr	r6, [pc, #148]	; (80051c4 <HAL_FLASH_Program+0x9c>)
 800512e:	461f      	mov	r7, r3
 8005130:	7e33      	ldrb	r3, [r6, #24]
 8005132:	4605      	mov	r5, r0
 8005134:	2b01      	cmp	r3, #1
 8005136:	4688      	mov	r8, r1
 8005138:	4691      	mov	r9, r2
 800513a:	d040      	beq.n	80051be <HAL_FLASH_Program+0x96>
 800513c:	2301      	movs	r3, #1
 800513e:	f24c 3050 	movw	r0, #50000	; 0xc350
 8005142:	7633      	strb	r3, [r6, #24]
 8005144:	f7ff ffc6 	bl	80050d4 <FLASH_WaitForLastOperation>
 8005148:	bba8      	cbnz	r0, 80051b6 <HAL_FLASH_Program+0x8e>
 800514a:	2d01      	cmp	r5, #1
 800514c:	d003      	beq.n	8005156 <HAL_FLASH_Program+0x2e>
 800514e:	2d02      	cmp	r5, #2
 8005150:	bf0c      	ite	eq
 8005152:	2502      	moveq	r5, #2
 8005154:	2504      	movne	r5, #4
 8005156:	f04f 0a00 	mov.w	sl, #0
 800515a:	4653      	mov	r3, sl
 800515c:	f8df b068 	ldr.w	fp, [pc, #104]	; 80051c8 <HAL_FLASH_Program+0xa0>
 8005160:	ea4f 140a 	mov.w	r4, sl, lsl #4
 8005164:	f1c4 0120 	rsb	r1, r4, #32
 8005168:	f1a4 0220 	sub.w	r2, r4, #32
 800516c:	fa07 f101 	lsl.w	r1, r7, r1
 8005170:	fa29 f404 	lsr.w	r4, r9, r4
 8005174:	61f3      	str	r3, [r6, #28]
 8005176:	430c      	orrs	r4, r1
 8005178:	fa27 f202 	lsr.w	r2, r7, r2
 800517c:	4314      	orrs	r4, r2
 800517e:	f8db 2010 	ldr.w	r2, [fp, #16]
 8005182:	b2a4      	uxth	r4, r4
 8005184:	f042 0201 	orr.w	r2, r2, #1
 8005188:	f8cb 2010 	str.w	r2, [fp, #16]
 800518c:	f24c 3050 	movw	r0, #50000	; 0xc350
 8005190:	f828 401a 	strh.w	r4, [r8, sl, lsl #1]
 8005194:	f7ff ff9e 	bl	80050d4 <FLASH_WaitForLastOperation>
 8005198:	f8db 2010 	ldr.w	r2, [fp, #16]
 800519c:	f022 0201 	bic.w	r2, r2, #1
 80051a0:	f8cb 2010 	str.w	r2, [fp, #16]
 80051a4:	b938      	cbnz	r0, 80051b6 <HAL_FLASH_Program+0x8e>
 80051a6:	f10a 0a01 	add.w	sl, sl, #1
 80051aa:	fa5f f28a 	uxtb.w	r2, sl
 80051ae:	4295      	cmp	r5, r2
 80051b0:	f04f 0300 	mov.w	r3, #0
 80051b4:	d8d4      	bhi.n	8005160 <HAL_FLASH_Program+0x38>
 80051b6:	2300      	movs	r3, #0
 80051b8:	7633      	strb	r3, [r6, #24]
 80051ba:	e8bd 8ff8 	ldmia.w	sp!, {r3, r4, r5, r6, r7, r8, r9, sl, fp, pc}
 80051be:	2002      	movs	r0, #2
 80051c0:	e7fb      	b.n	80051ba <HAL_FLASH_Program+0x92>
 80051c2:	bf00      	nop
 80051c4:	20000cf0 	.word	0x20000cf0
 80051c8:	40022000 	.word	0x40022000

080051cc <FLASH_MassErase.isra.0>:
 80051cc:	2200      	movs	r2, #0
 80051ce:	4b06      	ldr	r3, [pc, #24]	; (80051e8 <FLASH_MassErase.isra.0+0x1c>)
 80051d0:	61da      	str	r2, [r3, #28]
 80051d2:	4b06      	ldr	r3, [pc, #24]	; (80051ec <FLASH_MassErase.isra.0+0x20>)
 80051d4:	691a      	ldr	r2, [r3, #16]
 80051d6:	f042 0204 	orr.w	r2, r2, #4
 80051da:	611a      	str	r2, [r3, #16]
 80051dc:	691a      	ldr	r2, [r3, #16]
 80051de:	f042 0240 	orr.w	r2, r2, #64	; 0x40
 80051e2:	611a      	str	r2, [r3, #16]
 80051e4:	4770      	bx	lr
 80051e6:	bf00      	nop
 80051e8:	20000cf0 	.word	0x20000cf0
 80051ec:	40022000 	.word	0x40022000

080051f0 <FLASH_PageErase>:
 80051f0:	2200      	movs	r2, #0
 80051f2:	4b06      	ldr	r3, [pc, #24]	; (800520c <FLASH_PageErase+0x1c>)
 80051f4:	61da      	str	r2, [r3, #28]
 80051f6:	4b06      	ldr	r3, [pc, #24]	; (8005210 <FLASH_PageErase+0x20>)
 80051f8:	691a      	ldr	r2, [r3, #16]
 80051fa:	f042 0202 	orr.w	r2, r2, #2
 80051fe:	611a      	str	r2, [r3, #16]
 8005200:	6158      	str	r0, [r3, #20]
 8005202:	691a      	ldr	r2, [r3, #16]
 8005204:	f042 0240 	orr.w	r2, r2, #64	; 0x40
 8005208:	611a      	str	r2, [r3, #16]
 800520a:	4770      	bx	lr
 800520c:	20000cf0 	.word	0x20000cf0
 8005210:	40022000 	.word	0x40022000

08005214 <HAL_FLASHEx_Erase>:
 8005214:	e92d 41f0 	stmdb	sp!, {r4, r5, r6, r7, r8, lr}
 8005218:	4e22      	ldr	r6, [pc, #136]	; (80052a4 <HAL_FLASHEx_Erase+0x90>)
 800521a:	4605      	mov	r5, r0
 800521c:	7e33      	ldrb	r3, [r6, #24]
 800521e:	4688      	mov	r8, r1
 8005220:	2b01      	cmp	r3, #1
 8005222:	d03d      	beq.n	80052a0 <HAL_FLASHEx_Erase+0x8c>
 8005224:	2401      	movs	r4, #1
 8005226:	7634      	strb	r4, [r6, #24]
 8005228:	6803      	ldr	r3, [r0, #0]
 800522a:	f24c 3050 	movw	r0, #50000	; 0xc350
 800522e:	2b02      	cmp	r3, #2
 8005230:	d113      	bne.n	800525a <HAL_FLASHEx_Erase+0x46>
 8005232:	f7ff ff4f 	bl	80050d4 <FLASH_WaitForLastOperation>
 8005236:	b120      	cbz	r0, 8005242 <HAL_FLASHEx_Erase+0x2e>
 8005238:	2001      	movs	r0, #1
 800523a:	2300      	movs	r3, #0
 800523c:	7633      	strb	r3, [r6, #24]
 800523e:	e8bd 81f0 	ldmia.w	sp!, {r4, r5, r6, r7, r8, pc}
 8005242:	f7ff ffc3 	bl	80051cc <FLASH_MassErase.isra.0>
 8005246:	f24c 3050 	movw	r0, #50000	; 0xc350
 800524a:	f7ff ff43 	bl	80050d4 <FLASH_WaitForLastOperation>
 800524e:	4a16      	ldr	r2, [pc, #88]	; (80052a8 <HAL_FLASHEx_Erase+0x94>)
 8005250:	6913      	ldr	r3, [r2, #16]
 8005252:	f023 0304 	bic.w	r3, r3, #4
 8005256:	6113      	str	r3, [r2, #16]
 8005258:	e7ef      	b.n	800523a <HAL_FLASHEx_Erase+0x26>
 800525a:	f7ff ff3b 	bl	80050d4 <FLASH_WaitForLastOperation>
 800525e:	2800      	cmp	r0, #0
 8005260:	d1ea      	bne.n	8005238 <HAL_FLASHEx_Erase+0x24>
 8005262:	f04f 33ff 	mov.w	r3, #4294967295	; 0xffffffff
 8005266:	f8c8 3000 	str.w	r3, [r8]
 800526a:	4620      	mov	r0, r4
 800526c:	68af      	ldr	r7, [r5, #8]
 800526e:	4c0e      	ldr	r4, [pc, #56]	; (80052a8 <HAL_FLASHEx_Erase+0x94>)
 8005270:	e9d5 3202 	ldrd	r3, r2, [r5, #8]
 8005274:	eb03 2382 	add.w	r3, r3, r2, lsl #10
 8005278:	42bb      	cmp	r3, r7
 800527a:	d9de      	bls.n	800523a <HAL_FLASHEx_Erase+0x26>
 800527c:	4638      	mov	r0, r7
 800527e:	f7ff ffb7 	bl	80051f0 <FLASH_PageErase>
 8005282:	f24c 3050 	movw	r0, #50000	; 0xc350
 8005286:	f7ff ff25 	bl	80050d4 <FLASH_WaitForLastOperation>
 800528a:	6923      	ldr	r3, [r4, #16]
 800528c:	f023 0302 	bic.w	r3, r3, #2
 8005290:	6123      	str	r3, [r4, #16]
 8005292:	b110      	cbz	r0, 800529a <HAL_FLASHEx_Erase+0x86>
 8005294:	f8c8 7000 	str.w	r7, [r8]
 8005298:	e7cf      	b.n	800523a <HAL_FLASHEx_Erase+0x26>
 800529a:	f507 6780 	add.w	r7, r7, #1024	; 0x400
 800529e:	e7e7      	b.n	8005270 <HAL_FLASHEx_Erase+0x5c>
 80052a0:	2002      	movs	r0, #2
 80052a2:	e7cc      	b.n	800523e <HAL_FLASHEx_Erase+0x2a>
 80052a4:	20000cf0 	.word	0x20000cf0
 80052a8:	40022000 	.word	0x40022000

080052ac <HAL_GPIO_Init>:
 80052ac:	e92d 4ff7 	stmdb	sp!, {r0, r1, r2, r4, r5, r6, r7, r8, r9, sl, fp, lr}
 80052b0:	2200      	movs	r2, #0
 80052b2:	4616      	mov	r6, r2
 80052b4:	4b64      	ldr	r3, [pc, #400]	; (8005448 <HAL_GPIO_Init+0x19c>)
 80052b6:	f8df c1a0 	ldr.w	ip, [pc, #416]	; 8005458 <HAL_GPIO_Init+0x1ac>
 80052ba:	f8df e1a0 	ldr.w	lr, [pc, #416]	; 800545c <HAL_GPIO_Init+0x1b0>
 80052be:	680d      	ldr	r5, [r1, #0]
 80052c0:	fa35 f406 	lsrs.w	r4, r5, r6
 80052c4:	d102      	bne.n	80052cc <HAL_GPIO_Init+0x20>
 80052c6:	b003      	add	sp, #12
 80052c8:	e8bd 8ff0 	ldmia.w	sp!, {r4, r5, r6, r7, r8, r9, sl, fp, pc}
 80052cc:	f04f 0801 	mov.w	r8, #1
 80052d0:	fa08 f806 	lsl.w	r8, r8, r6
 80052d4:	ea05 0408 	and.w	r4, r5, r8
 80052d8:	ea38 0505 	bics.w	r5, r8, r5
 80052dc:	d17c      	bne.n	80053d8 <HAL_GPIO_Init+0x12c>
 80052de:	684d      	ldr	r5, [r1, #4]
 80052e0:	2d03      	cmp	r5, #3
 80052e2:	d807      	bhi.n	80052f4 <HAL_GPIO_Init+0x48>
 80052e4:	3d01      	subs	r5, #1
 80052e6:	2d02      	cmp	r5, #2
 80052e8:	f200 8088 	bhi.w	80053fc <HAL_GPIO_Init+0x150>
 80052ec:	e8df f005 	tbb	[pc, r5]
 80052f0:	9b96      	.short	0x9b96
 80052f2:	a1          	.byte	0xa1
 80052f3:	00          	.byte	0x00
 80052f4:	2d12      	cmp	r5, #18
 80052f6:	f000 8099 	beq.w	800542c <HAL_GPIO_Init+0x180>
 80052fa:	d86f      	bhi.n	80053dc <HAL_GPIO_Init+0x130>
 80052fc:	2d11      	cmp	r5, #17
 80052fe:	f000 808f 	beq.w	8005420 <HAL_GPIO_Init+0x174>
 8005302:	2cff      	cmp	r4, #255	; 0xff
 8005304:	bf98      	it	ls
 8005306:	4682      	movls	sl, r0
 8005308:	f04f 090f 	mov.w	r9, #15
 800530c:	bf88      	it	hi
 800530e:	f100 0a04 	addhi.w	sl, r0, #4
 8005312:	ea4f 0586 	mov.w	r5, r6, lsl #2
 8005316:	f8da 8000 	ldr.w	r8, [sl]
 800531a:	bf88      	it	hi
 800531c:	3d20      	subhi	r5, #32
 800531e:	fa09 fb05 	lsl.w	fp, r9, r5
 8005322:	ea28 080b 	bic.w	r8, r8, fp
 8005326:	fa02 f505 	lsl.w	r5, r2, r5
 800532a:	ea48 0505 	orr.w	r5, r8, r5
 800532e:	f8ca 5000 	str.w	r5, [sl]
 8005332:	f8d1 a004 	ldr.w	sl, [r1, #4]
 8005336:	f01a 5f80 	tst.w	sl, #268435456	; 0x10000000
 800533a:	d04d      	beq.n	80053d8 <HAL_GPIO_Init+0x12c>
 800533c:	4f43      	ldr	r7, [pc, #268]	; (800544c <HAL_GPIO_Init+0x1a0>)
 800533e:	f026 0803 	bic.w	r8, r6, #3
 8005342:	69bd      	ldr	r5, [r7, #24]
 8005344:	f108 4880 	add.w	r8, r8, #1073741824	; 0x40000000
 8005348:	f045 0501 	orr.w	r5, r5, #1
 800534c:	61bd      	str	r5, [r7, #24]
 800534e:	69bd      	ldr	r5, [r7, #24]
 8005350:	f508 3880 	add.w	r8, r8, #65536	; 0x10000
 8005354:	f005 0501 	and.w	r5, r5, #1
 8005358:	9501      	str	r5, [sp, #4]
 800535a:	f006 0b03 	and.w	fp, r6, #3
 800535e:	9d01      	ldr	r5, [sp, #4]
 8005360:	ea4f 0b8b 	mov.w	fp, fp, lsl #2
 8005364:	f8d8 5008 	ldr.w	r5, [r8, #8]
 8005368:	fa09 f90b 	lsl.w	r9, r9, fp
 800536c:	ea25 0909 	bic.w	r9, r5, r9
 8005370:	4d37      	ldr	r5, [pc, #220]	; (8005450 <HAL_GPIO_Init+0x1a4>)
 8005372:	42a8      	cmp	r0, r5
 8005374:	d061      	beq.n	800543a <HAL_GPIO_Init+0x18e>
 8005376:	f505 6580 	add.w	r5, r5, #1024	; 0x400
 800537a:	42a8      	cmp	r0, r5
 800537c:	d05f      	beq.n	800543e <HAL_GPIO_Init+0x192>
 800537e:	f505 6580 	add.w	r5, r5, #1024	; 0x400
 8005382:	42a8      	cmp	r0, r5
 8005384:	d05d      	beq.n	8005442 <HAL_GPIO_Init+0x196>
 8005386:	f505 6580 	add.w	r5, r5, #1024	; 0x400
 800538a:	42a8      	cmp	r0, r5
 800538c:	bf0c      	ite	eq
 800538e:	2503      	moveq	r5, #3
 8005390:	2504      	movne	r5, #4
 8005392:	fa05 f50b 	lsl.w	r5, r5, fp
 8005396:	ea45 0509 	orr.w	r5, r5, r9
 800539a:	f8c8 5008 	str.w	r5, [r8, #8]
 800539e:	681d      	ldr	r5, [r3, #0]
 80053a0:	f41a 3f80 	tst.w	sl, #65536	; 0x10000
 80053a4:	bf14      	ite	ne
 80053a6:	4325      	orrne	r5, r4
 80053a8:	43a5      	biceq	r5, r4
 80053aa:	601d      	str	r5, [r3, #0]
 80053ac:	685d      	ldr	r5, [r3, #4]
 80053ae:	f41a 3f00 	tst.w	sl, #131072	; 0x20000
 80053b2:	bf14      	ite	ne
 80053b4:	4325      	orrne	r5, r4
 80053b6:	43a5      	biceq	r5, r4
 80053b8:	605d      	str	r5, [r3, #4]
 80053ba:	689d      	ldr	r5, [r3, #8]
 80053bc:	f41a 1f80 	tst.w	sl, #1048576	; 0x100000
 80053c0:	bf14      	ite	ne
 80053c2:	4325      	orrne	r5, r4
 80053c4:	43a5      	biceq	r5, r4
 80053c6:	609d      	str	r5, [r3, #8]
 80053c8:	68dd      	ldr	r5, [r3, #12]
 80053ca:	f41a 1f00 	tst.w	sl, #2097152	; 0x200000
 80053ce:	bf14      	ite	ne
 80053d0:	432c      	orrne	r4, r5
 80053d2:	ea25 0404 	biceq.w	r4, r5, r4
 80053d6:	60dc      	str	r4, [r3, #12]
 80053d8:	3601      	adds	r6, #1
 80053da:	e770      	b.n	80052be <HAL_GPIO_Init+0x12>
 80053dc:	4f1d      	ldr	r7, [pc, #116]	; (8005454 <HAL_GPIO_Init+0x1a8>)
 80053de:	42bd      	cmp	r5, r7
 80053e0:	d00c      	beq.n	80053fc <HAL_GPIO_Init+0x150>
 80053e2:	d817      	bhi.n	8005414 <HAL_GPIO_Init+0x168>
 80053e4:	f8df 9078 	ldr.w	r9, [pc, #120]	; 8005460 <HAL_GPIO_Init+0x1b4>
 80053e8:	454d      	cmp	r5, r9
 80053ea:	d007      	beq.n	80053fc <HAL_GPIO_Init+0x150>
 80053ec:	f509 2970 	add.w	r9, r9, #983040	; 0xf0000
 80053f0:	454d      	cmp	r5, r9
 80053f2:	d003      	beq.n	80053fc <HAL_GPIO_Init+0x150>
 80053f4:	f5a9 1980 	sub.w	r9, r9, #1048576	; 0x100000
 80053f8:	454d      	cmp	r5, r9
 80053fa:	d182      	bne.n	8005302 <HAL_GPIO_Init+0x56>
 80053fc:	688a      	ldr	r2, [r1, #8]
 80053fe:	b1d2      	cbz	r2, 8005436 <HAL_GPIO_Init+0x18a>
 8005400:	2a01      	cmp	r2, #1
 8005402:	bf08      	it	eq
 8005404:	f8c0 8010 	streq.w	r8, [r0, #16]
 8005408:	f04f 0208 	mov.w	r2, #8
 800540c:	bf18      	it	ne
 800540e:	f8c0 8014 	strne.w	r8, [r0, #20]
 8005412:	e776      	b.n	8005302 <HAL_GPIO_Init+0x56>
 8005414:	4565      	cmp	r5, ip
 8005416:	d0f1      	beq.n	80053fc <HAL_GPIO_Init+0x150>
 8005418:	4575      	cmp	r5, lr
 800541a:	e7ee      	b.n	80053fa <HAL_GPIO_Init+0x14e>
 800541c:	68ca      	ldr	r2, [r1, #12]
 800541e:	e770      	b.n	8005302 <HAL_GPIO_Init+0x56>
 8005420:	68ca      	ldr	r2, [r1, #12]
 8005422:	3204      	adds	r2, #4
 8005424:	e76d      	b.n	8005302 <HAL_GPIO_Init+0x56>
 8005426:	68ca      	ldr	r2, [r1, #12]
 8005428:	3208      	adds	r2, #8
 800542a:	e76a      	b.n	8005302 <HAL_GPIO_Init+0x56>
 800542c:	68ca      	ldr	r2, [r1, #12]
 800542e:	320c      	adds	r2, #12
 8005430:	e767      	b.n	8005302 <HAL_GPIO_Init+0x56>
 8005432:	2200      	movs	r2, #0
 8005434:	e765      	b.n	8005302 <HAL_GPIO_Init+0x56>
 8005436:	2204      	movs	r2, #4
 8005438:	e763      	b.n	8005302 <HAL_GPIO_Init+0x56>
 800543a:	2500      	movs	r5, #0
 800543c:	e7a9      	b.n	8005392 <HAL_GPIO_Init+0xe6>
 800543e:	2501      	movs	r5, #1
 8005440:	e7a7      	b.n	8005392 <HAL_GPIO_Init+0xe6>
 8005442:	2502      	movs	r5, #2
 8005444:	e7a5      	b.n	8005392 <HAL_GPIO_Init+0xe6>
 8005446:	bf00      	nop
 8005448:	40010400 	.word	0x40010400
 800544c:	40021000 	.word	0x40021000
 8005450:	40010800 	.word	0x40010800
 8005454:	10220000 	.word	0x10220000
 8005458:	10310000 	.word	0x10310000
 800545c:	10320000 	.word	0x10320000
 8005460:	10120000 	.word	0x10120000

08005464 <HAL_GPIO_WritePin>:
 8005464:	b10a      	cbz	r2, 800546a <HAL_GPIO_WritePin+0x6>
 8005466:	6101      	str	r1, [r0, #16]
 8005468:	4770      	bx	lr
 800546a:	0409      	lsls	r1, r1, #16
 800546c:	e7fb      	b.n	8005466 <HAL_GPIO_WritePin+0x2>

0800546e <I2C_IsAcknowledgeFailed>:
 800546e:	6801      	ldr	r1, [r0, #0]
 8005470:	2200      	movs	r2, #0
 8005472:	694b      	ldr	r3, [r1, #20]
 8005474:	f413 6380 	ands.w	r3, r3, #1024	; 0x400
 8005478:	d010      	beq.n	800549c <I2C_IsAcknowledgeFailed+0x2e>
 800547a:	f46f 6380 	mvn.w	r3, #1024	; 0x400
 800547e:	614b      	str	r3, [r1, #20]
 8005480:	2320      	movs	r3, #32
 8005482:	6302      	str	r2, [r0, #48]	; 0x30
 8005484:	f880 303d 	strb.w	r3, [r0, #61]	; 0x3d
 8005488:	f880 203e 	strb.w	r2, [r0, #62]	; 0x3e
 800548c:	6c03      	ldr	r3, [r0, #64]	; 0x40
 800548e:	f880 203c 	strb.w	r2, [r0, #60]	; 0x3c
 8005492:	f043 0304 	orr.w	r3, r3, #4
 8005496:	6403      	str	r3, [r0, #64]	; 0x40
 8005498:	2001      	movs	r0, #1
 800549a:	4770      	bx	lr
 800549c:	4618      	mov	r0, r3
 800549e:	4770      	bx	lr

080054a0 <I2C_WaitOnMasterAddressFlagUntilTimeout>:
 80054a0:	e92d 41f0 	stmdb	sp!, {r4, r5, r6, r7, r8, lr}
 80054a4:	4604      	mov	r4, r0
 80054a6:	460f      	mov	r7, r1
 80054a8:	4616      	mov	r6, r2
 80054aa:	4698      	mov	r8, r3
 80054ac:	6825      	ldr	r5, [r4, #0]
 80054ae:	6968      	ldr	r0, [r5, #20]
 80054b0:	ea27 0000 	bic.w	r0, r7, r0
 80054b4:	b280      	uxth	r0, r0
 80054b6:	b1b8      	cbz	r0, 80054e8 <I2C_WaitOnMasterAddressFlagUntilTimeout+0x48>
 80054b8:	696b      	ldr	r3, [r5, #20]
 80054ba:	055a      	lsls	r2, r3, #21
 80054bc:	d516      	bpl.n	80054ec <I2C_WaitOnMasterAddressFlagUntilTimeout+0x4c>
 80054be:	682b      	ldr	r3, [r5, #0]
 80054c0:	2220      	movs	r2, #32
 80054c2:	f443 7300 	orr.w	r3, r3, #512	; 0x200
 80054c6:	602b      	str	r3, [r5, #0]
 80054c8:	f46f 6380 	mvn.w	r3, #1024	; 0x400
 80054cc:	616b      	str	r3, [r5, #20]
 80054ce:	2300      	movs	r3, #0
 80054d0:	6323      	str	r3, [r4, #48]	; 0x30
 80054d2:	f884 203d 	strb.w	r2, [r4, #61]	; 0x3d
 80054d6:	f884 303e 	strb.w	r3, [r4, #62]	; 0x3e
 80054da:	6c22      	ldr	r2, [r4, #64]	; 0x40
 80054dc:	f042 0204 	orr.w	r2, r2, #4
 80054e0:	2001      	movs	r0, #1
 80054e2:	6422      	str	r2, [r4, #64]	; 0x40
 80054e4:	f884 303c 	strb.w	r3, [r4, #60]	; 0x3c
 80054e8:	e8bd 81f0 	ldmia.w	sp!, {r4, r5, r6, r7, r8, pc}
 80054ec:	1c73      	adds	r3, r6, #1
 80054ee:	d0de      	beq.n	80054ae <I2C_WaitOnMasterAddressFlagUntilTimeout+0xe>
 80054f0:	f7ff fbd8 	bl	8004ca4 <HAL_GetTick>
 80054f4:	eba0 0008 	sub.w	r0, r0, r8
 80054f8:	42b0      	cmp	r0, r6
 80054fa:	d801      	bhi.n	8005500 <I2C_WaitOnMasterAddressFlagUntilTimeout+0x60>
 80054fc:	2e00      	cmp	r6, #0
 80054fe:	d1d5      	bne.n	80054ac <I2C_WaitOnMasterAddressFlagUntilTimeout+0xc>
 8005500:	2300      	movs	r3, #0
 8005502:	2220      	movs	r2, #32
 8005504:	6323      	str	r3, [r4, #48]	; 0x30
 8005506:	f884 203d 	strb.w	r2, [r4, #61]	; 0x3d
 800550a:	f884 303e 	strb.w	r3, [r4, #62]	; 0x3e
 800550e:	6c22      	ldr	r2, [r4, #64]	; 0x40
 8005510:	f042 0220 	orr.w	r2, r2, #32
 8005514:	e7e4      	b.n	80054e0 <I2C_WaitOnMasterAddressFlagUntilTimeout+0x40>

08005516 <I2C_WaitOnBTFFlagUntilTimeout>:
 8005516:	b570      	push	{r4, r5, r6, lr}
 8005518:	4604      	mov	r4, r0
 800551a:	460d      	mov	r5, r1
 800551c:	4616      	mov	r6, r2
 800551e:	6823      	ldr	r3, [r4, #0]
 8005520:	695b      	ldr	r3, [r3, #20]
 8005522:	075b      	lsls	r3, r3, #29
 8005524:	d501      	bpl.n	800552a <I2C_WaitOnBTFFlagUntilTimeout+0x14>
 8005526:	2000      	movs	r0, #0
 8005528:	bd70      	pop	{r4, r5, r6, pc}
 800552a:	4620      	mov	r0, r4
 800552c:	f7ff ff9f 	bl	800546e <I2C_IsAcknowledgeFailed>
 8005530:	b9a8      	cbnz	r0, 800555e <I2C_WaitOnBTFFlagUntilTimeout+0x48>
 8005532:	1c6a      	adds	r2, r5, #1
 8005534:	d0f3      	beq.n	800551e <I2C_WaitOnBTFFlagUntilTimeout+0x8>
 8005536:	f7ff fbb5 	bl	8004ca4 <HAL_GetTick>
 800553a:	1b80      	subs	r0, r0, r6
 800553c:	42a8      	cmp	r0, r5
 800553e:	d801      	bhi.n	8005544 <I2C_WaitOnBTFFlagUntilTimeout+0x2e>
 8005540:	2d00      	cmp	r5, #0
 8005542:	d1ec      	bne.n	800551e <I2C_WaitOnBTFFlagUntilTimeout+0x8>
 8005544:	2300      	movs	r3, #0
 8005546:	2220      	movs	r2, #32
 8005548:	6323      	str	r3, [r4, #48]	; 0x30
 800554a:	f884 203d 	strb.w	r2, [r4, #61]	; 0x3d
 800554e:	f884 303e 	strb.w	r3, [r4, #62]	; 0x3e
 8005552:	6c22      	ldr	r2, [r4, #64]	; 0x40
 8005554:	f884 303c 	strb.w	r3, [r4, #60]	; 0x3c
 8005558:	f042 0220 	orr.w	r2, r2, #32
 800555c:	6422      	str	r2, [r4, #64]	; 0x40
 800555e:	2001      	movs	r0, #1
 8005560:	e7e2      	b.n	8005528 <I2C_WaitOnBTFFlagUntilTimeout+0x12>

08005562 <I2C_WaitOnRXNEFlagUntilTimeout>:
 8005562:	b570      	push	{r4, r5, r6, lr}
 8005564:	4604      	mov	r4, r0
 8005566:	460d      	mov	r5, r1
 8005568:	4616      	mov	r6, r2
 800556a:	6821      	ldr	r1, [r4, #0]
 800556c:	694b      	ldr	r3, [r1, #20]
 800556e:	f013 0340 	ands.w	r3, r3, #64	; 0x40
 8005572:	d001      	beq.n	8005578 <I2C_WaitOnRXNEFlagUntilTimeout+0x16>
 8005574:	2000      	movs	r0, #0
 8005576:	e010      	b.n	800559a <I2C_WaitOnRXNEFlagUntilTimeout+0x38>
 8005578:	694a      	ldr	r2, [r1, #20]
 800557a:	06d2      	lsls	r2, r2, #27
 800557c:	d50e      	bpl.n	800559c <I2C_WaitOnRXNEFlagUntilTimeout+0x3a>
 800557e:	f06f 0210 	mvn.w	r2, #16
 8005582:	614a      	str	r2, [r1, #20]
 8005584:	2220      	movs	r2, #32
 8005586:	6323      	str	r3, [r4, #48]	; 0x30
 8005588:	f884 203d 	strb.w	r2, [r4, #61]	; 0x3d
 800558c:	f884 303e 	strb.w	r3, [r4, #62]	; 0x3e
 8005590:	6c22      	ldr	r2, [r4, #64]	; 0x40
 8005592:	2001      	movs	r0, #1
 8005594:	6422      	str	r2, [r4, #64]	; 0x40
 8005596:	f884 303c 	strb.w	r3, [r4, #60]	; 0x3c
 800559a:	bd70      	pop	{r4, r5, r6, pc}
 800559c:	f7ff fb82 	bl	8004ca4 <HAL_GetTick>
 80055a0:	1b80      	subs	r0, r0, r6
 80055a2:	42a8      	cmp	r0, r5
 80055a4:	d801      	bhi.n	80055aa <I2C_WaitOnRXNEFlagUntilTimeout+0x48>
 80055a6:	2d00      	cmp	r5, #0
 80055a8:	d1df      	bne.n	800556a <I2C_WaitOnRXNEFlagUntilTimeout+0x8>
 80055aa:	2300      	movs	r3, #0
 80055ac:	2220      	movs	r2, #32
 80055ae:	6323      	str	r3, [r4, #48]	; 0x30
 80055b0:	f884 203d 	strb.w	r2, [r4, #61]	; 0x3d
 80055b4:	f884 303e 	strb.w	r3, [r4, #62]	; 0x3e
 80055b8:	6c22      	ldr	r2, [r4, #64]	; 0x40
 80055ba:	f042 0220 	orr.w	r2, r2, #32
 80055be:	e7e8      	b.n	8005592 <I2C_WaitOnRXNEFlagUntilTimeout+0x30>

080055c0 <I2C_WaitOnFlagUntilTimeout>:
 80055c0:	e92d 46f8 	stmdb	sp!, {r3, r4, r5, r6, r7, r9, sl, lr}
 80055c4:	4606      	mov	r6, r0
 80055c6:	460f      	mov	r7, r1
 80055c8:	4691      	mov	r9, r2
 80055ca:	461d      	mov	r5, r3
 80055cc:	ea4f 4a11 	mov.w	sl, r1, lsr #16
 80055d0:	6833      	ldr	r3, [r6, #0]
 80055d2:	f1ba 0f01 	cmp.w	sl, #1
 80055d6:	bf0c      	ite	eq
 80055d8:	695c      	ldreq	r4, [r3, #20]
 80055da:	699c      	ldrne	r4, [r3, #24]
 80055dc:	ea27 0404 	bic.w	r4, r7, r4
 80055e0:	b2a4      	uxth	r4, r4
 80055e2:	fab4 f484 	clz	r4, r4
 80055e6:	0964      	lsrs	r4, r4, #5
 80055e8:	45a1      	cmp	r9, r4
 80055ea:	d001      	beq.n	80055f0 <I2C_WaitOnFlagUntilTimeout+0x30>
 80055ec:	2000      	movs	r0, #0
 80055ee:	e017      	b.n	8005620 <I2C_WaitOnFlagUntilTimeout+0x60>
 80055f0:	1c6a      	adds	r2, r5, #1
 80055f2:	d0ee      	beq.n	80055d2 <I2C_WaitOnFlagUntilTimeout+0x12>
 80055f4:	f7ff fb56 	bl	8004ca4 <HAL_GetTick>
 80055f8:	9b08      	ldr	r3, [sp, #32]
 80055fa:	1ac0      	subs	r0, r0, r3
 80055fc:	42a8      	cmp	r0, r5
 80055fe:	d801      	bhi.n	8005604 <I2C_WaitOnFlagUntilTimeout+0x44>
 8005600:	2d00      	cmp	r5, #0
 8005602:	d1e5      	bne.n	80055d0 <I2C_WaitOnFlagUntilTimeout+0x10>
 8005604:	2300      	movs	r3, #0
 8005606:	2220      	movs	r2, #32
 8005608:	2001      	movs	r0, #1
 800560a:	6333      	str	r3, [r6, #48]	; 0x30
 800560c:	f886 203d 	strb.w	r2, [r6, #61]	; 0x3d
 8005610:	f886 303e 	strb.w	r3, [r6, #62]	; 0x3e
 8005614:	6c32      	ldr	r2, [r6, #64]	; 0x40
 8005616:	f886 303c 	strb.w	r3, [r6, #60]	; 0x3c
 800561a:	f042 0220 	orr.w	r2, r2, #32
 800561e:	6432      	str	r2, [r6, #64]	; 0x40
 8005620:	e8bd 86f8 	ldmia.w	sp!, {r3, r4, r5, r6, r7, r9, sl, pc}

08005624 <I2C_WaitOnTXEFlagUntilTimeout>:
 8005624:	b570      	push	{r4, r5, r6, lr}
 8005626:	4604      	mov	r4, r0
 8005628:	460d      	mov	r5, r1
 800562a:	4616      	mov	r6, r2
 800562c:	6823      	ldr	r3, [r4, #0]
 800562e:	695b      	ldr	r3, [r3, #20]
 8005630:	061b      	lsls	r3, r3, #24
 8005632:	d501      	bpl.n	8005638 <I2C_WaitOnTXEFlagUntilTimeout+0x14>
 8005634:	2000      	movs	r0, #0
 8005636:	bd70      	pop	{r4, r5, r6, pc}
 8005638:	4620      	mov	r0, r4
 800563a:	f7ff ff18 	bl	800546e <I2C_IsAcknowledgeFailed>
 800563e:	b9a8      	cbnz	r0, 800566c <I2C_WaitOnTXEFlagUntilTimeout+0x48>
 8005640:	1c6a      	adds	r2, r5, #1
 8005642:	d0f3      	beq.n	800562c <I2C_WaitOnTXEFlagUntilTimeout+0x8>
 8005644:	f7ff fb2e 	bl	8004ca4 <HAL_GetTick>
 8005648:	1b80      	subs	r0, r0, r6
 800564a:	42a8      	cmp	r0, r5
 800564c:	d801      	bhi.n	8005652 <I2C_WaitOnTXEFlagUntilTimeout+0x2e>
 800564e:	2d00      	cmp	r5, #0
 8005650:	d1ec      	bne.n	800562c <I2C_WaitOnTXEFlagUntilTimeout+0x8>
 8005652:	2300      	movs	r3, #0
 8005654:	2220      	movs	r2, #32
 8005656:	6323      	str	r3, [r4, #48]	; 0x30
 8005658:	f884 203d 	strb.w	r2, [r4, #61]	; 0x3d
 800565c:	f884 303e 	strb.w	r3, [r4, #62]	; 0x3e
 8005660:	6c22      	ldr	r2, [r4, #64]	; 0x40
 8005662:	f884 303c 	strb.w	r3, [r4, #60]	; 0x3c
 8005666:	f042 0220 	orr.w	r2, r2, #32
 800566a:	6422      	str	r2, [r4, #64]	; 0x40
 800566c:	2001      	movs	r0, #1
 800566e:	e7e2      	b.n	8005636 <I2C_WaitOnTXEFlagUntilTimeout+0x12>

08005670 <I2C_RequestMemoryWrite>:
 8005670:	e92d 43f0 	stmdb	sp!, {r4, r5, r6, r7, r8, r9, lr}
 8005674:	4615      	mov	r5, r2
 8005676:	6802      	ldr	r2, [r0, #0]
 8005678:	4699      	mov	r9, r3
 800567a:	6813      	ldr	r3, [r2, #0]
 800567c:	b085      	sub	sp, #20
 800567e:	f443 7380 	orr.w	r3, r3, #256	; 0x100
 8005682:	6013      	str	r3, [r2, #0]
 8005684:	e9dd 780c 	ldrd	r7, r8, [sp, #48]	; 0x30
 8005688:	460e      	mov	r6, r1
 800568a:	463b      	mov	r3, r7
 800568c:	2200      	movs	r2, #0
 800568e:	f04f 1101 	mov.w	r1, #65537	; 0x10001
 8005692:	f8cd 8000 	str.w	r8, [sp]
 8005696:	4604      	mov	r4, r0
 8005698:	f7ff ff92 	bl	80055c0 <I2C_WaitOnFlagUntilTimeout>
 800569c:	6823      	ldr	r3, [r4, #0]
 800569e:	b138      	cbz	r0, 80056b0 <I2C_RequestMemoryWrite+0x40>
 80056a0:	681b      	ldr	r3, [r3, #0]
 80056a2:	05db      	lsls	r3, r3, #23
 80056a4:	d502      	bpl.n	80056ac <I2C_RequestMemoryWrite+0x3c>
 80056a6:	f44f 7300 	mov.w	r3, #512	; 0x200
 80056aa:	6423      	str	r3, [r4, #64]	; 0x40
 80056ac:	2003      	movs	r0, #3
 80056ae:	e00a      	b.n	80056c6 <I2C_RequestMemoryWrite+0x56>
 80056b0:	f006 06fe 	and.w	r6, r6, #254	; 0xfe
 80056b4:	611e      	str	r6, [r3, #16]
 80056b6:	463a      	mov	r2, r7
 80056b8:	4643      	mov	r3, r8
 80056ba:	4620      	mov	r0, r4
 80056bc:	4917      	ldr	r1, [pc, #92]	; (800571c <I2C_RequestMemoryWrite+0xac>)
 80056be:	f7ff feef 	bl	80054a0 <I2C_WaitOnMasterAddressFlagUntilTimeout>
 80056c2:	b118      	cbz	r0, 80056cc <I2C_RequestMemoryWrite+0x5c>
 80056c4:	2001      	movs	r0, #1
 80056c6:	b005      	add	sp, #20
 80056c8:	e8bd 83f0 	ldmia.w	sp!, {r4, r5, r6, r7, r8, r9, pc}
 80056cc:	6823      	ldr	r3, [r4, #0]
 80056ce:	9003      	str	r0, [sp, #12]
 80056d0:	695a      	ldr	r2, [r3, #20]
 80056d2:	4639      	mov	r1, r7
 80056d4:	9203      	str	r2, [sp, #12]
 80056d6:	699b      	ldr	r3, [r3, #24]
 80056d8:	4642      	mov	r2, r8
 80056da:	9303      	str	r3, [sp, #12]
 80056dc:	4620      	mov	r0, r4
 80056de:	9b03      	ldr	r3, [sp, #12]
 80056e0:	f7ff ffa0 	bl	8005624 <I2C_WaitOnTXEFlagUntilTimeout>
 80056e4:	b140      	cbz	r0, 80056f8 <I2C_RequestMemoryWrite+0x88>
 80056e6:	6c23      	ldr	r3, [r4, #64]	; 0x40
 80056e8:	2b04      	cmp	r3, #4
 80056ea:	bf01      	itttt	eq
 80056ec:	6822      	ldreq	r2, [r4, #0]
 80056ee:	6813      	ldreq	r3, [r2, #0]
 80056f0:	f443 7300 	orreq.w	r3, r3, #512	; 0x200
 80056f4:	6013      	streq	r3, [r2, #0]
 80056f6:	e7e5      	b.n	80056c4 <I2C_RequestMemoryWrite+0x54>
 80056f8:	f1b9 0f01 	cmp.w	r9, #1
 80056fc:	6823      	ldr	r3, [r4, #0]
 80056fe:	d102      	bne.n	8005706 <I2C_RequestMemoryWrite+0x96>
 8005700:	b2ed      	uxtb	r5, r5
 8005702:	611d      	str	r5, [r3, #16]
 8005704:	e7df      	b.n	80056c6 <I2C_RequestMemoryWrite+0x56>
 8005706:	0a2a      	lsrs	r2, r5, #8
 8005708:	611a      	str	r2, [r3, #16]
 800570a:	4639      	mov	r1, r7
 800570c:	4642      	mov	r2, r8
 800570e:	4620      	mov	r0, r4
 8005710:	f7ff ff88 	bl	8005624 <I2C_WaitOnTXEFlagUntilTimeout>
 8005714:	2800      	cmp	r0, #0
 8005716:	d1e6      	bne.n	80056e6 <I2C_RequestMemoryWrite+0x76>
 8005718:	6823      	ldr	r3, [r4, #0]
 800571a:	e7f1      	b.n	8005700 <I2C_RequestMemoryWrite+0x90>
 800571c:	00010002 	.word	0x00010002

08005720 <I2C_RequestMemoryRead>:
 8005720:	e92d 47ff 	stmdb	sp!, {r0, r1, r2, r3, r4, r5, r6, r7, r8, r9, sl, lr}
 8005724:	469a      	mov	sl, r3
 8005726:	e9dd 780c 	ldrd	r7, r8, [sp, #48]	; 0x30
 800572a:	6803      	ldr	r3, [r0, #0]
 800572c:	4615      	mov	r5, r2
 800572e:	681a      	ldr	r2, [r3, #0]
 8005730:	460e      	mov	r6, r1
 8005732:	f442 6280 	orr.w	r2, r2, #1024	; 0x400
 8005736:	601a      	str	r2, [r3, #0]
 8005738:	681a      	ldr	r2, [r3, #0]
 800573a:	f04f 1101 	mov.w	r1, #65537	; 0x10001
 800573e:	f442 7280 	orr.w	r2, r2, #256	; 0x100
 8005742:	601a      	str	r2, [r3, #0]
 8005744:	463b      	mov	r3, r7
 8005746:	2200      	movs	r2, #0
 8005748:	f8cd 8000 	str.w	r8, [sp]
 800574c:	4604      	mov	r4, r0
 800574e:	f7ff ff37 	bl	80055c0 <I2C_WaitOnFlagUntilTimeout>
 8005752:	6823      	ldr	r3, [r4, #0]
 8005754:	b148      	cbz	r0, 800576a <I2C_RequestMemoryRead+0x4a>
 8005756:	681b      	ldr	r3, [r3, #0]
 8005758:	05db      	lsls	r3, r3, #23
 800575a:	d502      	bpl.n	8005762 <I2C_RequestMemoryRead+0x42>
 800575c:	f44f 7300 	mov.w	r3, #512	; 0x200
 8005760:	6423      	str	r3, [r4, #64]	; 0x40
 8005762:	2003      	movs	r0, #3
 8005764:	b004      	add	sp, #16
 8005766:	e8bd 87f0 	ldmia.w	sp!, {r4, r5, r6, r7, r8, r9, sl, pc}
 800576a:	fa5f f986 	uxtb.w	r9, r6
 800576e:	f006 06fe 	and.w	r6, r6, #254	; 0xfe
 8005772:	611e      	str	r6, [r3, #16]
 8005774:	463a      	mov	r2, r7
 8005776:	4643      	mov	r3, r8
 8005778:	4620      	mov	r0, r4
 800577a:	4929      	ldr	r1, [pc, #164]	; (8005820 <I2C_RequestMemoryRead+0x100>)
 800577c:	f7ff fe90 	bl	80054a0 <I2C_WaitOnMasterAddressFlagUntilTimeout>
 8005780:	b108      	cbz	r0, 8005786 <I2C_RequestMemoryRead+0x66>
 8005782:	2001      	movs	r0, #1
 8005784:	e7ee      	b.n	8005764 <I2C_RequestMemoryRead+0x44>
 8005786:	6823      	ldr	r3, [r4, #0]
 8005788:	9003      	str	r0, [sp, #12]
 800578a:	695a      	ldr	r2, [r3, #20]
 800578c:	4639      	mov	r1, r7
 800578e:	9203      	str	r2, [sp, #12]
 8005790:	699b      	ldr	r3, [r3, #24]
 8005792:	4642      	mov	r2, r8
 8005794:	9303      	str	r3, [sp, #12]
 8005796:	4620      	mov	r0, r4
 8005798:	9b03      	ldr	r3, [sp, #12]
 800579a:	f7ff ff43 	bl	8005624 <I2C_WaitOnTXEFlagUntilTimeout>
 800579e:	b140      	cbz	r0, 80057b2 <I2C_RequestMemoryRead+0x92>
 80057a0:	6c23      	ldr	r3, [r4, #64]	; 0x40
 80057a2:	2b04      	cmp	r3, #4
 80057a4:	bf01      	itttt	eq
 80057a6:	6822      	ldreq	r2, [r4, #0]
 80057a8:	6813      	ldreq	r3, [r2, #0]
 80057aa:	f443 7300 	orreq.w	r3, r3, #512	; 0x200
 80057ae:	6013      	streq	r3, [r2, #0]
 80057b0:	e7e7      	b.n	8005782 <I2C_RequestMemoryRead+0x62>
 80057b2:	f1ba 0f01 	cmp.w	sl, #1
 80057b6:	6823      	ldr	r3, [r4, #0]
 80057b8:	d11a      	bne.n	80057f0 <I2C_RequestMemoryRead+0xd0>
 80057ba:	b2ed      	uxtb	r5, r5
 80057bc:	4642      	mov	r2, r8
 80057be:	4639      	mov	r1, r7
 80057c0:	4620      	mov	r0, r4
 80057c2:	611d      	str	r5, [r3, #16]
 80057c4:	f7ff ff2e 	bl	8005624 <I2C_WaitOnTXEFlagUntilTimeout>
 80057c8:	4602      	mov	r2, r0
 80057ca:	2800      	cmp	r0, #0
 80057cc:	d1e8      	bne.n	80057a0 <I2C_RequestMemoryRead+0x80>
 80057ce:	6821      	ldr	r1, [r4, #0]
 80057d0:	4620      	mov	r0, r4
 80057d2:	680b      	ldr	r3, [r1, #0]
 80057d4:	f443 7380 	orr.w	r3, r3, #256	; 0x100
 80057d8:	600b      	str	r3, [r1, #0]
 80057da:	463b      	mov	r3, r7
 80057dc:	f04f 1101 	mov.w	r1, #65537	; 0x10001
 80057e0:	f8cd 8000 	str.w	r8, [sp]
 80057e4:	f7ff feec 	bl	80055c0 <I2C_WaitOnFlagUntilTimeout>
 80057e8:	6822      	ldr	r2, [r4, #0]
 80057ea:	b160      	cbz	r0, 8005806 <I2C_RequestMemoryRead+0xe6>
 80057ec:	6813      	ldr	r3, [r2, #0]
 80057ee:	e7b3      	b.n	8005758 <I2C_RequestMemoryRead+0x38>
 80057f0:	0a2a      	lsrs	r2, r5, #8
 80057f2:	611a      	str	r2, [r3, #16]
 80057f4:	4639      	mov	r1, r7
 80057f6:	4642      	mov	r2, r8
 80057f8:	4620      	mov	r0, r4
 80057fa:	f7ff ff13 	bl	8005624 <I2C_WaitOnTXEFlagUntilTimeout>
 80057fe:	2800      	cmp	r0, #0
 8005800:	d1ce      	bne.n	80057a0 <I2C_RequestMemoryRead+0x80>
 8005802:	6823      	ldr	r3, [r4, #0]
 8005804:	e7d9      	b.n	80057ba <I2C_RequestMemoryRead+0x9a>
 8005806:	f049 0301 	orr.w	r3, r9, #1
 800580a:	6113      	str	r3, [r2, #16]
 800580c:	4620      	mov	r0, r4
 800580e:	4643      	mov	r3, r8
 8005810:	463a      	mov	r2, r7
 8005812:	4903      	ldr	r1, [pc, #12]	; (8005820 <I2C_RequestMemoryRead+0x100>)
 8005814:	f7ff fe44 	bl	80054a0 <I2C_WaitOnMasterAddressFlagUntilTimeout>
 8005818:	3800      	subs	r0, #0
 800581a:	bf18      	it	ne
 800581c:	2001      	movne	r0, #1
 800581e:	e7a1      	b.n	8005764 <I2C_RequestMemoryRead+0x44>
 8005820:	00010002 	.word	0x00010002

08005824 <HAL_I2C_Init>:
 8005824:	b570      	push	{r4, r5, r6, lr}
 8005826:	4604      	mov	r4, r0
 8005828:	b908      	cbnz	r0, 800582e <HAL_I2C_Init+0xa>
 800582a:	2001      	movs	r0, #1
 800582c:	bd70      	pop	{r4, r5, r6, pc}
 800582e:	f890 303d 	ldrb.w	r3, [r0, #61]	; 0x3d
 8005832:	f003 02ff 	and.w	r2, r3, #255	; 0xff
 8005836:	b91b      	cbnz	r3, 8005840 <HAL_I2C_Init+0x1c>
 8005838:	f880 203c 	strb.w	r2, [r0, #60]	; 0x3c
 800583c:	f7fe fa8c 	bl	8003d58 <HAL_I2C_MspInit>
 8005840:	2324      	movs	r3, #36	; 0x24
 8005842:	f884 303d 	strb.w	r3, [r4, #61]	; 0x3d
 8005846:	6823      	ldr	r3, [r4, #0]
 8005848:	681a      	ldr	r2, [r3, #0]
 800584a:	f022 0201 	bic.w	r2, r2, #1
 800584e:	601a      	str	r2, [r3, #0]
 8005850:	681a      	ldr	r2, [r3, #0]
 8005852:	f442 4200 	orr.w	r2, r2, #32768	; 0x8000
 8005856:	601a      	str	r2, [r3, #0]
 8005858:	681a      	ldr	r2, [r3, #0]
 800585a:	f422 4200 	bic.w	r2, r2, #32768	; 0x8000
 800585e:	601a      	str	r2, [r3, #0]
 8005860:	f000 fcc8 	bl	80061f4 <HAL_RCC_GetPCLK1Freq>
 8005864:	4a3f      	ldr	r2, [pc, #252]	; (8005964 <HAL_I2C_Init+0x140>)
 8005866:	6863      	ldr	r3, [r4, #4]
 8005868:	4293      	cmp	r3, r2
 800586a:	bf94      	ite	ls
 800586c:	4a3e      	ldrls	r2, [pc, #248]	; (8005968 <HAL_I2C_Init+0x144>)
 800586e:	4a3f      	ldrhi	r2, [pc, #252]	; (800596c <HAL_I2C_Init+0x148>)
 8005870:	4290      	cmp	r0, r2
 8005872:	bf8c      	ite	hi
 8005874:	2200      	movhi	r2, #0
 8005876:	2201      	movls	r2, #1
 8005878:	2a00      	cmp	r2, #0
 800587a:	d1d6      	bne.n	800582a <HAL_I2C_Init+0x6>
 800587c:	4e3c      	ldr	r6, [pc, #240]	; (8005970 <HAL_I2C_Init+0x14c>)
 800587e:	6822      	ldr	r2, [r4, #0]
 8005880:	fbb0 f6f6 	udiv	r6, r0, r6
 8005884:	6851      	ldr	r1, [r2, #4]
 8005886:	3801      	subs	r0, #1
 8005888:	f021 013f 	bic.w	r1, r1, #63	; 0x3f
 800588c:	4331      	orrs	r1, r6
 800588e:	6051      	str	r1, [r2, #4]
 8005890:	4934      	ldr	r1, [pc, #208]	; (8005964 <HAL_I2C_Init+0x140>)
 8005892:	6a15      	ldr	r5, [r2, #32]
 8005894:	428b      	cmp	r3, r1
 8005896:	bf81      	itttt	hi
 8005898:	f44f 7196 	movhi.w	r1, #300	; 0x12c
 800589c:	4371      	mulhi	r1, r6
 800589e:	f44f 767a 	movhi.w	r6, #1000	; 0x3e8
 80058a2:	fbb1 f1f6 	udivhi	r1, r1, r6
 80058a6:	f025 053f 	bic.w	r5, r5, #63	; 0x3f
 80058aa:	bf94      	ite	ls
 80058ac:	1c71      	addls	r1, r6, #1
 80058ae:	3101      	addhi	r1, #1
 80058b0:	4329      	orrs	r1, r5
 80058b2:	6211      	str	r1, [r2, #32]
 80058b4:	69d1      	ldr	r1, [r2, #28]
 80058b6:	4d2b      	ldr	r5, [pc, #172]	; (8005964 <HAL_I2C_Init+0x140>)
 80058b8:	f421 414f 	bic.w	r1, r1, #52992	; 0xcf00
 80058bc:	42ab      	cmp	r3, r5
 80058be:	f021 01ff 	bic.w	r1, r1, #255	; 0xff
 80058c2:	d832      	bhi.n	800592a <HAL_I2C_Init+0x106>
 80058c4:	005b      	lsls	r3, r3, #1
 80058c6:	fbb0 f0f3 	udiv	r0, r0, r3
 80058ca:	1c43      	adds	r3, r0, #1
 80058cc:	f640 70fc 	movw	r0, #4092	; 0xffc
 80058d0:	4203      	tst	r3, r0
 80058d2:	d042      	beq.n	800595a <HAL_I2C_Init+0x136>
 80058d4:	f3c3 030b 	ubfx	r3, r3, #0, #12
 80058d8:	430b      	orrs	r3, r1
 80058da:	61d3      	str	r3, [r2, #28]
 80058dc:	6811      	ldr	r1, [r2, #0]
 80058de:	e9d4 3007 	ldrd	r3, r0, [r4, #28]
 80058e2:	f021 01c0 	bic.w	r1, r1, #192	; 0xc0
 80058e6:	4303      	orrs	r3, r0
 80058e8:	430b      	orrs	r3, r1
 80058ea:	6013      	str	r3, [r2, #0]
 80058ec:	6891      	ldr	r1, [r2, #8]
 80058ee:	e9d4 0303 	ldrd	r0, r3, [r4, #12]
 80058f2:	f421 4103 	bic.w	r1, r1, #33536	; 0x8300
 80058f6:	4303      	orrs	r3, r0
 80058f8:	f021 01ff 	bic.w	r1, r1, #255	; 0xff
 80058fc:	430b      	orrs	r3, r1
 80058fe:	6093      	str	r3, [r2, #8]
 8005900:	68d1      	ldr	r1, [r2, #12]
 8005902:	e9d4 3005 	ldrd	r3, r0, [r4, #20]
 8005906:	f021 01ff 	bic.w	r1, r1, #255	; 0xff
 800590a:	4303      	orrs	r3, r0
 800590c:	430b      	orrs	r3, r1
 800590e:	60d3      	str	r3, [r2, #12]
 8005910:	6813      	ldr	r3, [r2, #0]
 8005912:	2000      	movs	r0, #0
 8005914:	f043 0301 	orr.w	r3, r3, #1
 8005918:	6013      	str	r3, [r2, #0]
 800591a:	2320      	movs	r3, #32
 800591c:	6420      	str	r0, [r4, #64]	; 0x40
 800591e:	f884 303d 	strb.w	r3, [r4, #61]	; 0x3d
 8005922:	6320      	str	r0, [r4, #48]	; 0x30
 8005924:	f884 003e 	strb.w	r0, [r4, #62]	; 0x3e
 8005928:	e780      	b.n	800582c <HAL_I2C_Init+0x8>
 800592a:	68a5      	ldr	r5, [r4, #8]
 800592c:	b955      	cbnz	r5, 8005944 <HAL_I2C_Init+0x120>
 800592e:	eb03 0343 	add.w	r3, r3, r3, lsl #1
 8005932:	fbb0 f3f3 	udiv	r3, r0, r3
 8005936:	3301      	adds	r3, #1
 8005938:	f3c3 030b 	ubfx	r3, r3, #0, #12
 800593c:	b17b      	cbz	r3, 800595e <HAL_I2C_Init+0x13a>
 800593e:	f443 4300 	orr.w	r3, r3, #32768	; 0x8000
 8005942:	e7c9      	b.n	80058d8 <HAL_I2C_Init+0xb4>
 8005944:	2519      	movs	r5, #25
 8005946:	436b      	muls	r3, r5
 8005948:	fbb0 f3f3 	udiv	r3, r0, r3
 800594c:	3301      	adds	r3, #1
 800594e:	f3c3 030b 	ubfx	r3, r3, #0, #12
 8005952:	b123      	cbz	r3, 800595e <HAL_I2C_Init+0x13a>
 8005954:	f443 4340 	orr.w	r3, r3, #49152	; 0xc000
 8005958:	e7be      	b.n	80058d8 <HAL_I2C_Init+0xb4>
 800595a:	2304      	movs	r3, #4
 800595c:	e7bc      	b.n	80058d8 <HAL_I2C_Init+0xb4>
 800595e:	2301      	movs	r3, #1
 8005960:	e7ba      	b.n	80058d8 <HAL_I2C_Init+0xb4>
 8005962:	bf00      	nop
 8005964:	000186a0 	.word	0x000186a0
 8005968:	001e847f 	.word	0x001e847f
 800596c:	003d08ff 	.word	0x003d08ff
 8005970:	000f4240 	.word	0x000f4240

08005974 <HAL_I2C_Mem_Write>:
 8005974:	e92d 43f7 	stmdb	sp!, {r0, r1, r2, r4, r5, r6, r7, r8, r9, lr}
 8005978:	4604      	mov	r4, r0
 800597a:	4699      	mov	r9, r3
 800597c:	460f      	mov	r7, r1
 800597e:	4690      	mov	r8, r2
 8005980:	9e0c      	ldr	r6, [sp, #48]	; 0x30
 8005982:	f7ff f98f 	bl	8004ca4 <HAL_GetTick>
 8005986:	f894 303d 	ldrb.w	r3, [r4, #61]	; 0x3d
 800598a:	4605      	mov	r5, r0
 800598c:	2b20      	cmp	r3, #32
 800598e:	d003      	beq.n	8005998 <HAL_I2C_Mem_Write+0x24>
 8005990:	2002      	movs	r0, #2
 8005992:	b003      	add	sp, #12
 8005994:	e8bd 83f0 	ldmia.w	sp!, {r4, r5, r6, r7, r8, r9, pc}
 8005998:	9000      	str	r0, [sp, #0]
 800599a:	2319      	movs	r3, #25
 800599c:	2201      	movs	r2, #1
 800599e:	4620      	mov	r0, r4
 80059a0:	493a      	ldr	r1, [pc, #232]	; (8005a8c <HAL_I2C_Mem_Write+0x118>)
 80059a2:	f7ff fe0d 	bl	80055c0 <I2C_WaitOnFlagUntilTimeout>
 80059a6:	2800      	cmp	r0, #0
 80059a8:	d1f2      	bne.n	8005990 <HAL_I2C_Mem_Write+0x1c>
 80059aa:	f894 303c 	ldrb.w	r3, [r4, #60]	; 0x3c
 80059ae:	2b01      	cmp	r3, #1
 80059b0:	d0ee      	beq.n	8005990 <HAL_I2C_Mem_Write+0x1c>
 80059b2:	2301      	movs	r3, #1
 80059b4:	6820      	ldr	r0, [r4, #0]
 80059b6:	f884 303c 	strb.w	r3, [r4, #60]	; 0x3c
 80059ba:	6803      	ldr	r3, [r0, #0]
 80059bc:	4642      	mov	r2, r8
 80059be:	07d9      	lsls	r1, r3, #31
 80059c0:	bf58      	it	pl
 80059c2:	6803      	ldrpl	r3, [r0, #0]
 80059c4:	4639      	mov	r1, r7
 80059c6:	bf5c      	itt	pl
 80059c8:	f043 0301 	orrpl.w	r3, r3, #1
 80059cc:	6003      	strpl	r3, [r0, #0]
 80059ce:	6803      	ldr	r3, [r0, #0]
 80059d0:	f423 6300 	bic.w	r3, r3, #2048	; 0x800
 80059d4:	6003      	str	r3, [r0, #0]
 80059d6:	2321      	movs	r3, #33	; 0x21
 80059d8:	f884 303d 	strb.w	r3, [r4, #61]	; 0x3d
 80059dc:	2340      	movs	r3, #64	; 0x40
 80059de:	f884 303e 	strb.w	r3, [r4, #62]	; 0x3e
 80059e2:	2300      	movs	r3, #0
 80059e4:	6423      	str	r3, [r4, #64]	; 0x40
 80059e6:	9b0a      	ldr	r3, [sp, #40]	; 0x28
 80059e8:	4620      	mov	r0, r4
 80059ea:	6263      	str	r3, [r4, #36]	; 0x24
 80059ec:	f8bd 302c 	ldrh.w	r3, [sp, #44]	; 0x2c
 80059f0:	e9cd 6500 	strd	r6, r5, [sp]
 80059f4:	8563      	strh	r3, [r4, #42]	; 0x2a
 80059f6:	8d63      	ldrh	r3, [r4, #42]	; 0x2a
 80059f8:	8523      	strh	r3, [r4, #40]	; 0x28
 80059fa:	4b25      	ldr	r3, [pc, #148]	; (8005a90 <HAL_I2C_Mem_Write+0x11c>)
 80059fc:	62e3      	str	r3, [r4, #44]	; 0x2c
 80059fe:	464b      	mov	r3, r9
 8005a00:	f7ff fe36 	bl	8005670 <I2C_RequestMemoryWrite>
 8005a04:	2800      	cmp	r0, #0
 8005a06:	d02a      	beq.n	8005a5e <HAL_I2C_Mem_Write+0xea>
 8005a08:	2001      	movs	r0, #1
 8005a0a:	e7c2      	b.n	8005992 <HAL_I2C_Mem_Write+0x1e>
 8005a0c:	f7ff fe0a 	bl	8005624 <I2C_WaitOnTXEFlagUntilTimeout>
 8005a10:	b140      	cbz	r0, 8005a24 <HAL_I2C_Mem_Write+0xb0>
 8005a12:	6c23      	ldr	r3, [r4, #64]	; 0x40
 8005a14:	2b04      	cmp	r3, #4
 8005a16:	bf01      	itttt	eq
 8005a18:	6822      	ldreq	r2, [r4, #0]
 8005a1a:	6813      	ldreq	r3, [r2, #0]
 8005a1c:	f443 7300 	orreq.w	r3, r3, #512	; 0x200
 8005a20:	6013      	streq	r3, [r2, #0]
 8005a22:	e7f1      	b.n	8005a08 <HAL_I2C_Mem_Write+0x94>
 8005a24:	6a63      	ldr	r3, [r4, #36]	; 0x24
 8005a26:	6827      	ldr	r7, [r4, #0]
 8005a28:	461a      	mov	r2, r3
 8005a2a:	f812 1b01 	ldrb.w	r1, [r2], #1
 8005a2e:	6139      	str	r1, [r7, #16]
 8005a30:	6262      	str	r2, [r4, #36]	; 0x24
 8005a32:	8d62      	ldrh	r2, [r4, #42]	; 0x2a
 8005a34:	8d21      	ldrh	r1, [r4, #40]	; 0x28
 8005a36:	3a01      	subs	r2, #1
 8005a38:	b292      	uxth	r2, r2
 8005a3a:	8562      	strh	r2, [r4, #42]	; 0x2a
 8005a3c:	697a      	ldr	r2, [r7, #20]
 8005a3e:	1e48      	subs	r0, r1, #1
 8005a40:	b280      	uxth	r0, r0
 8005a42:	0752      	lsls	r2, r2, #29
 8005a44:	8520      	strh	r0, [r4, #40]	; 0x28
 8005a46:	d50a      	bpl.n	8005a5e <HAL_I2C_Mem_Write+0xea>
 8005a48:	b148      	cbz	r0, 8005a5e <HAL_I2C_Mem_Write+0xea>
 8005a4a:	785a      	ldrb	r2, [r3, #1]
 8005a4c:	3302      	adds	r3, #2
 8005a4e:	613a      	str	r2, [r7, #16]
 8005a50:	6263      	str	r3, [r4, #36]	; 0x24
 8005a52:	8d63      	ldrh	r3, [r4, #42]	; 0x2a
 8005a54:	3902      	subs	r1, #2
 8005a56:	3b01      	subs	r3, #1
 8005a58:	b29b      	uxth	r3, r3
 8005a5a:	8521      	strh	r1, [r4, #40]	; 0x28
 8005a5c:	8563      	strh	r3, [r4, #42]	; 0x2a
 8005a5e:	8d23      	ldrh	r3, [r4, #40]	; 0x28
 8005a60:	462a      	mov	r2, r5
 8005a62:	4631      	mov	r1, r6
 8005a64:	4620      	mov	r0, r4
 8005a66:	2b00      	cmp	r3, #0
 8005a68:	d1d0      	bne.n	8005a0c <HAL_I2C_Mem_Write+0x98>
 8005a6a:	f7ff fd54 	bl	8005516 <I2C_WaitOnBTFFlagUntilTimeout>
 8005a6e:	2800      	cmp	r0, #0
 8005a70:	d1cf      	bne.n	8005a12 <HAL_I2C_Mem_Write+0x9e>
 8005a72:	6822      	ldr	r2, [r4, #0]
 8005a74:	6813      	ldr	r3, [r2, #0]
 8005a76:	f443 7300 	orr.w	r3, r3, #512	; 0x200
 8005a7a:	6013      	str	r3, [r2, #0]
 8005a7c:	2320      	movs	r3, #32
 8005a7e:	f884 003c 	strb.w	r0, [r4, #60]	; 0x3c
 8005a82:	f884 303d 	strb.w	r3, [r4, #61]	; 0x3d
 8005a86:	f884 003e 	strb.w	r0, [r4, #62]	; 0x3e
 8005a8a:	e782      	b.n	8005992 <HAL_I2C_Mem_Write+0x1e>
 8005a8c:	00100002 	.word	0x00100002
 8005a90:	ffff0000 	.word	0xffff0000

08005a94 <HAL_I2C_Mem_Read>:
 8005a94:	e92d 43f0 	stmdb	sp!, {r4, r5, r6, r7, r8, r9, lr}
 8005a98:	4699      	mov	r9, r3
 8005a9a:	2300      	movs	r3, #0
 8005a9c:	4604      	mov	r4, r0
 8005a9e:	b089      	sub	sp, #36	; 0x24
 8005aa0:	9303      	str	r3, [sp, #12]
 8005aa2:	460d      	mov	r5, r1
 8005aa4:	4690      	mov	r8, r2
 8005aa6:	9f12      	ldr	r7, [sp, #72]	; 0x48
 8005aa8:	f7ff f8fc 	bl	8004ca4 <HAL_GetTick>
 8005aac:	f894 303d 	ldrb.w	r3, [r4, #61]	; 0x3d
 8005ab0:	4606      	mov	r6, r0
 8005ab2:	2b20      	cmp	r3, #32
 8005ab4:	d004      	beq.n	8005ac0 <HAL_I2C_Mem_Read+0x2c>
 8005ab6:	2502      	movs	r5, #2
 8005ab8:	4628      	mov	r0, r5
 8005aba:	b009      	add	sp, #36	; 0x24
 8005abc:	e8bd 83f0 	ldmia.w	sp!, {r4, r5, r6, r7, r8, r9, pc}
 8005ac0:	9000      	str	r0, [sp, #0]
 8005ac2:	2319      	movs	r3, #25
 8005ac4:	2201      	movs	r2, #1
 8005ac6:	4620      	mov	r0, r4
 8005ac8:	498d      	ldr	r1, [pc, #564]	; (8005d00 <HAL_I2C_Mem_Read+0x26c>)
 8005aca:	f7ff fd79 	bl	80055c0 <I2C_WaitOnFlagUntilTimeout>
 8005ace:	2800      	cmp	r0, #0
 8005ad0:	d1f1      	bne.n	8005ab6 <HAL_I2C_Mem_Read+0x22>
 8005ad2:	f894 303c 	ldrb.w	r3, [r4, #60]	; 0x3c
 8005ad6:	2b01      	cmp	r3, #1
 8005ad8:	d0ed      	beq.n	8005ab6 <HAL_I2C_Mem_Read+0x22>
 8005ada:	2301      	movs	r3, #1
 8005adc:	6820      	ldr	r0, [r4, #0]
 8005ade:	f884 303c 	strb.w	r3, [r4, #60]	; 0x3c
 8005ae2:	6803      	ldr	r3, [r0, #0]
 8005ae4:	4629      	mov	r1, r5
 8005ae6:	07db      	lsls	r3, r3, #31
 8005ae8:	bf58      	it	pl
 8005aea:	6803      	ldrpl	r3, [r0, #0]
 8005aec:	4642      	mov	r2, r8
 8005aee:	bf5c      	itt	pl
 8005af0:	f043 0301 	orrpl.w	r3, r3, #1
 8005af4:	6003      	strpl	r3, [r0, #0]
 8005af6:	6803      	ldr	r3, [r0, #0]
 8005af8:	f423 6300 	bic.w	r3, r3, #2048	; 0x800
 8005afc:	6003      	str	r3, [r0, #0]
 8005afe:	2322      	movs	r3, #34	; 0x22
 8005b00:	f884 303d 	strb.w	r3, [r4, #61]	; 0x3d
 8005b04:	2340      	movs	r3, #64	; 0x40
 8005b06:	f884 303e 	strb.w	r3, [r4, #62]	; 0x3e
 8005b0a:	2300      	movs	r3, #0
 8005b0c:	6423      	str	r3, [r4, #64]	; 0x40
 8005b0e:	9b10      	ldr	r3, [sp, #64]	; 0x40
 8005b10:	4620      	mov	r0, r4
 8005b12:	6263      	str	r3, [r4, #36]	; 0x24
 8005b14:	f8bd 3044 	ldrh.w	r3, [sp, #68]	; 0x44
 8005b18:	e9cd 7600 	strd	r7, r6, [sp]
 8005b1c:	8563      	strh	r3, [r4, #42]	; 0x2a
 8005b1e:	8d63      	ldrh	r3, [r4, #42]	; 0x2a
 8005b20:	8523      	strh	r3, [r4, #40]	; 0x28
 8005b22:	4b78      	ldr	r3, [pc, #480]	; (8005d04 <HAL_I2C_Mem_Read+0x270>)
 8005b24:	62e3      	str	r3, [r4, #44]	; 0x2c
 8005b26:	464b      	mov	r3, r9
 8005b28:	f7ff fdfa 	bl	8005720 <I2C_RequestMemoryRead>
 8005b2c:	4605      	mov	r5, r0
 8005b2e:	b108      	cbz	r0, 8005b34 <HAL_I2C_Mem_Read+0xa0>
 8005b30:	2501      	movs	r5, #1
 8005b32:	e7c1      	b.n	8005ab8 <HAL_I2C_Mem_Read+0x24>
 8005b34:	8d22      	ldrh	r2, [r4, #40]	; 0x28
 8005b36:	6823      	ldr	r3, [r4, #0]
 8005b38:	b9c2      	cbnz	r2, 8005b6c <HAL_I2C_Mem_Read+0xd8>
 8005b3a:	9004      	str	r0, [sp, #16]
 8005b3c:	695a      	ldr	r2, [r3, #20]
 8005b3e:	9204      	str	r2, [sp, #16]
 8005b40:	699a      	ldr	r2, [r3, #24]
 8005b42:	9204      	str	r2, [sp, #16]
 8005b44:	9a04      	ldr	r2, [sp, #16]
 8005b46:	681a      	ldr	r2, [r3, #0]
 8005b48:	f442 7200 	orr.w	r2, r2, #512	; 0x200
 8005b4c:	601a      	str	r2, [r3, #0]
 8005b4e:	f8df 81b8 	ldr.w	r8, [pc, #440]	; 8005d08 <HAL_I2C_Mem_Read+0x274>
 8005b52:	f8df 91b8 	ldr.w	r9, [pc, #440]	; 8005d0c <HAL_I2C_Mem_Read+0x278>
 8005b56:	8d23      	ldrh	r3, [r4, #40]	; 0x28
 8005b58:	2b00      	cmp	r3, #0
 8005b5a:	d137      	bne.n	8005bcc <HAL_I2C_Mem_Read+0x138>
 8005b5c:	2220      	movs	r2, #32
 8005b5e:	f884 303c 	strb.w	r3, [r4, #60]	; 0x3c
 8005b62:	f884 203d 	strb.w	r2, [r4, #61]	; 0x3d
 8005b66:	f884 303e 	strb.w	r3, [r4, #62]	; 0x3e
 8005b6a:	e7a5      	b.n	8005ab8 <HAL_I2C_Mem_Read+0x24>
 8005b6c:	2a01      	cmp	r2, #1
 8005b6e:	d111      	bne.n	8005b94 <HAL_I2C_Mem_Read+0x100>
 8005b70:	681a      	ldr	r2, [r3, #0]
 8005b72:	f422 6280 	bic.w	r2, r2, #1024	; 0x400
 8005b76:	601a      	str	r2, [r3, #0]
 8005b78:	b672      	cpsid	i
 8005b7a:	6823      	ldr	r3, [r4, #0]
 8005b7c:	9005      	str	r0, [sp, #20]
 8005b7e:	695a      	ldr	r2, [r3, #20]
 8005b80:	9205      	str	r2, [sp, #20]
 8005b82:	699a      	ldr	r2, [r3, #24]
 8005b84:	9205      	str	r2, [sp, #20]
 8005b86:	9a05      	ldr	r2, [sp, #20]
 8005b88:	681a      	ldr	r2, [r3, #0]
 8005b8a:	f442 7200 	orr.w	r2, r2, #512	; 0x200
 8005b8e:	601a      	str	r2, [r3, #0]
 8005b90:	b662      	cpsie	i
 8005b92:	e7dc      	b.n	8005b4e <HAL_I2C_Mem_Read+0xba>
 8005b94:	2a02      	cmp	r2, #2
 8005b96:	681a      	ldr	r2, [r3, #0]
 8005b98:	d10e      	bne.n	8005bb8 <HAL_I2C_Mem_Read+0x124>
 8005b9a:	f442 6200 	orr.w	r2, r2, #2048	; 0x800
 8005b9e:	601a      	str	r2, [r3, #0]
 8005ba0:	b672      	cpsid	i
 8005ba2:	6823      	ldr	r3, [r4, #0]
 8005ba4:	9006      	str	r0, [sp, #24]
 8005ba6:	695a      	ldr	r2, [r3, #20]
 8005ba8:	9206      	str	r2, [sp, #24]
 8005baa:	699a      	ldr	r2, [r3, #24]
 8005bac:	9206      	str	r2, [sp, #24]
 8005bae:	9a06      	ldr	r2, [sp, #24]
 8005bb0:	681a      	ldr	r2, [r3, #0]
 8005bb2:	f422 6280 	bic.w	r2, r2, #1024	; 0x400
 8005bb6:	e7ea      	b.n	8005b8e <HAL_I2C_Mem_Read+0xfa>
 8005bb8:	f442 6280 	orr.w	r2, r2, #1024	; 0x400
 8005bbc:	601a      	str	r2, [r3, #0]
 8005bbe:	9007      	str	r0, [sp, #28]
 8005bc0:	695a      	ldr	r2, [r3, #20]
 8005bc2:	9207      	str	r2, [sp, #28]
 8005bc4:	699b      	ldr	r3, [r3, #24]
 8005bc6:	9307      	str	r3, [sp, #28]
 8005bc8:	9b07      	ldr	r3, [sp, #28]
 8005bca:	e7c0      	b.n	8005b4e <HAL_I2C_Mem_Read+0xba>
 8005bcc:	2b03      	cmp	r3, #3
 8005bce:	d878      	bhi.n	8005cc2 <HAL_I2C_Mem_Read+0x22e>
 8005bd0:	2b01      	cmp	r3, #1
 8005bd2:	d115      	bne.n	8005c00 <HAL_I2C_Mem_Read+0x16c>
 8005bd4:	4632      	mov	r2, r6
 8005bd6:	4639      	mov	r1, r7
 8005bd8:	4620      	mov	r0, r4
 8005bda:	f7ff fcc2 	bl	8005562 <I2C_WaitOnRXNEFlagUntilTimeout>
 8005bde:	2800      	cmp	r0, #0
 8005be0:	d1a6      	bne.n	8005b30 <HAL_I2C_Mem_Read+0x9c>
 8005be2:	6823      	ldr	r3, [r4, #0]
 8005be4:	691a      	ldr	r2, [r3, #16]
 8005be6:	6a63      	ldr	r3, [r4, #36]	; 0x24
 8005be8:	701a      	strb	r2, [r3, #0]
 8005bea:	6a63      	ldr	r3, [r4, #36]	; 0x24
 8005bec:	3301      	adds	r3, #1
 8005bee:	6263      	str	r3, [r4, #36]	; 0x24
 8005bf0:	8d23      	ldrh	r3, [r4, #40]	; 0x28
 8005bf2:	3b01      	subs	r3, #1
 8005bf4:	8523      	strh	r3, [r4, #40]	; 0x28
 8005bf6:	8d63      	ldrh	r3, [r4, #42]	; 0x2a
 8005bf8:	3b01      	subs	r3, #1
 8005bfa:	b29b      	uxth	r3, r3
 8005bfc:	8563      	strh	r3, [r4, #42]	; 0x2a
 8005bfe:	e7aa      	b.n	8005b56 <HAL_I2C_Mem_Read+0xc2>
 8005c00:	2b02      	cmp	r3, #2
 8005c02:	f04f 0200 	mov.w	r2, #0
 8005c06:	463b      	mov	r3, r7
 8005c08:	4641      	mov	r1, r8
 8005c0a:	4620      	mov	r0, r4
 8005c0c:	9600      	str	r6, [sp, #0]
 8005c0e:	d118      	bne.n	8005c42 <HAL_I2C_Mem_Read+0x1ae>
 8005c10:	f7ff fcd6 	bl	80055c0 <I2C_WaitOnFlagUntilTimeout>
 8005c14:	2800      	cmp	r0, #0
 8005c16:	d18b      	bne.n	8005b30 <HAL_I2C_Mem_Read+0x9c>
 8005c18:	b672      	cpsid	i
 8005c1a:	6823      	ldr	r3, [r4, #0]
 8005c1c:	681a      	ldr	r2, [r3, #0]
 8005c1e:	f442 7200 	orr.w	r2, r2, #512	; 0x200
 8005c22:	601a      	str	r2, [r3, #0]
 8005c24:	691a      	ldr	r2, [r3, #16]
 8005c26:	6a63      	ldr	r3, [r4, #36]	; 0x24
 8005c28:	701a      	strb	r2, [r3, #0]
 8005c2a:	6a63      	ldr	r3, [r4, #36]	; 0x24
 8005c2c:	3301      	adds	r3, #1
 8005c2e:	6263      	str	r3, [r4, #36]	; 0x24
 8005c30:	8d23      	ldrh	r3, [r4, #40]	; 0x28
 8005c32:	3b01      	subs	r3, #1
 8005c34:	8523      	strh	r3, [r4, #40]	; 0x28
 8005c36:	8d63      	ldrh	r3, [r4, #42]	; 0x2a
 8005c38:	3b01      	subs	r3, #1
 8005c3a:	b29b      	uxth	r3, r3
 8005c3c:	8563      	strh	r3, [r4, #42]	; 0x2a
 8005c3e:	b662      	cpsie	i
 8005c40:	e7cf      	b.n	8005be2 <HAL_I2C_Mem_Read+0x14e>
 8005c42:	f7ff fcbd 	bl	80055c0 <I2C_WaitOnFlagUntilTimeout>
 8005c46:	2800      	cmp	r0, #0
 8005c48:	f47f af72 	bne.w	8005b30 <HAL_I2C_Mem_Read+0x9c>
 8005c4c:	6822      	ldr	r2, [r4, #0]
 8005c4e:	6813      	ldr	r3, [r2, #0]
 8005c50:	f423 6380 	bic.w	r3, r3, #1024	; 0x400
 8005c54:	6013      	str	r3, [r2, #0]
 8005c56:	b672      	cpsid	i
 8005c58:	6823      	ldr	r3, [r4, #0]
 8005c5a:	691a      	ldr	r2, [r3, #16]
 8005c5c:	6a63      	ldr	r3, [r4, #36]	; 0x24
 8005c5e:	701a      	strb	r2, [r3, #0]
 8005c60:	f246 12a8 	movw	r2, #25000	; 0x61a8
 8005c64:	6a61      	ldr	r1, [r4, #36]	; 0x24
 8005c66:	1c4b      	adds	r3, r1, #1
 8005c68:	6263      	str	r3, [r4, #36]	; 0x24
 8005c6a:	8d23      	ldrh	r3, [r4, #40]	; 0x28
 8005c6c:	3b01      	subs	r3, #1
 8005c6e:	8523      	strh	r3, [r4, #40]	; 0x28
 8005c70:	8d63      	ldrh	r3, [r4, #42]	; 0x2a
 8005c72:	3b01      	subs	r3, #1
 8005c74:	b29b      	uxth	r3, r3
 8005c76:	8563      	strh	r3, [r4, #42]	; 0x2a
 8005c78:	f8d9 3000 	ldr.w	r3, [r9]
 8005c7c:	fbb3 f2f2 	udiv	r2, r3, r2
 8005c80:	2323      	movs	r3, #35	; 0x23
 8005c82:	4353      	muls	r3, r2
 8005c84:	9303      	str	r3, [sp, #12]
 8005c86:	9b03      	ldr	r3, [sp, #12]
 8005c88:	3b01      	subs	r3, #1
 8005c8a:	9303      	str	r3, [sp, #12]
 8005c8c:	9b03      	ldr	r3, [sp, #12]
 8005c8e:	b96b      	cbnz	r3, 8005cac <HAL_I2C_Mem_Read+0x218>
 8005c90:	2220      	movs	r2, #32
 8005c92:	6323      	str	r3, [r4, #48]	; 0x30
 8005c94:	f884 203d 	strb.w	r2, [r4, #61]	; 0x3d
 8005c98:	f884 303e 	strb.w	r3, [r4, #62]	; 0x3e
 8005c9c:	6c22      	ldr	r2, [r4, #64]	; 0x40
 8005c9e:	f042 0220 	orr.w	r2, r2, #32
 8005ca2:	6422      	str	r2, [r4, #64]	; 0x40
 8005ca4:	b662      	cpsie	i
 8005ca6:	f884 303c 	strb.w	r3, [r4, #60]	; 0x3c
 8005caa:	e741      	b.n	8005b30 <HAL_I2C_Mem_Read+0x9c>
 8005cac:	6823      	ldr	r3, [r4, #0]
 8005cae:	695a      	ldr	r2, [r3, #20]
 8005cb0:	0750      	lsls	r0, r2, #29
 8005cb2:	d5e8      	bpl.n	8005c86 <HAL_I2C_Mem_Read+0x1f2>
 8005cb4:	681a      	ldr	r2, [r3, #0]
 8005cb6:	f442 7200 	orr.w	r2, r2, #512	; 0x200
 8005cba:	601a      	str	r2, [r3, #0]
 8005cbc:	691b      	ldr	r3, [r3, #16]
 8005cbe:	704b      	strb	r3, [r1, #1]
 8005cc0:	e7b3      	b.n	8005c2a <HAL_I2C_Mem_Read+0x196>
 8005cc2:	4632      	mov	r2, r6
 8005cc4:	4639      	mov	r1, r7
 8005cc6:	4620      	mov	r0, r4
 8005cc8:	f7ff fc4b 	bl	8005562 <I2C_WaitOnRXNEFlagUntilTimeout>
 8005ccc:	2800      	cmp	r0, #0
 8005cce:	f47f af2f 	bne.w	8005b30 <HAL_I2C_Mem_Read+0x9c>
 8005cd2:	6823      	ldr	r3, [r4, #0]
 8005cd4:	691a      	ldr	r2, [r3, #16]
 8005cd6:	6a63      	ldr	r3, [r4, #36]	; 0x24
 8005cd8:	701a      	strb	r2, [r3, #0]
 8005cda:	6a62      	ldr	r2, [r4, #36]	; 0x24
 8005cdc:	1c53      	adds	r3, r2, #1
 8005cde:	6263      	str	r3, [r4, #36]	; 0x24
 8005ce0:	8d23      	ldrh	r3, [r4, #40]	; 0x28
 8005ce2:	3b01      	subs	r3, #1
 8005ce4:	8523      	strh	r3, [r4, #40]	; 0x28
 8005ce6:	8d63      	ldrh	r3, [r4, #42]	; 0x2a
 8005ce8:	3b01      	subs	r3, #1
 8005cea:	b29b      	uxth	r3, r3
 8005cec:	8563      	strh	r3, [r4, #42]	; 0x2a
 8005cee:	6823      	ldr	r3, [r4, #0]
 8005cf0:	6959      	ldr	r1, [r3, #20]
 8005cf2:	0749      	lsls	r1, r1, #29
 8005cf4:	f57f af2f 	bpl.w	8005b56 <HAL_I2C_Mem_Read+0xc2>
 8005cf8:	691b      	ldr	r3, [r3, #16]
 8005cfa:	7053      	strb	r3, [r2, #1]
 8005cfc:	e775      	b.n	8005bea <HAL_I2C_Mem_Read+0x156>
 8005cfe:	bf00      	nop
 8005d00:	00100002 	.word	0x00100002
 8005d04:	ffff0000 	.word	0xffff0000
 8005d08:	00010004 	.word	0x00010004
 8005d0c:	20000138 	.word	0x20000138

08005d10 <HAL_RCC_OscConfig>:
 8005d10:	e92d 41f3 	stmdb	sp!, {r0, r1, r4, r5, r6, r7, r8, lr}
 8005d14:	4605      	mov	r5, r0
 8005d16:	b338      	cbz	r0, 8005d68 <HAL_RCC_OscConfig+0x58>
 8005d18:	6803      	ldr	r3, [r0, #0]
 8005d1a:	07db      	lsls	r3, r3, #31
 8005d1c:	d410      	bmi.n	8005d40 <HAL_RCC_OscConfig+0x30>
 8005d1e:	682b      	ldr	r3, [r5, #0]
 8005d20:	079f      	lsls	r7, r3, #30
 8005d22:	d45e      	bmi.n	8005de2 <HAL_RCC_OscConfig+0xd2>
 8005d24:	682b      	ldr	r3, [r5, #0]
 8005d26:	0719      	lsls	r1, r3, #28
 8005d28:	f100 8095 	bmi.w	8005e56 <HAL_RCC_OscConfig+0x146>
 8005d2c:	682b      	ldr	r3, [r5, #0]
 8005d2e:	075a      	lsls	r2, r3, #29
 8005d30:	f100 80bf 	bmi.w	8005eb2 <HAL_RCC_OscConfig+0x1a2>
 8005d34:	69e8      	ldr	r0, [r5, #28]
 8005d36:	2800      	cmp	r0, #0
 8005d38:	f040 812c 	bne.w	8005f94 <HAL_RCC_OscConfig+0x284>
 8005d3c:	2000      	movs	r0, #0
 8005d3e:	e029      	b.n	8005d94 <HAL_RCC_OscConfig+0x84>
 8005d40:	4c8f      	ldr	r4, [pc, #572]	; (8005f80 <HAL_RCC_OscConfig+0x270>)
 8005d42:	6863      	ldr	r3, [r4, #4]
 8005d44:	f003 030c 	and.w	r3, r3, #12
 8005d48:	2b04      	cmp	r3, #4
 8005d4a:	d007      	beq.n	8005d5c <HAL_RCC_OscConfig+0x4c>
 8005d4c:	6863      	ldr	r3, [r4, #4]
 8005d4e:	f003 030c 	and.w	r3, r3, #12
 8005d52:	2b08      	cmp	r3, #8
 8005d54:	d10a      	bne.n	8005d6c <HAL_RCC_OscConfig+0x5c>
 8005d56:	6863      	ldr	r3, [r4, #4]
 8005d58:	03de      	lsls	r6, r3, #15
 8005d5a:	d507      	bpl.n	8005d6c <HAL_RCC_OscConfig+0x5c>
 8005d5c:	6823      	ldr	r3, [r4, #0]
 8005d5e:	039c      	lsls	r4, r3, #14
 8005d60:	d5dd      	bpl.n	8005d1e <HAL_RCC_OscConfig+0xe>
 8005d62:	686b      	ldr	r3, [r5, #4]
 8005d64:	2b00      	cmp	r3, #0
 8005d66:	d1da      	bne.n	8005d1e <HAL_RCC_OscConfig+0xe>
 8005d68:	2001      	movs	r0, #1
 8005d6a:	e013      	b.n	8005d94 <HAL_RCC_OscConfig+0x84>
 8005d6c:	686b      	ldr	r3, [r5, #4]
 8005d6e:	f5b3 3f80 	cmp.w	r3, #65536	; 0x10000
 8005d72:	d112      	bne.n	8005d9a <HAL_RCC_OscConfig+0x8a>
 8005d74:	6823      	ldr	r3, [r4, #0]
 8005d76:	f443 3380 	orr.w	r3, r3, #65536	; 0x10000
 8005d7a:	6023      	str	r3, [r4, #0]
 8005d7c:	f7fe ff92 	bl	8004ca4 <HAL_GetTick>
 8005d80:	4606      	mov	r6, r0
 8005d82:	6823      	ldr	r3, [r4, #0]
 8005d84:	0398      	lsls	r0, r3, #14
 8005d86:	d4ca      	bmi.n	8005d1e <HAL_RCC_OscConfig+0xe>
 8005d88:	f7fe ff8c 	bl	8004ca4 <HAL_GetTick>
 8005d8c:	1b80      	subs	r0, r0, r6
 8005d8e:	2864      	cmp	r0, #100	; 0x64
 8005d90:	d9f7      	bls.n	8005d82 <HAL_RCC_OscConfig+0x72>
 8005d92:	2003      	movs	r0, #3
 8005d94:	b002      	add	sp, #8
 8005d96:	e8bd 81f0 	ldmia.w	sp!, {r4, r5, r6, r7, r8, pc}
 8005d9a:	b99b      	cbnz	r3, 8005dc4 <HAL_RCC_OscConfig+0xb4>
 8005d9c:	6823      	ldr	r3, [r4, #0]
 8005d9e:	f423 3380 	bic.w	r3, r3, #65536	; 0x10000
 8005da2:	6023      	str	r3, [r4, #0]
 8005da4:	6823      	ldr	r3, [r4, #0]
 8005da6:	f423 2380 	bic.w	r3, r3, #262144	; 0x40000
 8005daa:	6023      	str	r3, [r4, #0]
 8005dac:	f7fe ff7a 	bl	8004ca4 <HAL_GetTick>
 8005db0:	4606      	mov	r6, r0
 8005db2:	6823      	ldr	r3, [r4, #0]
 8005db4:	0399      	lsls	r1, r3, #14
 8005db6:	d5b2      	bpl.n	8005d1e <HAL_RCC_OscConfig+0xe>
 8005db8:	f7fe ff74 	bl	8004ca4 <HAL_GetTick>
 8005dbc:	1b80      	subs	r0, r0, r6
 8005dbe:	2864      	cmp	r0, #100	; 0x64
 8005dc0:	d9f7      	bls.n	8005db2 <HAL_RCC_OscConfig+0xa2>
 8005dc2:	e7e6      	b.n	8005d92 <HAL_RCC_OscConfig+0x82>
 8005dc4:	f5b3 2fa0 	cmp.w	r3, #327680	; 0x50000
 8005dc8:	6823      	ldr	r3, [r4, #0]
 8005dca:	d103      	bne.n	8005dd4 <HAL_RCC_OscConfig+0xc4>
 8005dcc:	f443 2380 	orr.w	r3, r3, #262144	; 0x40000
 8005dd0:	6023      	str	r3, [r4, #0]
 8005dd2:	e7cf      	b.n	8005d74 <HAL_RCC_OscConfig+0x64>
 8005dd4:	f423 3380 	bic.w	r3, r3, #65536	; 0x10000
 8005dd8:	6023      	str	r3, [r4, #0]
 8005dda:	6823      	ldr	r3, [r4, #0]
 8005ddc:	f423 2380 	bic.w	r3, r3, #262144	; 0x40000
 8005de0:	e7cb      	b.n	8005d7a <HAL_RCC_OscConfig+0x6a>
 8005de2:	4c67      	ldr	r4, [pc, #412]	; (8005f80 <HAL_RCC_OscConfig+0x270>)
 8005de4:	6863      	ldr	r3, [r4, #4]
 8005de6:	f013 0f0c 	tst.w	r3, #12
 8005dea:	d007      	beq.n	8005dfc <HAL_RCC_OscConfig+0xec>
 8005dec:	6863      	ldr	r3, [r4, #4]
 8005dee:	f003 030c 	and.w	r3, r3, #12
 8005df2:	2b08      	cmp	r3, #8
 8005df4:	d110      	bne.n	8005e18 <HAL_RCC_OscConfig+0x108>
 8005df6:	6863      	ldr	r3, [r4, #4]
 8005df8:	03da      	lsls	r2, r3, #15
 8005dfa:	d40d      	bmi.n	8005e18 <HAL_RCC_OscConfig+0x108>
 8005dfc:	6823      	ldr	r3, [r4, #0]
 8005dfe:	079b      	lsls	r3, r3, #30
 8005e00:	d502      	bpl.n	8005e08 <HAL_RCC_OscConfig+0xf8>
 8005e02:	692b      	ldr	r3, [r5, #16]
 8005e04:	2b01      	cmp	r3, #1
 8005e06:	d1af      	bne.n	8005d68 <HAL_RCC_OscConfig+0x58>
 8005e08:	6823      	ldr	r3, [r4, #0]
 8005e0a:	696a      	ldr	r2, [r5, #20]
 8005e0c:	f023 03f8 	bic.w	r3, r3, #248	; 0xf8
 8005e10:	ea43 03c2 	orr.w	r3, r3, r2, lsl #3
 8005e14:	6023      	str	r3, [r4, #0]
 8005e16:	e785      	b.n	8005d24 <HAL_RCC_OscConfig+0x14>
 8005e18:	692a      	ldr	r2, [r5, #16]
 8005e1a:	4b5a      	ldr	r3, [pc, #360]	; (8005f84 <HAL_RCC_OscConfig+0x274>)
 8005e1c:	b16a      	cbz	r2, 8005e3a <HAL_RCC_OscConfig+0x12a>
 8005e1e:	2201      	movs	r2, #1
 8005e20:	601a      	str	r2, [r3, #0]
 8005e22:	f7fe ff3f 	bl	8004ca4 <HAL_GetTick>
 8005e26:	4606      	mov	r6, r0
 8005e28:	6823      	ldr	r3, [r4, #0]
 8005e2a:	079f      	lsls	r7, r3, #30
 8005e2c:	d4ec      	bmi.n	8005e08 <HAL_RCC_OscConfig+0xf8>
 8005e2e:	f7fe ff39 	bl	8004ca4 <HAL_GetTick>
 8005e32:	1b80      	subs	r0, r0, r6
 8005e34:	2802      	cmp	r0, #2
 8005e36:	d9f7      	bls.n	8005e28 <HAL_RCC_OscConfig+0x118>
 8005e38:	e7ab      	b.n	8005d92 <HAL_RCC_OscConfig+0x82>
 8005e3a:	601a      	str	r2, [r3, #0]
 8005e3c:	f7fe ff32 	bl	8004ca4 <HAL_GetTick>
 8005e40:	4606      	mov	r6, r0
 8005e42:	6823      	ldr	r3, [r4, #0]
 8005e44:	0798      	lsls	r0, r3, #30
 8005e46:	f57f af6d 	bpl.w	8005d24 <HAL_RCC_OscConfig+0x14>
 8005e4a:	f7fe ff2b 	bl	8004ca4 <HAL_GetTick>
 8005e4e:	1b80      	subs	r0, r0, r6
 8005e50:	2802      	cmp	r0, #2
 8005e52:	d9f6      	bls.n	8005e42 <HAL_RCC_OscConfig+0x132>
 8005e54:	e79d      	b.n	8005d92 <HAL_RCC_OscConfig+0x82>
 8005e56:	69aa      	ldr	r2, [r5, #24]
 8005e58:	4e49      	ldr	r6, [pc, #292]	; (8005f80 <HAL_RCC_OscConfig+0x270>)
 8005e5a:	4b4b      	ldr	r3, [pc, #300]	; (8005f88 <HAL_RCC_OscConfig+0x278>)
 8005e5c:	b1da      	cbz	r2, 8005e96 <HAL_RCC_OscConfig+0x186>
 8005e5e:	2201      	movs	r2, #1
 8005e60:	601a      	str	r2, [r3, #0]
 8005e62:	f7fe ff1f 	bl	8004ca4 <HAL_GetTick>
 8005e66:	4604      	mov	r4, r0
 8005e68:	6a73      	ldr	r3, [r6, #36]	; 0x24
 8005e6a:	079b      	lsls	r3, r3, #30
 8005e6c:	d50d      	bpl.n	8005e8a <HAL_RCC_OscConfig+0x17a>
 8005e6e:	f44f 52fa 	mov.w	r2, #8000	; 0x1f40
 8005e72:	4b46      	ldr	r3, [pc, #280]	; (8005f8c <HAL_RCC_OscConfig+0x27c>)
 8005e74:	681b      	ldr	r3, [r3, #0]
 8005e76:	fbb3 f3f2 	udiv	r3, r3, r2
 8005e7a:	9301      	str	r3, [sp, #4]
 8005e7c:	bf00      	nop
 8005e7e:	9b01      	ldr	r3, [sp, #4]
 8005e80:	1e5a      	subs	r2, r3, #1
 8005e82:	9201      	str	r2, [sp, #4]
 8005e84:	2b00      	cmp	r3, #0
 8005e86:	d1f9      	bne.n	8005e7c <HAL_RCC_OscConfig+0x16c>
 8005e88:	e750      	b.n	8005d2c <HAL_RCC_OscConfig+0x1c>
 8005e8a:	f7fe ff0b 	bl	8004ca4 <HAL_GetTick>
 8005e8e:	1b00      	subs	r0, r0, r4
 8005e90:	2802      	cmp	r0, #2
 8005e92:	d9e9      	bls.n	8005e68 <HAL_RCC_OscConfig+0x158>
 8005e94:	e77d      	b.n	8005d92 <HAL_RCC_OscConfig+0x82>
 8005e96:	601a      	str	r2, [r3, #0]
 8005e98:	f7fe ff04 	bl	8004ca4 <HAL_GetTick>
 8005e9c:	4604      	mov	r4, r0
 8005e9e:	6a73      	ldr	r3, [r6, #36]	; 0x24
 8005ea0:	079f      	lsls	r7, r3, #30
 8005ea2:	f57f af43 	bpl.w	8005d2c <HAL_RCC_OscConfig+0x1c>
 8005ea6:	f7fe fefd 	bl	8004ca4 <HAL_GetTick>
 8005eaa:	1b00      	subs	r0, r0, r4
 8005eac:	2802      	cmp	r0, #2
 8005eae:	d9f6      	bls.n	8005e9e <HAL_RCC_OscConfig+0x18e>
 8005eb0:	e76f      	b.n	8005d92 <HAL_RCC_OscConfig+0x82>
 8005eb2:	4c33      	ldr	r4, [pc, #204]	; (8005f80 <HAL_RCC_OscConfig+0x270>)
 8005eb4:	69e3      	ldr	r3, [r4, #28]
 8005eb6:	00d8      	lsls	r0, r3, #3
 8005eb8:	d424      	bmi.n	8005f04 <HAL_RCC_OscConfig+0x1f4>
 8005eba:	2701      	movs	r7, #1
 8005ebc:	69e3      	ldr	r3, [r4, #28]
 8005ebe:	f043 5380 	orr.w	r3, r3, #268435456	; 0x10000000
 8005ec2:	61e3      	str	r3, [r4, #28]
 8005ec4:	69e3      	ldr	r3, [r4, #28]
 8005ec6:	f003 5380 	and.w	r3, r3, #268435456	; 0x10000000
 8005eca:	9300      	str	r3, [sp, #0]
 8005ecc:	9b00      	ldr	r3, [sp, #0]
 8005ece:	4e30      	ldr	r6, [pc, #192]	; (8005f90 <HAL_RCC_OscConfig+0x280>)
 8005ed0:	6833      	ldr	r3, [r6, #0]
 8005ed2:	05d9      	lsls	r1, r3, #23
 8005ed4:	d518      	bpl.n	8005f08 <HAL_RCC_OscConfig+0x1f8>
 8005ed6:	68eb      	ldr	r3, [r5, #12]
 8005ed8:	2b01      	cmp	r3, #1
 8005eda:	d126      	bne.n	8005f2a <HAL_RCC_OscConfig+0x21a>
 8005edc:	6a23      	ldr	r3, [r4, #32]
 8005ede:	f043 0301 	orr.w	r3, r3, #1
 8005ee2:	6223      	str	r3, [r4, #32]
 8005ee4:	f7fe fede 	bl	8004ca4 <HAL_GetTick>
 8005ee8:	f241 3888 	movw	r8, #5000	; 0x1388
 8005eec:	4606      	mov	r6, r0
 8005eee:	6a23      	ldr	r3, [r4, #32]
 8005ef0:	079b      	lsls	r3, r3, #30
 8005ef2:	d53f      	bpl.n	8005f74 <HAL_RCC_OscConfig+0x264>
 8005ef4:	2f00      	cmp	r7, #0
 8005ef6:	f43f af1d 	beq.w	8005d34 <HAL_RCC_OscConfig+0x24>
 8005efa:	69e3      	ldr	r3, [r4, #28]
 8005efc:	f023 5380 	bic.w	r3, r3, #268435456	; 0x10000000
 8005f00:	61e3      	str	r3, [r4, #28]
 8005f02:	e717      	b.n	8005d34 <HAL_RCC_OscConfig+0x24>
 8005f04:	2700      	movs	r7, #0
 8005f06:	e7e2      	b.n	8005ece <HAL_RCC_OscConfig+0x1be>
 8005f08:	6833      	ldr	r3, [r6, #0]
 8005f0a:	f443 7380 	orr.w	r3, r3, #256	; 0x100
 8005f0e:	6033      	str	r3, [r6, #0]
 8005f10:	f7fe fec8 	bl	8004ca4 <HAL_GetTick>
 8005f14:	4680      	mov	r8, r0
 8005f16:	6833      	ldr	r3, [r6, #0]
 8005f18:	05da      	lsls	r2, r3, #23
 8005f1a:	d4dc      	bmi.n	8005ed6 <HAL_RCC_OscConfig+0x1c6>
 8005f1c:	f7fe fec2 	bl	8004ca4 <HAL_GetTick>
 8005f20:	eba0 0008 	sub.w	r0, r0, r8
 8005f24:	2864      	cmp	r0, #100	; 0x64
 8005f26:	d9f6      	bls.n	8005f16 <HAL_RCC_OscConfig+0x206>
 8005f28:	e733      	b.n	8005d92 <HAL_RCC_OscConfig+0x82>
 8005f2a:	b9ab      	cbnz	r3, 8005f58 <HAL_RCC_OscConfig+0x248>
 8005f2c:	6a23      	ldr	r3, [r4, #32]
 8005f2e:	f241 3888 	movw	r8, #5000	; 0x1388
 8005f32:	f023 0301 	bic.w	r3, r3, #1
 8005f36:	6223      	str	r3, [r4, #32]
 8005f38:	6a23      	ldr	r3, [r4, #32]
 8005f3a:	f023 0304 	bic.w	r3, r3, #4
 8005f3e:	6223      	str	r3, [r4, #32]
 8005f40:	f7fe feb0 	bl	8004ca4 <HAL_GetTick>
 8005f44:	4606      	mov	r6, r0
 8005f46:	6a23      	ldr	r3, [r4, #32]
 8005f48:	0798      	lsls	r0, r3, #30
 8005f4a:	d5d3      	bpl.n	8005ef4 <HAL_RCC_OscConfig+0x1e4>
 8005f4c:	f7fe feaa 	bl	8004ca4 <HAL_GetTick>
 8005f50:	1b80      	subs	r0, r0, r6
 8005f52:	4540      	cmp	r0, r8
 8005f54:	d9f7      	bls.n	8005f46 <HAL_RCC_OscConfig+0x236>
 8005f56:	e71c      	b.n	8005d92 <HAL_RCC_OscConfig+0x82>
 8005f58:	2b05      	cmp	r3, #5
 8005f5a:	6a23      	ldr	r3, [r4, #32]
 8005f5c:	d103      	bne.n	8005f66 <HAL_RCC_OscConfig+0x256>
 8005f5e:	f043 0304 	orr.w	r3, r3, #4
 8005f62:	6223      	str	r3, [r4, #32]
 8005f64:	e7ba      	b.n	8005edc <HAL_RCC_OscConfig+0x1cc>
 8005f66:	f023 0301 	bic.w	r3, r3, #1
 8005f6a:	6223      	str	r3, [r4, #32]
 8005f6c:	6a23      	ldr	r3, [r4, #32]
 8005f6e:	f023 0304 	bic.w	r3, r3, #4
 8005f72:	e7b6      	b.n	8005ee2 <HAL_RCC_OscConfig+0x1d2>
 8005f74:	f7fe fe96 	bl	8004ca4 <HAL_GetTick>
 8005f78:	1b80      	subs	r0, r0, r6
 8005f7a:	4540      	cmp	r0, r8
 8005f7c:	d9b7      	bls.n	8005eee <HAL_RCC_OscConfig+0x1de>
 8005f7e:	e708      	b.n	8005d92 <HAL_RCC_OscConfig+0x82>
 8005f80:	40021000 	.word	0x40021000
 8005f84:	42420000 	.word	0x42420000
 8005f88:	42420480 	.word	0x42420480
 8005f8c:	20000138 	.word	0x20000138
 8005f90:	40007000 	.word	0x40007000
 8005f94:	4b2a      	ldr	r3, [pc, #168]	; (8006040 <HAL_RCC_OscConfig+0x330>)
 8005f96:	685a      	ldr	r2, [r3, #4]
 8005f98:	461c      	mov	r4, r3
 8005f9a:	f002 020c 	and.w	r2, r2, #12
 8005f9e:	2a08      	cmp	r2, #8
 8005fa0:	d03d      	beq.n	800601e <HAL_RCC_OscConfig+0x30e>
 8005fa2:	2300      	movs	r3, #0
 8005fa4:	4e27      	ldr	r6, [pc, #156]	; (8006044 <HAL_RCC_OscConfig+0x334>)
 8005fa6:	2802      	cmp	r0, #2
 8005fa8:	6033      	str	r3, [r6, #0]
 8005faa:	d12b      	bne.n	8006004 <HAL_RCC_OscConfig+0x2f4>
 8005fac:	f7fe fe7a 	bl	8004ca4 <HAL_GetTick>
 8005fb0:	4607      	mov	r7, r0
 8005fb2:	6823      	ldr	r3, [r4, #0]
 8005fb4:	0199      	lsls	r1, r3, #6
 8005fb6:	d41f      	bmi.n	8005ff8 <HAL_RCC_OscConfig+0x2e8>
 8005fb8:	6a2b      	ldr	r3, [r5, #32]
 8005fba:	f5b3 3f80 	cmp.w	r3, #65536	; 0x10000
 8005fbe:	d105      	bne.n	8005fcc <HAL_RCC_OscConfig+0x2bc>
 8005fc0:	6862      	ldr	r2, [r4, #4]
 8005fc2:	68a9      	ldr	r1, [r5, #8]
 8005fc4:	f422 3200 	bic.w	r2, r2, #131072	; 0x20000
 8005fc8:	430a      	orrs	r2, r1
 8005fca:	6062      	str	r2, [r4, #4]
 8005fcc:	6a69      	ldr	r1, [r5, #36]	; 0x24
 8005fce:	6862      	ldr	r2, [r4, #4]
 8005fd0:	430b      	orrs	r3, r1
 8005fd2:	f422 1274 	bic.w	r2, r2, #3997696	; 0x3d0000
 8005fd6:	4313      	orrs	r3, r2
 8005fd8:	6063      	str	r3, [r4, #4]
 8005fda:	2301      	movs	r3, #1
 8005fdc:	6033      	str	r3, [r6, #0]
 8005fde:	f7fe fe61 	bl	8004ca4 <HAL_GetTick>
 8005fe2:	4605      	mov	r5, r0
 8005fe4:	6823      	ldr	r3, [r4, #0]
 8005fe6:	019a      	lsls	r2, r3, #6
 8005fe8:	f53f aea8 	bmi.w	8005d3c <HAL_RCC_OscConfig+0x2c>
 8005fec:	f7fe fe5a 	bl	8004ca4 <HAL_GetTick>
 8005ff0:	1b40      	subs	r0, r0, r5
 8005ff2:	2802      	cmp	r0, #2
 8005ff4:	d9f6      	bls.n	8005fe4 <HAL_RCC_OscConfig+0x2d4>
 8005ff6:	e6cc      	b.n	8005d92 <HAL_RCC_OscConfig+0x82>
 8005ff8:	f7fe fe54 	bl	8004ca4 <HAL_GetTick>
 8005ffc:	1bc0      	subs	r0, r0, r7
 8005ffe:	2802      	cmp	r0, #2
 8006000:	d9d7      	bls.n	8005fb2 <HAL_RCC_OscConfig+0x2a2>
 8006002:	e6c6      	b.n	8005d92 <HAL_RCC_OscConfig+0x82>
 8006004:	f7fe fe4e 	bl	8004ca4 <HAL_GetTick>
 8006008:	4605      	mov	r5, r0
 800600a:	6823      	ldr	r3, [r4, #0]
 800600c:	019b      	lsls	r3, r3, #6
 800600e:	f57f ae95 	bpl.w	8005d3c <HAL_RCC_OscConfig+0x2c>
 8006012:	f7fe fe47 	bl	8004ca4 <HAL_GetTick>
 8006016:	1b40      	subs	r0, r0, r5
 8006018:	2802      	cmp	r0, #2
 800601a:	d9f6      	bls.n	800600a <HAL_RCC_OscConfig+0x2fa>
 800601c:	e6b9      	b.n	8005d92 <HAL_RCC_OscConfig+0x82>
 800601e:	2801      	cmp	r0, #1
 8006020:	f43f aeb8 	beq.w	8005d94 <HAL_RCC_OscConfig+0x84>
 8006024:	685b      	ldr	r3, [r3, #4]
 8006026:	6a2a      	ldr	r2, [r5, #32]
 8006028:	f403 3180 	and.w	r1, r3, #65536	; 0x10000
 800602c:	4291      	cmp	r1, r2
 800602e:	f47f ae9b 	bne.w	8005d68 <HAL_RCC_OscConfig+0x58>
 8006032:	6a6a      	ldr	r2, [r5, #36]	; 0x24
 8006034:	f403 1370 	and.w	r3, r3, #3932160	; 0x3c0000
 8006038:	4293      	cmp	r3, r2
 800603a:	f43f ae7f 	beq.w	8005d3c <HAL_RCC_OscConfig+0x2c>
 800603e:	e693      	b.n	8005d68 <HAL_RCC_OscConfig+0x58>
 8006040:	40021000 	.word	0x40021000
 8006044:	42420060 	.word	0x42420060

08006048 <HAL_RCC_GetSysClockFreq>:
 8006048:	b530      	push	{r4, r5, lr}
 800604a:	4b18      	ldr	r3, [pc, #96]	; (80060ac <HAL_RCC_GetSysClockFreq+0x64>)
 800604c:	b087      	sub	sp, #28
 800604e:	ac02      	add	r4, sp, #8
 8006050:	f103 0510 	add.w	r5, r3, #16
 8006054:	4622      	mov	r2, r4
 8006056:	6818      	ldr	r0, [r3, #0]
 8006058:	6859      	ldr	r1, [r3, #4]
 800605a:	3308      	adds	r3, #8
 800605c:	c203      	stmia	r2!, {r0, r1}
 800605e:	42ab      	cmp	r3, r5
 8006060:	4614      	mov	r4, r2
 8006062:	d1f7      	bne.n	8006054 <HAL_RCC_GetSysClockFreq+0xc>
 8006064:	f240 2301 	movw	r3, #513	; 0x201
 8006068:	4911      	ldr	r1, [pc, #68]	; (80060b0 <HAL_RCC_GetSysClockFreq+0x68>)
 800606a:	f8ad 3004 	strh.w	r3, [sp, #4]
 800606e:	684b      	ldr	r3, [r1, #4]
 8006070:	f003 020c 	and.w	r2, r3, #12
 8006074:	2a08      	cmp	r2, #8
 8006076:	d117      	bne.n	80060a8 <HAL_RCC_GetSysClockFreq+0x60>
 8006078:	f3c3 4283 	ubfx	r2, r3, #18, #4
 800607c:	a806      	add	r0, sp, #24
 800607e:	4402      	add	r2, r0
 8006080:	03db      	lsls	r3, r3, #15
 8006082:	f812 2c10 	ldrb.w	r2, [r2, #-16]
 8006086:	d50c      	bpl.n	80060a2 <HAL_RCC_GetSysClockFreq+0x5a>
 8006088:	684b      	ldr	r3, [r1, #4]
 800608a:	480a      	ldr	r0, [pc, #40]	; (80060b4 <HAL_RCC_GetSysClockFreq+0x6c>)
 800608c:	f3c3 4340 	ubfx	r3, r3, #17, #1
 8006090:	4350      	muls	r0, r2
 8006092:	aa06      	add	r2, sp, #24
 8006094:	4413      	add	r3, r2
 8006096:	f813 3c14 	ldrb.w	r3, [r3, #-20]
 800609a:	fbb0 f0f3 	udiv	r0, r0, r3
 800609e:	b007      	add	sp, #28
 80060a0:	bd30      	pop	{r4, r5, pc}
 80060a2:	4805      	ldr	r0, [pc, #20]	; (80060b8 <HAL_RCC_GetSysClockFreq+0x70>)
 80060a4:	4350      	muls	r0, r2
 80060a6:	e7fa      	b.n	800609e <HAL_RCC_GetSysClockFreq+0x56>
 80060a8:	4802      	ldr	r0, [pc, #8]	; (80060b4 <HAL_RCC_GetSysClockFreq+0x6c>)
 80060aa:	e7f8      	b.n	800609e <HAL_RCC_GetSysClockFreq+0x56>
 80060ac:	0800afe1 	.word	0x0800afe1
 80060b0:	40021000 	.word	0x40021000
 80060b4:	007a1200 	.word	0x007a1200
 80060b8:	003d0900 	.word	0x003d0900

080060bc <HAL_RCC_ClockConfig>:
 80060bc:	e92d 41f0 	stmdb	sp!, {r4, r5, r6, r7, r8, lr}
 80060c0:	460d      	mov	r5, r1
 80060c2:	4604      	mov	r4, r0
 80060c4:	b910      	cbnz	r0, 80060cc <HAL_RCC_ClockConfig+0x10>
 80060c6:	2001      	movs	r0, #1
 80060c8:	e8bd 81f0 	ldmia.w	sp!, {r4, r5, r6, r7, r8, pc}
 80060cc:	4a44      	ldr	r2, [pc, #272]	; (80061e0 <HAL_RCC_ClockConfig+0x124>)
 80060ce:	6813      	ldr	r3, [r2, #0]
 80060d0:	f003 0307 	and.w	r3, r3, #7
 80060d4:	428b      	cmp	r3, r1
 80060d6:	d328      	bcc.n	800612a <HAL_RCC_ClockConfig+0x6e>
 80060d8:	6821      	ldr	r1, [r4, #0]
 80060da:	078e      	lsls	r6, r1, #30
 80060dc:	d430      	bmi.n	8006140 <HAL_RCC_ClockConfig+0x84>
 80060de:	07ca      	lsls	r2, r1, #31
 80060e0:	d443      	bmi.n	800616a <HAL_RCC_ClockConfig+0xae>
 80060e2:	4a3f      	ldr	r2, [pc, #252]	; (80061e0 <HAL_RCC_ClockConfig+0x124>)
 80060e4:	6813      	ldr	r3, [r2, #0]
 80060e6:	f003 0307 	and.w	r3, r3, #7
 80060ea:	42ab      	cmp	r3, r5
 80060ec:	d865      	bhi.n	80061ba <HAL_RCC_ClockConfig+0xfe>
 80060ee:	6822      	ldr	r2, [r4, #0]
 80060f0:	4d3c      	ldr	r5, [pc, #240]	; (80061e4 <HAL_RCC_ClockConfig+0x128>)
 80060f2:	f012 0f04 	tst.w	r2, #4
 80060f6:	d16c      	bne.n	80061d2 <HAL_RCC_ClockConfig+0x116>
 80060f8:	0713      	lsls	r3, r2, #28
 80060fa:	d506      	bpl.n	800610a <HAL_RCC_ClockConfig+0x4e>
 80060fc:	686b      	ldr	r3, [r5, #4]
 80060fe:	6922      	ldr	r2, [r4, #16]
 8006100:	f423 5360 	bic.w	r3, r3, #14336	; 0x3800
 8006104:	ea43 03c2 	orr.w	r3, r3, r2, lsl #3
 8006108:	606b      	str	r3, [r5, #4]
 800610a:	f7ff ff9d 	bl	8006048 <HAL_RCC_GetSysClockFreq>
 800610e:	686b      	ldr	r3, [r5, #4]
 8006110:	4a35      	ldr	r2, [pc, #212]	; (80061e8 <HAL_RCC_ClockConfig+0x12c>)
 8006112:	f3c3 1303 	ubfx	r3, r3, #4, #4
 8006116:	5cd3      	ldrb	r3, [r2, r3]
 8006118:	40d8      	lsrs	r0, r3
 800611a:	4b34      	ldr	r3, [pc, #208]	; (80061ec <HAL_RCC_ClockConfig+0x130>)
 800611c:	6018      	str	r0, [r3, #0]
 800611e:	4b34      	ldr	r3, [pc, #208]	; (80061f0 <HAL_RCC_ClockConfig+0x134>)
 8006120:	6818      	ldr	r0, [r3, #0]
 8006122:	f7fe fd7d 	bl	8004c20 <HAL_InitTick>
 8006126:	2000      	movs	r0, #0
 8006128:	e7ce      	b.n	80060c8 <HAL_RCC_ClockConfig+0xc>
 800612a:	6813      	ldr	r3, [r2, #0]
 800612c:	f023 0307 	bic.w	r3, r3, #7
 8006130:	430b      	orrs	r3, r1
 8006132:	6013      	str	r3, [r2, #0]
 8006134:	6813      	ldr	r3, [r2, #0]
 8006136:	f003 0307 	and.w	r3, r3, #7
 800613a:	428b      	cmp	r3, r1
 800613c:	d1c3      	bne.n	80060c6 <HAL_RCC_ClockConfig+0xa>
 800613e:	e7cb      	b.n	80060d8 <HAL_RCC_ClockConfig+0x1c>
 8006140:	4b28      	ldr	r3, [pc, #160]	; (80061e4 <HAL_RCC_ClockConfig+0x128>)
 8006142:	f011 0f04 	tst.w	r1, #4
 8006146:	bf1e      	ittt	ne
 8006148:	685a      	ldrne	r2, [r3, #4]
 800614a:	f442 62e0 	orrne.w	r2, r2, #1792	; 0x700
 800614e:	605a      	strne	r2, [r3, #4]
 8006150:	0708      	lsls	r0, r1, #28
 8006152:	bf42      	ittt	mi
 8006154:	685a      	ldrmi	r2, [r3, #4]
 8006156:	f442 5260 	orrmi.w	r2, r2, #14336	; 0x3800
 800615a:	605a      	strmi	r2, [r3, #4]
 800615c:	685a      	ldr	r2, [r3, #4]
 800615e:	68a0      	ldr	r0, [r4, #8]
 8006160:	f022 02f0 	bic.w	r2, r2, #240	; 0xf0
 8006164:	4302      	orrs	r2, r0
 8006166:	605a      	str	r2, [r3, #4]
 8006168:	e7b9      	b.n	80060de <HAL_RCC_ClockConfig+0x22>
 800616a:	6862      	ldr	r2, [r4, #4]
 800616c:	4e1d      	ldr	r6, [pc, #116]	; (80061e4 <HAL_RCC_ClockConfig+0x128>)
 800616e:	2a01      	cmp	r2, #1
 8006170:	6833      	ldr	r3, [r6, #0]
 8006172:	d11a      	bne.n	80061aa <HAL_RCC_ClockConfig+0xee>
 8006174:	f413 3f00 	tst.w	r3, #131072	; 0x20000
 8006178:	d0a5      	beq.n	80060c6 <HAL_RCC_ClockConfig+0xa>
 800617a:	6873      	ldr	r3, [r6, #4]
 800617c:	f241 3888 	movw	r8, #5000	; 0x1388
 8006180:	f023 0303 	bic.w	r3, r3, #3
 8006184:	4313      	orrs	r3, r2
 8006186:	6073      	str	r3, [r6, #4]
 8006188:	f7fe fd8c 	bl	8004ca4 <HAL_GetTick>
 800618c:	4607      	mov	r7, r0
 800618e:	6873      	ldr	r3, [r6, #4]
 8006190:	6862      	ldr	r2, [r4, #4]
 8006192:	f003 030c 	and.w	r3, r3, #12
 8006196:	ebb3 0f82 	cmp.w	r3, r2, lsl #2
 800619a:	d0a2      	beq.n	80060e2 <HAL_RCC_ClockConfig+0x26>
 800619c:	f7fe fd82 	bl	8004ca4 <HAL_GetTick>
 80061a0:	1bc0      	subs	r0, r0, r7
 80061a2:	4540      	cmp	r0, r8
 80061a4:	d9f3      	bls.n	800618e <HAL_RCC_ClockConfig+0xd2>
 80061a6:	2003      	movs	r0, #3
 80061a8:	e78e      	b.n	80060c8 <HAL_RCC_ClockConfig+0xc>
 80061aa:	2a02      	cmp	r2, #2
 80061ac:	d102      	bne.n	80061b4 <HAL_RCC_ClockConfig+0xf8>
 80061ae:	f013 7f00 	tst.w	r3, #33554432	; 0x2000000
 80061b2:	e7e1      	b.n	8006178 <HAL_RCC_ClockConfig+0xbc>
 80061b4:	f013 0f02 	tst.w	r3, #2
 80061b8:	e7de      	b.n	8006178 <HAL_RCC_ClockConfig+0xbc>
 80061ba:	6813      	ldr	r3, [r2, #0]
 80061bc:	f023 0307 	bic.w	r3, r3, #7
 80061c0:	432b      	orrs	r3, r5
 80061c2:	6013      	str	r3, [r2, #0]
 80061c4:	6813      	ldr	r3, [r2, #0]
 80061c6:	f003 0307 	and.w	r3, r3, #7
 80061ca:	42ab      	cmp	r3, r5
 80061cc:	f47f af7b 	bne.w	80060c6 <HAL_RCC_ClockConfig+0xa>
 80061d0:	e78d      	b.n	80060ee <HAL_RCC_ClockConfig+0x32>
 80061d2:	686b      	ldr	r3, [r5, #4]
 80061d4:	68e1      	ldr	r1, [r4, #12]
 80061d6:	f423 63e0 	bic.w	r3, r3, #1792	; 0x700
 80061da:	430b      	orrs	r3, r1
 80061dc:	606b      	str	r3, [r5, #4]
 80061de:	e78b      	b.n	80060f8 <HAL_RCC_ClockConfig+0x3c>
 80061e0:	40022000 	.word	0x40022000
 80061e4:	40021000 	.word	0x40021000
 80061e8:	0800afc9 	.word	0x0800afc9
 80061ec:	20000138 	.word	0x20000138
 80061f0:	2000016c 	.word	0x2000016c

080061f4 <HAL_RCC_GetPCLK1Freq>:
 80061f4:	4b04      	ldr	r3, [pc, #16]	; (8006208 <HAL_RCC_GetPCLK1Freq+0x14>)
 80061f6:	4a05      	ldr	r2, [pc, #20]	; (800620c <HAL_RCC_GetPCLK1Freq+0x18>)
 80061f8:	685b      	ldr	r3, [r3, #4]
 80061fa:	f3c3 2302 	ubfx	r3, r3, #8, #3
 80061fe:	5cd3      	ldrb	r3, [r2, r3]
 8006200:	4a03      	ldr	r2, [pc, #12]	; (8006210 <HAL_RCC_GetPCLK1Freq+0x1c>)
 8006202:	6810      	ldr	r0, [r2, #0]
 8006204:	40d8      	lsrs	r0, r3
 8006206:	4770      	bx	lr
 8006208:	40021000 	.word	0x40021000
 800620c:	0800afd9 	.word	0x0800afd9
 8006210:	20000138 	.word	0x20000138

08006214 <HAL_RCC_GetPCLK2Freq>:
 8006214:	4b04      	ldr	r3, [pc, #16]	; (8006228 <HAL_RCC_GetPCLK2Freq+0x14>)
 8006216:	4a05      	ldr	r2, [pc, #20]	; (800622c <HAL_RCC_GetPCLK2Freq+0x18>)
 8006218:	685b      	ldr	r3, [r3, #4]
 800621a:	f3c3 23c2 	ubfx	r3, r3, #11, #3
 800621e:	5cd3      	ldrb	r3, [r2, r3]
 8006220:	4a03      	ldr	r2, [pc, #12]	; (8006230 <HAL_RCC_GetPCLK2Freq+0x1c>)
 8006222:	6810      	ldr	r0, [r2, #0]
 8006224:	40d8      	lsrs	r0, r3
 8006226:	4770      	bx	lr
 8006228:	40021000 	.word	0x40021000
 800622c:	0800afd9 	.word	0x0800afd9
 8006230:	20000138 	.word	0x20000138

08006234 <SPI_WaitFlagStateUntilTimeout.constprop.0>:
 8006234:	e92d 41f3 	stmdb	sp!, {r0, r1, r4, r5, r6, r7, r8, lr}
 8006238:	461c      	mov	r4, r3
 800623a:	4616      	mov	r6, r2
 800623c:	460f      	mov	r7, r1
 800623e:	4605      	mov	r5, r0
 8006240:	f7fe fd30 	bl	8004ca4 <HAL_GetTick>
 8006244:	4434      	add	r4, r6
 8006246:	1a24      	subs	r4, r4, r0
 8006248:	f7fe fd2c 	bl	8004ca4 <HAL_GetTick>
 800624c:	4680      	mov	r8, r0
 800624e:	4b23      	ldr	r3, [pc, #140]	; (80062dc <SPI_WaitFlagStateUntilTimeout.constprop.0+0xa8>)
 8006250:	681b      	ldr	r3, [r3, #0]
 8006252:	f3c3 33cb 	ubfx	r3, r3, #15, #12
 8006256:	4363      	muls	r3, r4
 8006258:	682a      	ldr	r2, [r5, #0]
 800625a:	9301      	str	r3, [sp, #4]
 800625c:	6893      	ldr	r3, [r2, #8]
 800625e:	ea37 0303 	bics.w	r3, r7, r3
 8006262:	d001      	beq.n	8006268 <SPI_WaitFlagStateUntilTimeout.constprop.0+0x34>
 8006264:	2000      	movs	r0, #0
 8006266:	e02e      	b.n	80062c6 <SPI_WaitFlagStateUntilTimeout.constprop.0+0x92>
 8006268:	1c73      	adds	r3, r6, #1
 800626a:	d0f7      	beq.n	800625c <SPI_WaitFlagStateUntilTimeout.constprop.0+0x28>
 800626c:	f7fe fd1a 	bl	8004ca4 <HAL_GetTick>
 8006270:	eba0 0008 	sub.w	r0, r0, r8
 8006274:	42a0      	cmp	r0, r4
 8006276:	d329      	bcc.n	80062cc <SPI_WaitFlagStateUntilTimeout.constprop.0+0x98>
 8006278:	682b      	ldr	r3, [r5, #0]
 800627a:	685a      	ldr	r2, [r3, #4]
 800627c:	f022 02e0 	bic.w	r2, r2, #224	; 0xe0
 8006280:	605a      	str	r2, [r3, #4]
 8006282:	686a      	ldr	r2, [r5, #4]
 8006284:	f5b2 7f82 	cmp.w	r2, #260	; 0x104
 8006288:	d10a      	bne.n	80062a0 <SPI_WaitFlagStateUntilTimeout.constprop.0+0x6c>
 800628a:	68aa      	ldr	r2, [r5, #8]
 800628c:	f5b2 4f00 	cmp.w	r2, #32768	; 0x8000
 8006290:	d002      	beq.n	8006298 <SPI_WaitFlagStateUntilTimeout.constprop.0+0x64>
 8006292:	f5b2 6f80 	cmp.w	r2, #1024	; 0x400
 8006296:	d103      	bne.n	80062a0 <SPI_WaitFlagStateUntilTimeout.constprop.0+0x6c>
 8006298:	681a      	ldr	r2, [r3, #0]
 800629a:	f022 0240 	bic.w	r2, r2, #64	; 0x40
 800629e:	601a      	str	r2, [r3, #0]
 80062a0:	6aaa      	ldr	r2, [r5, #40]	; 0x28
 80062a2:	f5b2 5f00 	cmp.w	r2, #8192	; 0x2000
 80062a6:	d107      	bne.n	80062b8 <SPI_WaitFlagStateUntilTimeout.constprop.0+0x84>
 80062a8:	681a      	ldr	r2, [r3, #0]
 80062aa:	f422 5200 	bic.w	r2, r2, #8192	; 0x2000
 80062ae:	601a      	str	r2, [r3, #0]
 80062b0:	681a      	ldr	r2, [r3, #0]
 80062b2:	f442 5200 	orr.w	r2, r2, #8192	; 0x2000
 80062b6:	601a      	str	r2, [r3, #0]
 80062b8:	2301      	movs	r3, #1
 80062ba:	f885 3051 	strb.w	r3, [r5, #81]	; 0x51
 80062be:	2300      	movs	r3, #0
 80062c0:	2003      	movs	r0, #3
 80062c2:	f885 3050 	strb.w	r3, [r5, #80]	; 0x50
 80062c6:	b002      	add	sp, #8
 80062c8:	e8bd 81f0 	ldmia.w	sp!, {r4, r5, r6, r7, r8, pc}
 80062cc:	9b01      	ldr	r3, [sp, #4]
 80062ce:	2b00      	cmp	r3, #0
 80062d0:	9b01      	ldr	r3, [sp, #4]
 80062d2:	bf08      	it	eq
 80062d4:	2400      	moveq	r4, #0
 80062d6:	3b01      	subs	r3, #1
 80062d8:	e7be      	b.n	8006258 <SPI_WaitFlagStateUntilTimeout.constprop.0+0x24>
 80062da:	bf00      	nop
 80062dc:	20000138 	.word	0x20000138

080062e0 <SPI_EndRxTransaction>:
 80062e0:	b538      	push	{r3, r4, r5, lr}
 80062e2:	4613      	mov	r3, r2
 80062e4:	6842      	ldr	r2, [r0, #4]
 80062e6:	4604      	mov	r4, r0
 80062e8:	f5b2 7f82 	cmp.w	r2, #260	; 0x104
 80062ec:	d116      	bne.n	800631c <SPI_EndRxTransaction+0x3c>
 80062ee:	6882      	ldr	r2, [r0, #8]
 80062f0:	f5b2 4f00 	cmp.w	r2, #32768	; 0x8000
 80062f4:	d002      	beq.n	80062fc <SPI_EndRxTransaction+0x1c>
 80062f6:	f5b2 6f80 	cmp.w	r2, #1024	; 0x400
 80062fa:	d10f      	bne.n	800631c <SPI_EndRxTransaction+0x3c>
 80062fc:	6825      	ldr	r5, [r4, #0]
 80062fe:	f5b2 6f80 	cmp.w	r2, #1024	; 0x400
 8006302:	6828      	ldr	r0, [r5, #0]
 8006304:	f020 0040 	bic.w	r0, r0, #64	; 0x40
 8006308:	6028      	str	r0, [r5, #0]
 800630a:	d107      	bne.n	800631c <SPI_EndRxTransaction+0x3c>
 800630c:	460a      	mov	r2, r1
 800630e:	2101      	movs	r1, #1
 8006310:	4620      	mov	r0, r4
 8006312:	f7ff ff8f 	bl	8006234 <SPI_WaitFlagStateUntilTimeout.constprop.0>
 8006316:	b920      	cbnz	r0, 8006322 <SPI_EndRxTransaction+0x42>
 8006318:	2000      	movs	r0, #0
 800631a:	bd38      	pop	{r3, r4, r5, pc}
 800631c:	460a      	mov	r2, r1
 800631e:	2180      	movs	r1, #128	; 0x80
 8006320:	e7f6      	b.n	8006310 <SPI_EndRxTransaction+0x30>
 8006322:	6d63      	ldr	r3, [r4, #84]	; 0x54
 8006324:	2003      	movs	r0, #3
 8006326:	f043 0320 	orr.w	r3, r3, #32
 800632a:	6563      	str	r3, [r4, #84]	; 0x54
 800632c:	e7f5      	b.n	800631a <SPI_EndRxTransaction+0x3a>

0800632e <SPI_EndRxTxTransaction>:
 800632e:	b510      	push	{r4, lr}
 8006330:	4613      	mov	r3, r2
 8006332:	460a      	mov	r2, r1
 8006334:	2180      	movs	r1, #128	; 0x80
 8006336:	4604      	mov	r4, r0
 8006338:	f7ff ff7c 	bl	8006234 <SPI_WaitFlagStateUntilTimeout.constprop.0>
 800633c:	b120      	cbz	r0, 8006348 <SPI_EndRxTxTransaction+0x1a>
 800633e:	2003      	movs	r0, #3
 8006340:	6d63      	ldr	r3, [r4, #84]	; 0x54
 8006342:	f043 0320 	orr.w	r3, r3, #32
 8006346:	6563      	str	r3, [r4, #84]	; 0x54
 8006348:	bd10      	pop	{r4, pc}

0800634a <HAL_SPI_Init>:
 800634a:	b510      	push	{r4, lr}
 800634c:	4604      	mov	r4, r0
 800634e:	2800      	cmp	r0, #0
 8006350:	d051      	beq.n	80063f6 <HAL_SPI_Init+0xac>
 8006352:	6a43      	ldr	r3, [r0, #36]	; 0x24
 8006354:	2b00      	cmp	r3, #0
 8006356:	d14a      	bne.n	80063ee <HAL_SPI_Init+0xa4>
 8006358:	6842      	ldr	r2, [r0, #4]
 800635a:	f5b2 7f82 	cmp.w	r2, #260	; 0x104
 800635e:	d000      	beq.n	8006362 <HAL_SPI_Init+0x18>
 8006360:	61c3      	str	r3, [r0, #28]
 8006362:	2300      	movs	r3, #0
 8006364:	62a3      	str	r3, [r4, #40]	; 0x28
 8006366:	f894 3051 	ldrb.w	r3, [r4, #81]	; 0x51
 800636a:	f003 02ff 	and.w	r2, r3, #255	; 0xff
 800636e:	b923      	cbnz	r3, 800637a <HAL_SPI_Init+0x30>
 8006370:	4620      	mov	r0, r4
 8006372:	f884 2050 	strb.w	r2, [r4, #80]	; 0x50
 8006376:	f7fd fd2b 	bl	8003dd0 <HAL_SPI_MspInit>
 800637a:	2302      	movs	r3, #2
 800637c:	6822      	ldr	r2, [r4, #0]
 800637e:	f884 3051 	strb.w	r3, [r4, #81]	; 0x51
 8006382:	6813      	ldr	r3, [r2, #0]
 8006384:	68a0      	ldr	r0, [r4, #8]
 8006386:	f023 0340 	bic.w	r3, r3, #64	; 0x40
 800638a:	6013      	str	r3, [r2, #0]
 800638c:	6863      	ldr	r3, [r4, #4]
 800638e:	f400 4004 	and.w	r0, r0, #33792	; 0x8400
 8006392:	f403 7382 	and.w	r3, r3, #260	; 0x104
 8006396:	4303      	orrs	r3, r0
 8006398:	68e0      	ldr	r0, [r4, #12]
 800639a:	69a1      	ldr	r1, [r4, #24]
 800639c:	f400 6000 	and.w	r0, r0, #2048	; 0x800
 80063a0:	4303      	orrs	r3, r0
 80063a2:	6920      	ldr	r0, [r4, #16]
 80063a4:	f000 0002 	and.w	r0, r0, #2
 80063a8:	4303      	orrs	r3, r0
 80063aa:	6960      	ldr	r0, [r4, #20]
 80063ac:	f000 0001 	and.w	r0, r0, #1
 80063b0:	4303      	orrs	r3, r0
 80063b2:	f401 7000 	and.w	r0, r1, #512	; 0x200
 80063b6:	4303      	orrs	r3, r0
 80063b8:	69e0      	ldr	r0, [r4, #28]
 80063ba:	0c09      	lsrs	r1, r1, #16
 80063bc:	f000 0038 	and.w	r0, r0, #56	; 0x38
 80063c0:	4303      	orrs	r3, r0
 80063c2:	6a20      	ldr	r0, [r4, #32]
 80063c4:	f001 0104 	and.w	r1, r1, #4
 80063c8:	f000 0080 	and.w	r0, r0, #128	; 0x80
 80063cc:	4303      	orrs	r3, r0
 80063ce:	6aa0      	ldr	r0, [r4, #40]	; 0x28
 80063d0:	f400 5000 	and.w	r0, r0, #8192	; 0x2000
 80063d4:	4303      	orrs	r3, r0
 80063d6:	6013      	str	r3, [r2, #0]
 80063d8:	6051      	str	r1, [r2, #4]
 80063da:	69d3      	ldr	r3, [r2, #28]
 80063dc:	2000      	movs	r0, #0
 80063de:	f423 6300 	bic.w	r3, r3, #2048	; 0x800
 80063e2:	61d3      	str	r3, [r2, #28]
 80063e4:	2301      	movs	r3, #1
 80063e6:	6560      	str	r0, [r4, #84]	; 0x54
 80063e8:	f884 3051 	strb.w	r3, [r4, #81]	; 0x51
 80063ec:	bd10      	pop	{r4, pc}
 80063ee:	2300      	movs	r3, #0
 80063f0:	e9c0 3304 	strd	r3, r3, [r0, #16]
 80063f4:	e7b5      	b.n	8006362 <HAL_SPI_Init+0x18>
 80063f6:	2001      	movs	r0, #1
 80063f8:	e7f8      	b.n	80063ec <HAL_SPI_Init+0xa2>

080063fa <HAL_SPI_Transmit>:
 80063fa:	e92d 43f7 	stmdb	sp!, {r0, r1, r2, r4, r5, r6, r7, r8, r9, lr}
 80063fe:	461f      	mov	r7, r3
 8006400:	f890 3050 	ldrb.w	r3, [r0, #80]	; 0x50
 8006404:	4604      	mov	r4, r0
 8006406:	2b01      	cmp	r3, #1
 8006408:	460d      	mov	r5, r1
 800640a:	4690      	mov	r8, r2
 800640c:	f000 80a0 	beq.w	8006550 <HAL_SPI_Transmit+0x156>
 8006410:	2301      	movs	r3, #1
 8006412:	f880 3050 	strb.w	r3, [r0, #80]	; 0x50
 8006416:	f7fe fc45 	bl	8004ca4 <HAL_GetTick>
 800641a:	f894 3051 	ldrb.w	r3, [r4, #81]	; 0x51
 800641e:	4681      	mov	r9, r0
 8006420:	2b01      	cmp	r3, #1
 8006422:	b2d8      	uxtb	r0, r3
 8006424:	f040 8092 	bne.w	800654c <HAL_SPI_Transmit+0x152>
 8006428:	2d00      	cmp	r5, #0
 800642a:	d061      	beq.n	80064f0 <HAL_SPI_Transmit+0xf6>
 800642c:	f1b8 0f00 	cmp.w	r8, #0
 8006430:	d05e      	beq.n	80064f0 <HAL_SPI_Transmit+0xf6>
 8006432:	2303      	movs	r3, #3
 8006434:	f884 3051 	strb.w	r3, [r4, #81]	; 0x51
 8006438:	2300      	movs	r3, #0
 800643a:	6563      	str	r3, [r4, #84]	; 0x54
 800643c:	e9c4 3310 	strd	r3, r3, [r4, #64]	; 0x40
 8006440:	f8a4 8036 	strh.w	r8, [r4, #54]	; 0x36
 8006444:	63a3      	str	r3, [r4, #56]	; 0x38
 8006446:	87a3      	strh	r3, [r4, #60]	; 0x3c
 8006448:	87e3      	strh	r3, [r4, #62]	; 0x3e
 800644a:	68a3      	ldr	r3, [r4, #8]
 800644c:	6826      	ldr	r6, [r4, #0]
 800644e:	f5b3 4f00 	cmp.w	r3, #32768	; 0x8000
 8006452:	6325      	str	r5, [r4, #48]	; 0x30
 8006454:	f8a4 8034 	strh.w	r8, [r4, #52]	; 0x34
 8006458:	d107      	bne.n	800646a <HAL_SPI_Transmit+0x70>
 800645a:	6833      	ldr	r3, [r6, #0]
 800645c:	f023 0340 	bic.w	r3, r3, #64	; 0x40
 8006460:	6033      	str	r3, [r6, #0]
 8006462:	6833      	ldr	r3, [r6, #0]
 8006464:	f443 4380 	orr.w	r3, r3, #16384	; 0x4000
 8006468:	6033      	str	r3, [r6, #0]
 800646a:	6833      	ldr	r3, [r6, #0]
 800646c:	68e2      	ldr	r2, [r4, #12]
 800646e:	065b      	lsls	r3, r3, #25
 8006470:	bf5e      	ittt	pl
 8006472:	6833      	ldrpl	r3, [r6, #0]
 8006474:	f043 0340 	orrpl.w	r3, r3, #64	; 0x40
 8006478:	6033      	strpl	r3, [r6, #0]
 800647a:	f5b2 6f00 	cmp.w	r2, #2048	; 0x800
 800647e:	6863      	ldr	r3, [r4, #4]
 8006480:	d13f      	bne.n	8006502 <HAL_SPI_Transmit+0x108>
 8006482:	b113      	cbz	r3, 800648a <HAL_SPI_Transmit+0x90>
 8006484:	f1b8 0f01 	cmp.w	r8, #1
 8006488:	d107      	bne.n	800649a <HAL_SPI_Transmit+0xa0>
 800648a:	f835 3b02 	ldrh.w	r3, [r5], #2
 800648e:	60f3      	str	r3, [r6, #12]
 8006490:	6325      	str	r5, [r4, #48]	; 0x30
 8006492:	8ee3      	ldrh	r3, [r4, #54]	; 0x36
 8006494:	3b01      	subs	r3, #1
 8006496:	b29b      	uxth	r3, r3
 8006498:	86e3      	strh	r3, [r4, #54]	; 0x36
 800649a:	8ee3      	ldrh	r3, [r4, #54]	; 0x36
 800649c:	b29b      	uxth	r3, r3
 800649e:	b9a3      	cbnz	r3, 80064ca <HAL_SPI_Transmit+0xd0>
 80064a0:	464a      	mov	r2, r9
 80064a2:	4639      	mov	r1, r7
 80064a4:	4620      	mov	r0, r4
 80064a6:	f7ff ff42 	bl	800632e <SPI_EndRxTxTransaction>
 80064aa:	2800      	cmp	r0, #0
 80064ac:	d14b      	bne.n	8006546 <HAL_SPI_Transmit+0x14c>
 80064ae:	68a3      	ldr	r3, [r4, #8]
 80064b0:	b933      	cbnz	r3, 80064c0 <HAL_SPI_Transmit+0xc6>
 80064b2:	9301      	str	r3, [sp, #4]
 80064b4:	6823      	ldr	r3, [r4, #0]
 80064b6:	68da      	ldr	r2, [r3, #12]
 80064b8:	9201      	str	r2, [sp, #4]
 80064ba:	689b      	ldr	r3, [r3, #8]
 80064bc:	9301      	str	r3, [sp, #4]
 80064be:	9b01      	ldr	r3, [sp, #4]
 80064c0:	6d60      	ldr	r0, [r4, #84]	; 0x54
 80064c2:	3800      	subs	r0, #0
 80064c4:	bf18      	it	ne
 80064c6:	2001      	movne	r0, #1
 80064c8:	e012      	b.n	80064f0 <HAL_SPI_Transmit+0xf6>
 80064ca:	6822      	ldr	r2, [r4, #0]
 80064cc:	6893      	ldr	r3, [r2, #8]
 80064ce:	0798      	lsls	r0, r3, #30
 80064d0:	d505      	bpl.n	80064de <HAL_SPI_Transmit+0xe4>
 80064d2:	6b23      	ldr	r3, [r4, #48]	; 0x30
 80064d4:	f833 1b02 	ldrh.w	r1, [r3], #2
 80064d8:	60d1      	str	r1, [r2, #12]
 80064da:	6323      	str	r3, [r4, #48]	; 0x30
 80064dc:	e7d9      	b.n	8006492 <HAL_SPI_Transmit+0x98>
 80064de:	f7fe fbe1 	bl	8004ca4 <HAL_GetTick>
 80064e2:	eba0 0009 	sub.w	r0, r0, r9
 80064e6:	42b8      	cmp	r0, r7
 80064e8:	d3d7      	bcc.n	800649a <HAL_SPI_Transmit+0xa0>
 80064ea:	1c79      	adds	r1, r7, #1
 80064ec:	d0d5      	beq.n	800649a <HAL_SPI_Transmit+0xa0>
 80064ee:	2003      	movs	r0, #3
 80064f0:	2301      	movs	r3, #1
 80064f2:	f884 3051 	strb.w	r3, [r4, #81]	; 0x51
 80064f6:	2300      	movs	r3, #0
 80064f8:	f884 3050 	strb.w	r3, [r4, #80]	; 0x50
 80064fc:	b003      	add	sp, #12
 80064fe:	e8bd 83f0 	ldmia.w	sp!, {r4, r5, r6, r7, r8, r9, pc}
 8006502:	b113      	cbz	r3, 800650a <HAL_SPI_Transmit+0x110>
 8006504:	f1b8 0f01 	cmp.w	r8, #1
 8006508:	d108      	bne.n	800651c <HAL_SPI_Transmit+0x122>
 800650a:	782b      	ldrb	r3, [r5, #0]
 800650c:	7333      	strb	r3, [r6, #12]
 800650e:	6b23      	ldr	r3, [r4, #48]	; 0x30
 8006510:	3301      	adds	r3, #1
 8006512:	6323      	str	r3, [r4, #48]	; 0x30
 8006514:	8ee3      	ldrh	r3, [r4, #54]	; 0x36
 8006516:	3b01      	subs	r3, #1
 8006518:	b29b      	uxth	r3, r3
 800651a:	86e3      	strh	r3, [r4, #54]	; 0x36
 800651c:	8ee3      	ldrh	r3, [r4, #54]	; 0x36
 800651e:	b29b      	uxth	r3, r3
 8006520:	2b00      	cmp	r3, #0
 8006522:	d0bd      	beq.n	80064a0 <HAL_SPI_Transmit+0xa6>
 8006524:	6823      	ldr	r3, [r4, #0]
 8006526:	689a      	ldr	r2, [r3, #8]
 8006528:	0792      	lsls	r2, r2, #30
 800652a:	d503      	bpl.n	8006534 <HAL_SPI_Transmit+0x13a>
 800652c:	6b22      	ldr	r2, [r4, #48]	; 0x30
 800652e:	7812      	ldrb	r2, [r2, #0]
 8006530:	731a      	strb	r2, [r3, #12]
 8006532:	e7ec      	b.n	800650e <HAL_SPI_Transmit+0x114>
 8006534:	f7fe fbb6 	bl	8004ca4 <HAL_GetTick>
 8006538:	eba0 0009 	sub.w	r0, r0, r9
 800653c:	42b8      	cmp	r0, r7
 800653e:	d3ed      	bcc.n	800651c <HAL_SPI_Transmit+0x122>
 8006540:	1c7b      	adds	r3, r7, #1
 8006542:	d0eb      	beq.n	800651c <HAL_SPI_Transmit+0x122>
 8006544:	e7d3      	b.n	80064ee <HAL_SPI_Transmit+0xf4>
 8006546:	2320      	movs	r3, #32
 8006548:	6563      	str	r3, [r4, #84]	; 0x54
 800654a:	e7b0      	b.n	80064ae <HAL_SPI_Transmit+0xb4>
 800654c:	2002      	movs	r0, #2
 800654e:	e7cf      	b.n	80064f0 <HAL_SPI_Transmit+0xf6>
 8006550:	2002      	movs	r0, #2
 8006552:	e7d3      	b.n	80064fc <HAL_SPI_Transmit+0x102>

08006554 <HAL_SPI_TransmitReceive>:
 8006554:	e92d 43f7 	stmdb	sp!, {r0, r1, r2, r4, r5, r6, r7, r8, r9, lr}
 8006558:	461e      	mov	r6, r3
 800655a:	f890 3050 	ldrb.w	r3, [r0, #80]	; 0x50
 800655e:	4604      	mov	r4, r0
 8006560:	2b01      	cmp	r3, #1
 8006562:	460d      	mov	r5, r1
 8006564:	4691      	mov	r9, r2
 8006566:	f8dd 8028 	ldr.w	r8, [sp, #40]	; 0x28
 800656a:	f000 80e0 	beq.w	800672e <HAL_SPI_TransmitReceive+0x1da>
 800656e:	2301      	movs	r3, #1
 8006570:	f880 3050 	strb.w	r3, [r0, #80]	; 0x50
 8006574:	f7fe fb96 	bl	8004ca4 <HAL_GetTick>
 8006578:	f894 3051 	ldrb.w	r3, [r4, #81]	; 0x51
 800657c:	4607      	mov	r7, r0
 800657e:	2b01      	cmp	r3, #1
 8006580:	6862      	ldr	r2, [r4, #4]
 8006582:	b2d9      	uxtb	r1, r3
 8006584:	d00a      	beq.n	800659c <HAL_SPI_TransmitReceive+0x48>
 8006586:	f5b2 7f82 	cmp.w	r2, #260	; 0x104
 800658a:	f040 80ce 	bne.w	800672a <HAL_SPI_TransmitReceive+0x1d6>
 800658e:	68a3      	ldr	r3, [r4, #8]
 8006590:	2b00      	cmp	r3, #0
 8006592:	f040 80ca 	bne.w	800672a <HAL_SPI_TransmitReceive+0x1d6>
 8006596:	2904      	cmp	r1, #4
 8006598:	f040 80c7 	bne.w	800672a <HAL_SPI_TransmitReceive+0x1d6>
 800659c:	2d00      	cmp	r5, #0
 800659e:	d03f      	beq.n	8006620 <HAL_SPI_TransmitReceive+0xcc>
 80065a0:	f1b9 0f00 	cmp.w	r9, #0
 80065a4:	d03c      	beq.n	8006620 <HAL_SPI_TransmitReceive+0xcc>
 80065a6:	2e00      	cmp	r6, #0
 80065a8:	d03a      	beq.n	8006620 <HAL_SPI_TransmitReceive+0xcc>
 80065aa:	f894 3051 	ldrb.w	r3, [r4, #81]	; 0x51
 80065ae:	f8c4 9038 	str.w	r9, [r4, #56]	; 0x38
 80065b2:	2b04      	cmp	r3, #4
 80065b4:	bf1c      	itt	ne
 80065b6:	2305      	movne	r3, #5
 80065b8:	f884 3051 	strbne.w	r3, [r4, #81]	; 0x51
 80065bc:	2300      	movs	r3, #0
 80065be:	6563      	str	r3, [r4, #84]	; 0x54
 80065c0:	e9c4 3310 	strd	r3, r3, [r4, #64]	; 0x40
 80065c4:	6823      	ldr	r3, [r4, #0]
 80065c6:	87e6      	strh	r6, [r4, #62]	; 0x3e
 80065c8:	86e6      	strh	r6, [r4, #54]	; 0x36
 80065ca:	6819      	ldr	r1, [r3, #0]
 80065cc:	87a6      	strh	r6, [r4, #60]	; 0x3c
 80065ce:	0649      	lsls	r1, r1, #25
 80065d0:	bf58      	it	pl
 80065d2:	6819      	ldrpl	r1, [r3, #0]
 80065d4:	6325      	str	r5, [r4, #48]	; 0x30
 80065d6:	bf58      	it	pl
 80065d8:	f041 0140 	orrpl.w	r1, r1, #64	; 0x40
 80065dc:	86a6      	strh	r6, [r4, #52]	; 0x34
 80065de:	bf58      	it	pl
 80065e0:	6019      	strpl	r1, [r3, #0]
 80065e2:	68e1      	ldr	r1, [r4, #12]
 80065e4:	f5b1 6f00 	cmp.w	r1, #2048	; 0x800
 80065e8:	d151      	bne.n	800668e <HAL_SPI_TransmitReceive+0x13a>
 80065ea:	b10a      	cbz	r2, 80065f0 <HAL_SPI_TransmitReceive+0x9c>
 80065ec:	2e01      	cmp	r6, #1
 80065ee:	d107      	bne.n	8006600 <HAL_SPI_TransmitReceive+0xac>
 80065f0:	f835 2b02 	ldrh.w	r2, [r5], #2
 80065f4:	60da      	str	r2, [r3, #12]
 80065f6:	8ee3      	ldrh	r3, [r4, #54]	; 0x36
 80065f8:	6325      	str	r5, [r4, #48]	; 0x30
 80065fa:	3b01      	subs	r3, #1
 80065fc:	b29b      	uxth	r3, r3
 80065fe:	86e3      	strh	r3, [r4, #54]	; 0x36
 8006600:	2501      	movs	r5, #1
 8006602:	8ee3      	ldrh	r3, [r4, #54]	; 0x36
 8006604:	b29b      	uxth	r3, r3
 8006606:	b96b      	cbnz	r3, 8006624 <HAL_SPI_TransmitReceive+0xd0>
 8006608:	8fe3      	ldrh	r3, [r4, #62]	; 0x3e
 800660a:	b29b      	uxth	r3, r3
 800660c:	b953      	cbnz	r3, 8006624 <HAL_SPI_TransmitReceive+0xd0>
 800660e:	463a      	mov	r2, r7
 8006610:	4641      	mov	r1, r8
 8006612:	4620      	mov	r0, r4
 8006614:	f7ff fe8b 	bl	800632e <SPI_EndRxTxTransaction>
 8006618:	2800      	cmp	r0, #0
 800661a:	d07b      	beq.n	8006714 <HAL_SPI_TransmitReceive+0x1c0>
 800661c:	2320      	movs	r3, #32
 800661e:	6563      	str	r3, [r4, #84]	; 0x54
 8006620:	2001      	movs	r0, #1
 8006622:	e02b      	b.n	800667c <HAL_SPI_TransmitReceive+0x128>
 8006624:	6821      	ldr	r1, [r4, #0]
 8006626:	688b      	ldr	r3, [r1, #8]
 8006628:	079a      	lsls	r2, r3, #30
 800662a:	d50d      	bpl.n	8006648 <HAL_SPI_TransmitReceive+0xf4>
 800662c:	8ee3      	ldrh	r3, [r4, #54]	; 0x36
 800662e:	b29b      	uxth	r3, r3
 8006630:	b153      	cbz	r3, 8006648 <HAL_SPI_TransmitReceive+0xf4>
 8006632:	b14d      	cbz	r5, 8006648 <HAL_SPI_TransmitReceive+0xf4>
 8006634:	2500      	movs	r5, #0
 8006636:	6b23      	ldr	r3, [r4, #48]	; 0x30
 8006638:	f833 2b02 	ldrh.w	r2, [r3], #2
 800663c:	60ca      	str	r2, [r1, #12]
 800663e:	6323      	str	r3, [r4, #48]	; 0x30
 8006640:	8ee3      	ldrh	r3, [r4, #54]	; 0x36
 8006642:	3b01      	subs	r3, #1
 8006644:	b29b      	uxth	r3, r3
 8006646:	86e3      	strh	r3, [r4, #54]	; 0x36
 8006648:	688a      	ldr	r2, [r1, #8]
 800664a:	f012 0201 	ands.w	r2, r2, #1
 800664e:	d00c      	beq.n	800666a <HAL_SPI_TransmitReceive+0x116>
 8006650:	8fe3      	ldrh	r3, [r4, #62]	; 0x3e
 8006652:	b29b      	uxth	r3, r3
 8006654:	b14b      	cbz	r3, 800666a <HAL_SPI_TransmitReceive+0x116>
 8006656:	4615      	mov	r5, r2
 8006658:	68c9      	ldr	r1, [r1, #12]
 800665a:	6ba3      	ldr	r3, [r4, #56]	; 0x38
 800665c:	f823 1b02 	strh.w	r1, [r3], #2
 8006660:	63a3      	str	r3, [r4, #56]	; 0x38
 8006662:	8fe3      	ldrh	r3, [r4, #62]	; 0x3e
 8006664:	3b01      	subs	r3, #1
 8006666:	b29b      	uxth	r3, r3
 8006668:	87e3      	strh	r3, [r4, #62]	; 0x3e
 800666a:	f7fe fb1b 	bl	8004ca4 <HAL_GetTick>
 800666e:	1bc0      	subs	r0, r0, r7
 8006670:	4540      	cmp	r0, r8
 8006672:	d3c6      	bcc.n	8006602 <HAL_SPI_TransmitReceive+0xae>
 8006674:	f1b8 3fff 	cmp.w	r8, #4294967295	; 0xffffffff
 8006678:	d0c3      	beq.n	8006602 <HAL_SPI_TransmitReceive+0xae>
 800667a:	2003      	movs	r0, #3
 800667c:	2301      	movs	r3, #1
 800667e:	f884 3051 	strb.w	r3, [r4, #81]	; 0x51
 8006682:	2300      	movs	r3, #0
 8006684:	f884 3050 	strb.w	r3, [r4, #80]	; 0x50
 8006688:	b003      	add	sp, #12
 800668a:	e8bd 83f0 	ldmia.w	sp!, {r4, r5, r6, r7, r8, r9, pc}
 800668e:	b10a      	cbz	r2, 8006694 <HAL_SPI_TransmitReceive+0x140>
 8006690:	2e01      	cmp	r6, #1
 8006692:	d108      	bne.n	80066a6 <HAL_SPI_TransmitReceive+0x152>
 8006694:	782a      	ldrb	r2, [r5, #0]
 8006696:	731a      	strb	r2, [r3, #12]
 8006698:	6b23      	ldr	r3, [r4, #48]	; 0x30
 800669a:	3301      	adds	r3, #1
 800669c:	6323      	str	r3, [r4, #48]	; 0x30
 800669e:	8ee3      	ldrh	r3, [r4, #54]	; 0x36
 80066a0:	3b01      	subs	r3, #1
 80066a2:	b29b      	uxth	r3, r3
 80066a4:	86e3      	strh	r3, [r4, #54]	; 0x36
 80066a6:	2501      	movs	r5, #1
 80066a8:	8ee3      	ldrh	r3, [r4, #54]	; 0x36
 80066aa:	b29b      	uxth	r3, r3
 80066ac:	b91b      	cbnz	r3, 80066b6 <HAL_SPI_TransmitReceive+0x162>
 80066ae:	8fe3      	ldrh	r3, [r4, #62]	; 0x3e
 80066b0:	b29b      	uxth	r3, r3
 80066b2:	2b00      	cmp	r3, #0
 80066b4:	d0ab      	beq.n	800660e <HAL_SPI_TransmitReceive+0xba>
 80066b6:	6822      	ldr	r2, [r4, #0]
 80066b8:	6893      	ldr	r3, [r2, #8]
 80066ba:	079b      	lsls	r3, r3, #30
 80066bc:	d50e      	bpl.n	80066dc <HAL_SPI_TransmitReceive+0x188>
 80066be:	8ee3      	ldrh	r3, [r4, #54]	; 0x36
 80066c0:	b29b      	uxth	r3, r3
 80066c2:	b15b      	cbz	r3, 80066dc <HAL_SPI_TransmitReceive+0x188>
 80066c4:	b155      	cbz	r5, 80066dc <HAL_SPI_TransmitReceive+0x188>
 80066c6:	2500      	movs	r5, #0
 80066c8:	6b23      	ldr	r3, [r4, #48]	; 0x30
 80066ca:	781b      	ldrb	r3, [r3, #0]
 80066cc:	7313      	strb	r3, [r2, #12]
 80066ce:	6b23      	ldr	r3, [r4, #48]	; 0x30
 80066d0:	3301      	adds	r3, #1
 80066d2:	6323      	str	r3, [r4, #48]	; 0x30
 80066d4:	8ee3      	ldrh	r3, [r4, #54]	; 0x36
 80066d6:	3b01      	subs	r3, #1
 80066d8:	b29b      	uxth	r3, r3
 80066da:	86e3      	strh	r3, [r4, #54]	; 0x36
 80066dc:	6822      	ldr	r2, [r4, #0]
 80066de:	6891      	ldr	r1, [r2, #8]
 80066e0:	f011 0101 	ands.w	r1, r1, #1
 80066e4:	d00d      	beq.n	8006702 <HAL_SPI_TransmitReceive+0x1ae>
 80066e6:	8fe3      	ldrh	r3, [r4, #62]	; 0x3e
 80066e8:	b29b      	uxth	r3, r3
 80066ea:	b153      	cbz	r3, 8006702 <HAL_SPI_TransmitReceive+0x1ae>
 80066ec:	460d      	mov	r5, r1
 80066ee:	68d2      	ldr	r2, [r2, #12]
 80066f0:	6ba3      	ldr	r3, [r4, #56]	; 0x38
 80066f2:	701a      	strb	r2, [r3, #0]
 80066f4:	6ba3      	ldr	r3, [r4, #56]	; 0x38
 80066f6:	3301      	adds	r3, #1
 80066f8:	63a3      	str	r3, [r4, #56]	; 0x38
 80066fa:	8fe3      	ldrh	r3, [r4, #62]	; 0x3e
 80066fc:	3b01      	subs	r3, #1
 80066fe:	b29b      	uxth	r3, r3
 8006700:	87e3      	strh	r3, [r4, #62]	; 0x3e
 8006702:	f7fe facf 	bl	8004ca4 <HAL_GetTick>
 8006706:	1bc0      	subs	r0, r0, r7
 8006708:	4540      	cmp	r0, r8
 800670a:	d3cd      	bcc.n	80066a8 <HAL_SPI_TransmitReceive+0x154>
 800670c:	f1b8 3fff 	cmp.w	r8, #4294967295	; 0xffffffff
 8006710:	d0ca      	beq.n	80066a8 <HAL_SPI_TransmitReceive+0x154>
 8006712:	e7b2      	b.n	800667a <HAL_SPI_TransmitReceive+0x126>
 8006714:	68a3      	ldr	r3, [r4, #8]
 8006716:	2b00      	cmp	r3, #0
 8006718:	d1b0      	bne.n	800667c <HAL_SPI_TransmitReceive+0x128>
 800671a:	6823      	ldr	r3, [r4, #0]
 800671c:	9001      	str	r0, [sp, #4]
 800671e:	68da      	ldr	r2, [r3, #12]
 8006720:	9201      	str	r2, [sp, #4]
 8006722:	689b      	ldr	r3, [r3, #8]
 8006724:	9301      	str	r3, [sp, #4]
 8006726:	9b01      	ldr	r3, [sp, #4]
 8006728:	e7a8      	b.n	800667c <HAL_SPI_TransmitReceive+0x128>
 800672a:	2002      	movs	r0, #2
 800672c:	e7a6      	b.n	800667c <HAL_SPI_TransmitReceive+0x128>
 800672e:	2002      	movs	r0, #2
 8006730:	e7aa      	b.n	8006688 <HAL_SPI_TransmitReceive+0x134>

08006732 <HAL_SPI_Receive>:
 8006732:	e92d 41f3 	stmdb	sp!, {r0, r1, r4, r5, r6, r7, r8, lr}
 8006736:	461d      	mov	r5, r3
 8006738:	6843      	ldr	r3, [r0, #4]
 800673a:	4604      	mov	r4, r0
 800673c:	f5b3 7f82 	cmp.w	r3, #260	; 0x104
 8006740:	4688      	mov	r8, r1
 8006742:	4616      	mov	r6, r2
 8006744:	d10c      	bne.n	8006760 <HAL_SPI_Receive+0x2e>
 8006746:	6883      	ldr	r3, [r0, #8]
 8006748:	b953      	cbnz	r3, 8006760 <HAL_SPI_Receive+0x2e>
 800674a:	2304      	movs	r3, #4
 800674c:	f880 3051 	strb.w	r3, [r0, #81]	; 0x51
 8006750:	4613      	mov	r3, r2
 8006752:	9500      	str	r5, [sp, #0]
 8006754:	460a      	mov	r2, r1
 8006756:	f7ff fefd 	bl	8006554 <HAL_SPI_TransmitReceive>
 800675a:	b002      	add	sp, #8
 800675c:	e8bd 81f0 	ldmia.w	sp!, {r4, r5, r6, r7, r8, pc}
 8006760:	f894 3050 	ldrb.w	r3, [r4, #80]	; 0x50
 8006764:	2b01      	cmp	r3, #1
 8006766:	d07d      	beq.n	8006864 <HAL_SPI_Receive+0x132>
 8006768:	2301      	movs	r3, #1
 800676a:	f884 3050 	strb.w	r3, [r4, #80]	; 0x50
 800676e:	f7fe fa99 	bl	8004ca4 <HAL_GetTick>
 8006772:	f894 3051 	ldrb.w	r3, [r4, #81]	; 0x51
 8006776:	4607      	mov	r7, r0
 8006778:	2b01      	cmp	r3, #1
 800677a:	b2d8      	uxtb	r0, r3
 800677c:	d170      	bne.n	8006860 <HAL_SPI_Receive+0x12e>
 800677e:	f1b8 0f00 	cmp.w	r8, #0
 8006782:	d05b      	beq.n	800683c <HAL_SPI_Receive+0x10a>
 8006784:	2e00      	cmp	r6, #0
 8006786:	d059      	beq.n	800683c <HAL_SPI_Receive+0x10a>
 8006788:	2304      	movs	r3, #4
 800678a:	f884 3051 	strb.w	r3, [r4, #81]	; 0x51
 800678e:	2300      	movs	r3, #0
 8006790:	68a2      	ldr	r2, [r4, #8]
 8006792:	6563      	str	r3, [r4, #84]	; 0x54
 8006794:	f5b2 4f00 	cmp.w	r2, #32768	; 0x8000
 8006798:	e9c4 3310 	strd	r3, r3, [r4, #64]	; 0x40
 800679c:	87e6      	strh	r6, [r4, #62]	; 0x3e
 800679e:	6323      	str	r3, [r4, #48]	; 0x30
 80067a0:	86a3      	strh	r3, [r4, #52]	; 0x34
 80067a2:	86e3      	strh	r3, [r4, #54]	; 0x36
 80067a4:	f8c4 8038 	str.w	r8, [r4, #56]	; 0x38
 80067a8:	6823      	ldr	r3, [r4, #0]
 80067aa:	87a6      	strh	r6, [r4, #60]	; 0x3c
 80067ac:	d107      	bne.n	80067be <HAL_SPI_Receive+0x8c>
 80067ae:	681a      	ldr	r2, [r3, #0]
 80067b0:	f022 0240 	bic.w	r2, r2, #64	; 0x40
 80067b4:	601a      	str	r2, [r3, #0]
 80067b6:	681a      	ldr	r2, [r3, #0]
 80067b8:	f422 4280 	bic.w	r2, r2, #16384	; 0x4000
 80067bc:	601a      	str	r2, [r3, #0]
 80067be:	681a      	ldr	r2, [r3, #0]
 80067c0:	0656      	lsls	r6, r2, #25
 80067c2:	bf5e      	ittt	pl
 80067c4:	681a      	ldrpl	r2, [r3, #0]
 80067c6:	f042 0240 	orrpl.w	r2, r2, #64	; 0x40
 80067ca:	601a      	strpl	r2, [r3, #0]
 80067cc:	68e3      	ldr	r3, [r4, #12]
 80067ce:	b1f3      	cbz	r3, 800680e <HAL_SPI_Receive+0xdc>
 80067d0:	8fe3      	ldrh	r3, [r4, #62]	; 0x3e
 80067d2:	b29b      	uxth	r3, r3
 80067d4:	b1fb      	cbz	r3, 8006816 <HAL_SPI_Receive+0xe4>
 80067d6:	6823      	ldr	r3, [r4, #0]
 80067d8:	689a      	ldr	r2, [r3, #8]
 80067da:	07d2      	lsls	r2, r2, #31
 80067dc:	d535      	bpl.n	800684a <HAL_SPI_Receive+0x118>
 80067de:	68da      	ldr	r2, [r3, #12]
 80067e0:	6ba3      	ldr	r3, [r4, #56]	; 0x38
 80067e2:	f823 2b02 	strh.w	r2, [r3], #2
 80067e6:	63a3      	str	r3, [r4, #56]	; 0x38
 80067e8:	8fe3      	ldrh	r3, [r4, #62]	; 0x3e
 80067ea:	3b01      	subs	r3, #1
 80067ec:	b29b      	uxth	r3, r3
 80067ee:	87e3      	strh	r3, [r4, #62]	; 0x3e
 80067f0:	e7ee      	b.n	80067d0 <HAL_SPI_Receive+0x9e>
 80067f2:	6823      	ldr	r3, [r4, #0]
 80067f4:	689a      	ldr	r2, [r3, #8]
 80067f6:	07d0      	lsls	r0, r2, #31
 80067f8:	d518      	bpl.n	800682c <HAL_SPI_Receive+0xfa>
 80067fa:	7b1b      	ldrb	r3, [r3, #12]
 80067fc:	6ba2      	ldr	r2, [r4, #56]	; 0x38
 80067fe:	7013      	strb	r3, [r2, #0]
 8006800:	6ba3      	ldr	r3, [r4, #56]	; 0x38
 8006802:	3301      	adds	r3, #1
 8006804:	63a3      	str	r3, [r4, #56]	; 0x38
 8006806:	8fe3      	ldrh	r3, [r4, #62]	; 0x3e
 8006808:	3b01      	subs	r3, #1
 800680a:	b29b      	uxth	r3, r3
 800680c:	87e3      	strh	r3, [r4, #62]	; 0x3e
 800680e:	8fe3      	ldrh	r3, [r4, #62]	; 0x3e
 8006810:	b29b      	uxth	r3, r3
 8006812:	2b00      	cmp	r3, #0
 8006814:	d1ed      	bne.n	80067f2 <HAL_SPI_Receive+0xc0>
 8006816:	463a      	mov	r2, r7
 8006818:	4629      	mov	r1, r5
 800681a:	4620      	mov	r0, r4
 800681c:	f7ff fd60 	bl	80062e0 <SPI_EndRxTransaction>
 8006820:	b9d8      	cbnz	r0, 800685a <HAL_SPI_Receive+0x128>
 8006822:	6d60      	ldr	r0, [r4, #84]	; 0x54
 8006824:	3800      	subs	r0, #0
 8006826:	bf18      	it	ne
 8006828:	2001      	movne	r0, #1
 800682a:	e007      	b.n	800683c <HAL_SPI_Receive+0x10a>
 800682c:	f7fe fa3a 	bl	8004ca4 <HAL_GetTick>
 8006830:	1bc0      	subs	r0, r0, r7
 8006832:	42a8      	cmp	r0, r5
 8006834:	d3eb      	bcc.n	800680e <HAL_SPI_Receive+0xdc>
 8006836:	1c69      	adds	r1, r5, #1
 8006838:	d0e9      	beq.n	800680e <HAL_SPI_Receive+0xdc>
 800683a:	2003      	movs	r0, #3
 800683c:	2301      	movs	r3, #1
 800683e:	f884 3051 	strb.w	r3, [r4, #81]	; 0x51
 8006842:	2300      	movs	r3, #0
 8006844:	f884 3050 	strb.w	r3, [r4, #80]	; 0x50
 8006848:	e787      	b.n	800675a <HAL_SPI_Receive+0x28>
 800684a:	f7fe fa2b 	bl	8004ca4 <HAL_GetTick>
 800684e:	1bc0      	subs	r0, r0, r7
 8006850:	42a8      	cmp	r0, r5
 8006852:	d3bd      	bcc.n	80067d0 <HAL_SPI_Receive+0x9e>
 8006854:	1c6b      	adds	r3, r5, #1
 8006856:	d0bb      	beq.n	80067d0 <HAL_SPI_Receive+0x9e>
 8006858:	e7ef      	b.n	800683a <HAL_SPI_Receive+0x108>
 800685a:	2320      	movs	r3, #32
 800685c:	6563      	str	r3, [r4, #84]	; 0x54
 800685e:	e7e0      	b.n	8006822 <HAL_SPI_Receive+0xf0>
 8006860:	2002      	movs	r0, #2
 8006862:	e7eb      	b.n	800683c <HAL_SPI_Receive+0x10a>
 8006864:	2002      	movs	r0, #2
 8006866:	e778      	b.n	800675a <HAL_SPI_Receive+0x28>

08006868 <TIM_OC1_SetConfig>:
 8006868:	6a03      	ldr	r3, [r0, #32]
 800686a:	b570      	push	{r4, r5, r6, lr}
 800686c:	f023 0301 	bic.w	r3, r3, #1
 8006870:	6203      	str	r3, [r0, #32]
 8006872:	6a03      	ldr	r3, [r0, #32]
 8006874:	6844      	ldr	r4, [r0, #4]
 8006876:	6982      	ldr	r2, [r0, #24]
 8006878:	680d      	ldr	r5, [r1, #0]
 800687a:	f022 0273 	bic.w	r2, r2, #115	; 0x73
 800687e:	432a      	orrs	r2, r5
 8006880:	688d      	ldr	r5, [r1, #8]
 8006882:	f023 0302 	bic.w	r3, r3, #2
 8006886:	432b      	orrs	r3, r5
 8006888:	4d0a      	ldr	r5, [pc, #40]	; (80068b4 <TIM_OC1_SetConfig+0x4c>)
 800688a:	42a8      	cmp	r0, r5
 800688c:	d10b      	bne.n	80068a6 <TIM_OC1_SetConfig+0x3e>
 800688e:	68cd      	ldr	r5, [r1, #12]
 8006890:	f023 0308 	bic.w	r3, r3, #8
 8006894:	432b      	orrs	r3, r5
 8006896:	f424 7440 	bic.w	r4, r4, #768	; 0x300
 800689a:	e9d1 5605 	ldrd	r5, r6, [r1, #20]
 800689e:	4335      	orrs	r5, r6
 80068a0:	f023 0304 	bic.w	r3, r3, #4
 80068a4:	432c      	orrs	r4, r5
 80068a6:	6044      	str	r4, [r0, #4]
 80068a8:	6182      	str	r2, [r0, #24]
 80068aa:	684a      	ldr	r2, [r1, #4]
 80068ac:	6342      	str	r2, [r0, #52]	; 0x34
 80068ae:	6203      	str	r3, [r0, #32]
 80068b0:	bd70      	pop	{r4, r5, r6, pc}
 80068b2:	bf00      	nop
 80068b4:	40012c00 	.word	0x40012c00

080068b8 <TIM_OC3_SetConfig>:
 80068b8:	6a03      	ldr	r3, [r0, #32]
 80068ba:	b570      	push	{r4, r5, r6, lr}
 80068bc:	f423 7380 	bic.w	r3, r3, #256	; 0x100
 80068c0:	6203      	str	r3, [r0, #32]
 80068c2:	6a03      	ldr	r3, [r0, #32]
 80068c4:	6844      	ldr	r4, [r0, #4]
 80068c6:	69c2      	ldr	r2, [r0, #28]
 80068c8:	680d      	ldr	r5, [r1, #0]
 80068ca:	f022 0273 	bic.w	r2, r2, #115	; 0x73
 80068ce:	432a      	orrs	r2, r5
 80068d0:	688d      	ldr	r5, [r1, #8]
 80068d2:	f423 7300 	bic.w	r3, r3, #512	; 0x200
 80068d6:	ea43 2305 	orr.w	r3, r3, r5, lsl #8
 80068da:	4d0b      	ldr	r5, [pc, #44]	; (8006908 <TIM_OC3_SetConfig+0x50>)
 80068dc:	42a8      	cmp	r0, r5
 80068de:	d10d      	bne.n	80068fc <TIM_OC3_SetConfig+0x44>
 80068e0:	68cd      	ldr	r5, [r1, #12]
 80068e2:	f423 6300 	bic.w	r3, r3, #2048	; 0x800
 80068e6:	ea43 2305 	orr.w	r3, r3, r5, lsl #8
 80068ea:	f424 5440 	bic.w	r4, r4, #12288	; 0x3000
 80068ee:	e9d1 5605 	ldrd	r5, r6, [r1, #20]
 80068f2:	4335      	orrs	r5, r6
 80068f4:	f423 6380 	bic.w	r3, r3, #1024	; 0x400
 80068f8:	ea44 1405 	orr.w	r4, r4, r5, lsl #4
 80068fc:	6044      	str	r4, [r0, #4]
 80068fe:	61c2      	str	r2, [r0, #28]
 8006900:	684a      	ldr	r2, [r1, #4]
 8006902:	63c2      	str	r2, [r0, #60]	; 0x3c
 8006904:	6203      	str	r3, [r0, #32]
 8006906:	bd70      	pop	{r4, r5, r6, pc}
 8006908:	40012c00 	.word	0x40012c00

0800690c <TIM_OC4_SetConfig>:
 800690c:	6a03      	ldr	r3, [r0, #32]
 800690e:	b530      	push	{r4, r5, lr}
 8006910:	f423 5380 	bic.w	r3, r3, #4096	; 0x1000
 8006914:	6203      	str	r3, [r0, #32]
 8006916:	6a03      	ldr	r3, [r0, #32]
 8006918:	6844      	ldr	r4, [r0, #4]
 800691a:	69c2      	ldr	r2, [r0, #28]
 800691c:	680d      	ldr	r5, [r1, #0]
 800691e:	f422 42e6 	bic.w	r2, r2, #29440	; 0x7300
 8006922:	ea42 2205 	orr.w	r2, r2, r5, lsl #8
 8006926:	688d      	ldr	r5, [r1, #8]
 8006928:	f423 5300 	bic.w	r3, r3, #8192	; 0x2000
 800692c:	ea43 3305 	orr.w	r3, r3, r5, lsl #12
 8006930:	4d06      	ldr	r5, [pc, #24]	; (800694c <TIM_OC4_SetConfig+0x40>)
 8006932:	42a8      	cmp	r0, r5
 8006934:	bf02      	ittt	eq
 8006936:	694d      	ldreq	r5, [r1, #20]
 8006938:	f424 4480 	biceq.w	r4, r4, #16384	; 0x4000
 800693c:	ea44 1485 	orreq.w	r4, r4, r5, lsl #6
 8006940:	6044      	str	r4, [r0, #4]
 8006942:	61c2      	str	r2, [r0, #28]
 8006944:	684a      	ldr	r2, [r1, #4]
 8006946:	6402      	str	r2, [r0, #64]	; 0x40
 8006948:	6203      	str	r3, [r0, #32]
 800694a:	bd30      	pop	{r4, r5, pc}
 800694c:	40012c00 	.word	0x40012c00

08006950 <HAL_TIM_Base_Start_IT>:
 8006950:	f890 303d 	ldrb.w	r3, [r0, #61]	; 0x3d
 8006954:	2b01      	cmp	r3, #1
 8006956:	d120      	bne.n	800699a <HAL_TIM_Base_Start_IT+0x4a>
 8006958:	2302      	movs	r3, #2
 800695a:	f880 303d 	strb.w	r3, [r0, #61]	; 0x3d
 800695e:	6803      	ldr	r3, [r0, #0]
 8006960:	68da      	ldr	r2, [r3, #12]
 8006962:	f042 0201 	orr.w	r2, r2, #1
 8006966:	60da      	str	r2, [r3, #12]
 8006968:	4a0d      	ldr	r2, [pc, #52]	; (80069a0 <HAL_TIM_Base_Start_IT+0x50>)
 800696a:	4293      	cmp	r3, r2
 800696c:	d00a      	beq.n	8006984 <HAL_TIM_Base_Start_IT+0x34>
 800696e:	f1b3 4f80 	cmp.w	r3, #1073741824	; 0x40000000
 8006972:	d007      	beq.n	8006984 <HAL_TIM_Base_Start_IT+0x34>
 8006974:	f5a2 3294 	sub.w	r2, r2, #75776	; 0x12800
 8006978:	4293      	cmp	r3, r2
 800697a:	d003      	beq.n	8006984 <HAL_TIM_Base_Start_IT+0x34>
 800697c:	f502 6280 	add.w	r2, r2, #1024	; 0x400
 8006980:	4293      	cmp	r3, r2
 8006982:	d104      	bne.n	800698e <HAL_TIM_Base_Start_IT+0x3e>
 8006984:	689a      	ldr	r2, [r3, #8]
 8006986:	f002 0207 	and.w	r2, r2, #7
 800698a:	2a06      	cmp	r2, #6
 800698c:	d003      	beq.n	8006996 <HAL_TIM_Base_Start_IT+0x46>
 800698e:	681a      	ldr	r2, [r3, #0]
 8006990:	f042 0201 	orr.w	r2, r2, #1
 8006994:	601a      	str	r2, [r3, #0]
 8006996:	2000      	movs	r0, #0
 8006998:	4770      	bx	lr
 800699a:	2001      	movs	r0, #1
 800699c:	4770      	bx	lr
 800699e:	bf00      	nop
 80069a0:	40012c00 	.word	0x40012c00

080069a4 <HAL_TIM_OC_MspInit>:
 80069a4:	4770      	bx	lr

080069a6 <HAL_TIM_IC_MspInit>:
 80069a6:	4770      	bx	lr

080069a8 <HAL_TIM_OnePulse_MspInit>:
 80069a8:	4770      	bx	lr

080069aa <HAL_TIM_PeriodElapsedCallback>:
 80069aa:	4770      	bx	lr

080069ac <HAL_TIM_OC_DelayElapsedCallback>:
 80069ac:	4770      	bx	lr

080069ae <HAL_TIM_IC_CaptureCallback>:
 80069ae:	4770      	bx	lr

080069b0 <TIM_DMACaptureCplt>:
 80069b0:	b510      	push	{r4, lr}
 80069b2:	6a44      	ldr	r4, [r0, #36]	; 0x24
 80069b4:	6a62      	ldr	r2, [r4, #36]	; 0x24
 80069b6:	4282      	cmp	r2, r0
 80069b8:	d10d      	bne.n	80069d6 <TIM_DMACaptureCplt+0x26>
 80069ba:	2301      	movs	r3, #1
 80069bc:	7723      	strb	r3, [r4, #28]
 80069be:	6992      	ldr	r2, [r2, #24]
 80069c0:	b91a      	cbnz	r2, 80069ca <TIM_DMACaptureCplt+0x1a>
 80069c2:	f884 303e 	strb.w	r3, [r4, #62]	; 0x3e
 80069c6:	f884 3042 	strb.w	r3, [r4, #66]	; 0x42
 80069ca:	4620      	mov	r0, r4
 80069cc:	f7ff ffef 	bl	80069ae <HAL_TIM_IC_CaptureCallback>
 80069d0:	2300      	movs	r3, #0
 80069d2:	7723      	strb	r3, [r4, #28]
 80069d4:	bd10      	pop	{r4, pc}
 80069d6:	6aa3      	ldr	r3, [r4, #40]	; 0x28
 80069d8:	4283      	cmp	r3, r0
 80069da:	d10a      	bne.n	80069f2 <TIM_DMACaptureCplt+0x42>
 80069dc:	2202      	movs	r2, #2
 80069de:	7722      	strb	r2, [r4, #28]
 80069e0:	699b      	ldr	r3, [r3, #24]
 80069e2:	2b00      	cmp	r3, #0
 80069e4:	d1f1      	bne.n	80069ca <TIM_DMACaptureCplt+0x1a>
 80069e6:	2301      	movs	r3, #1
 80069e8:	f884 303f 	strb.w	r3, [r4, #63]	; 0x3f
 80069ec:	f884 3043 	strb.w	r3, [r4, #67]	; 0x43
 80069f0:	e7eb      	b.n	80069ca <TIM_DMACaptureCplt+0x1a>
 80069f2:	6ae3      	ldr	r3, [r4, #44]	; 0x2c
 80069f4:	4283      	cmp	r3, r0
 80069f6:	d10a      	bne.n	8006a0e <TIM_DMACaptureCplt+0x5e>
 80069f8:	2204      	movs	r2, #4
 80069fa:	7722      	strb	r2, [r4, #28]
 80069fc:	699b      	ldr	r3, [r3, #24]
 80069fe:	2b00      	cmp	r3, #0
 8006a00:	d1e3      	bne.n	80069ca <TIM_DMACaptureCplt+0x1a>
 8006a02:	2301      	movs	r3, #1
 8006a04:	f884 3040 	strb.w	r3, [r4, #64]	; 0x40
 8006a08:	f884 3044 	strb.w	r3, [r4, #68]	; 0x44
 8006a0c:	e7dd      	b.n	80069ca <TIM_DMACaptureCplt+0x1a>
 8006a0e:	6b23      	ldr	r3, [r4, #48]	; 0x30
 8006a10:	4283      	cmp	r3, r0
 8006a12:	d1da      	bne.n	80069ca <TIM_DMACaptureCplt+0x1a>
 8006a14:	2208      	movs	r2, #8
 8006a16:	7722      	strb	r2, [r4, #28]
 8006a18:	699b      	ldr	r3, [r3, #24]
 8006a1a:	2b00      	cmp	r3, #0
 8006a1c:	d1d5      	bne.n	80069ca <TIM_DMACaptureCplt+0x1a>
 8006a1e:	2301      	movs	r3, #1
 8006a20:	f884 3041 	strb.w	r3, [r4, #65]	; 0x41
 8006a24:	f884 3045 	strb.w	r3, [r4, #69]	; 0x45
 8006a28:	e7cf      	b.n	80069ca <TIM_DMACaptureCplt+0x1a>

08006a2a <HAL_TIM_IC_CaptureHalfCpltCallback>:
 8006a2a:	4770      	bx	lr

08006a2c <TIM_DMACaptureHalfCplt>:
 8006a2c:	b510      	push	{r4, lr}
 8006a2e:	6a44      	ldr	r4, [r0, #36]	; 0x24
 8006a30:	6a63      	ldr	r3, [r4, #36]	; 0x24
 8006a32:	4283      	cmp	r3, r0
 8006a34:	d107      	bne.n	8006a46 <TIM_DMACaptureHalfCplt+0x1a>
 8006a36:	2301      	movs	r3, #1
 8006a38:	7723      	strb	r3, [r4, #28]
 8006a3a:	4620      	mov	r0, r4
 8006a3c:	f7ff fff5 	bl	8006a2a <HAL_TIM_IC_CaptureHalfCpltCallback>
 8006a40:	2300      	movs	r3, #0
 8006a42:	7723      	strb	r3, [r4, #28]
 8006a44:	bd10      	pop	{r4, pc}
 8006a46:	6aa3      	ldr	r3, [r4, #40]	; 0x28
 8006a48:	4283      	cmp	r3, r0
 8006a4a:	d101      	bne.n	8006a50 <TIM_DMACaptureHalfCplt+0x24>
 8006a4c:	2302      	movs	r3, #2
 8006a4e:	e7f3      	b.n	8006a38 <TIM_DMACaptureHalfCplt+0xc>
 8006a50:	6ae3      	ldr	r3, [r4, #44]	; 0x2c
 8006a52:	4283      	cmp	r3, r0
 8006a54:	d101      	bne.n	8006a5a <TIM_DMACaptureHalfCplt+0x2e>
 8006a56:	2304      	movs	r3, #4
 8006a58:	e7ee      	b.n	8006a38 <TIM_DMACaptureHalfCplt+0xc>
 8006a5a:	6b23      	ldr	r3, [r4, #48]	; 0x30
 8006a5c:	4283      	cmp	r3, r0
 8006a5e:	d1ec      	bne.n	8006a3a <TIM_DMACaptureHalfCplt+0xe>
 8006a60:	2308      	movs	r3, #8
 8006a62:	e7e9      	b.n	8006a38 <TIM_DMACaptureHalfCplt+0xc>

08006a64 <HAL_TIM_PWM_PulseFinishedCallback>:
 8006a64:	4770      	bx	lr

08006a66 <HAL_TIM_TriggerCallback>:
 8006a66:	4770      	bx	lr

08006a68 <HAL_TIM_IRQHandler>:
 8006a68:	6803      	ldr	r3, [r0, #0]
 8006a6a:	b510      	push	{r4, lr}
 8006a6c:	691a      	ldr	r2, [r3, #16]
 8006a6e:	4604      	mov	r4, r0
 8006a70:	0791      	lsls	r1, r2, #30
 8006a72:	d50e      	bpl.n	8006a92 <HAL_TIM_IRQHandler+0x2a>
 8006a74:	68da      	ldr	r2, [r3, #12]
 8006a76:	0792      	lsls	r2, r2, #30
 8006a78:	d50b      	bpl.n	8006a92 <HAL_TIM_IRQHandler+0x2a>
 8006a7a:	f06f 0202 	mvn.w	r2, #2
 8006a7e:	611a      	str	r2, [r3, #16]
 8006a80:	2201      	movs	r2, #1
 8006a82:	7702      	strb	r2, [r0, #28]
 8006a84:	699b      	ldr	r3, [r3, #24]
 8006a86:	079b      	lsls	r3, r3, #30
 8006a88:	d077      	beq.n	8006b7a <HAL_TIM_IRQHandler+0x112>
 8006a8a:	f7ff ff90 	bl	80069ae <HAL_TIM_IC_CaptureCallback>
 8006a8e:	2300      	movs	r3, #0
 8006a90:	7723      	strb	r3, [r4, #28]
 8006a92:	6823      	ldr	r3, [r4, #0]
 8006a94:	691a      	ldr	r2, [r3, #16]
 8006a96:	0750      	lsls	r0, r2, #29
 8006a98:	d510      	bpl.n	8006abc <HAL_TIM_IRQHandler+0x54>
 8006a9a:	68da      	ldr	r2, [r3, #12]
 8006a9c:	0751      	lsls	r1, r2, #29
 8006a9e:	d50d      	bpl.n	8006abc <HAL_TIM_IRQHandler+0x54>
 8006aa0:	f06f 0204 	mvn.w	r2, #4
 8006aa4:	611a      	str	r2, [r3, #16]
 8006aa6:	2202      	movs	r2, #2
 8006aa8:	7722      	strb	r2, [r4, #28]
 8006aaa:	699b      	ldr	r3, [r3, #24]
 8006aac:	4620      	mov	r0, r4
 8006aae:	f413 7f40 	tst.w	r3, #768	; 0x300
 8006ab2:	d068      	beq.n	8006b86 <HAL_TIM_IRQHandler+0x11e>
 8006ab4:	f7ff ff7b 	bl	80069ae <HAL_TIM_IC_CaptureCallback>
 8006ab8:	2300      	movs	r3, #0
 8006aba:	7723      	strb	r3, [r4, #28]
 8006abc:	6823      	ldr	r3, [r4, #0]
 8006abe:	691a      	ldr	r2, [r3, #16]
 8006ac0:	0712      	lsls	r2, r2, #28
 8006ac2:	d50f      	bpl.n	8006ae4 <HAL_TIM_IRQHandler+0x7c>
 8006ac4:	68da      	ldr	r2, [r3, #12]
 8006ac6:	0710      	lsls	r0, r2, #28
 8006ac8:	d50c      	bpl.n	8006ae4 <HAL_TIM_IRQHandler+0x7c>
 8006aca:	f06f 0208 	mvn.w	r2, #8
 8006ace:	611a      	str	r2, [r3, #16]
 8006ad0:	2204      	movs	r2, #4
 8006ad2:	7722      	strb	r2, [r4, #28]
 8006ad4:	69db      	ldr	r3, [r3, #28]
 8006ad6:	4620      	mov	r0, r4
 8006ad8:	0799      	lsls	r1, r3, #30
 8006ada:	d05a      	beq.n	8006b92 <HAL_TIM_IRQHandler+0x12a>
 8006adc:	f7ff ff67 	bl	80069ae <HAL_TIM_IC_CaptureCallback>
 8006ae0:	2300      	movs	r3, #0
 8006ae2:	7723      	strb	r3, [r4, #28]
 8006ae4:	6823      	ldr	r3, [r4, #0]
 8006ae6:	691a      	ldr	r2, [r3, #16]
 8006ae8:	06d2      	lsls	r2, r2, #27
 8006aea:	d510      	bpl.n	8006b0e <HAL_TIM_IRQHandler+0xa6>
 8006aec:	68da      	ldr	r2, [r3, #12]
 8006aee:	06d0      	lsls	r0, r2, #27
 8006af0:	d50d      	bpl.n	8006b0e <HAL_TIM_IRQHandler+0xa6>
 8006af2:	f06f 0210 	mvn.w	r2, #16
 8006af6:	611a      	str	r2, [r3, #16]
 8006af8:	2208      	movs	r2, #8
 8006afa:	7722      	strb	r2, [r4, #28]
 8006afc:	69db      	ldr	r3, [r3, #28]
 8006afe:	4620      	mov	r0, r4
 8006b00:	f413 7f40 	tst.w	r3, #768	; 0x300
 8006b04:	d04b      	beq.n	8006b9e <HAL_TIM_IRQHandler+0x136>
 8006b06:	f7ff ff52 	bl	80069ae <HAL_TIM_IC_CaptureCallback>
 8006b0a:	2300      	movs	r3, #0
 8006b0c:	7723      	strb	r3, [r4, #28]
 8006b0e:	6823      	ldr	r3, [r4, #0]
 8006b10:	691a      	ldr	r2, [r3, #16]
 8006b12:	07d1      	lsls	r1, r2, #31
 8006b14:	d508      	bpl.n	8006b28 <HAL_TIM_IRQHandler+0xc0>
 8006b16:	68da      	ldr	r2, [r3, #12]
 8006b18:	07d2      	lsls	r2, r2, #31
 8006b1a:	d505      	bpl.n	8006b28 <HAL_TIM_IRQHandler+0xc0>
 8006b1c:	f06f 0201 	mvn.w	r2, #1
 8006b20:	4620      	mov	r0, r4
 8006b22:	611a      	str	r2, [r3, #16]
 8006b24:	f7ff ff41 	bl	80069aa <HAL_TIM_PeriodElapsedCallback>
 8006b28:	6823      	ldr	r3, [r4, #0]
 8006b2a:	691a      	ldr	r2, [r3, #16]
 8006b2c:	0610      	lsls	r0, r2, #24
 8006b2e:	d508      	bpl.n	8006b42 <HAL_TIM_IRQHandler+0xda>
 8006b30:	68da      	ldr	r2, [r3, #12]
 8006b32:	0611      	lsls	r1, r2, #24
 8006b34:	d505      	bpl.n	8006b42 <HAL_TIM_IRQHandler+0xda>
 8006b36:	f06f 0280 	mvn.w	r2, #128	; 0x80
 8006b3a:	4620      	mov	r0, r4
 8006b3c:	611a      	str	r2, [r3, #16]
 8006b3e:	f000 fd7c 	bl	800763a <HAL_TIMEx_BreakCallback>
 8006b42:	6823      	ldr	r3, [r4, #0]
 8006b44:	691a      	ldr	r2, [r3, #16]
 8006b46:	0652      	lsls	r2, r2, #25
 8006b48:	d508      	bpl.n	8006b5c <HAL_TIM_IRQHandler+0xf4>
 8006b4a:	68da      	ldr	r2, [r3, #12]
 8006b4c:	0650      	lsls	r0, r2, #25
 8006b4e:	d505      	bpl.n	8006b5c <HAL_TIM_IRQHandler+0xf4>
 8006b50:	f06f 0240 	mvn.w	r2, #64	; 0x40
 8006b54:	4620      	mov	r0, r4
 8006b56:	611a      	str	r2, [r3, #16]
 8006b58:	f7ff ff85 	bl	8006a66 <HAL_TIM_TriggerCallback>
 8006b5c:	6823      	ldr	r3, [r4, #0]
 8006b5e:	691a      	ldr	r2, [r3, #16]
 8006b60:	0691      	lsls	r1, r2, #26
 8006b62:	d522      	bpl.n	8006baa <HAL_TIM_IRQHandler+0x142>
 8006b64:	68da      	ldr	r2, [r3, #12]
 8006b66:	0692      	lsls	r2, r2, #26
 8006b68:	d51f      	bpl.n	8006baa <HAL_TIM_IRQHandler+0x142>
 8006b6a:	f06f 0220 	mvn.w	r2, #32
 8006b6e:	4620      	mov	r0, r4
 8006b70:	e8bd 4010 	ldmia.w	sp!, {r4, lr}
 8006b74:	611a      	str	r2, [r3, #16]
 8006b76:	f000 bd5f 	b.w	8007638 <HAL_TIMEx_CommutCallback>
 8006b7a:	f7ff ff17 	bl	80069ac <HAL_TIM_OC_DelayElapsedCallback>
 8006b7e:	4620      	mov	r0, r4
 8006b80:	f7ff ff70 	bl	8006a64 <HAL_TIM_PWM_PulseFinishedCallback>
 8006b84:	e783      	b.n	8006a8e <HAL_TIM_IRQHandler+0x26>
 8006b86:	f7ff ff11 	bl	80069ac <HAL_TIM_OC_DelayElapsedCallback>
 8006b8a:	4620      	mov	r0, r4
 8006b8c:	f7ff ff6a 	bl	8006a64 <HAL_TIM_PWM_PulseFinishedCallback>
 8006b90:	e792      	b.n	8006ab8 <HAL_TIM_IRQHandler+0x50>
 8006b92:	f7ff ff0b 	bl	80069ac <HAL_TIM_OC_DelayElapsedCallback>
 8006b96:	4620      	mov	r0, r4
 8006b98:	f7ff ff64 	bl	8006a64 <HAL_TIM_PWM_PulseFinishedCallback>
 8006b9c:	e7a0      	b.n	8006ae0 <HAL_TIM_IRQHandler+0x78>
 8006b9e:	f7ff ff05 	bl	80069ac <HAL_TIM_OC_DelayElapsedCallback>
 8006ba2:	4620      	mov	r0, r4
 8006ba4:	f7ff ff5e 	bl	8006a64 <HAL_TIM_PWM_PulseFinishedCallback>
 8006ba8:	e7af      	b.n	8006b0a <HAL_TIM_IRQHandler+0xa2>
 8006baa:	bd10      	pop	{r4, pc}

08006bac <HAL_TIM_ErrorCallback>:
 8006bac:	4770      	bx	lr

08006bae <TIM_DMAError>:
 8006bae:	b510      	push	{r4, lr}
 8006bb0:	6a44      	ldr	r4, [r0, #36]	; 0x24
 8006bb2:	6a63      	ldr	r3, [r4, #36]	; 0x24
 8006bb4:	4283      	cmp	r3, r0
 8006bb6:	d109      	bne.n	8006bcc <TIM_DMAError+0x1e>
 8006bb8:	2301      	movs	r3, #1
 8006bba:	7723      	strb	r3, [r4, #28]
 8006bbc:	f884 303e 	strb.w	r3, [r4, #62]	; 0x3e
 8006bc0:	4620      	mov	r0, r4
 8006bc2:	f7ff fff3 	bl	8006bac <HAL_TIM_ErrorCallback>
 8006bc6:	2300      	movs	r3, #0
 8006bc8:	7723      	strb	r3, [r4, #28]
 8006bca:	bd10      	pop	{r4, pc}
 8006bcc:	6aa3      	ldr	r3, [r4, #40]	; 0x28
 8006bce:	4283      	cmp	r3, r0
 8006bd0:	d105      	bne.n	8006bde <TIM_DMAError+0x30>
 8006bd2:	2302      	movs	r3, #2
 8006bd4:	7723      	strb	r3, [r4, #28]
 8006bd6:	2301      	movs	r3, #1
 8006bd8:	f884 303f 	strb.w	r3, [r4, #63]	; 0x3f
 8006bdc:	e7f0      	b.n	8006bc0 <TIM_DMAError+0x12>
 8006bde:	6ae3      	ldr	r3, [r4, #44]	; 0x2c
 8006be0:	4283      	cmp	r3, r0
 8006be2:	f04f 0301 	mov.w	r3, #1
 8006be6:	d104      	bne.n	8006bf2 <TIM_DMAError+0x44>
 8006be8:	2204      	movs	r2, #4
 8006bea:	f884 3040 	strb.w	r3, [r4, #64]	; 0x40
 8006bee:	7722      	strb	r2, [r4, #28]
 8006bf0:	e7e6      	b.n	8006bc0 <TIM_DMAError+0x12>
 8006bf2:	6b22      	ldr	r2, [r4, #48]	; 0x30
 8006bf4:	4282      	cmp	r2, r0
 8006bf6:	bf03      	ittte	eq
 8006bf8:	2208      	moveq	r2, #8
 8006bfa:	f884 3041 	strbeq.w	r3, [r4, #65]	; 0x41
 8006bfe:	7722      	strbeq	r2, [r4, #28]
 8006c00:	f884 303d 	strbne.w	r3, [r4, #61]	; 0x3d
 8006c04:	e7dc      	b.n	8006bc0 <TIM_DMAError+0x12>
	...

08006c08 <TIM_Base_SetConfig>:
 8006c08:	4a1a      	ldr	r2, [pc, #104]	; (8006c74 <TIM_Base_SetConfig+0x6c>)
 8006c0a:	6803      	ldr	r3, [r0, #0]
 8006c0c:	4290      	cmp	r0, r2
 8006c0e:	d00a      	beq.n	8006c26 <TIM_Base_SetConfig+0x1e>
 8006c10:	f1b0 4f80 	cmp.w	r0, #1073741824	; 0x40000000
 8006c14:	d007      	beq.n	8006c26 <TIM_Base_SetConfig+0x1e>
 8006c16:	f5a2 3294 	sub.w	r2, r2, #75776	; 0x12800
 8006c1a:	4290      	cmp	r0, r2
 8006c1c:	d003      	beq.n	8006c26 <TIM_Base_SetConfig+0x1e>
 8006c1e:	f502 6280 	add.w	r2, r2, #1024	; 0x400
 8006c22:	4290      	cmp	r0, r2
 8006c24:	d115      	bne.n	8006c52 <TIM_Base_SetConfig+0x4a>
 8006c26:	684a      	ldr	r2, [r1, #4]
 8006c28:	f023 0370 	bic.w	r3, r3, #112	; 0x70
 8006c2c:	4313      	orrs	r3, r2
 8006c2e:	4a11      	ldr	r2, [pc, #68]	; (8006c74 <TIM_Base_SetConfig+0x6c>)
 8006c30:	4290      	cmp	r0, r2
 8006c32:	d00a      	beq.n	8006c4a <TIM_Base_SetConfig+0x42>
 8006c34:	f1b0 4f80 	cmp.w	r0, #1073741824	; 0x40000000
 8006c38:	d007      	beq.n	8006c4a <TIM_Base_SetConfig+0x42>
 8006c3a:	f5a2 3294 	sub.w	r2, r2, #75776	; 0x12800
 8006c3e:	4290      	cmp	r0, r2
 8006c40:	d003      	beq.n	8006c4a <TIM_Base_SetConfig+0x42>
 8006c42:	f502 6280 	add.w	r2, r2, #1024	; 0x400
 8006c46:	4290      	cmp	r0, r2
 8006c48:	d103      	bne.n	8006c52 <TIM_Base_SetConfig+0x4a>
 8006c4a:	68ca      	ldr	r2, [r1, #12]
 8006c4c:	f423 7340 	bic.w	r3, r3, #768	; 0x300
 8006c50:	4313      	orrs	r3, r2
 8006c52:	694a      	ldr	r2, [r1, #20]
 8006c54:	f023 0380 	bic.w	r3, r3, #128	; 0x80
 8006c58:	4313      	orrs	r3, r2
 8006c5a:	6003      	str	r3, [r0, #0]
 8006c5c:	688b      	ldr	r3, [r1, #8]
 8006c5e:	62c3      	str	r3, [r0, #44]	; 0x2c
 8006c60:	680b      	ldr	r3, [r1, #0]
 8006c62:	6283      	str	r3, [r0, #40]	; 0x28
 8006c64:	4b03      	ldr	r3, [pc, #12]	; (8006c74 <TIM_Base_SetConfig+0x6c>)
 8006c66:	4298      	cmp	r0, r3
 8006c68:	bf04      	itt	eq
 8006c6a:	690b      	ldreq	r3, [r1, #16]
 8006c6c:	6303      	streq	r3, [r0, #48]	; 0x30
 8006c6e:	2301      	movs	r3, #1
 8006c70:	6143      	str	r3, [r0, #20]
 8006c72:	4770      	bx	lr
 8006c74:	40012c00 	.word	0x40012c00

08006c78 <HAL_TIM_Base_Init>:
 8006c78:	b510      	push	{r4, lr}
 8006c7a:	4604      	mov	r4, r0
 8006c7c:	b330      	cbz	r0, 8006ccc <HAL_TIM_Base_Init+0x54>
 8006c7e:	f890 303d 	ldrb.w	r3, [r0, #61]	; 0x3d
 8006c82:	f003 02ff 	and.w	r2, r3, #255	; 0xff
 8006c86:	b91b      	cbnz	r3, 8006c90 <HAL_TIM_Base_Init+0x18>
 8006c88:	f880 203c 	strb.w	r2, [r0, #60]	; 0x3c
 8006c8c:	f7fd f8dc 	bl	8003e48 <HAL_TIM_Base_MspInit>
 8006c90:	2302      	movs	r3, #2
 8006c92:	6820      	ldr	r0, [r4, #0]
 8006c94:	f884 303d 	strb.w	r3, [r4, #61]	; 0x3d
 8006c98:	1d21      	adds	r1, r4, #4
 8006c9a:	f7ff ffb5 	bl	8006c08 <TIM_Base_SetConfig>
 8006c9e:	2301      	movs	r3, #1
 8006ca0:	2000      	movs	r0, #0
 8006ca2:	f884 3046 	strb.w	r3, [r4, #70]	; 0x46
 8006ca6:	f884 303e 	strb.w	r3, [r4, #62]	; 0x3e
 8006caa:	f884 303f 	strb.w	r3, [r4, #63]	; 0x3f
 8006cae:	f884 3040 	strb.w	r3, [r4, #64]	; 0x40
 8006cb2:	f884 3041 	strb.w	r3, [r4, #65]	; 0x41
 8006cb6:	f884 3042 	strb.w	r3, [r4, #66]	; 0x42
 8006cba:	f884 3043 	strb.w	r3, [r4, #67]	; 0x43
 8006cbe:	f884 3044 	strb.w	r3, [r4, #68]	; 0x44
 8006cc2:	f884 3045 	strb.w	r3, [r4, #69]	; 0x45
 8006cc6:	f884 303d 	strb.w	r3, [r4, #61]	; 0x3d
 8006cca:	bd10      	pop	{r4, pc}
 8006ccc:	2001      	movs	r0, #1
 8006cce:	e7fc      	b.n	8006cca <HAL_TIM_Base_Init+0x52>

08006cd0 <HAL_TIM_OC_Init>:
 8006cd0:	b510      	push	{r4, lr}
 8006cd2:	4604      	mov	r4, r0
 8006cd4:	b330      	cbz	r0, 8006d24 <HAL_TIM_OC_Init+0x54>
 8006cd6:	f890 303d 	ldrb.w	r3, [r0, #61]	; 0x3d
 8006cda:	f003 02ff 	and.w	r2, r3, #255	; 0xff
 8006cde:	b91b      	cbnz	r3, 8006ce8 <HAL_TIM_OC_Init+0x18>
 8006ce0:	f880 203c 	strb.w	r2, [r0, #60]	; 0x3c
 8006ce4:	f7ff fe5e 	bl	80069a4 <HAL_TIM_OC_MspInit>
 8006ce8:	2302      	movs	r3, #2
 8006cea:	6820      	ldr	r0, [r4, #0]
 8006cec:	f884 303d 	strb.w	r3, [r4, #61]	; 0x3d
 8006cf0:	1d21      	adds	r1, r4, #4
 8006cf2:	f7ff ff89 	bl	8006c08 <TIM_Base_SetConfig>
 8006cf6:	2301      	movs	r3, #1
 8006cf8:	2000      	movs	r0, #0
 8006cfa:	f884 3046 	strb.w	r3, [r4, #70]	; 0x46
 8006cfe:	f884 303e 	strb.w	r3, [r4, #62]	; 0x3e
 8006d02:	f884 303f 	strb.w	r3, [r4, #63]	; 0x3f
 8006d06:	f884 3040 	strb.w	r3, [r4, #64]	; 0x40
 8006d0a:	f884 3041 	strb.w	r3, [r4, #65]	; 0x41
 8006d0e:	f884 3042 	strb.w	r3, [r4, #66]	; 0x42
 8006d12:	f884 3043 	strb.w	r3, [r4, #67]	; 0x43
 8006d16:	f884 3044 	strb.w	r3, [r4, #68]	; 0x44
 8006d1a:	f884 3045 	strb.w	r3, [r4, #69]	; 0x45
 8006d1e:	f884 303d 	strb.w	r3, [r4, #61]	; 0x3d
 8006d22:	bd10      	pop	{r4, pc}
 8006d24:	2001      	movs	r0, #1
 8006d26:	e7fc      	b.n	8006d22 <HAL_TIM_OC_Init+0x52>

08006d28 <HAL_TIM_IC_Init>:
 8006d28:	b510      	push	{r4, lr}
 8006d2a:	4604      	mov	r4, r0
 8006d2c:	b330      	cbz	r0, 8006d7c <HAL_TIM_IC_Init+0x54>
 8006d2e:	f890 303d 	ldrb.w	r3, [r0, #61]	; 0x3d
 8006d32:	f003 02ff 	and.w	r2, r3, #255	; 0xff
 8006d36:	b91b      	cbnz	r3, 8006d40 <HAL_TIM_IC_Init+0x18>
 8006d38:	f880 203c 	strb.w	r2, [r0, #60]	; 0x3c
 8006d3c:	f7ff fe33 	bl	80069a6 <HAL_TIM_IC_MspInit>
 8006d40:	2302      	movs	r3, #2
 8006d42:	6820      	ldr	r0, [r4, #0]
 8006d44:	f884 303d 	strb.w	r3, [r4, #61]	; 0x3d
 8006d48:	1d21      	adds	r1, r4, #4
 8006d4a:	f7ff ff5d 	bl	8006c08 <TIM_Base_SetConfig>
 8006d4e:	2301      	movs	r3, #1
 8006d50:	2000      	movs	r0, #0
 8006d52:	f884 3046 	strb.w	r3, [r4, #70]	; 0x46
 8006d56:	f884 303e 	strb.w	r3, [r4, #62]	; 0x3e
 8006d5a:	f884 303f 	strb.w	r3, [r4, #63]	; 0x3f
 8006d5e:	f884 3040 	strb.w	r3, [r4, #64]	; 0x40
 8006d62:	f884 3041 	strb.w	r3, [r4, #65]	; 0x41
 8006d66:	f884 3042 	strb.w	r3, [r4, #66]	; 0x42
 8006d6a:	f884 3043 	strb.w	r3, [r4, #67]	; 0x43
 8006d6e:	f884 3044 	strb.w	r3, [r4, #68]	; 0x44
 8006d72:	f884 3045 	strb.w	r3, [r4, #69]	; 0x45
 8006d76:	f884 303d 	strb.w	r3, [r4, #61]	; 0x3d
 8006d7a:	bd10      	pop	{r4, pc}
 8006d7c:	2001      	movs	r0, #1
 8006d7e:	e7fc      	b.n	8006d7a <HAL_TIM_IC_Init+0x52>

08006d80 <HAL_TIM_OnePulse_Init>:
 8006d80:	b538      	push	{r3, r4, r5, lr}
 8006d82:	460d      	mov	r5, r1
 8006d84:	4604      	mov	r4, r0
 8006d86:	b330      	cbz	r0, 8006dd6 <HAL_TIM_OnePulse_Init+0x56>
 8006d88:	f890 303d 	ldrb.w	r3, [r0, #61]	; 0x3d
 8006d8c:	f003 02ff 	and.w	r2, r3, #255	; 0xff
 8006d90:	b91b      	cbnz	r3, 8006d9a <HAL_TIM_OnePulse_Init+0x1a>
 8006d92:	f880 203c 	strb.w	r2, [r0, #60]	; 0x3c
 8006d96:	f7ff fe07 	bl	80069a8 <HAL_TIM_OnePulse_MspInit>
 8006d9a:	2302      	movs	r3, #2
 8006d9c:	6820      	ldr	r0, [r4, #0]
 8006d9e:	f884 303d 	strb.w	r3, [r4, #61]	; 0x3d
 8006da2:	1d21      	adds	r1, r4, #4
 8006da4:	f7ff ff30 	bl	8006c08 <TIM_Base_SetConfig>
 8006da8:	6823      	ldr	r3, [r4, #0]
 8006daa:	2000      	movs	r0, #0
 8006dac:	681a      	ldr	r2, [r3, #0]
 8006dae:	f022 0208 	bic.w	r2, r2, #8
 8006db2:	601a      	str	r2, [r3, #0]
 8006db4:	681a      	ldr	r2, [r3, #0]
 8006db6:	432a      	orrs	r2, r5
 8006db8:	601a      	str	r2, [r3, #0]
 8006dba:	2301      	movs	r3, #1
 8006dbc:	f884 3046 	strb.w	r3, [r4, #70]	; 0x46
 8006dc0:	f884 303e 	strb.w	r3, [r4, #62]	; 0x3e
 8006dc4:	f884 303f 	strb.w	r3, [r4, #63]	; 0x3f
 8006dc8:	f884 3042 	strb.w	r3, [r4, #66]	; 0x42
 8006dcc:	f884 3043 	strb.w	r3, [r4, #67]	; 0x43
 8006dd0:	f884 303d 	strb.w	r3, [r4, #61]	; 0x3d
 8006dd4:	bd38      	pop	{r3, r4, r5, pc}
 8006dd6:	2001      	movs	r0, #1
 8006dd8:	e7fc      	b.n	8006dd4 <HAL_TIM_OnePulse_Init+0x54>
	...

08006ddc <TIM_OC2_SetConfig>:
 8006ddc:	6a03      	ldr	r3, [r0, #32]
 8006dde:	b570      	push	{r4, r5, r6, lr}
 8006de0:	f023 0310 	bic.w	r3, r3, #16
 8006de4:	6203      	str	r3, [r0, #32]
 8006de6:	6a03      	ldr	r3, [r0, #32]
 8006de8:	6844      	ldr	r4, [r0, #4]
 8006dea:	6982      	ldr	r2, [r0, #24]
 8006dec:	680d      	ldr	r5, [r1, #0]
 8006dee:	f422 42e6 	bic.w	r2, r2, #29440	; 0x7300
 8006df2:	ea42 2205 	orr.w	r2, r2, r5, lsl #8
 8006df6:	688d      	ldr	r5, [r1, #8]
 8006df8:	f023 0320 	bic.w	r3, r3, #32
 8006dfc:	ea43 1305 	orr.w	r3, r3, r5, lsl #4
 8006e00:	4d0b      	ldr	r5, [pc, #44]	; (8006e30 <TIM_OC2_SetConfig+0x54>)
 8006e02:	42a8      	cmp	r0, r5
 8006e04:	d10d      	bne.n	8006e22 <TIM_OC2_SetConfig+0x46>
 8006e06:	68cd      	ldr	r5, [r1, #12]
 8006e08:	f023 0380 	bic.w	r3, r3, #128	; 0x80
 8006e0c:	ea43 1305 	orr.w	r3, r3, r5, lsl #4
 8006e10:	f424 6440 	bic.w	r4, r4, #3072	; 0xc00
 8006e14:	e9d1 5605 	ldrd	r5, r6, [r1, #20]
 8006e18:	4335      	orrs	r5, r6
 8006e1a:	f023 0340 	bic.w	r3, r3, #64	; 0x40
 8006e1e:	ea44 0485 	orr.w	r4, r4, r5, lsl #2
 8006e22:	6044      	str	r4, [r0, #4]
 8006e24:	6182      	str	r2, [r0, #24]
 8006e26:	684a      	ldr	r2, [r1, #4]
 8006e28:	6382      	str	r2, [r0, #56]	; 0x38
 8006e2a:	6203      	str	r3, [r0, #32]
 8006e2c:	bd70      	pop	{r4, r5, r6, pc}
 8006e2e:	bf00      	nop
 8006e30:	40012c00 	.word	0x40012c00

08006e34 <HAL_TIM_OC_ConfigChannel>:
 8006e34:	b510      	push	{r4, lr}
 8006e36:	f890 303c 	ldrb.w	r3, [r0, #60]	; 0x3c
 8006e3a:	4604      	mov	r4, r0
 8006e3c:	2b01      	cmp	r3, #1
 8006e3e:	d01e      	beq.n	8006e7e <HAL_TIM_OC_ConfigChannel+0x4a>
 8006e40:	2301      	movs	r3, #1
 8006e42:	2a08      	cmp	r2, #8
 8006e44:	f880 303c 	strb.w	r3, [r0, #60]	; 0x3c
 8006e48:	d015      	beq.n	8006e76 <HAL_TIM_OC_ConfigChannel+0x42>
 8006e4a:	d806      	bhi.n	8006e5a <HAL_TIM_OC_ConfigChannel+0x26>
 8006e4c:	b15a      	cbz	r2, 8006e66 <HAL_TIM_OC_ConfigChannel+0x32>
 8006e4e:	2a04      	cmp	r2, #4
 8006e50:	d00d      	beq.n	8006e6e <HAL_TIM_OC_ConfigChannel+0x3a>
 8006e52:	2000      	movs	r0, #0
 8006e54:	f884 003c 	strb.w	r0, [r4, #60]	; 0x3c
 8006e58:	bd10      	pop	{r4, pc}
 8006e5a:	2a0c      	cmp	r2, #12
 8006e5c:	d1f9      	bne.n	8006e52 <HAL_TIM_OC_ConfigChannel+0x1e>
 8006e5e:	6800      	ldr	r0, [r0, #0]
 8006e60:	f7ff fd54 	bl	800690c <TIM_OC4_SetConfig>
 8006e64:	e7f5      	b.n	8006e52 <HAL_TIM_OC_ConfigChannel+0x1e>
 8006e66:	6800      	ldr	r0, [r0, #0]
 8006e68:	f7ff fcfe 	bl	8006868 <TIM_OC1_SetConfig>
 8006e6c:	e7f1      	b.n	8006e52 <HAL_TIM_OC_ConfigChannel+0x1e>
 8006e6e:	6800      	ldr	r0, [r0, #0]
 8006e70:	f7ff ffb4 	bl	8006ddc <TIM_OC2_SetConfig>
 8006e74:	e7ed      	b.n	8006e52 <HAL_TIM_OC_ConfigChannel+0x1e>
 8006e76:	6800      	ldr	r0, [r0, #0]
 8006e78:	f7ff fd1e 	bl	80068b8 <TIM_OC3_SetConfig>
 8006e7c:	e7e9      	b.n	8006e52 <HAL_TIM_OC_ConfigChannel+0x1e>
 8006e7e:	2002      	movs	r0, #2
 8006e80:	e7ea      	b.n	8006e58 <HAL_TIM_OC_ConfigChannel+0x24>
	...

08006e84 <TIM_TI1_SetConfig>:
 8006e84:	b570      	push	{r4, r5, r6, lr}
 8006e86:	6a04      	ldr	r4, [r0, #32]
 8006e88:	4e12      	ldr	r6, [pc, #72]	; (8006ed4 <TIM_TI1_SetConfig+0x50>)
 8006e8a:	f024 0401 	bic.w	r4, r4, #1
 8006e8e:	6204      	str	r4, [r0, #32]
 8006e90:	42b0      	cmp	r0, r6
 8006e92:	6984      	ldr	r4, [r0, #24]
 8006e94:	6a05      	ldr	r5, [r0, #32]
 8006e96:	d019      	beq.n	8006ecc <TIM_TI1_SetConfig+0x48>
 8006e98:	f1b0 4f80 	cmp.w	r0, #1073741824	; 0x40000000
 8006e9c:	d016      	beq.n	8006ecc <TIM_TI1_SetConfig+0x48>
 8006e9e:	f5a6 3694 	sub.w	r6, r6, #75776	; 0x12800
 8006ea2:	42b0      	cmp	r0, r6
 8006ea4:	d012      	beq.n	8006ecc <TIM_TI1_SetConfig+0x48>
 8006ea6:	f506 6680 	add.w	r6, r6, #1024	; 0x400
 8006eaa:	42b0      	cmp	r0, r6
 8006eac:	d00e      	beq.n	8006ecc <TIM_TI1_SetConfig+0x48>
 8006eae:	f044 0201 	orr.w	r2, r4, #1
 8006eb2:	011b      	lsls	r3, r3, #4
 8006eb4:	f022 02f0 	bic.w	r2, r2, #240	; 0xf0
 8006eb8:	b2db      	uxtb	r3, r3
 8006eba:	4313      	orrs	r3, r2
 8006ebc:	f001 010a 	and.w	r1, r1, #10
 8006ec0:	f025 020a 	bic.w	r2, r5, #10
 8006ec4:	4311      	orrs	r1, r2
 8006ec6:	6183      	str	r3, [r0, #24]
 8006ec8:	6201      	str	r1, [r0, #32]
 8006eca:	bd70      	pop	{r4, r5, r6, pc}
 8006ecc:	f024 0403 	bic.w	r4, r4, #3
 8006ed0:	4322      	orrs	r2, r4
 8006ed2:	e7ee      	b.n	8006eb2 <TIM_TI1_SetConfig+0x2e>
 8006ed4:	40012c00 	.word	0x40012c00

08006ed8 <HAL_TIM_IC_ConfigChannel>:
 8006ed8:	b5f8      	push	{r3, r4, r5, r6, r7, lr}
 8006eda:	f890 303c 	ldrb.w	r3, [r0, #60]	; 0x3c
 8006ede:	4604      	mov	r4, r0
 8006ee0:	2b01      	cmp	r3, #1
 8006ee2:	460e      	mov	r6, r1
 8006ee4:	4615      	mov	r5, r2
 8006ee6:	d079      	beq.n	8006fdc <HAL_TIM_IC_ConfigChannel+0x104>
 8006ee8:	2301      	movs	r3, #1
 8006eea:	f880 303c 	strb.w	r3, [r0, #60]	; 0x3c
 8006eee:	68f3      	ldr	r3, [r6, #12]
 8006ef0:	6800      	ldr	r0, [r0, #0]
 8006ef2:	c906      	ldmia	r1, {r1, r2}
 8006ef4:	b975      	cbnz	r5, 8006f14 <HAL_TIM_IC_ConfigChannel+0x3c>
 8006ef6:	f7ff ffc5 	bl	8006e84 <TIM_TI1_SetConfig>
 8006efa:	6823      	ldr	r3, [r4, #0]
 8006efc:	68b1      	ldr	r1, [r6, #8]
 8006efe:	699a      	ldr	r2, [r3, #24]
 8006f00:	f022 020c 	bic.w	r2, r2, #12
 8006f04:	619a      	str	r2, [r3, #24]
 8006f06:	699a      	ldr	r2, [r3, #24]
 8006f08:	430a      	orrs	r2, r1
 8006f0a:	619a      	str	r2, [r3, #24]
 8006f0c:	2000      	movs	r0, #0
 8006f0e:	f884 003c 	strb.w	r0, [r4, #60]	; 0x3c
 8006f12:	bdf8      	pop	{r3, r4, r5, r6, r7, pc}
 8006f14:	2d04      	cmp	r5, #4
 8006f16:	68b6      	ldr	r6, [r6, #8]
 8006f18:	d122      	bne.n	8006f60 <HAL_TIM_IC_ConfigChannel+0x88>
 8006f1a:	6a05      	ldr	r5, [r0, #32]
 8006f1c:	0109      	lsls	r1, r1, #4
 8006f1e:	f025 0510 	bic.w	r5, r5, #16
 8006f22:	6205      	str	r5, [r0, #32]
 8006f24:	6987      	ldr	r7, [r0, #24]
 8006f26:	f8d0 e020 	ldr.w	lr, [r0, #32]
 8006f2a:	f427 7c40 	bic.w	ip, r7, #768	; 0x300
 8006f2e:	031d      	lsls	r5, r3, #12
 8006f30:	ea4c 2c02 	orr.w	ip, ip, r2, lsl #8
 8006f34:	f42c 4c70 	bic.w	ip, ip, #61440	; 0xf000
 8006f38:	b2ad      	uxth	r5, r5
 8006f3a:	f02e 0ea0 	bic.w	lr, lr, #160	; 0xa0
 8006f3e:	f001 01a0 	and.w	r1, r1, #160	; 0xa0
 8006f42:	ea45 050c 	orr.w	r5, r5, ip
 8006f46:	ea41 010e 	orr.w	r1, r1, lr
 8006f4a:	6185      	str	r5, [r0, #24]
 8006f4c:	6201      	str	r1, [r0, #32]
 8006f4e:	6983      	ldr	r3, [r0, #24]
 8006f50:	f423 6340 	bic.w	r3, r3, #3072	; 0xc00
 8006f54:	6183      	str	r3, [r0, #24]
 8006f56:	6983      	ldr	r3, [r0, #24]
 8006f58:	ea43 2606 	orr.w	r6, r3, r6, lsl #8
 8006f5c:	6186      	str	r6, [r0, #24]
 8006f5e:	e7d5      	b.n	8006f0c <HAL_TIM_IC_ConfigChannel+0x34>
 8006f60:	2d08      	cmp	r5, #8
 8006f62:	6a05      	ldr	r5, [r0, #32]
 8006f64:	d11c      	bne.n	8006fa0 <HAL_TIM_IC_ConfigChannel+0xc8>
 8006f66:	f425 7580 	bic.w	r5, r5, #256	; 0x100
 8006f6a:	6205      	str	r5, [r0, #32]
 8006f6c:	69c7      	ldr	r7, [r0, #28]
 8006f6e:	6a05      	ldr	r5, [r0, #32]
 8006f70:	f027 0703 	bic.w	r7, r7, #3
 8006f74:	4317      	orrs	r7, r2
 8006f76:	011b      	lsls	r3, r3, #4
 8006f78:	0209      	lsls	r1, r1, #8
 8006f7a:	b2db      	uxtb	r3, r3
 8006f7c:	f027 07f0 	bic.w	r7, r7, #240	; 0xf0
 8006f80:	f425 7500 	bic.w	r5, r5, #512	; 0x200
 8006f84:	f401 7100 	and.w	r1, r1, #512	; 0x200
 8006f88:	431f      	orrs	r7, r3
 8006f8a:	4329      	orrs	r1, r5
 8006f8c:	61c7      	str	r7, [r0, #28]
 8006f8e:	6201      	str	r1, [r0, #32]
 8006f90:	69c3      	ldr	r3, [r0, #28]
 8006f92:	f023 030c 	bic.w	r3, r3, #12
 8006f96:	61c3      	str	r3, [r0, #28]
 8006f98:	69c3      	ldr	r3, [r0, #28]
 8006f9a:	431e      	orrs	r6, r3
 8006f9c:	61c6      	str	r6, [r0, #28]
 8006f9e:	e7b5      	b.n	8006f0c <HAL_TIM_IC_ConfigChannel+0x34>
 8006fa0:	f425 5580 	bic.w	r5, r5, #4096	; 0x1000
 8006fa4:	6205      	str	r5, [r0, #32]
 8006fa6:	69c5      	ldr	r5, [r0, #28]
 8006fa8:	6a07      	ldr	r7, [r0, #32]
 8006faa:	f425 7540 	bic.w	r5, r5, #768	; 0x300
 8006fae:	ea45 2502 	orr.w	r5, r5, r2, lsl #8
 8006fb2:	031b      	lsls	r3, r3, #12
 8006fb4:	0309      	lsls	r1, r1, #12
 8006fb6:	f425 4570 	bic.w	r5, r5, #61440	; 0xf000
 8006fba:	b29b      	uxth	r3, r3
 8006fbc:	f427 5700 	bic.w	r7, r7, #8192	; 0x2000
 8006fc0:	f401 5100 	and.w	r1, r1, #8192	; 0x2000
 8006fc4:	432b      	orrs	r3, r5
 8006fc6:	4339      	orrs	r1, r7
 8006fc8:	61c3      	str	r3, [r0, #28]
 8006fca:	6201      	str	r1, [r0, #32]
 8006fcc:	69c3      	ldr	r3, [r0, #28]
 8006fce:	f423 6340 	bic.w	r3, r3, #3072	; 0xc00
 8006fd2:	61c3      	str	r3, [r0, #28]
 8006fd4:	69c3      	ldr	r3, [r0, #28]
 8006fd6:	ea43 2606 	orr.w	r6, r3, r6, lsl #8
 8006fda:	e7df      	b.n	8006f9c <HAL_TIM_IC_ConfigChannel+0xc4>
 8006fdc:	2002      	movs	r0, #2
 8006fde:	e798      	b.n	8006f12 <HAL_TIM_IC_ConfigChannel+0x3a>

08006fe0 <TIM_ETR_SetConfig>:
 8006fe0:	b510      	push	{r4, lr}
 8006fe2:	6884      	ldr	r4, [r0, #8]
 8006fe4:	430a      	orrs	r2, r1
 8006fe6:	f424 447f 	bic.w	r4, r4, #65280	; 0xff00
 8006fea:	ea42 2203 	orr.w	r2, r2, r3, lsl #8
 8006fee:	4322      	orrs	r2, r4
 8006ff0:	6082      	str	r2, [r0, #8]
 8006ff2:	bd10      	pop	{r4, pc}

08006ff4 <HAL_TIM_ConfigClockSource>:
 8006ff4:	b570      	push	{r4, r5, r6, lr}
 8006ff6:	f890 303c 	ldrb.w	r3, [r0, #60]	; 0x3c
 8006ffa:	4604      	mov	r4, r0
 8006ffc:	2b01      	cmp	r3, #1
 8006ffe:	f04f 0002 	mov.w	r0, #2
 8007002:	d027      	beq.n	8007054 <HAL_TIM_ConfigClockSource+0x60>
 8007004:	2301      	movs	r3, #1
 8007006:	f884 003d 	strb.w	r0, [r4, #61]	; 0x3d
 800700a:	6820      	ldr	r0, [r4, #0]
 800700c:	f884 303c 	strb.w	r3, [r4, #60]	; 0x3c
 8007010:	6883      	ldr	r3, [r0, #8]
 8007012:	f423 437f 	bic.w	r3, r3, #65280	; 0xff00
 8007016:	f023 0377 	bic.w	r3, r3, #119	; 0x77
 800701a:	6083      	str	r3, [r0, #8]
 800701c:	680b      	ldr	r3, [r1, #0]
 800701e:	2b60      	cmp	r3, #96	; 0x60
 8007020:	d04d      	beq.n	80070be <HAL_TIM_ConfigClockSource+0xca>
 8007022:	d832      	bhi.n	800708a <HAL_TIM_ConfigClockSource+0x96>
 8007024:	2b40      	cmp	r3, #64	; 0x40
 8007026:	d062      	beq.n	80070ee <HAL_TIM_ConfigClockSource+0xfa>
 8007028:	d815      	bhi.n	8007056 <HAL_TIM_ConfigClockSource+0x62>
 800702a:	2b20      	cmp	r3, #32
 800702c:	d003      	beq.n	8007036 <HAL_TIM_ConfigClockSource+0x42>
 800702e:	d809      	bhi.n	8007044 <HAL_TIM_ConfigClockSource+0x50>
 8007030:	f033 0210 	bics.w	r2, r3, #16
 8007034:	d108      	bne.n	8007048 <HAL_TIM_ConfigClockSource+0x54>
 8007036:	6882      	ldr	r2, [r0, #8]
 8007038:	f022 0270 	bic.w	r2, r2, #112	; 0x70
 800703c:	4313      	orrs	r3, r2
 800703e:	f043 0307 	orr.w	r3, r3, #7
 8007042:	e020      	b.n	8007086 <HAL_TIM_ConfigClockSource+0x92>
 8007044:	2b30      	cmp	r3, #48	; 0x30
 8007046:	d0f6      	beq.n	8007036 <HAL_TIM_ConfigClockSource+0x42>
 8007048:	2301      	movs	r3, #1
 800704a:	2000      	movs	r0, #0
 800704c:	f884 303d 	strb.w	r3, [r4, #61]	; 0x3d
 8007050:	f884 003c 	strb.w	r0, [r4, #60]	; 0x3c
 8007054:	bd70      	pop	{r4, r5, r6, pc}
 8007056:	2b50      	cmp	r3, #80	; 0x50
 8007058:	d1f6      	bne.n	8007048 <HAL_TIM_ConfigClockSource+0x54>
 800705a:	684a      	ldr	r2, [r1, #4]
 800705c:	68ce      	ldr	r6, [r1, #12]
 800705e:	6a01      	ldr	r1, [r0, #32]
 8007060:	6a05      	ldr	r5, [r0, #32]
 8007062:	f021 010a 	bic.w	r1, r1, #10
 8007066:	f025 0501 	bic.w	r5, r5, #1
 800706a:	6205      	str	r5, [r0, #32]
 800706c:	6983      	ldr	r3, [r0, #24]
 800706e:	430a      	orrs	r2, r1
 8007070:	f023 03f0 	bic.w	r3, r3, #240	; 0xf0
 8007074:	ea43 1306 	orr.w	r3, r3, r6, lsl #4
 8007078:	6183      	str	r3, [r0, #24]
 800707a:	6202      	str	r2, [r0, #32]
 800707c:	6883      	ldr	r3, [r0, #8]
 800707e:	f023 0370 	bic.w	r3, r3, #112	; 0x70
 8007082:	f043 0357 	orr.w	r3, r3, #87	; 0x57
 8007086:	6083      	str	r3, [r0, #8]
 8007088:	e7de      	b.n	8007048 <HAL_TIM_ConfigClockSource+0x54>
 800708a:	2b70      	cmp	r3, #112	; 0x70
 800708c:	d00c      	beq.n	80070a8 <HAL_TIM_ConfigClockSource+0xb4>
 800708e:	f5b3 5f00 	cmp.w	r3, #8192	; 0x2000
 8007092:	d1d9      	bne.n	8007048 <HAL_TIM_ConfigClockSource+0x54>
 8007094:	68cb      	ldr	r3, [r1, #12]
 8007096:	e9d1 2101 	ldrd	r2, r1, [r1, #4]
 800709a:	f7ff ffa1 	bl	8006fe0 <TIM_ETR_SetConfig>
 800709e:	6822      	ldr	r2, [r4, #0]
 80070a0:	6893      	ldr	r3, [r2, #8]
 80070a2:	f443 4380 	orr.w	r3, r3, #16384	; 0x4000
 80070a6:	e008      	b.n	80070ba <HAL_TIM_ConfigClockSource+0xc6>
 80070a8:	68cb      	ldr	r3, [r1, #12]
 80070aa:	e9d1 2101 	ldrd	r2, r1, [r1, #4]
 80070ae:	f7ff ff97 	bl	8006fe0 <TIM_ETR_SetConfig>
 80070b2:	6822      	ldr	r2, [r4, #0]
 80070b4:	6893      	ldr	r3, [r2, #8]
 80070b6:	f043 0377 	orr.w	r3, r3, #119	; 0x77
 80070ba:	6093      	str	r3, [r2, #8]
 80070bc:	e7c4      	b.n	8007048 <HAL_TIM_ConfigClockSource+0x54>
 80070be:	684d      	ldr	r5, [r1, #4]
 80070c0:	68ce      	ldr	r6, [r1, #12]
 80070c2:	6a01      	ldr	r1, [r0, #32]
 80070c4:	f021 0110 	bic.w	r1, r1, #16
 80070c8:	6201      	str	r1, [r0, #32]
 80070ca:	6982      	ldr	r2, [r0, #24]
 80070cc:	6a03      	ldr	r3, [r0, #32]
 80070ce:	f422 4270 	bic.w	r2, r2, #61440	; 0xf000
 80070d2:	f023 03a0 	bic.w	r3, r3, #160	; 0xa0
 80070d6:	ea43 1305 	orr.w	r3, r3, r5, lsl #4
 80070da:	ea42 3206 	orr.w	r2, r2, r6, lsl #12
 80070de:	6182      	str	r2, [r0, #24]
 80070e0:	6203      	str	r3, [r0, #32]
 80070e2:	6883      	ldr	r3, [r0, #8]
 80070e4:	f023 0370 	bic.w	r3, r3, #112	; 0x70
 80070e8:	f043 0367 	orr.w	r3, r3, #103	; 0x67
 80070ec:	e7cb      	b.n	8007086 <HAL_TIM_ConfigClockSource+0x92>
 80070ee:	684a      	ldr	r2, [r1, #4]
 80070f0:	68ce      	ldr	r6, [r1, #12]
 80070f2:	6a01      	ldr	r1, [r0, #32]
 80070f4:	6a05      	ldr	r5, [r0, #32]
 80070f6:	f021 010a 	bic.w	r1, r1, #10
 80070fa:	f025 0501 	bic.w	r5, r5, #1
 80070fe:	6205      	str	r5, [r0, #32]
 8007100:	6983      	ldr	r3, [r0, #24]
 8007102:	430a      	orrs	r2, r1
 8007104:	f023 03f0 	bic.w	r3, r3, #240	; 0xf0
 8007108:	ea43 1306 	orr.w	r3, r3, r6, lsl #4
 800710c:	6183      	str	r3, [r0, #24]
 800710e:	6202      	str	r2, [r0, #32]
 8007110:	6883      	ldr	r3, [r0, #8]
 8007112:	f023 0370 	bic.w	r3, r3, #112	; 0x70
 8007116:	f043 0347 	orr.w	r3, r3, #71	; 0x47
 800711a:	e7b4      	b.n	8007086 <HAL_TIM_ConfigClockSource+0x92>

0800711c <TIM_SlaveTimer_SetConfig>:
 800711c:	6800      	ldr	r0, [r0, #0]
 800711e:	b538      	push	{r3, r4, r5, lr}
 8007120:	6883      	ldr	r3, [r0, #8]
 8007122:	684a      	ldr	r2, [r1, #4]
 8007124:	f023 0370 	bic.w	r3, r3, #112	; 0x70
 8007128:	680c      	ldr	r4, [r1, #0]
 800712a:	4313      	orrs	r3, r2
 800712c:	f023 0307 	bic.w	r3, r3, #7
 8007130:	4323      	orrs	r3, r4
 8007132:	2a60      	cmp	r2, #96	; 0x60
 8007134:	6083      	str	r3, [r0, #8]
 8007136:	d02e      	beq.n	8007196 <TIM_SlaveTimer_SetConfig+0x7a>
 8007138:	d805      	bhi.n	8007146 <TIM_SlaveTimer_SetConfig+0x2a>
 800713a:	2a40      	cmp	r2, #64	; 0x40
 800713c:	d00b      	beq.n	8007156 <TIM_SlaveTimer_SetConfig+0x3a>
 800713e:	2a50      	cmp	r2, #80	; 0x50
 8007140:	d019      	beq.n	8007176 <TIM_SlaveTimer_SetConfig+0x5a>
 8007142:	2000      	movs	r0, #0
 8007144:	bd38      	pop	{r3, r4, r5, pc}
 8007146:	2a70      	cmp	r2, #112	; 0x70
 8007148:	d1fb      	bne.n	8007142 <TIM_SlaveTimer_SetConfig+0x26>
 800714a:	690b      	ldr	r3, [r1, #16]
 800714c:	e9d1 2102 	ldrd	r2, r1, [r1, #8]
 8007150:	f7ff ff46 	bl	8006fe0 <TIM_ETR_SetConfig>
 8007154:	e7f5      	b.n	8007142 <TIM_SlaveTimer_SetConfig+0x26>
 8007156:	2c05      	cmp	r4, #5
 8007158:	d030      	beq.n	80071bc <TIM_SlaveTimer_SetConfig+0xa0>
 800715a:	6a02      	ldr	r2, [r0, #32]
 800715c:	6a03      	ldr	r3, [r0, #32]
 800715e:	6909      	ldr	r1, [r1, #16]
 8007160:	f023 0301 	bic.w	r3, r3, #1
 8007164:	6203      	str	r3, [r0, #32]
 8007166:	6983      	ldr	r3, [r0, #24]
 8007168:	f023 03f0 	bic.w	r3, r3, #240	; 0xf0
 800716c:	ea43 1301 	orr.w	r3, r3, r1, lsl #4
 8007170:	6183      	str	r3, [r0, #24]
 8007172:	6202      	str	r2, [r0, #32]
 8007174:	e7e5      	b.n	8007142 <TIM_SlaveTimer_SetConfig+0x26>
 8007176:	688a      	ldr	r2, [r1, #8]
 8007178:	690d      	ldr	r5, [r1, #16]
 800717a:	6a01      	ldr	r1, [r0, #32]
 800717c:	6a04      	ldr	r4, [r0, #32]
 800717e:	f021 010a 	bic.w	r1, r1, #10
 8007182:	f024 0401 	bic.w	r4, r4, #1
 8007186:	6204      	str	r4, [r0, #32]
 8007188:	6983      	ldr	r3, [r0, #24]
 800718a:	430a      	orrs	r2, r1
 800718c:	f023 03f0 	bic.w	r3, r3, #240	; 0xf0
 8007190:	ea43 1305 	orr.w	r3, r3, r5, lsl #4
 8007194:	e7ec      	b.n	8007170 <TIM_SlaveTimer_SetConfig+0x54>
 8007196:	688c      	ldr	r4, [r1, #8]
 8007198:	690d      	ldr	r5, [r1, #16]
 800719a:	6a01      	ldr	r1, [r0, #32]
 800719c:	f021 0110 	bic.w	r1, r1, #16
 80071a0:	6201      	str	r1, [r0, #32]
 80071a2:	6982      	ldr	r2, [r0, #24]
 80071a4:	6a03      	ldr	r3, [r0, #32]
 80071a6:	f422 4270 	bic.w	r2, r2, #61440	; 0xf000
 80071aa:	f023 03a0 	bic.w	r3, r3, #160	; 0xa0
 80071ae:	ea42 3205 	orr.w	r2, r2, r5, lsl #12
 80071b2:	ea43 1304 	orr.w	r3, r3, r4, lsl #4
 80071b6:	6182      	str	r2, [r0, #24]
 80071b8:	6203      	str	r3, [r0, #32]
 80071ba:	e7c2      	b.n	8007142 <TIM_SlaveTimer_SetConfig+0x26>
 80071bc:	2001      	movs	r0, #1
 80071be:	e7c1      	b.n	8007144 <TIM_SlaveTimer_SetConfig+0x28>

080071c0 <HAL_TIM_SlaveConfigSynchro>:
 80071c0:	b538      	push	{r3, r4, r5, lr}
 80071c2:	f890 303c 	ldrb.w	r3, [r0, #60]	; 0x3c
 80071c6:	4604      	mov	r4, r0
 80071c8:	2b01      	cmp	r3, #1
 80071ca:	f04f 0302 	mov.w	r3, #2
 80071ce:	d01c      	beq.n	800720a <HAL_TIM_SlaveConfigSynchro+0x4a>
 80071d0:	2501      	movs	r5, #1
 80071d2:	f880 303d 	strb.w	r3, [r0, #61]	; 0x3d
 80071d6:	f880 503c 	strb.w	r5, [r0, #60]	; 0x3c
 80071da:	f7ff ff9f 	bl	800711c <TIM_SlaveTimer_SetConfig>
 80071de:	b130      	cbz	r0, 80071ee <HAL_TIM_SlaveConfigSynchro+0x2e>
 80071e0:	2300      	movs	r3, #0
 80071e2:	4628      	mov	r0, r5
 80071e4:	f884 503d 	strb.w	r5, [r4, #61]	; 0x3d
 80071e8:	f884 303c 	strb.w	r3, [r4, #60]	; 0x3c
 80071ec:	bd38      	pop	{r3, r4, r5, pc}
 80071ee:	6823      	ldr	r3, [r4, #0]
 80071f0:	68da      	ldr	r2, [r3, #12]
 80071f2:	f022 0240 	bic.w	r2, r2, #64	; 0x40
 80071f6:	60da      	str	r2, [r3, #12]
 80071f8:	68da      	ldr	r2, [r3, #12]
 80071fa:	f422 4280 	bic.w	r2, r2, #16384	; 0x4000
 80071fe:	60da      	str	r2, [r3, #12]
 8007200:	f884 503d 	strb.w	r5, [r4, #61]	; 0x3d
 8007204:	f884 003c 	strb.w	r0, [r4, #60]	; 0x3c
 8007208:	e7f0      	b.n	80071ec <HAL_TIM_SlaveConfigSynchro+0x2c>
 800720a:	4618      	mov	r0, r3
 800720c:	e7ee      	b.n	80071ec <HAL_TIM_SlaveConfigSynchro+0x2c>

0800720e <TIM_CCxChannelCmd>:
 800720e:	b510      	push	{r4, lr}
 8007210:	2401      	movs	r4, #1
 8007212:	6a03      	ldr	r3, [r0, #32]
 8007214:	f001 011f 	and.w	r1, r1, #31
 8007218:	408c      	lsls	r4, r1
 800721a:	ea23 0304 	bic.w	r3, r3, r4
 800721e:	6203      	str	r3, [r0, #32]
 8007220:	6a03      	ldr	r3, [r0, #32]
 8007222:	408a      	lsls	r2, r1
 8007224:	431a      	orrs	r2, r3
 8007226:	6202      	str	r2, [r0, #32]
 8007228:	bd10      	pop	{r4, pc}
	...

0800722c <HAL_TIM_OC_Start>:
 800722c:	b510      	push	{r4, lr}
 800722e:	4604      	mov	r4, r0
 8007230:	b929      	cbnz	r1, 800723e <HAL_TIM_OC_Start+0x12>
 8007232:	f890 303e 	ldrb.w	r3, [r0, #62]	; 0x3e
 8007236:	2b01      	cmp	r3, #1
 8007238:	d01d      	beq.n	8007276 <HAL_TIM_OC_Start+0x4a>
 800723a:	2001      	movs	r0, #1
 800723c:	bd10      	pop	{r4, pc}
 800723e:	2904      	cmp	r1, #4
 8007240:	d107      	bne.n	8007252 <HAL_TIM_OC_Start+0x26>
 8007242:	f890 303f 	ldrb.w	r3, [r0, #63]	; 0x3f
 8007246:	2b01      	cmp	r3, #1
 8007248:	d1f7      	bne.n	800723a <HAL_TIM_OC_Start+0xe>
 800724a:	2302      	movs	r3, #2
 800724c:	f880 303f 	strb.w	r3, [r0, #63]	; 0x3f
 8007250:	e014      	b.n	800727c <HAL_TIM_OC_Start+0x50>
 8007252:	2908      	cmp	r1, #8
 8007254:	d107      	bne.n	8007266 <HAL_TIM_OC_Start+0x3a>
 8007256:	f890 3040 	ldrb.w	r3, [r0, #64]	; 0x40
 800725a:	2b01      	cmp	r3, #1
 800725c:	d1ed      	bne.n	800723a <HAL_TIM_OC_Start+0xe>
 800725e:	2302      	movs	r3, #2
 8007260:	f880 3040 	strb.w	r3, [r0, #64]	; 0x40
 8007264:	e00a      	b.n	800727c <HAL_TIM_OC_Start+0x50>
 8007266:	f890 3041 	ldrb.w	r3, [r0, #65]	; 0x41
 800726a:	2b01      	cmp	r3, #1
 800726c:	d1e5      	bne.n	800723a <HAL_TIM_OC_Start+0xe>
 800726e:	2302      	movs	r3, #2
 8007270:	f880 3041 	strb.w	r3, [r0, #65]	; 0x41
 8007274:	e002      	b.n	800727c <HAL_TIM_OC_Start+0x50>
 8007276:	2302      	movs	r3, #2
 8007278:	f880 303e 	strb.w	r3, [r0, #62]	; 0x3e
 800727c:	2201      	movs	r2, #1
 800727e:	6820      	ldr	r0, [r4, #0]
 8007280:	f7ff ffc5 	bl	800720e <TIM_CCxChannelCmd>
 8007284:	6823      	ldr	r3, [r4, #0]
 8007286:	4a0e      	ldr	r2, [pc, #56]	; (80072c0 <HAL_TIM_OC_Start+0x94>)
 8007288:	4293      	cmp	r3, r2
 800728a:	d10a      	bne.n	80072a2 <HAL_TIM_OC_Start+0x76>
 800728c:	6c5a      	ldr	r2, [r3, #68]	; 0x44
 800728e:	f442 4200 	orr.w	r2, r2, #32768	; 0x8000
 8007292:	645a      	str	r2, [r3, #68]	; 0x44
 8007294:	689a      	ldr	r2, [r3, #8]
 8007296:	f002 0207 	and.w	r2, r2, #7
 800729a:	2a06      	cmp	r2, #6
 800729c:	d10b      	bne.n	80072b6 <HAL_TIM_OC_Start+0x8a>
 800729e:	2000      	movs	r0, #0
 80072a0:	e7cc      	b.n	800723c <HAL_TIM_OC_Start+0x10>
 80072a2:	f1b3 4f80 	cmp.w	r3, #1073741824	; 0x40000000
 80072a6:	d0f5      	beq.n	8007294 <HAL_TIM_OC_Start+0x68>
 80072a8:	4a06      	ldr	r2, [pc, #24]	; (80072c4 <HAL_TIM_OC_Start+0x98>)
 80072aa:	4293      	cmp	r3, r2
 80072ac:	d0f2      	beq.n	8007294 <HAL_TIM_OC_Start+0x68>
 80072ae:	f502 6280 	add.w	r2, r2, #1024	; 0x400
 80072b2:	4293      	cmp	r3, r2
 80072b4:	d0ee      	beq.n	8007294 <HAL_TIM_OC_Start+0x68>
 80072b6:	681a      	ldr	r2, [r3, #0]
 80072b8:	f042 0201 	orr.w	r2, r2, #1
 80072bc:	601a      	str	r2, [r3, #0]
 80072be:	e7ee      	b.n	800729e <HAL_TIM_OC_Start+0x72>
 80072c0:	40012c00 	.word	0x40012c00
 80072c4:	40000400 	.word	0x40000400

080072c8 <HAL_TIM_OC_Stop>:
 80072c8:	b538      	push	{r3, r4, r5, lr}
 80072ca:	4604      	mov	r4, r0
 80072cc:	2200      	movs	r2, #0
 80072ce:	6800      	ldr	r0, [r0, #0]
 80072d0:	460d      	mov	r5, r1
 80072d2:	f7ff ff9c 	bl	800720e <TIM_CCxChannelCmd>
 80072d6:	6823      	ldr	r3, [r4, #0]
 80072d8:	4a18      	ldr	r2, [pc, #96]	; (800733c <HAL_TIM_OC_Stop+0x74>)
 80072da:	4293      	cmp	r3, r2
 80072dc:	d10d      	bne.n	80072fa <HAL_TIM_OC_Stop+0x32>
 80072de:	f241 1211 	movw	r2, #4369	; 0x1111
 80072e2:	6a19      	ldr	r1, [r3, #32]
 80072e4:	4211      	tst	r1, r2
 80072e6:	d108      	bne.n	80072fa <HAL_TIM_OC_Stop+0x32>
 80072e8:	f240 4244 	movw	r2, #1092	; 0x444
 80072ec:	6a19      	ldr	r1, [r3, #32]
 80072ee:	4211      	tst	r1, r2
 80072f0:	bf02      	ittt	eq
 80072f2:	6c5a      	ldreq	r2, [r3, #68]	; 0x44
 80072f4:	f422 4200 	biceq.w	r2, r2, #32768	; 0x8000
 80072f8:	645a      	streq	r2, [r3, #68]	; 0x44
 80072fa:	f241 1211 	movw	r2, #4369	; 0x1111
 80072fe:	6a19      	ldr	r1, [r3, #32]
 8007300:	4211      	tst	r1, r2
 8007302:	d108      	bne.n	8007316 <HAL_TIM_OC_Stop+0x4e>
 8007304:	f240 4244 	movw	r2, #1092	; 0x444
 8007308:	6a19      	ldr	r1, [r3, #32]
 800730a:	4211      	tst	r1, r2
 800730c:	bf02      	ittt	eq
 800730e:	681a      	ldreq	r2, [r3, #0]
 8007310:	f022 0201 	biceq.w	r2, r2, #1
 8007314:	601a      	streq	r2, [r3, #0]
 8007316:	2301      	movs	r3, #1
 8007318:	b91d      	cbnz	r5, 8007322 <HAL_TIM_OC_Stop+0x5a>
 800731a:	f884 303e 	strb.w	r3, [r4, #62]	; 0x3e
 800731e:	2000      	movs	r0, #0
 8007320:	bd38      	pop	{r3, r4, r5, pc}
 8007322:	2d04      	cmp	r5, #4
 8007324:	d102      	bne.n	800732c <HAL_TIM_OC_Stop+0x64>
 8007326:	f884 303f 	strb.w	r3, [r4, #63]	; 0x3f
 800732a:	e7f8      	b.n	800731e <HAL_TIM_OC_Stop+0x56>
 800732c:	2d08      	cmp	r5, #8
 800732e:	bf0c      	ite	eq
 8007330:	f884 3040 	strbeq.w	r3, [r4, #64]	; 0x40
 8007334:	f884 3041 	strbne.w	r3, [r4, #65]	; 0x41
 8007338:	e7f1      	b.n	800731e <HAL_TIM_OC_Stop+0x56>
 800733a:	bf00      	nop
 800733c:	40012c00 	.word	0x40012c00

08007340 <HAL_TIM_IC_Start_DMA>:
 8007340:	e92d 41f0 	stmdb	sp!, {r4, r5, r6, r7, r8, lr}
 8007344:	4604      	mov	r4, r0
 8007346:	4616      	mov	r6, r2
 8007348:	461f      	mov	r7, r3
 800734a:	4688      	mov	r8, r1
 800734c:	b979      	cbnz	r1, 800736e <HAL_TIM_IC_Start_DMA+0x2e>
 800734e:	f890 003e 	ldrb.w	r0, [r0, #62]	; 0x3e
 8007352:	f894 5042 	ldrb.w	r5, [r4, #66]	; 0x42
 8007356:	b2c0      	uxtb	r0, r0
 8007358:	2802      	cmp	r0, #2
 800735a:	b2ed      	uxtb	r5, r5
 800735c:	d005      	beq.n	800736a <HAL_TIM_IC_Start_DMA+0x2a>
 800735e:	2d02      	cmp	r5, #2
 8007360:	f000 80b8 	beq.w	80074d4 <HAL_TIM_IC_Start_DMA+0x194>
 8007364:	2801      	cmp	r0, #1
 8007366:	d018      	beq.n	800739a <HAL_TIM_IC_Start_DMA+0x5a>
 8007368:	2001      	movs	r0, #1
 800736a:	e8bd 81f0 	ldmia.w	sp!, {r4, r5, r6, r7, r8, pc}
 800736e:	2904      	cmp	r1, #4
 8007370:	d105      	bne.n	800737e <HAL_TIM_IC_Start_DMA+0x3e>
 8007372:	f890 003f 	ldrb.w	r0, [r0, #63]	; 0x3f
 8007376:	f894 5043 	ldrb.w	r5, [r4, #67]	; 0x43
 800737a:	b2c0      	uxtb	r0, r0
 800737c:	e7ec      	b.n	8007358 <HAL_TIM_IC_Start_DMA+0x18>
 800737e:	2908      	cmp	r1, #8
 8007380:	bf0b      	itete	eq
 8007382:	f890 0040 	ldrbeq.w	r0, [r0, #64]	; 0x40
 8007386:	f894 0041 	ldrbne.w	r0, [r4, #65]	; 0x41
 800738a:	f894 5044 	ldrbeq.w	r5, [r4, #68]	; 0x44
 800738e:	f894 5045 	ldrbne.w	r5, [r4, #69]	; 0x45
 8007392:	bf0c      	ite	eq
 8007394:	b2c0      	uxtbeq	r0, r0
 8007396:	b2c0      	uxtbne	r0, r0
 8007398:	e7de      	b.n	8007358 <HAL_TIM_IC_Start_DMA+0x18>
 800739a:	2d01      	cmp	r5, #1
 800739c:	d1e4      	bne.n	8007368 <HAL_TIM_IC_Start_DMA+0x28>
 800739e:	b90e      	cbnz	r6, 80073a4 <HAL_TIM_IC_Start_DMA+0x64>
 80073a0:	2f00      	cmp	r7, #0
 80073a2:	d1e1      	bne.n	8007368 <HAL_TIM_IC_Start_DMA+0x28>
 80073a4:	2302      	movs	r3, #2
 80073a6:	f1b8 0f00 	cmp.w	r8, #0
 80073aa:	d12c      	bne.n	8007406 <HAL_TIM_IC_Start_DMA+0xc6>
 80073ac:	f884 303e 	strb.w	r3, [r4, #62]	; 0x3e
 80073b0:	f884 3042 	strb.w	r3, [r4, #66]	; 0x42
 80073b4:	4641      	mov	r1, r8
 80073b6:	2201      	movs	r2, #1
 80073b8:	6820      	ldr	r0, [r4, #0]
 80073ba:	f7ff ff28 	bl	800720e <TIM_CCxChannelCmd>
 80073be:	6821      	ldr	r1, [r4, #0]
 80073c0:	4b45      	ldr	r3, [pc, #276]	; (80074d8 <HAL_TIM_IC_Start_DMA+0x198>)
 80073c2:	4299      	cmp	r1, r3
 80073c4:	d00a      	beq.n	80073dc <HAL_TIM_IC_Start_DMA+0x9c>
 80073c6:	f1b1 4f80 	cmp.w	r1, #1073741824	; 0x40000000
 80073ca:	d007      	beq.n	80073dc <HAL_TIM_IC_Start_DMA+0x9c>
 80073cc:	f5a3 3394 	sub.w	r3, r3, #75776	; 0x12800
 80073d0:	4299      	cmp	r1, r3
 80073d2:	d003      	beq.n	80073dc <HAL_TIM_IC_Start_DMA+0x9c>
 80073d4:	f503 6380 	add.w	r3, r3, #1024	; 0x400
 80073d8:	4299      	cmp	r1, r3
 80073da:	d104      	bne.n	80073e6 <HAL_TIM_IC_Start_DMA+0xa6>
 80073dc:	688b      	ldr	r3, [r1, #8]
 80073de:	f003 0307 	and.w	r3, r3, #7
 80073e2:	2b06      	cmp	r3, #6
 80073e4:	d003      	beq.n	80073ee <HAL_TIM_IC_Start_DMA+0xae>
 80073e6:	680b      	ldr	r3, [r1, #0]
 80073e8:	f043 0301 	orr.w	r3, r3, #1
 80073ec:	600b      	str	r3, [r1, #0]
 80073ee:	f1b8 0f08 	cmp.w	r8, #8
 80073f2:	d05b      	beq.n	80074ac <HAL_TIM_IC_Start_DMA+0x16c>
 80073f4:	d81b      	bhi.n	800742e <HAL_TIM_IC_Start_DMA+0xee>
 80073f6:	f1b8 0f00 	cmp.w	r8, #0
 80073fa:	d02e      	beq.n	800745a <HAL_TIM_IC_Start_DMA+0x11a>
 80073fc:	f1b8 0f04 	cmp.w	r8, #4
 8007400:	d040      	beq.n	8007484 <HAL_TIM_IC_Start_DMA+0x144>
 8007402:	2000      	movs	r0, #0
 8007404:	e7b1      	b.n	800736a <HAL_TIM_IC_Start_DMA+0x2a>
 8007406:	f1b8 0f04 	cmp.w	r8, #4
 800740a:	d104      	bne.n	8007416 <HAL_TIM_IC_Start_DMA+0xd6>
 800740c:	f884 303f 	strb.w	r3, [r4, #63]	; 0x3f
 8007410:	f884 3043 	strb.w	r3, [r4, #67]	; 0x43
 8007414:	e7ce      	b.n	80073b4 <HAL_TIM_IC_Start_DMA+0x74>
 8007416:	f1b8 0f08 	cmp.w	r8, #8
 800741a:	bf0b      	itete	eq
 800741c:	f884 3040 	strbeq.w	r3, [r4, #64]	; 0x40
 8007420:	f884 3041 	strbne.w	r3, [r4, #65]	; 0x41
 8007424:	f884 3044 	strbeq.w	r3, [r4, #68]	; 0x44
 8007428:	f884 3045 	strbne.w	r3, [r4, #69]	; 0x45
 800742c:	e7c2      	b.n	80073b4 <HAL_TIM_IC_Start_DMA+0x74>
 800742e:	f1b8 0f0c 	cmp.w	r8, #12
 8007432:	d1e6      	bne.n	8007402 <HAL_TIM_IC_Start_DMA+0xc2>
 8007434:	6b20      	ldr	r0, [r4, #48]	; 0x30
 8007436:	4b29      	ldr	r3, [pc, #164]	; (80074dc <HAL_TIM_IC_Start_DMA+0x19c>)
 8007438:	4632      	mov	r2, r6
 800743a:	6283      	str	r3, [r0, #40]	; 0x28
 800743c:	4b28      	ldr	r3, [pc, #160]	; (80074e0 <HAL_TIM_IC_Start_DMA+0x1a0>)
 800743e:	3140      	adds	r1, #64	; 0x40
 8007440:	62c3      	str	r3, [r0, #44]	; 0x2c
 8007442:	4b28      	ldr	r3, [pc, #160]	; (80074e4 <HAL_TIM_IC_Start_DMA+0x1a4>)
 8007444:	6303      	str	r3, [r0, #48]	; 0x30
 8007446:	463b      	mov	r3, r7
 8007448:	f7fd fcec 	bl	8004e24 <HAL_DMA_Start_IT>
 800744c:	2800      	cmp	r0, #0
 800744e:	d18b      	bne.n	8007368 <HAL_TIM_IC_Start_DMA+0x28>
 8007450:	6822      	ldr	r2, [r4, #0]
 8007452:	68d3      	ldr	r3, [r2, #12]
 8007454:	f443 5380 	orr.w	r3, r3, #4096	; 0x1000
 8007458:	e012      	b.n	8007480 <HAL_TIM_IC_Start_DMA+0x140>
 800745a:	6a60      	ldr	r0, [r4, #36]	; 0x24
 800745c:	4b1f      	ldr	r3, [pc, #124]	; (80074dc <HAL_TIM_IC_Start_DMA+0x19c>)
 800745e:	4632      	mov	r2, r6
 8007460:	6283      	str	r3, [r0, #40]	; 0x28
 8007462:	4b1f      	ldr	r3, [pc, #124]	; (80074e0 <HAL_TIM_IC_Start_DMA+0x1a0>)
 8007464:	3134      	adds	r1, #52	; 0x34
 8007466:	62c3      	str	r3, [r0, #44]	; 0x2c
 8007468:	4b1e      	ldr	r3, [pc, #120]	; (80074e4 <HAL_TIM_IC_Start_DMA+0x1a4>)
 800746a:	6303      	str	r3, [r0, #48]	; 0x30
 800746c:	463b      	mov	r3, r7
 800746e:	f7fd fcd9 	bl	8004e24 <HAL_DMA_Start_IT>
 8007472:	2800      	cmp	r0, #0
 8007474:	f47f af78 	bne.w	8007368 <HAL_TIM_IC_Start_DMA+0x28>
 8007478:	6822      	ldr	r2, [r4, #0]
 800747a:	68d3      	ldr	r3, [r2, #12]
 800747c:	f443 7300 	orr.w	r3, r3, #512	; 0x200
 8007480:	60d3      	str	r3, [r2, #12]
 8007482:	e772      	b.n	800736a <HAL_TIM_IC_Start_DMA+0x2a>
 8007484:	6aa0      	ldr	r0, [r4, #40]	; 0x28
 8007486:	4b15      	ldr	r3, [pc, #84]	; (80074dc <HAL_TIM_IC_Start_DMA+0x19c>)
 8007488:	4632      	mov	r2, r6
 800748a:	6283      	str	r3, [r0, #40]	; 0x28
 800748c:	4b14      	ldr	r3, [pc, #80]	; (80074e0 <HAL_TIM_IC_Start_DMA+0x1a0>)
 800748e:	3138      	adds	r1, #56	; 0x38
 8007490:	62c3      	str	r3, [r0, #44]	; 0x2c
 8007492:	4b14      	ldr	r3, [pc, #80]	; (80074e4 <HAL_TIM_IC_Start_DMA+0x1a4>)
 8007494:	6303      	str	r3, [r0, #48]	; 0x30
 8007496:	463b      	mov	r3, r7
 8007498:	f7fd fcc4 	bl	8004e24 <HAL_DMA_Start_IT>
 800749c:	2800      	cmp	r0, #0
 800749e:	f47f af63 	bne.w	8007368 <HAL_TIM_IC_Start_DMA+0x28>
 80074a2:	6822      	ldr	r2, [r4, #0]
 80074a4:	68d3      	ldr	r3, [r2, #12]
 80074a6:	f443 6380 	orr.w	r3, r3, #1024	; 0x400
 80074aa:	e7e9      	b.n	8007480 <HAL_TIM_IC_Start_DMA+0x140>
 80074ac:	6ae0      	ldr	r0, [r4, #44]	; 0x2c
 80074ae:	4b0b      	ldr	r3, [pc, #44]	; (80074dc <HAL_TIM_IC_Start_DMA+0x19c>)
 80074b0:	4632      	mov	r2, r6
 80074b2:	6283      	str	r3, [r0, #40]	; 0x28
 80074b4:	4b0a      	ldr	r3, [pc, #40]	; (80074e0 <HAL_TIM_IC_Start_DMA+0x1a0>)
 80074b6:	313c      	adds	r1, #60	; 0x3c
 80074b8:	62c3      	str	r3, [r0, #44]	; 0x2c
 80074ba:	4b0a      	ldr	r3, [pc, #40]	; (80074e4 <HAL_TIM_IC_Start_DMA+0x1a4>)
 80074bc:	6303      	str	r3, [r0, #48]	; 0x30
 80074be:	463b      	mov	r3, r7
 80074c0:	f7fd fcb0 	bl	8004e24 <HAL_DMA_Start_IT>
 80074c4:	2800      	cmp	r0, #0
 80074c6:	f47f af4f 	bne.w	8007368 <HAL_TIM_IC_Start_DMA+0x28>
 80074ca:	6822      	ldr	r2, [r4, #0]
 80074cc:	68d3      	ldr	r3, [r2, #12]
 80074ce:	f443 6300 	orr.w	r3, r3, #2048	; 0x800
 80074d2:	e7d5      	b.n	8007480 <HAL_TIM_IC_Start_DMA+0x140>
 80074d4:	4628      	mov	r0, r5
 80074d6:	e748      	b.n	800736a <HAL_TIM_IC_Start_DMA+0x2a>
 80074d8:	40012c00 	.word	0x40012c00
 80074dc:	080069b1 	.word	0x080069b1
 80074e0:	08006a2d 	.word	0x08006a2d
 80074e4:	08006baf 	.word	0x08006baf

080074e8 <HAL_TIM_IC_Stop_DMA>:
 80074e8:	b538      	push	{r3, r4, r5, lr}
 80074ea:	460d      	mov	r5, r1
 80074ec:	4604      	mov	r4, r0
 80074ee:	2200      	movs	r2, #0
 80074f0:	6800      	ldr	r0, [r0, #0]
 80074f2:	f7ff fe8c 	bl	800720e <TIM_CCxChannelCmd>
 80074f6:	2d08      	cmp	r5, #8
 80074f8:	6823      	ldr	r3, [r4, #0]
 80074fa:	d030      	beq.n	800755e <HAL_TIM_IC_Stop_DMA+0x76>
 80074fc:	d819      	bhi.n	8007532 <HAL_TIM_IC_Stop_DMA+0x4a>
 80074fe:	b305      	cbz	r5, 8007542 <HAL_TIM_IC_Stop_DMA+0x5a>
 8007500:	2d04      	cmp	r5, #4
 8007502:	d026      	beq.n	8007552 <HAL_TIM_IC_Stop_DMA+0x6a>
 8007504:	f241 1211 	movw	r2, #4369	; 0x1111
 8007508:	6823      	ldr	r3, [r4, #0]
 800750a:	6a19      	ldr	r1, [r3, #32]
 800750c:	4211      	tst	r1, r2
 800750e:	d108      	bne.n	8007522 <HAL_TIM_IC_Stop_DMA+0x3a>
 8007510:	f240 4244 	movw	r2, #1092	; 0x444
 8007514:	6a19      	ldr	r1, [r3, #32]
 8007516:	4211      	tst	r1, r2
 8007518:	bf02      	ittt	eq
 800751a:	681a      	ldreq	r2, [r3, #0]
 800751c:	f022 0201 	biceq.w	r2, r2, #1
 8007520:	601a      	streq	r2, [r3, #0]
 8007522:	2301      	movs	r3, #1
 8007524:	bb0d      	cbnz	r5, 800756a <HAL_TIM_IC_Stop_DMA+0x82>
 8007526:	f884 303e 	strb.w	r3, [r4, #62]	; 0x3e
 800752a:	f884 3042 	strb.w	r3, [r4, #66]	; 0x42
 800752e:	2000      	movs	r0, #0
 8007530:	bd38      	pop	{r3, r4, r5, pc}
 8007532:	2d0c      	cmp	r5, #12
 8007534:	d1e6      	bne.n	8007504 <HAL_TIM_IC_Stop_DMA+0x1c>
 8007536:	68da      	ldr	r2, [r3, #12]
 8007538:	6b20      	ldr	r0, [r4, #48]	; 0x30
 800753a:	f422 5280 	bic.w	r2, r2, #4096	; 0x1000
 800753e:	60da      	str	r2, [r3, #12]
 8007540:	e004      	b.n	800754c <HAL_TIM_IC_Stop_DMA+0x64>
 8007542:	68da      	ldr	r2, [r3, #12]
 8007544:	6a60      	ldr	r0, [r4, #36]	; 0x24
 8007546:	f422 7200 	bic.w	r2, r2, #512	; 0x200
 800754a:	60da      	str	r2, [r3, #12]
 800754c:	f7fd fca6 	bl	8004e9c <HAL_DMA_Abort_IT>
 8007550:	e7d8      	b.n	8007504 <HAL_TIM_IC_Stop_DMA+0x1c>
 8007552:	68da      	ldr	r2, [r3, #12]
 8007554:	6aa0      	ldr	r0, [r4, #40]	; 0x28
 8007556:	f422 6280 	bic.w	r2, r2, #1024	; 0x400
 800755a:	60da      	str	r2, [r3, #12]
 800755c:	e7f6      	b.n	800754c <HAL_TIM_IC_Stop_DMA+0x64>
 800755e:	68da      	ldr	r2, [r3, #12]
 8007560:	6ae0      	ldr	r0, [r4, #44]	; 0x2c
 8007562:	f422 6200 	bic.w	r2, r2, #2048	; 0x800
 8007566:	60da      	str	r2, [r3, #12]
 8007568:	e7f0      	b.n	800754c <HAL_TIM_IC_Stop_DMA+0x64>
 800756a:	2d04      	cmp	r5, #4
 800756c:	d104      	bne.n	8007578 <HAL_TIM_IC_Stop_DMA+0x90>
 800756e:	f884 303f 	strb.w	r3, [r4, #63]	; 0x3f
 8007572:	f884 3043 	strb.w	r3, [r4, #67]	; 0x43
 8007576:	e7da      	b.n	800752e <HAL_TIM_IC_Stop_DMA+0x46>
 8007578:	2d08      	cmp	r5, #8
 800757a:	bf0b      	itete	eq
 800757c:	f884 3040 	strbeq.w	r3, [r4, #64]	; 0x40
 8007580:	f884 3041 	strbne.w	r3, [r4, #65]	; 0x41
 8007584:	f884 3044 	strbeq.w	r3, [r4, #68]	; 0x44
 8007588:	f884 3045 	strbne.w	r3, [r4, #69]	; 0x45
 800758c:	e7cf      	b.n	800752e <HAL_TIM_IC_Stop_DMA+0x46>
	...

08007590 <HAL_TIMEx_MasterConfigSynchronization>:
 8007590:	b530      	push	{r4, r5, lr}
 8007592:	f890 303c 	ldrb.w	r3, [r0, #60]	; 0x3c
 8007596:	4602      	mov	r2, r0
 8007598:	2b01      	cmp	r3, #1
 800759a:	f04f 0002 	mov.w	r0, #2
 800759e:	d022      	beq.n	80075e6 <HAL_TIMEx_MasterConfigSynchronization+0x56>
 80075a0:	6813      	ldr	r3, [r2, #0]
 80075a2:	f882 003d 	strb.w	r0, [r2, #61]	; 0x3d
 80075a6:	685c      	ldr	r4, [r3, #4]
 80075a8:	680d      	ldr	r5, [r1, #0]
 80075aa:	f024 0470 	bic.w	r4, r4, #112	; 0x70
 80075ae:	432c      	orrs	r4, r5
 80075b0:	6898      	ldr	r0, [r3, #8]
 80075b2:	605c      	str	r4, [r3, #4]
 80075b4:	4c0c      	ldr	r4, [pc, #48]	; (80075e8 <HAL_TIMEx_MasterConfigSynchronization+0x58>)
 80075b6:	42a3      	cmp	r3, r4
 80075b8:	d00a      	beq.n	80075d0 <HAL_TIMEx_MasterConfigSynchronization+0x40>
 80075ba:	f1b3 4f80 	cmp.w	r3, #1073741824	; 0x40000000
 80075be:	d007      	beq.n	80075d0 <HAL_TIMEx_MasterConfigSynchronization+0x40>
 80075c0:	f5a4 3494 	sub.w	r4, r4, #75776	; 0x12800
 80075c4:	42a3      	cmp	r3, r4
 80075c6:	d003      	beq.n	80075d0 <HAL_TIMEx_MasterConfigSynchronization+0x40>
 80075c8:	f504 6480 	add.w	r4, r4, #1024	; 0x400
 80075cc:	42a3      	cmp	r3, r4
 80075ce:	d104      	bne.n	80075da <HAL_TIMEx_MasterConfigSynchronization+0x4a>
 80075d0:	6849      	ldr	r1, [r1, #4]
 80075d2:	f020 0080 	bic.w	r0, r0, #128	; 0x80
 80075d6:	4301      	orrs	r1, r0
 80075d8:	6099      	str	r1, [r3, #8]
 80075da:	2301      	movs	r3, #1
 80075dc:	2000      	movs	r0, #0
 80075de:	f882 303d 	strb.w	r3, [r2, #61]	; 0x3d
 80075e2:	f882 003c 	strb.w	r0, [r2, #60]	; 0x3c
 80075e6:	bd30      	pop	{r4, r5, pc}
 80075e8:	40012c00 	.word	0x40012c00

080075ec <HAL_TIMEx_ConfigBreakDeadTime>:
 80075ec:	f890 303c 	ldrb.w	r3, [r0, #60]	; 0x3c
 80075f0:	2b01      	cmp	r3, #1
 80075f2:	d01f      	beq.n	8007634 <HAL_TIMEx_ConfigBreakDeadTime+0x48>
 80075f4:	68cb      	ldr	r3, [r1, #12]
 80075f6:	688a      	ldr	r2, [r1, #8]
 80075f8:	f423 7340 	bic.w	r3, r3, #768	; 0x300
 80075fc:	4313      	orrs	r3, r2
 80075fe:	684a      	ldr	r2, [r1, #4]
 8007600:	f423 6380 	bic.w	r3, r3, #1024	; 0x400
 8007604:	4313      	orrs	r3, r2
 8007606:	680a      	ldr	r2, [r1, #0]
 8007608:	f423 6300 	bic.w	r3, r3, #2048	; 0x800
 800760c:	4313      	orrs	r3, r2
 800760e:	690a      	ldr	r2, [r1, #16]
 8007610:	f423 5380 	bic.w	r3, r3, #4096	; 0x1000
 8007614:	4313      	orrs	r3, r2
 8007616:	694a      	ldr	r2, [r1, #20]
 8007618:	f423 5300 	bic.w	r3, r3, #8192	; 0x2000
 800761c:	4313      	orrs	r3, r2
 800761e:	69ca      	ldr	r2, [r1, #28]
 8007620:	f423 4380 	bic.w	r3, r3, #16384	; 0x4000
 8007624:	4313      	orrs	r3, r2
 8007626:	6802      	ldr	r2, [r0, #0]
 8007628:	6453      	str	r3, [r2, #68]	; 0x44
 800762a:	2300      	movs	r3, #0
 800762c:	f880 303c 	strb.w	r3, [r0, #60]	; 0x3c
 8007630:	4618      	mov	r0, r3
 8007632:	4770      	bx	lr
 8007634:	2002      	movs	r0, #2
 8007636:	4770      	bx	lr

08007638 <HAL_TIMEx_CommutCallback>:
 8007638:	4770      	bx	lr

0800763a <HAL_TIMEx_BreakCallback>:
 800763a:	4770      	bx	lr

0800763c <UART_SetConfig>:
 800763c:	b510      	push	{r4, lr}
 800763e:	4604      	mov	r4, r0
 8007640:	6803      	ldr	r3, [r0, #0]
 8007642:	68c1      	ldr	r1, [r0, #12]
 8007644:	691a      	ldr	r2, [r3, #16]
 8007646:	f422 5240 	bic.w	r2, r2, #12288	; 0x3000
 800764a:	430a      	orrs	r2, r1
 800764c:	611a      	str	r2, [r3, #16]
 800764e:	6882      	ldr	r2, [r0, #8]
 8007650:	6900      	ldr	r0, [r0, #16]
 8007652:	68d9      	ldr	r1, [r3, #12]
 8007654:	4302      	orrs	r2, r0
 8007656:	6960      	ldr	r0, [r4, #20]
 8007658:	f421 51b0 	bic.w	r1, r1, #5632	; 0x1600
 800765c:	f021 010c 	bic.w	r1, r1, #12
 8007660:	4302      	orrs	r2, r0
 8007662:	430a      	orrs	r2, r1
 8007664:	60da      	str	r2, [r3, #12]
 8007666:	695a      	ldr	r2, [r3, #20]
 8007668:	69a1      	ldr	r1, [r4, #24]
 800766a:	f422 7240 	bic.w	r2, r2, #768	; 0x300
 800766e:	430a      	orrs	r2, r1
 8007670:	615a      	str	r2, [r3, #20]
 8007672:	4a0e      	ldr	r2, [pc, #56]	; (80076ac <UART_SetConfig+0x70>)
 8007674:	4293      	cmp	r3, r2
 8007676:	d115      	bne.n	80076a4 <UART_SetConfig+0x68>
 8007678:	f7fe fdcc 	bl	8006214 <HAL_RCC_GetPCLK2Freq>
 800767c:	2319      	movs	r3, #25
 800767e:	4343      	muls	r3, r0
 8007680:	6862      	ldr	r2, [r4, #4]
 8007682:	6820      	ldr	r0, [r4, #0]
 8007684:	0092      	lsls	r2, r2, #2
 8007686:	fbb3 f3f2 	udiv	r3, r3, r2
 800768a:	2264      	movs	r2, #100	; 0x64
 800768c:	fbb3 f1f2 	udiv	r1, r3, r2
 8007690:	fb02 3311 	mls	r3, r2, r1, r3
 8007694:	011b      	lsls	r3, r3, #4
 8007696:	3332      	adds	r3, #50	; 0x32
 8007698:	fbb3 f3f2 	udiv	r3, r3, r2
 800769c:	eb03 1301 	add.w	r3, r3, r1, lsl #4
 80076a0:	6083      	str	r3, [r0, #8]
 80076a2:	bd10      	pop	{r4, pc}
 80076a4:	f7fe fda6 	bl	80061f4 <HAL_RCC_GetPCLK1Freq>
 80076a8:	e7e8      	b.n	800767c <UART_SetConfig+0x40>
 80076aa:	bf00      	nop
 80076ac:	40013800 	.word	0x40013800

080076b0 <UART_WaitOnFlagUntilTimeout.constprop.0>:
 80076b0:	b5f8      	push	{r3, r4, r5, r6, r7, lr}
 80076b2:	4604      	mov	r4, r0
 80076b4:	460e      	mov	r6, r1
 80076b6:	4617      	mov	r7, r2
 80076b8:	461d      	mov	r5, r3
 80076ba:	6822      	ldr	r2, [r4, #0]
 80076bc:	6813      	ldr	r3, [r2, #0]
 80076be:	ea36 0303 	bics.w	r3, r6, r3
 80076c2:	d101      	bne.n	80076c8 <UART_WaitOnFlagUntilTimeout.constprop.0+0x18>
 80076c4:	2000      	movs	r0, #0
 80076c6:	e014      	b.n	80076f2 <UART_WaitOnFlagUntilTimeout.constprop.0+0x42>
 80076c8:	1c6b      	adds	r3, r5, #1
 80076ca:	d0f7      	beq.n	80076bc <UART_WaitOnFlagUntilTimeout.constprop.0+0xc>
 80076cc:	b995      	cbnz	r5, 80076f4 <UART_WaitOnFlagUntilTimeout.constprop.0+0x44>
 80076ce:	6823      	ldr	r3, [r4, #0]
 80076d0:	2003      	movs	r0, #3
 80076d2:	68da      	ldr	r2, [r3, #12]
 80076d4:	f422 72d0 	bic.w	r2, r2, #416	; 0x1a0
 80076d8:	60da      	str	r2, [r3, #12]
 80076da:	695a      	ldr	r2, [r3, #20]
 80076dc:	f022 0201 	bic.w	r2, r2, #1
 80076e0:	615a      	str	r2, [r3, #20]
 80076e2:	2320      	movs	r3, #32
 80076e4:	f884 303d 	strb.w	r3, [r4, #61]	; 0x3d
 80076e8:	f884 303e 	strb.w	r3, [r4, #62]	; 0x3e
 80076ec:	2300      	movs	r3, #0
 80076ee:	f884 303c 	strb.w	r3, [r4, #60]	; 0x3c
 80076f2:	bdf8      	pop	{r3, r4, r5, r6, r7, pc}
 80076f4:	f7fd fad6 	bl	8004ca4 <HAL_GetTick>
 80076f8:	1bc0      	subs	r0, r0, r7
 80076fa:	4285      	cmp	r5, r0
 80076fc:	d2dd      	bcs.n	80076ba <UART_WaitOnFlagUntilTimeout.constprop.0+0xa>
 80076fe:	e7e6      	b.n	80076ce <UART_WaitOnFlagUntilTimeout.constprop.0+0x1e>

08007700 <HAL_UART_Init>:
 8007700:	b510      	push	{r4, lr}
 8007702:	4604      	mov	r4, r0
 8007704:	b340      	cbz	r0, 8007758 <HAL_UART_Init+0x58>
 8007706:	f890 303d 	ldrb.w	r3, [r0, #61]	; 0x3d
 800770a:	f003 02ff 	and.w	r2, r3, #255	; 0xff
 800770e:	b91b      	cbnz	r3, 8007718 <HAL_UART_Init+0x18>
 8007710:	f880 203c 	strb.w	r2, [r0, #60]	; 0x3c
 8007714:	f7fc fc48 	bl	8003fa8 <HAL_UART_MspInit>
 8007718:	2324      	movs	r3, #36	; 0x24
 800771a:	6822      	ldr	r2, [r4, #0]
 800771c:	f884 303d 	strb.w	r3, [r4, #61]	; 0x3d
 8007720:	68d3      	ldr	r3, [r2, #12]
 8007722:	4620      	mov	r0, r4
 8007724:	f423 5300 	bic.w	r3, r3, #8192	; 0x2000
 8007728:	60d3      	str	r3, [r2, #12]
 800772a:	f7ff ff87 	bl	800763c <UART_SetConfig>
 800772e:	6823      	ldr	r3, [r4, #0]
 8007730:	2000      	movs	r0, #0
 8007732:	691a      	ldr	r2, [r3, #16]
 8007734:	f422 4290 	bic.w	r2, r2, #18432	; 0x4800
 8007738:	611a      	str	r2, [r3, #16]
 800773a:	695a      	ldr	r2, [r3, #20]
 800773c:	f022 022a 	bic.w	r2, r2, #42	; 0x2a
 8007740:	615a      	str	r2, [r3, #20]
 8007742:	68da      	ldr	r2, [r3, #12]
 8007744:	f442 5200 	orr.w	r2, r2, #8192	; 0x2000
 8007748:	60da      	str	r2, [r3, #12]
 800774a:	2320      	movs	r3, #32
 800774c:	6420      	str	r0, [r4, #64]	; 0x40
 800774e:	f884 303d 	strb.w	r3, [r4, #61]	; 0x3d
 8007752:	f884 303e 	strb.w	r3, [r4, #62]	; 0x3e
 8007756:	bd10      	pop	{r4, pc}
 8007758:	2001      	movs	r0, #1
 800775a:	e7fc      	b.n	8007756 <HAL_UART_Init+0x56>

0800775c <HAL_UART_Transmit>:
 800775c:	e92d 43f8 	stmdb	sp!, {r3, r4, r5, r6, r7, r8, r9, lr}
 8007760:	4699      	mov	r9, r3
 8007762:	f890 303d 	ldrb.w	r3, [r0, #61]	; 0x3d
 8007766:	4604      	mov	r4, r0
 8007768:	2b20      	cmp	r3, #32
 800776a:	460e      	mov	r6, r1
 800776c:	4617      	mov	r7, r2
 800776e:	d148      	bne.n	8007802 <HAL_UART_Transmit+0xa6>
 8007770:	2900      	cmp	r1, #0
 8007772:	d044      	beq.n	80077fe <HAL_UART_Transmit+0xa2>
 8007774:	2a00      	cmp	r2, #0
 8007776:	d042      	beq.n	80077fe <HAL_UART_Transmit+0xa2>
 8007778:	f890 303c 	ldrb.w	r3, [r0, #60]	; 0x3c
 800777c:	2b01      	cmp	r3, #1
 800777e:	d040      	beq.n	8007802 <HAL_UART_Transmit+0xa6>
 8007780:	2301      	movs	r3, #1
 8007782:	2500      	movs	r5, #0
 8007784:	f880 303c 	strb.w	r3, [r0, #60]	; 0x3c
 8007788:	2321      	movs	r3, #33	; 0x21
 800778a:	6405      	str	r5, [r0, #64]	; 0x40
 800778c:	f880 303d 	strb.w	r3, [r0, #61]	; 0x3d
 8007790:	f7fd fa88 	bl	8004ca4 <HAL_GetTick>
 8007794:	68a3      	ldr	r3, [r4, #8]
 8007796:	4680      	mov	r8, r0
 8007798:	f5b3 5f80 	cmp.w	r3, #4096	; 0x1000
 800779c:	84a7      	strh	r7, [r4, #36]	; 0x24
 800779e:	84e7      	strh	r7, [r4, #38]	; 0x26
 80077a0:	d103      	bne.n	80077aa <HAL_UART_Transmit+0x4e>
 80077a2:	6923      	ldr	r3, [r4, #16]
 80077a4:	b90b      	cbnz	r3, 80077aa <HAL_UART_Transmit+0x4e>
 80077a6:	4635      	mov	r5, r6
 80077a8:	461e      	mov	r6, r3
 80077aa:	2300      	movs	r3, #0
 80077ac:	f884 303c 	strb.w	r3, [r4, #60]	; 0x3c
 80077b0:	8ce3      	ldrh	r3, [r4, #38]	; 0x26
 80077b2:	b29b      	uxth	r3, r3
 80077b4:	b953      	cbnz	r3, 80077cc <HAL_UART_Transmit+0x70>
 80077b6:	464b      	mov	r3, r9
 80077b8:	4642      	mov	r2, r8
 80077ba:	2140      	movs	r1, #64	; 0x40
 80077bc:	4620      	mov	r0, r4
 80077be:	f7ff ff77 	bl	80076b0 <UART_WaitOnFlagUntilTimeout.constprop.0>
 80077c2:	b950      	cbnz	r0, 80077da <HAL_UART_Transmit+0x7e>
 80077c4:	2320      	movs	r3, #32
 80077c6:	f884 303d 	strb.w	r3, [r4, #61]	; 0x3d
 80077ca:	e007      	b.n	80077dc <HAL_UART_Transmit+0x80>
 80077cc:	464b      	mov	r3, r9
 80077ce:	4642      	mov	r2, r8
 80077d0:	2180      	movs	r1, #128	; 0x80
 80077d2:	4620      	mov	r0, r4
 80077d4:	f7ff ff6c 	bl	80076b0 <UART_WaitOnFlagUntilTimeout.constprop.0>
 80077d8:	b110      	cbz	r0, 80077e0 <HAL_UART_Transmit+0x84>
 80077da:	2003      	movs	r0, #3
 80077dc:	e8bd 83f8 	ldmia.w	sp!, {r3, r4, r5, r6, r7, r8, r9, pc}
 80077e0:	6822      	ldr	r2, [r4, #0]
 80077e2:	b94e      	cbnz	r6, 80077f8 <HAL_UART_Transmit+0x9c>
 80077e4:	f835 3b02 	ldrh.w	r3, [r5], #2
 80077e8:	f3c3 0308 	ubfx	r3, r3, #0, #9
 80077ec:	6053      	str	r3, [r2, #4]
 80077ee:	8ce1      	ldrh	r1, [r4, #38]	; 0x26
 80077f0:	3901      	subs	r1, #1
 80077f2:	b289      	uxth	r1, r1
 80077f4:	84e1      	strh	r1, [r4, #38]	; 0x26
 80077f6:	e7db      	b.n	80077b0 <HAL_UART_Transmit+0x54>
 80077f8:	f816 3b01 	ldrb.w	r3, [r6], #1
 80077fc:	e7f6      	b.n	80077ec <HAL_UART_Transmit+0x90>
 80077fe:	2001      	movs	r0, #1
 8007800:	e7ec      	b.n	80077dc <HAL_UART_Transmit+0x80>
 8007802:	2002      	movs	r0, #2
 8007804:	e7ea      	b.n	80077dc <HAL_UART_Transmit+0x80>

08007806 <HAL_UART_Receive>:
 8007806:	e92d 43f8 	stmdb	sp!, {r3, r4, r5, r6, r7, r8, r9, lr}
 800780a:	461f      	mov	r7, r3
 800780c:	f890 303e 	ldrb.w	r3, [r0, #62]	; 0x3e
 8007810:	4604      	mov	r4, r0
 8007812:	2b20      	cmp	r3, #32
 8007814:	460e      	mov	r6, r1
 8007816:	4691      	mov	r9, r2
 8007818:	d14f      	bne.n	80078ba <HAL_UART_Receive+0xb4>
 800781a:	2900      	cmp	r1, #0
 800781c:	d04b      	beq.n	80078b6 <HAL_UART_Receive+0xb0>
 800781e:	2a00      	cmp	r2, #0
 8007820:	d049      	beq.n	80078b6 <HAL_UART_Receive+0xb0>
 8007822:	f890 303c 	ldrb.w	r3, [r0, #60]	; 0x3c
 8007826:	2b01      	cmp	r3, #1
 8007828:	d047      	beq.n	80078ba <HAL_UART_Receive+0xb4>
 800782a:	2301      	movs	r3, #1
 800782c:	2500      	movs	r5, #0
 800782e:	f880 303c 	strb.w	r3, [r0, #60]	; 0x3c
 8007832:	2322      	movs	r3, #34	; 0x22
 8007834:	6405      	str	r5, [r0, #64]	; 0x40
 8007836:	f880 303e 	strb.w	r3, [r0, #62]	; 0x3e
 800783a:	6305      	str	r5, [r0, #48]	; 0x30
 800783c:	f7fd fa32 	bl	8004ca4 <HAL_GetTick>
 8007840:	68a3      	ldr	r3, [r4, #8]
 8007842:	4680      	mov	r8, r0
 8007844:	f5b3 5f80 	cmp.w	r3, #4096	; 0x1000
 8007848:	f8a4 902c 	strh.w	r9, [r4, #44]	; 0x2c
 800784c:	f8a4 902e 	strh.w	r9, [r4, #46]	; 0x2e
 8007850:	d103      	bne.n	800785a <HAL_UART_Receive+0x54>
 8007852:	6923      	ldr	r3, [r4, #16]
 8007854:	b90b      	cbnz	r3, 800785a <HAL_UART_Receive+0x54>
 8007856:	4635      	mov	r5, r6
 8007858:	461e      	mov	r6, r3
 800785a:	2300      	movs	r3, #0
 800785c:	f884 303c 	strb.w	r3, [r4, #60]	; 0x3c
 8007860:	8de0      	ldrh	r0, [r4, #46]	; 0x2e
 8007862:	b280      	uxth	r0, r0
 8007864:	b920      	cbnz	r0, 8007870 <HAL_UART_Receive+0x6a>
 8007866:	2320      	movs	r3, #32
 8007868:	f884 303e 	strb.w	r3, [r4, #62]	; 0x3e
 800786c:	e8bd 83f8 	ldmia.w	sp!, {r3, r4, r5, r6, r7, r8, r9, pc}
 8007870:	463b      	mov	r3, r7
 8007872:	4642      	mov	r2, r8
 8007874:	2120      	movs	r1, #32
 8007876:	4620      	mov	r0, r4
 8007878:	f7ff ff1a 	bl	80076b0 <UART_WaitOnFlagUntilTimeout.constprop.0>
 800787c:	b9f8      	cbnz	r0, 80078be <HAL_UART_Receive+0xb8>
 800787e:	6823      	ldr	r3, [r4, #0]
 8007880:	b94e      	cbnz	r6, 8007896 <HAL_UART_Receive+0x90>
 8007882:	685b      	ldr	r3, [r3, #4]
 8007884:	f3c3 0308 	ubfx	r3, r3, #0, #9
 8007888:	f825 3b02 	strh.w	r3, [r5], #2
 800788c:	8de3      	ldrh	r3, [r4, #46]	; 0x2e
 800788e:	3b01      	subs	r3, #1
 8007890:	b29b      	uxth	r3, r3
 8007892:	85e3      	strh	r3, [r4, #46]	; 0x2e
 8007894:	e7e4      	b.n	8007860 <HAL_UART_Receive+0x5a>
 8007896:	68a2      	ldr	r2, [r4, #8]
 8007898:	f5b2 5f80 	cmp.w	r2, #4096	; 0x1000
 800789c:	d002      	beq.n	80078a4 <HAL_UART_Receive+0x9e>
 800789e:	b932      	cbnz	r2, 80078ae <HAL_UART_Receive+0xa8>
 80078a0:	6922      	ldr	r2, [r4, #16]
 80078a2:	b922      	cbnz	r2, 80078ae <HAL_UART_Receive+0xa8>
 80078a4:	6859      	ldr	r1, [r3, #4]
 80078a6:	b2c9      	uxtb	r1, r1
 80078a8:	f806 1b01 	strb.w	r1, [r6], #1
 80078ac:	e7ee      	b.n	800788c <HAL_UART_Receive+0x86>
 80078ae:	6859      	ldr	r1, [r3, #4]
 80078b0:	f001 017f 	and.w	r1, r1, #127	; 0x7f
 80078b4:	e7f8      	b.n	80078a8 <HAL_UART_Receive+0xa2>
 80078b6:	2001      	movs	r0, #1
 80078b8:	e7d8      	b.n	800786c <HAL_UART_Receive+0x66>
 80078ba:	2002      	movs	r0, #2
 80078bc:	e7d6      	b.n	800786c <HAL_UART_Receive+0x66>
 80078be:	2003      	movs	r0, #3
 80078c0:	e7d4      	b.n	800786c <HAL_UART_Receive+0x66>
	...

080078c4 <acos>:
 80078c4:	b5f8      	push	{r3, r4, r5, r6, r7, lr}
 80078c6:	4604      	mov	r4, r0
 80078c8:	460d      	mov	r5, r1
 80078ca:	f000 f855 	bl	8007978 <__ieee754_acos>
 80078ce:	4b11      	ldr	r3, [pc, #68]	; (8007914 <acos+0x50>)
 80078d0:	4606      	mov	r6, r0
 80078d2:	f993 3000 	ldrsb.w	r3, [r3]
 80078d6:	460f      	mov	r7, r1
 80078d8:	3301      	adds	r3, #1
 80078da:	d018      	beq.n	800790e <acos+0x4a>
 80078dc:	4622      	mov	r2, r4
 80078de:	462b      	mov	r3, r5
 80078e0:	4620      	mov	r0, r4
 80078e2:	4629      	mov	r1, r5
 80078e4:	f7f9 f892 	bl	8000a0c <__aeabi_dcmpun>
 80078e8:	b988      	cbnz	r0, 800790e <acos+0x4a>
 80078ea:	4620      	mov	r0, r4
 80078ec:	4629      	mov	r1, r5
 80078ee:	f000 fb3b 	bl	8007f68 <fabs>
 80078f2:	2200      	movs	r2, #0
 80078f4:	4b08      	ldr	r3, [pc, #32]	; (8007918 <acos+0x54>)
 80078f6:	f7f9 f87f 	bl	80009f8 <__aeabi_dcmpgt>
 80078fa:	b140      	cbz	r0, 800790e <acos+0x4a>
 80078fc:	f000 fb3e 	bl	8007f7c <__errno>
 8007900:	2321      	movs	r3, #33	; 0x21
 8007902:	6003      	str	r3, [r0, #0]
 8007904:	4805      	ldr	r0, [pc, #20]	; (800791c <acos+0x58>)
 8007906:	e8bd 40f8 	ldmia.w	sp!, {r3, r4, r5, r6, r7, lr}
 800790a:	f000 bb31 	b.w	8007f70 <nan>
 800790e:	4630      	mov	r0, r6
 8007910:	4639      	mov	r1, r7
 8007912:	bdf8      	pop	{r3, r4, r5, r6, r7, pc}
 8007914:	20000170 	.word	0x20000170
 8007918:	3ff00000 	.word	0x3ff00000
 800791c:	0800afc8 	.word	0x0800afc8

08007920 <sqrt>:
 8007920:	b5f8      	push	{r3, r4, r5, r6, r7, lr}
 8007922:	4606      	mov	r6, r0
 8007924:	460f      	mov	r7, r1
 8007926:	f000 fa73 	bl	8007e10 <__ieee754_sqrt>
 800792a:	4b12      	ldr	r3, [pc, #72]	; (8007974 <sqrt+0x54>)
 800792c:	4604      	mov	r4, r0
 800792e:	f993 3000 	ldrsb.w	r3, [r3]
 8007932:	460d      	mov	r5, r1
 8007934:	3301      	adds	r3, #1
 8007936:	d019      	beq.n	800796c <sqrt+0x4c>
 8007938:	4632      	mov	r2, r6
 800793a:	463b      	mov	r3, r7
 800793c:	4630      	mov	r0, r6
 800793e:	4639      	mov	r1, r7
 8007940:	f7f9 f864 	bl	8000a0c <__aeabi_dcmpun>
 8007944:	b990      	cbnz	r0, 800796c <sqrt+0x4c>
 8007946:	2200      	movs	r2, #0
 8007948:	2300      	movs	r3, #0
 800794a:	4630      	mov	r0, r6
 800794c:	4639      	mov	r1, r7
 800794e:	f7f9 f835 	bl	80009bc <__aeabi_dcmplt>
 8007952:	b158      	cbz	r0, 800796c <sqrt+0x4c>
 8007954:	f000 fb12 	bl	8007f7c <__errno>
 8007958:	2321      	movs	r3, #33	; 0x21
 800795a:	2200      	movs	r2, #0
 800795c:	6003      	str	r3, [r0, #0]
 800795e:	2300      	movs	r3, #0
 8007960:	4610      	mov	r0, r2
 8007962:	4619      	mov	r1, r3
 8007964:	f7f8 fee2 	bl	800072c <__aeabi_ddiv>
 8007968:	4604      	mov	r4, r0
 800796a:	460d      	mov	r5, r1
 800796c:	4620      	mov	r0, r4
 800796e:	4629      	mov	r1, r5
 8007970:	bdf8      	pop	{r3, r4, r5, r6, r7, pc}
 8007972:	bf00      	nop
 8007974:	20000170 	.word	0x20000170

08007978 <__ieee754_acos>:
 8007978:	e92d 4ff8 	stmdb	sp!, {r3, r4, r5, r6, r7, r8, r9, sl, fp, lr}
 800797c:	4cb2      	ldr	r4, [pc, #712]	; (8007c48 <__ieee754_acos+0x2d0>)
 800797e:	f021 4300 	bic.w	r3, r1, #2147483648	; 0x80000000
 8007982:	42a3      	cmp	r3, r4
 8007984:	4607      	mov	r7, r0
 8007986:	460e      	mov	r6, r1
 8007988:	dd16      	ble.n	80079b8 <__ieee754_acos+0x40>
 800798a:	f103 4340 	add.w	r3, r3, #3221225472	; 0xc0000000
 800798e:	f503 1380 	add.w	r3, r3, #1048576	; 0x100000
 8007992:	4303      	orrs	r3, r0
 8007994:	d107      	bne.n	80079a6 <__ieee754_acos+0x2e>
 8007996:	2900      	cmp	r1, #0
 8007998:	f300 8202 	bgt.w	8007da0 <__ieee754_acos+0x428>
 800799c:	a190      	add	r1, pc, #576	; (adr r1, 8007be0 <__ieee754_acos+0x268>)
 800799e:	e9d1 0100 	ldrd	r0, r1, [r1]
 80079a2:	e8bd 8ff8 	ldmia.w	sp!, {r3, r4, r5, r6, r7, r8, r9, sl, fp, pc}
 80079a6:	4602      	mov	r2, r0
 80079a8:	460b      	mov	r3, r1
 80079aa:	f7f8 fbdd 	bl	8000168 <__aeabi_dsub>
 80079ae:	4602      	mov	r2, r0
 80079b0:	460b      	mov	r3, r1
 80079b2:	f7f8 febb 	bl	800072c <__aeabi_ddiv>
 80079b6:	e7f4      	b.n	80079a2 <__ieee754_acos+0x2a>
 80079b8:	4ca4      	ldr	r4, [pc, #656]	; (8007c4c <__ieee754_acos+0x2d4>)
 80079ba:	42a3      	cmp	r3, r4
 80079bc:	f300 8083 	bgt.w	8007ac6 <__ieee754_acos+0x14e>
 80079c0:	4aa3      	ldr	r2, [pc, #652]	; (8007c50 <__ieee754_acos+0x2d8>)
 80079c2:	4293      	cmp	r3, r2
 80079c4:	f340 81ef 	ble.w	8007da6 <__ieee754_acos+0x42e>
 80079c8:	4602      	mov	r2, r0
 80079ca:	460b      	mov	r3, r1
 80079cc:	f7f8 fd84 	bl	80004d8 <__aeabi_dmul>
 80079d0:	a385      	add	r3, pc, #532	; (adr r3, 8007be8 <__ieee754_acos+0x270>)
 80079d2:	e9d3 2300 	ldrd	r2, r3, [r3]
 80079d6:	4604      	mov	r4, r0
 80079d8:	460d      	mov	r5, r1
 80079da:	f7f8 fd7d 	bl	80004d8 <__aeabi_dmul>
 80079de:	a384      	add	r3, pc, #528	; (adr r3, 8007bf0 <__ieee754_acos+0x278>)
 80079e0:	e9d3 2300 	ldrd	r2, r3, [r3]
 80079e4:	f7f8 fbc2 	bl	800016c <__adddf3>
 80079e8:	4622      	mov	r2, r4
 80079ea:	462b      	mov	r3, r5
 80079ec:	f7f8 fd74 	bl	80004d8 <__aeabi_dmul>
 80079f0:	a381      	add	r3, pc, #516	; (adr r3, 8007bf8 <__ieee754_acos+0x280>)
 80079f2:	e9d3 2300 	ldrd	r2, r3, [r3]
 80079f6:	f7f8 fbb7 	bl	8000168 <__aeabi_dsub>
 80079fa:	4622      	mov	r2, r4
 80079fc:	462b      	mov	r3, r5
 80079fe:	f7f8 fd6b 	bl	80004d8 <__aeabi_dmul>
 8007a02:	a37f      	add	r3, pc, #508	; (adr r3, 8007c00 <__ieee754_acos+0x288>)
 8007a04:	e9d3 2300 	ldrd	r2, r3, [r3]
 8007a08:	f7f8 fbb0 	bl	800016c <__adddf3>
 8007a0c:	4622      	mov	r2, r4
 8007a0e:	462b      	mov	r3, r5
 8007a10:	f7f8 fd62 	bl	80004d8 <__aeabi_dmul>
 8007a14:	a37c      	add	r3, pc, #496	; (adr r3, 8007c08 <__ieee754_acos+0x290>)
 8007a16:	e9d3 2300 	ldrd	r2, r3, [r3]
 8007a1a:	f7f8 fba5 	bl	8000168 <__aeabi_dsub>
 8007a1e:	4622      	mov	r2, r4
 8007a20:	462b      	mov	r3, r5
 8007a22:	f7f8 fd59 	bl	80004d8 <__aeabi_dmul>
 8007a26:	a37a      	add	r3, pc, #488	; (adr r3, 8007c10 <__ieee754_acos+0x298>)
 8007a28:	e9d3 2300 	ldrd	r2, r3, [r3]
 8007a2c:	f7f8 fb9e 	bl	800016c <__adddf3>
 8007a30:	4622      	mov	r2, r4
 8007a32:	462b      	mov	r3, r5
 8007a34:	f7f8 fd50 	bl	80004d8 <__aeabi_dmul>
 8007a38:	a377      	add	r3, pc, #476	; (adr r3, 8007c18 <__ieee754_acos+0x2a0>)
 8007a3a:	e9d3 2300 	ldrd	r2, r3, [r3]
 8007a3e:	4680      	mov	r8, r0
 8007a40:	4689      	mov	r9, r1
 8007a42:	4620      	mov	r0, r4
 8007a44:	4629      	mov	r1, r5
 8007a46:	f7f8 fd47 	bl	80004d8 <__aeabi_dmul>
 8007a4a:	a375      	add	r3, pc, #468	; (adr r3, 8007c20 <__ieee754_acos+0x2a8>)
 8007a4c:	e9d3 2300 	ldrd	r2, r3, [r3]
 8007a50:	f7f8 fb8a 	bl	8000168 <__aeabi_dsub>
 8007a54:	4622      	mov	r2, r4
 8007a56:	462b      	mov	r3, r5
 8007a58:	f7f8 fd3e 	bl	80004d8 <__aeabi_dmul>
 8007a5c:	a372      	add	r3, pc, #456	; (adr r3, 8007c28 <__ieee754_acos+0x2b0>)
 8007a5e:	e9d3 2300 	ldrd	r2, r3, [r3]
 8007a62:	f7f8 fb83 	bl	800016c <__adddf3>
 8007a66:	4622      	mov	r2, r4
 8007a68:	462b      	mov	r3, r5
 8007a6a:	f7f8 fd35 	bl	80004d8 <__aeabi_dmul>
 8007a6e:	a370      	add	r3, pc, #448	; (adr r3, 8007c30 <__ieee754_acos+0x2b8>)
 8007a70:	e9d3 2300 	ldrd	r2, r3, [r3]
 8007a74:	f7f8 fb78 	bl	8000168 <__aeabi_dsub>
 8007a78:	4622      	mov	r2, r4
 8007a7a:	462b      	mov	r3, r5
 8007a7c:	f7f8 fd2c 	bl	80004d8 <__aeabi_dmul>
 8007a80:	2200      	movs	r2, #0
 8007a82:	4b74      	ldr	r3, [pc, #464]	; (8007c54 <__ieee754_acos+0x2dc>)
 8007a84:	f7f8 fb72 	bl	800016c <__adddf3>
 8007a88:	4602      	mov	r2, r0
 8007a8a:	460b      	mov	r3, r1
 8007a8c:	4640      	mov	r0, r8
 8007a8e:	4649      	mov	r1, r9
 8007a90:	f7f8 fe4c 	bl	800072c <__aeabi_ddiv>
 8007a94:	463a      	mov	r2, r7
 8007a96:	4633      	mov	r3, r6
 8007a98:	f7f8 fd1e 	bl	80004d8 <__aeabi_dmul>
 8007a9c:	4602      	mov	r2, r0
 8007a9e:	460b      	mov	r3, r1
 8007aa0:	a165      	add	r1, pc, #404	; (adr r1, 8007c38 <__ieee754_acos+0x2c0>)
 8007aa2:	e9d1 0100 	ldrd	r0, r1, [r1]
 8007aa6:	f7f8 fb5f 	bl	8000168 <__aeabi_dsub>
 8007aaa:	4602      	mov	r2, r0
 8007aac:	460b      	mov	r3, r1
 8007aae:	4638      	mov	r0, r7
 8007ab0:	4631      	mov	r1, r6
 8007ab2:	f7f8 fb59 	bl	8000168 <__aeabi_dsub>
 8007ab6:	4602      	mov	r2, r0
 8007ab8:	460b      	mov	r3, r1
 8007aba:	a161      	add	r1, pc, #388	; (adr r1, 8007c40 <__ieee754_acos+0x2c8>)
 8007abc:	e9d1 0100 	ldrd	r0, r1, [r1]
 8007ac0:	f7f8 fb52 	bl	8000168 <__aeabi_dsub>
 8007ac4:	e76d      	b.n	80079a2 <__ieee754_acos+0x2a>
 8007ac6:	2900      	cmp	r1, #0
 8007ac8:	f280 80c8 	bge.w	8007c5c <__ieee754_acos+0x2e4>
 8007acc:	2200      	movs	r2, #0
 8007ace:	4b61      	ldr	r3, [pc, #388]	; (8007c54 <__ieee754_acos+0x2dc>)
 8007ad0:	f7f8 fb4c 	bl	800016c <__adddf3>
 8007ad4:	2200      	movs	r2, #0
 8007ad6:	4b60      	ldr	r3, [pc, #384]	; (8007c58 <__ieee754_acos+0x2e0>)
 8007ad8:	f7f8 fcfe 	bl	80004d8 <__aeabi_dmul>
 8007adc:	a342      	add	r3, pc, #264	; (adr r3, 8007be8 <__ieee754_acos+0x270>)
 8007ade:	e9d3 2300 	ldrd	r2, r3, [r3]
 8007ae2:	4604      	mov	r4, r0
 8007ae4:	460d      	mov	r5, r1
 8007ae6:	f7f8 fcf7 	bl	80004d8 <__aeabi_dmul>
 8007aea:	a341      	add	r3, pc, #260	; (adr r3, 8007bf0 <__ieee754_acos+0x278>)
 8007aec:	e9d3 2300 	ldrd	r2, r3, [r3]
 8007af0:	f7f8 fb3c 	bl	800016c <__adddf3>
 8007af4:	4622      	mov	r2, r4
 8007af6:	462b      	mov	r3, r5
 8007af8:	f7f8 fcee 	bl	80004d8 <__aeabi_dmul>
 8007afc:	a33e      	add	r3, pc, #248	; (adr r3, 8007bf8 <__ieee754_acos+0x280>)
 8007afe:	e9d3 2300 	ldrd	r2, r3, [r3]
 8007b02:	f7f8 fb31 	bl	8000168 <__aeabi_dsub>
 8007b06:	4622      	mov	r2, r4
 8007b08:	462b      	mov	r3, r5
 8007b0a:	f7f8 fce5 	bl	80004d8 <__aeabi_dmul>
 8007b0e:	a33c      	add	r3, pc, #240	; (adr r3, 8007c00 <__ieee754_acos+0x288>)
 8007b10:	e9d3 2300 	ldrd	r2, r3, [r3]
 8007b14:	f7f8 fb2a 	bl	800016c <__adddf3>
 8007b18:	4622      	mov	r2, r4
 8007b1a:	462b      	mov	r3, r5
 8007b1c:	f7f8 fcdc 	bl	80004d8 <__aeabi_dmul>
 8007b20:	a339      	add	r3, pc, #228	; (adr r3, 8007c08 <__ieee754_acos+0x290>)
 8007b22:	e9d3 2300 	ldrd	r2, r3, [r3]
 8007b26:	f7f8 fb1f 	bl	8000168 <__aeabi_dsub>
 8007b2a:	4622      	mov	r2, r4
 8007b2c:	462b      	mov	r3, r5
 8007b2e:	f7f8 fcd3 	bl	80004d8 <__aeabi_dmul>
 8007b32:	a337      	add	r3, pc, #220	; (adr r3, 8007c10 <__ieee754_acos+0x298>)
 8007b34:	e9d3 2300 	ldrd	r2, r3, [r3]
 8007b38:	f7f8 fb18 	bl	800016c <__adddf3>
 8007b3c:	4622      	mov	r2, r4
 8007b3e:	462b      	mov	r3, r5
 8007b40:	f7f8 fcca 	bl	80004d8 <__aeabi_dmul>
 8007b44:	4680      	mov	r8, r0
 8007b46:	4689      	mov	r9, r1
 8007b48:	4620      	mov	r0, r4
 8007b4a:	4629      	mov	r1, r5
 8007b4c:	f000 f960 	bl	8007e10 <__ieee754_sqrt>
 8007b50:	a331      	add	r3, pc, #196	; (adr r3, 8007c18 <__ieee754_acos+0x2a0>)
 8007b52:	e9d3 2300 	ldrd	r2, r3, [r3]
 8007b56:	4606      	mov	r6, r0
 8007b58:	460f      	mov	r7, r1
 8007b5a:	4620      	mov	r0, r4
 8007b5c:	4629      	mov	r1, r5
 8007b5e:	f7f8 fcbb 	bl	80004d8 <__aeabi_dmul>
 8007b62:	a32f      	add	r3, pc, #188	; (adr r3, 8007c20 <__ieee754_acos+0x2a8>)
 8007b64:	e9d3 2300 	ldrd	r2, r3, [r3]
 8007b68:	f7f8 fafe 	bl	8000168 <__aeabi_dsub>
 8007b6c:	4622      	mov	r2, r4
 8007b6e:	462b      	mov	r3, r5
 8007b70:	f7f8 fcb2 	bl	80004d8 <__aeabi_dmul>
 8007b74:	a32c      	add	r3, pc, #176	; (adr r3, 8007c28 <__ieee754_acos+0x2b0>)
 8007b76:	e9d3 2300 	ldrd	r2, r3, [r3]
 8007b7a:	f7f8 faf7 	bl	800016c <__adddf3>
 8007b7e:	4622      	mov	r2, r4
 8007b80:	462b      	mov	r3, r5
 8007b82:	f7f8 fca9 	bl	80004d8 <__aeabi_dmul>
 8007b86:	a32a      	add	r3, pc, #168	; (adr r3, 8007c30 <__ieee754_acos+0x2b8>)
 8007b88:	e9d3 2300 	ldrd	r2, r3, [r3]
 8007b8c:	f7f8 faec 	bl	8000168 <__aeabi_dsub>
 8007b90:	4622      	mov	r2, r4
 8007b92:	462b      	mov	r3, r5
 8007b94:	f7f8 fca0 	bl	80004d8 <__aeabi_dmul>
 8007b98:	2200      	movs	r2, #0
 8007b9a:	4b2e      	ldr	r3, [pc, #184]	; (8007c54 <__ieee754_acos+0x2dc>)
 8007b9c:	f7f8 fae6 	bl	800016c <__adddf3>
 8007ba0:	4602      	mov	r2, r0
 8007ba2:	460b      	mov	r3, r1
 8007ba4:	4640      	mov	r0, r8
 8007ba6:	4649      	mov	r1, r9
 8007ba8:	f7f8 fdc0 	bl	800072c <__aeabi_ddiv>
 8007bac:	4632      	mov	r2, r6
 8007bae:	463b      	mov	r3, r7
 8007bb0:	f7f8 fc92 	bl	80004d8 <__aeabi_dmul>
 8007bb4:	a320      	add	r3, pc, #128	; (adr r3, 8007c38 <__ieee754_acos+0x2c0>)
 8007bb6:	e9d3 2300 	ldrd	r2, r3, [r3]
 8007bba:	f7f8 fad5 	bl	8000168 <__aeabi_dsub>
 8007bbe:	4632      	mov	r2, r6
 8007bc0:	463b      	mov	r3, r7
 8007bc2:	f7f8 fad3 	bl	800016c <__adddf3>
 8007bc6:	4602      	mov	r2, r0
 8007bc8:	460b      	mov	r3, r1
 8007bca:	f7f8 facf 	bl	800016c <__adddf3>
 8007bce:	4602      	mov	r2, r0
 8007bd0:	460b      	mov	r3, r1
 8007bd2:	a103      	add	r1, pc, #12	; (adr r1, 8007be0 <__ieee754_acos+0x268>)
 8007bd4:	e9d1 0100 	ldrd	r0, r1, [r1]
 8007bd8:	e772      	b.n	8007ac0 <__ieee754_acos+0x148>
 8007bda:	bf00      	nop
 8007bdc:	f3af 8000 	nop.w
 8007be0:	54442d18 	.word	0x54442d18
 8007be4:	400921fb 	.word	0x400921fb
 8007be8:	0dfdf709 	.word	0x0dfdf709
 8007bec:	3f023de1 	.word	0x3f023de1
 8007bf0:	7501b288 	.word	0x7501b288
 8007bf4:	3f49efe0 	.word	0x3f49efe0
 8007bf8:	b5688f3b 	.word	0xb5688f3b
 8007bfc:	3fa48228 	.word	0x3fa48228
 8007c00:	0e884455 	.word	0x0e884455
 8007c04:	3fc9c155 	.word	0x3fc9c155
 8007c08:	03eb6f7d 	.word	0x03eb6f7d
 8007c0c:	3fd4d612 	.word	0x3fd4d612
 8007c10:	55555555 	.word	0x55555555
 8007c14:	3fc55555 	.word	0x3fc55555
 8007c18:	b12e9282 	.word	0xb12e9282
 8007c1c:	3fb3b8c5 	.word	0x3fb3b8c5
 8007c20:	1b8d0159 	.word	0x1b8d0159
 8007c24:	3fe6066c 	.word	0x3fe6066c
 8007c28:	9c598ac8 	.word	0x9c598ac8
 8007c2c:	40002ae5 	.word	0x40002ae5
 8007c30:	1c8a2d4b 	.word	0x1c8a2d4b
 8007c34:	40033a27 	.word	0x40033a27
 8007c38:	33145c07 	.word	0x33145c07
 8007c3c:	3c91a626 	.word	0x3c91a626
 8007c40:	54442d18 	.word	0x54442d18
 8007c44:	3ff921fb 	.word	0x3ff921fb
 8007c48:	3fefffff 	.word	0x3fefffff
 8007c4c:	3fdfffff 	.word	0x3fdfffff
 8007c50:	3c600000 	.word	0x3c600000
 8007c54:	3ff00000 	.word	0x3ff00000
 8007c58:	3fe00000 	.word	0x3fe00000
 8007c5c:	4602      	mov	r2, r0
 8007c5e:	460b      	mov	r3, r1
 8007c60:	2000      	movs	r0, #0
 8007c62:	4969      	ldr	r1, [pc, #420]	; (8007e08 <__ieee754_acos+0x490>)
 8007c64:	f7f8 fa80 	bl	8000168 <__aeabi_dsub>
 8007c68:	2200      	movs	r2, #0
 8007c6a:	4b68      	ldr	r3, [pc, #416]	; (8007e0c <__ieee754_acos+0x494>)
 8007c6c:	f7f8 fc34 	bl	80004d8 <__aeabi_dmul>
 8007c70:	4604      	mov	r4, r0
 8007c72:	460d      	mov	r5, r1
 8007c74:	f000 f8cc 	bl	8007e10 <__ieee754_sqrt>
 8007c78:	a34d      	add	r3, pc, #308	; (adr r3, 8007db0 <__ieee754_acos+0x438>)
 8007c7a:	e9d3 2300 	ldrd	r2, r3, [r3]
 8007c7e:	4689      	mov	r9, r1
 8007c80:	4680      	mov	r8, r0
 8007c82:	4629      	mov	r1, r5
 8007c84:	4620      	mov	r0, r4
 8007c86:	f7f8 fc27 	bl	80004d8 <__aeabi_dmul>
 8007c8a:	a34b      	add	r3, pc, #300	; (adr r3, 8007db8 <__ieee754_acos+0x440>)
 8007c8c:	e9d3 2300 	ldrd	r2, r3, [r3]
 8007c90:	f7f8 fa6c 	bl	800016c <__adddf3>
 8007c94:	4622      	mov	r2, r4
 8007c96:	462b      	mov	r3, r5
 8007c98:	f7f8 fc1e 	bl	80004d8 <__aeabi_dmul>
 8007c9c:	a348      	add	r3, pc, #288	; (adr r3, 8007dc0 <__ieee754_acos+0x448>)
 8007c9e:	e9d3 2300 	ldrd	r2, r3, [r3]
 8007ca2:	f7f8 fa61 	bl	8000168 <__aeabi_dsub>
 8007ca6:	4622      	mov	r2, r4
 8007ca8:	462b      	mov	r3, r5
 8007caa:	f7f8 fc15 	bl	80004d8 <__aeabi_dmul>
 8007cae:	a346      	add	r3, pc, #280	; (adr r3, 8007dc8 <__ieee754_acos+0x450>)
 8007cb0:	e9d3 2300 	ldrd	r2, r3, [r3]
 8007cb4:	f7f8 fa5a 	bl	800016c <__adddf3>
 8007cb8:	4622      	mov	r2, r4
 8007cba:	462b      	mov	r3, r5
 8007cbc:	f7f8 fc0c 	bl	80004d8 <__aeabi_dmul>
 8007cc0:	a343      	add	r3, pc, #268	; (adr r3, 8007dd0 <__ieee754_acos+0x458>)
 8007cc2:	e9d3 2300 	ldrd	r2, r3, [r3]
 8007cc6:	f7f8 fa4f 	bl	8000168 <__aeabi_dsub>
 8007cca:	4622      	mov	r2, r4
 8007ccc:	462b      	mov	r3, r5
 8007cce:	f7f8 fc03 	bl	80004d8 <__aeabi_dmul>
 8007cd2:	a341      	add	r3, pc, #260	; (adr r3, 8007dd8 <__ieee754_acos+0x460>)
 8007cd4:	e9d3 2300 	ldrd	r2, r3, [r3]
 8007cd8:	f7f8 fa48 	bl	800016c <__adddf3>
 8007cdc:	4622      	mov	r2, r4
 8007cde:	462b      	mov	r3, r5
 8007ce0:	f7f8 fbfa 	bl	80004d8 <__aeabi_dmul>
 8007ce4:	a33e      	add	r3, pc, #248	; (adr r3, 8007de0 <__ieee754_acos+0x468>)
 8007ce6:	e9d3 2300 	ldrd	r2, r3, [r3]
 8007cea:	4682      	mov	sl, r0
 8007cec:	468b      	mov	fp, r1
 8007cee:	4620      	mov	r0, r4
 8007cf0:	4629      	mov	r1, r5
 8007cf2:	f7f8 fbf1 	bl	80004d8 <__aeabi_dmul>
 8007cf6:	a33c      	add	r3, pc, #240	; (adr r3, 8007de8 <__ieee754_acos+0x470>)
 8007cf8:	e9d3 2300 	ldrd	r2, r3, [r3]
 8007cfc:	f7f8 fa34 	bl	8000168 <__aeabi_dsub>
 8007d00:	4622      	mov	r2, r4
 8007d02:	462b      	mov	r3, r5
 8007d04:	f7f8 fbe8 	bl	80004d8 <__aeabi_dmul>
 8007d08:	a339      	add	r3, pc, #228	; (adr r3, 8007df0 <__ieee754_acos+0x478>)
 8007d0a:	e9d3 2300 	ldrd	r2, r3, [r3]
 8007d0e:	f7f8 fa2d 	bl	800016c <__adddf3>
 8007d12:	4622      	mov	r2, r4
 8007d14:	462b      	mov	r3, r5
 8007d16:	f7f8 fbdf 	bl	80004d8 <__aeabi_dmul>
 8007d1a:	a337      	add	r3, pc, #220	; (adr r3, 8007df8 <__ieee754_acos+0x480>)
 8007d1c:	e9d3 2300 	ldrd	r2, r3, [r3]
 8007d20:	f7f8 fa22 	bl	8000168 <__aeabi_dsub>
 8007d24:	4622      	mov	r2, r4
 8007d26:	462b      	mov	r3, r5
 8007d28:	f7f8 fbd6 	bl	80004d8 <__aeabi_dmul>
 8007d2c:	2200      	movs	r2, #0
 8007d2e:	4b36      	ldr	r3, [pc, #216]	; (8007e08 <__ieee754_acos+0x490>)
 8007d30:	f7f8 fa1c 	bl	800016c <__adddf3>
 8007d34:	4602      	mov	r2, r0
 8007d36:	460b      	mov	r3, r1
 8007d38:	4650      	mov	r0, sl
 8007d3a:	4659      	mov	r1, fp
 8007d3c:	f7f8 fcf6 	bl	800072c <__aeabi_ddiv>
 8007d40:	4642      	mov	r2, r8
 8007d42:	464b      	mov	r3, r9
 8007d44:	f7f8 fbc8 	bl	80004d8 <__aeabi_dmul>
 8007d48:	2600      	movs	r6, #0
 8007d4a:	4682      	mov	sl, r0
 8007d4c:	468b      	mov	fp, r1
 8007d4e:	4632      	mov	r2, r6
 8007d50:	464b      	mov	r3, r9
 8007d52:	4630      	mov	r0, r6
 8007d54:	4649      	mov	r1, r9
 8007d56:	f7f8 fbbf 	bl	80004d8 <__aeabi_dmul>
 8007d5a:	4602      	mov	r2, r0
 8007d5c:	460b      	mov	r3, r1
 8007d5e:	4620      	mov	r0, r4
 8007d60:	4629      	mov	r1, r5
 8007d62:	f7f8 fa01 	bl	8000168 <__aeabi_dsub>
 8007d66:	4632      	mov	r2, r6
 8007d68:	4604      	mov	r4, r0
 8007d6a:	460d      	mov	r5, r1
 8007d6c:	464b      	mov	r3, r9
 8007d6e:	4640      	mov	r0, r8
 8007d70:	4649      	mov	r1, r9
 8007d72:	f7f8 f9fb 	bl	800016c <__adddf3>
 8007d76:	4602      	mov	r2, r0
 8007d78:	460b      	mov	r3, r1
 8007d7a:	4620      	mov	r0, r4
 8007d7c:	4629      	mov	r1, r5
 8007d7e:	f7f8 fcd5 	bl	800072c <__aeabi_ddiv>
 8007d82:	4602      	mov	r2, r0
 8007d84:	460b      	mov	r3, r1
 8007d86:	4650      	mov	r0, sl
 8007d88:	4659      	mov	r1, fp
 8007d8a:	f7f8 f9ef 	bl	800016c <__adddf3>
 8007d8e:	4632      	mov	r2, r6
 8007d90:	464b      	mov	r3, r9
 8007d92:	f7f8 f9eb 	bl	800016c <__adddf3>
 8007d96:	4602      	mov	r2, r0
 8007d98:	460b      	mov	r3, r1
 8007d9a:	f7f8 f9e7 	bl	800016c <__adddf3>
 8007d9e:	e600      	b.n	80079a2 <__ieee754_acos+0x2a>
 8007da0:	2000      	movs	r0, #0
 8007da2:	2100      	movs	r1, #0
 8007da4:	e5fd      	b.n	80079a2 <__ieee754_acos+0x2a>
 8007da6:	a116      	add	r1, pc, #88	; (adr r1, 8007e00 <__ieee754_acos+0x488>)
 8007da8:	e9d1 0100 	ldrd	r0, r1, [r1]
 8007dac:	e5f9      	b.n	80079a2 <__ieee754_acos+0x2a>
 8007dae:	bf00      	nop
 8007db0:	0dfdf709 	.word	0x0dfdf709
 8007db4:	3f023de1 	.word	0x3f023de1
 8007db8:	7501b288 	.word	0x7501b288
 8007dbc:	3f49efe0 	.word	0x3f49efe0
 8007dc0:	b5688f3b 	.word	0xb5688f3b
 8007dc4:	3fa48228 	.word	0x3fa48228
 8007dc8:	0e884455 	.word	0x0e884455
 8007dcc:	3fc9c155 	.word	0x3fc9c155
 8007dd0:	03eb6f7d 	.word	0x03eb6f7d
 8007dd4:	3fd4d612 	.word	0x3fd4d612
 8007dd8:	55555555 	.word	0x55555555
 8007ddc:	3fc55555 	.word	0x3fc55555
 8007de0:	b12e9282 	.word	0xb12e9282
 8007de4:	3fb3b8c5 	.word	0x3fb3b8c5
 8007de8:	1b8d0159 	.word	0x1b8d0159
 8007dec:	3fe6066c 	.word	0x3fe6066c
 8007df0:	9c598ac8 	.word	0x9c598ac8
 8007df4:	40002ae5 	.word	0x40002ae5
 8007df8:	1c8a2d4b 	.word	0x1c8a2d4b
 8007dfc:	40033a27 	.word	0x40033a27
 8007e00:	54442d18 	.word	0x54442d18
 8007e04:	3ff921fb 	.word	0x3ff921fb
 8007e08:	3ff00000 	.word	0x3ff00000
 8007e0c:	3fe00000 	.word	0x3fe00000

08007e10 <__ieee754_sqrt>:
 8007e10:	f8df c150 	ldr.w	ip, [pc, #336]	; 8007f64 <__ieee754_sqrt+0x154>
 8007e14:	e92d 41f0 	stmdb	sp!, {r4, r5, r6, r7, r8, lr}
 8007e18:	ea3c 0c01 	bics.w	ip, ip, r1
 8007e1c:	460b      	mov	r3, r1
 8007e1e:	4606      	mov	r6, r0
 8007e20:	460d      	mov	r5, r1
 8007e22:	460a      	mov	r2, r1
 8007e24:	4607      	mov	r7, r0
 8007e26:	4604      	mov	r4, r0
 8007e28:	d10e      	bne.n	8007e48 <__ieee754_sqrt+0x38>
 8007e2a:	4602      	mov	r2, r0
 8007e2c:	f7f8 fb54 	bl	80004d8 <__aeabi_dmul>
 8007e30:	4602      	mov	r2, r0
 8007e32:	460b      	mov	r3, r1
 8007e34:	4630      	mov	r0, r6
 8007e36:	4629      	mov	r1, r5
 8007e38:	f7f8 f998 	bl	800016c <__adddf3>
 8007e3c:	4606      	mov	r6, r0
 8007e3e:	460d      	mov	r5, r1
 8007e40:	4630      	mov	r0, r6
 8007e42:	4629      	mov	r1, r5
 8007e44:	e8bd 81f0 	ldmia.w	sp!, {r4, r5, r6, r7, r8, pc}
 8007e48:	2900      	cmp	r1, #0
 8007e4a:	dc0d      	bgt.n	8007e68 <__ieee754_sqrt+0x58>
 8007e4c:	f021 4c00 	bic.w	ip, r1, #2147483648	; 0x80000000
 8007e50:	ea5c 0707 	orrs.w	r7, ip, r7
 8007e54:	d0f4      	beq.n	8007e40 <__ieee754_sqrt+0x30>
 8007e56:	b139      	cbz	r1, 8007e68 <__ieee754_sqrt+0x58>
 8007e58:	4602      	mov	r2, r0
 8007e5a:	f7f8 f985 	bl	8000168 <__aeabi_dsub>
 8007e5e:	4602      	mov	r2, r0
 8007e60:	460b      	mov	r3, r1
 8007e62:	f7f8 fc63 	bl	800072c <__aeabi_ddiv>
 8007e66:	e7e9      	b.n	8007e3c <__ieee754_sqrt+0x2c>
 8007e68:	1512      	asrs	r2, r2, #20
 8007e6a:	d074      	beq.n	8007f56 <__ieee754_sqrt+0x146>
 8007e6c:	2000      	movs	r0, #0
 8007e6e:	07d5      	lsls	r5, r2, #31
 8007e70:	f3c3 0313 	ubfx	r3, r3, #0, #20
 8007e74:	f443 1180 	orr.w	r1, r3, #1048576	; 0x100000
 8007e78:	bf5e      	ittt	pl
 8007e7a:	0fe3      	lsrpl	r3, r4, #31
 8007e7c:	0064      	lslpl	r4, r4, #1
 8007e7e:	eb03 0141 	addpl.w	r1, r3, r1, lsl #1
 8007e82:	0fe3      	lsrs	r3, r4, #31
 8007e84:	f2a2 36ff 	subw	r6, r2, #1023	; 0x3ff
 8007e88:	eb03 0341 	add.w	r3, r3, r1, lsl #1
 8007e8c:	2516      	movs	r5, #22
 8007e8e:	4601      	mov	r1, r0
 8007e90:	f44f 1200 	mov.w	r2, #2097152	; 0x200000
 8007e94:	1076      	asrs	r6, r6, #1
 8007e96:	0064      	lsls	r4, r4, #1
 8007e98:	188f      	adds	r7, r1, r2
 8007e9a:	429f      	cmp	r7, r3
 8007e9c:	bfde      	ittt	le
 8007e9e:	1bdb      	suble	r3, r3, r7
 8007ea0:	18b9      	addle	r1, r7, r2
 8007ea2:	1880      	addle	r0, r0, r2
 8007ea4:	005b      	lsls	r3, r3, #1
 8007ea6:	3d01      	subs	r5, #1
 8007ea8:	eb03 73d4 	add.w	r3, r3, r4, lsr #31
 8007eac:	ea4f 0252 	mov.w	r2, r2, lsr #1
 8007eb0:	ea4f 0444 	mov.w	r4, r4, lsl #1
 8007eb4:	d1f0      	bne.n	8007e98 <__ieee754_sqrt+0x88>
 8007eb6:	462a      	mov	r2, r5
 8007eb8:	f04f 0e20 	mov.w	lr, #32
 8007ebc:	f04f 4700 	mov.w	r7, #2147483648	; 0x80000000
 8007ec0:	428b      	cmp	r3, r1
 8007ec2:	eb07 0c05 	add.w	ip, r7, r5
 8007ec6:	dc02      	bgt.n	8007ece <__ieee754_sqrt+0xbe>
 8007ec8:	d113      	bne.n	8007ef2 <__ieee754_sqrt+0xe2>
 8007eca:	45a4      	cmp	ip, r4
 8007ecc:	d811      	bhi.n	8007ef2 <__ieee754_sqrt+0xe2>
 8007ece:	f1bc 0f00 	cmp.w	ip, #0
 8007ed2:	eb0c 0507 	add.w	r5, ip, r7
 8007ed6:	da43      	bge.n	8007f60 <__ieee754_sqrt+0x150>
 8007ed8:	2d00      	cmp	r5, #0
 8007eda:	db41      	blt.n	8007f60 <__ieee754_sqrt+0x150>
 8007edc:	f101 0801 	add.w	r8, r1, #1
 8007ee0:	1a5b      	subs	r3, r3, r1
 8007ee2:	4641      	mov	r1, r8
 8007ee4:	45a4      	cmp	ip, r4
 8007ee6:	bf88      	it	hi
 8007ee8:	f103 33ff 	addhi.w	r3, r3, #4294967295	; 0xffffffff
 8007eec:	eba4 040c 	sub.w	r4, r4, ip
 8007ef0:	443a      	add	r2, r7
 8007ef2:	005b      	lsls	r3, r3, #1
 8007ef4:	f1be 0e01 	subs.w	lr, lr, #1
 8007ef8:	eb03 73d4 	add.w	r3, r3, r4, lsr #31
 8007efc:	ea4f 0757 	mov.w	r7, r7, lsr #1
 8007f00:	ea4f 0444 	mov.w	r4, r4, lsl #1
 8007f04:	d1dc      	bne.n	8007ec0 <__ieee754_sqrt+0xb0>
 8007f06:	4323      	orrs	r3, r4
 8007f08:	d006      	beq.n	8007f18 <__ieee754_sqrt+0x108>
 8007f0a:	1c54      	adds	r4, r2, #1
 8007f0c:	bf0b      	itete	eq
 8007f0e:	4672      	moveq	r2, lr
 8007f10:	3201      	addne	r2, #1
 8007f12:	3001      	addeq	r0, #1
 8007f14:	f022 0201 	bicne.w	r2, r2, #1
 8007f18:	1043      	asrs	r3, r0, #1
 8007f1a:	07c1      	lsls	r1, r0, #31
 8007f1c:	ea4f 0252 	mov.w	r2, r2, lsr #1
 8007f20:	f103 537f 	add.w	r3, r3, #1069547520	; 0x3fc00000
 8007f24:	f503 1300 	add.w	r3, r3, #2097152	; 0x200000
 8007f28:	bf48      	it	mi
 8007f2a:	f042 4200 	orrmi.w	r2, r2, #2147483648	; 0x80000000
 8007f2e:	4610      	mov	r0, r2
 8007f30:	eb03 5106 	add.w	r1, r3, r6, lsl #20
 8007f34:	e782      	b.n	8007e3c <__ieee754_sqrt+0x2c>
 8007f36:	0ae3      	lsrs	r3, r4, #11
 8007f38:	3915      	subs	r1, #21
 8007f3a:	0564      	lsls	r4, r4, #21
 8007f3c:	2b00      	cmp	r3, #0
 8007f3e:	d0fa      	beq.n	8007f36 <__ieee754_sqrt+0x126>
 8007f40:	02de      	lsls	r6, r3, #11
 8007f42:	d50a      	bpl.n	8007f5a <__ieee754_sqrt+0x14a>
 8007f44:	f1c2 0020 	rsb	r0, r2, #32
 8007f48:	fa24 f000 	lsr.w	r0, r4, r0
 8007f4c:	1e55      	subs	r5, r2, #1
 8007f4e:	4094      	lsls	r4, r2
 8007f50:	4303      	orrs	r3, r0
 8007f52:	1b4a      	subs	r2, r1, r5
 8007f54:	e78a      	b.n	8007e6c <__ieee754_sqrt+0x5c>
 8007f56:	4611      	mov	r1, r2
 8007f58:	e7f0      	b.n	8007f3c <__ieee754_sqrt+0x12c>
 8007f5a:	005b      	lsls	r3, r3, #1
 8007f5c:	3201      	adds	r2, #1
 8007f5e:	e7ef      	b.n	8007f40 <__ieee754_sqrt+0x130>
 8007f60:	4688      	mov	r8, r1
 8007f62:	e7bd      	b.n	8007ee0 <__ieee754_sqrt+0xd0>
 8007f64:	7ff00000 	.word	0x7ff00000

08007f68 <fabs>:
 8007f68:	f021 4100 	bic.w	r1, r1, #2147483648	; 0x80000000
 8007f6c:	4770      	bx	lr
	...

08007f70 <nan>:
 8007f70:	2000      	movs	r0, #0
 8007f72:	4901      	ldr	r1, [pc, #4]	; (8007f78 <nan+0x8>)
 8007f74:	4770      	bx	lr
 8007f76:	bf00      	nop
 8007f78:	7ff80000 	.word	0x7ff80000

08007f7c <__errno>:
 8007f7c:	4b01      	ldr	r3, [pc, #4]	; (8007f84 <__errno+0x8>)
 8007f7e:	6818      	ldr	r0, [r3, #0]
 8007f80:	4770      	bx	lr
 8007f82:	bf00      	nop
 8007f84:	20000174 	.word	0x20000174

08007f88 <__libc_init_array>:
 8007f88:	b570      	push	{r4, r5, r6, lr}
 8007f8a:	2600      	movs	r6, #0
 8007f8c:	4d0c      	ldr	r5, [pc, #48]	; (8007fc0 <__libc_init_array+0x38>)
 8007f8e:	4c0d      	ldr	r4, [pc, #52]	; (8007fc4 <__libc_init_array+0x3c>)
 8007f90:	1b64      	subs	r4, r4, r5
 8007f92:	10a4      	asrs	r4, r4, #2
 8007f94:	42a6      	cmp	r6, r4
 8007f96:	d109      	bne.n	8007fac <__libc_init_array+0x24>
 8007f98:	f002 fec2 	bl	800ad20 <_init>
 8007f9c:	2600      	movs	r6, #0
 8007f9e:	4d0a      	ldr	r5, [pc, #40]	; (8007fc8 <__libc_init_array+0x40>)
 8007fa0:	4c0a      	ldr	r4, [pc, #40]	; (8007fcc <__libc_init_array+0x44>)
 8007fa2:	1b64      	subs	r4, r4, r5
 8007fa4:	10a4      	asrs	r4, r4, #2
 8007fa6:	42a6      	cmp	r6, r4
 8007fa8:	d105      	bne.n	8007fb6 <__libc_init_array+0x2e>
 8007faa:	bd70      	pop	{r4, r5, r6, pc}
 8007fac:	f855 3b04 	ldr.w	r3, [r5], #4
 8007fb0:	4798      	blx	r3
 8007fb2:	3601      	adds	r6, #1
 8007fb4:	e7ee      	b.n	8007f94 <__libc_init_array+0xc>
 8007fb6:	f855 3b04 	ldr.w	r3, [r5], #4
 8007fba:	4798      	blx	r3
 8007fbc:	3601      	adds	r6, #1
 8007fbe:	e7f2      	b.n	8007fa6 <__libc_init_array+0x1e>
 8007fc0:	0800b3dc 	.word	0x0800b3dc
 8007fc4:	0800b3dc 	.word	0x0800b3dc
 8007fc8:	0800b3dc 	.word	0x0800b3dc
 8007fcc:	0800b3e0 	.word	0x0800b3e0

08007fd0 <memcpy>:
 8007fd0:	440a      	add	r2, r1
 8007fd2:	4291      	cmp	r1, r2
 8007fd4:	f100 33ff 	add.w	r3, r0, #4294967295	; 0xffffffff
 8007fd8:	d100      	bne.n	8007fdc <memcpy+0xc>
 8007fda:	4770      	bx	lr
 8007fdc:	b510      	push	{r4, lr}
 8007fde:	f811 4b01 	ldrb.w	r4, [r1], #1
 8007fe2:	4291      	cmp	r1, r2
 8007fe4:	f803 4f01 	strb.w	r4, [r3, #1]!
 8007fe8:	d1f9      	bne.n	8007fde <memcpy+0xe>
 8007fea:	bd10      	pop	{r4, pc}

08007fec <memset>:
 8007fec:	4603      	mov	r3, r0
 8007fee:	4402      	add	r2, r0
 8007ff0:	4293      	cmp	r3, r2
 8007ff2:	d100      	bne.n	8007ff6 <memset+0xa>
 8007ff4:	4770      	bx	lr
 8007ff6:	f803 1b01 	strb.w	r1, [r3], #1
 8007ffa:	e7f9      	b.n	8007ff0 <memset+0x4>

08007ffc <__cvt>:
 8007ffc:	2b00      	cmp	r3, #0
 8007ffe:	e92d 47f0 	stmdb	sp!, {r4, r5, r6, r7, r8, r9, sl, lr}
 8008002:	461f      	mov	r7, r3
 8008004:	bfbb      	ittet	lt
 8008006:	f103 4300 	addlt.w	r3, r3, #2147483648	; 0x80000000
 800800a:	461f      	movlt	r7, r3
 800800c:	2300      	movge	r3, #0
 800800e:	232d      	movlt	r3, #45	; 0x2d
 8008010:	b088      	sub	sp, #32
 8008012:	4614      	mov	r4, r2
 8008014:	9a12      	ldr	r2, [sp, #72]	; 0x48
 8008016:	9d10      	ldr	r5, [sp, #64]	; 0x40
 8008018:	7013      	strb	r3, [r2, #0]
 800801a:	9b14      	ldr	r3, [sp, #80]	; 0x50
 800801c:	f8dd a04c 	ldr.w	sl, [sp, #76]	; 0x4c
 8008020:	f023 0820 	bic.w	r8, r3, #32
 8008024:	f1b8 0f46 	cmp.w	r8, #70	; 0x46
 8008028:	d005      	beq.n	8008036 <__cvt+0x3a>
 800802a:	f1b8 0f45 	cmp.w	r8, #69	; 0x45
 800802e:	d100      	bne.n	8008032 <__cvt+0x36>
 8008030:	3501      	adds	r5, #1
 8008032:	2302      	movs	r3, #2
 8008034:	e000      	b.n	8008038 <__cvt+0x3c>
 8008036:	2303      	movs	r3, #3
 8008038:	aa07      	add	r2, sp, #28
 800803a:	9204      	str	r2, [sp, #16]
 800803c:	aa06      	add	r2, sp, #24
 800803e:	e9cd a202 	strd	sl, r2, [sp, #8]
 8008042:	e9cd 3500 	strd	r3, r5, [sp]
 8008046:	4622      	mov	r2, r4
 8008048:	463b      	mov	r3, r7
 800804a:	f000 fced 	bl	8008a28 <_dtoa_r>
 800804e:	f1b8 0f47 	cmp.w	r8, #71	; 0x47
 8008052:	4606      	mov	r6, r0
 8008054:	d102      	bne.n	800805c <__cvt+0x60>
 8008056:	9b11      	ldr	r3, [sp, #68]	; 0x44
 8008058:	07db      	lsls	r3, r3, #31
 800805a:	d522      	bpl.n	80080a2 <__cvt+0xa6>
 800805c:	f1b8 0f46 	cmp.w	r8, #70	; 0x46
 8008060:	eb06 0905 	add.w	r9, r6, r5
 8008064:	d110      	bne.n	8008088 <__cvt+0x8c>
 8008066:	7833      	ldrb	r3, [r6, #0]
 8008068:	2b30      	cmp	r3, #48	; 0x30
 800806a:	d10a      	bne.n	8008082 <__cvt+0x86>
 800806c:	2200      	movs	r2, #0
 800806e:	2300      	movs	r3, #0
 8008070:	4620      	mov	r0, r4
 8008072:	4639      	mov	r1, r7
 8008074:	f7f8 fc98 	bl	80009a8 <__aeabi_dcmpeq>
 8008078:	b918      	cbnz	r0, 8008082 <__cvt+0x86>
 800807a:	f1c5 0501 	rsb	r5, r5, #1
 800807e:	f8ca 5000 	str.w	r5, [sl]
 8008082:	f8da 3000 	ldr.w	r3, [sl]
 8008086:	4499      	add	r9, r3
 8008088:	2200      	movs	r2, #0
 800808a:	2300      	movs	r3, #0
 800808c:	4620      	mov	r0, r4
 800808e:	4639      	mov	r1, r7
 8008090:	f7f8 fc8a 	bl	80009a8 <__aeabi_dcmpeq>
 8008094:	b108      	cbz	r0, 800809a <__cvt+0x9e>
 8008096:	f8cd 901c 	str.w	r9, [sp, #28]
 800809a:	2230      	movs	r2, #48	; 0x30
 800809c:	9b07      	ldr	r3, [sp, #28]
 800809e:	454b      	cmp	r3, r9
 80080a0:	d307      	bcc.n	80080b2 <__cvt+0xb6>
 80080a2:	4630      	mov	r0, r6
 80080a4:	9b07      	ldr	r3, [sp, #28]
 80080a6:	9a15      	ldr	r2, [sp, #84]	; 0x54
 80080a8:	1b9b      	subs	r3, r3, r6
 80080aa:	6013      	str	r3, [r2, #0]
 80080ac:	b008      	add	sp, #32
 80080ae:	e8bd 87f0 	ldmia.w	sp!, {r4, r5, r6, r7, r8, r9, sl, pc}
 80080b2:	1c59      	adds	r1, r3, #1
 80080b4:	9107      	str	r1, [sp, #28]
 80080b6:	701a      	strb	r2, [r3, #0]
 80080b8:	e7f0      	b.n	800809c <__cvt+0xa0>

080080ba <__exponent>:
 80080ba:	4603      	mov	r3, r0
 80080bc:	b5f7      	push	{r0, r1, r2, r4, r5, r6, r7, lr}
 80080be:	2900      	cmp	r1, #0
 80080c0:	f803 2b02 	strb.w	r2, [r3], #2
 80080c4:	bfb6      	itet	lt
 80080c6:	222d      	movlt	r2, #45	; 0x2d
 80080c8:	222b      	movge	r2, #43	; 0x2b
 80080ca:	4249      	neglt	r1, r1
 80080cc:	2909      	cmp	r1, #9
 80080ce:	7042      	strb	r2, [r0, #1]
 80080d0:	dd2b      	ble.n	800812a <__exponent+0x70>
 80080d2:	f10d 0407 	add.w	r4, sp, #7
 80080d6:	46a4      	mov	ip, r4
 80080d8:	270a      	movs	r7, #10
 80080da:	fb91 f6f7 	sdiv	r6, r1, r7
 80080de:	460a      	mov	r2, r1
 80080e0:	46a6      	mov	lr, r4
 80080e2:	fb07 1516 	mls	r5, r7, r6, r1
 80080e6:	2a63      	cmp	r2, #99	; 0x63
 80080e8:	f105 0530 	add.w	r5, r5, #48	; 0x30
 80080ec:	4631      	mov	r1, r6
 80080ee:	f104 34ff 	add.w	r4, r4, #4294967295	; 0xffffffff
 80080f2:	f80e 5c01 	strb.w	r5, [lr, #-1]
 80080f6:	dcf0      	bgt.n	80080da <__exponent+0x20>
 80080f8:	3130      	adds	r1, #48	; 0x30
 80080fa:	f1ae 0502 	sub.w	r5, lr, #2
 80080fe:	f804 1c01 	strb.w	r1, [r4, #-1]
 8008102:	4629      	mov	r1, r5
 8008104:	1c44      	adds	r4, r0, #1
 8008106:	4561      	cmp	r1, ip
 8008108:	d30a      	bcc.n	8008120 <__exponent+0x66>
 800810a:	f10d 0209 	add.w	r2, sp, #9
 800810e:	eba2 020e 	sub.w	r2, r2, lr
 8008112:	4565      	cmp	r5, ip
 8008114:	bf88      	it	hi
 8008116:	2200      	movhi	r2, #0
 8008118:	4413      	add	r3, r2
 800811a:	1a18      	subs	r0, r3, r0
 800811c:	b003      	add	sp, #12
 800811e:	bdf0      	pop	{r4, r5, r6, r7, pc}
 8008120:	f811 2b01 	ldrb.w	r2, [r1], #1
 8008124:	f804 2f01 	strb.w	r2, [r4, #1]!
 8008128:	e7ed      	b.n	8008106 <__exponent+0x4c>
 800812a:	2330      	movs	r3, #48	; 0x30
 800812c:	3130      	adds	r1, #48	; 0x30
 800812e:	7083      	strb	r3, [r0, #2]
 8008130:	70c1      	strb	r1, [r0, #3]
 8008132:	1d03      	adds	r3, r0, #4
 8008134:	e7f1      	b.n	800811a <__exponent+0x60>
	...

08008138 <_printf_float>:
 8008138:	e92d 4ff0 	stmdb	sp!, {r4, r5, r6, r7, r8, r9, sl, fp, lr}
 800813c:	b091      	sub	sp, #68	; 0x44
 800813e:	460c      	mov	r4, r1
 8008140:	f8dd 8068 	ldr.w	r8, [sp, #104]	; 0x68
 8008144:	4616      	mov	r6, r2
 8008146:	461f      	mov	r7, r3
 8008148:	4605      	mov	r5, r0
 800814a:	f001 fa5b 	bl	8009604 <_localeconv_r>
 800814e:	6803      	ldr	r3, [r0, #0]
 8008150:	4618      	mov	r0, r3
 8008152:	9309      	str	r3, [sp, #36]	; 0x24
 8008154:	f7f7 fffc 	bl	8000150 <strlen>
 8008158:	2300      	movs	r3, #0
 800815a:	930e      	str	r3, [sp, #56]	; 0x38
 800815c:	f8d8 3000 	ldr.w	r3, [r8]
 8008160:	900a      	str	r0, [sp, #40]	; 0x28
 8008162:	3307      	adds	r3, #7
 8008164:	f023 0307 	bic.w	r3, r3, #7
 8008168:	f103 0208 	add.w	r2, r3, #8
 800816c:	f894 9018 	ldrb.w	r9, [r4, #24]
 8008170:	f8d4 b000 	ldr.w	fp, [r4]
 8008174:	f8c8 2000 	str.w	r2, [r8]
 8008178:	e9d3 2300 	ldrd	r2, r3, [r3]
 800817c:	e9c4 2312 	strd	r2, r3, [r4, #72]	; 0x48
 8008180:	e9d4 8a12 	ldrd	r8, sl, [r4, #72]	; 0x48
 8008184:	f02a 4300 	bic.w	r3, sl, #2147483648	; 0x80000000
 8008188:	930b      	str	r3, [sp, #44]	; 0x2c
 800818a:	f04f 32ff 	mov.w	r2, #4294967295	; 0xffffffff
 800818e:	4640      	mov	r0, r8
 8008190:	4b9c      	ldr	r3, [pc, #624]	; (8008404 <_printf_float+0x2cc>)
 8008192:	990b      	ldr	r1, [sp, #44]	; 0x2c
 8008194:	f7f8 fc3a 	bl	8000a0c <__aeabi_dcmpun>
 8008198:	bb70      	cbnz	r0, 80081f8 <_printf_float+0xc0>
 800819a:	f04f 32ff 	mov.w	r2, #4294967295	; 0xffffffff
 800819e:	4640      	mov	r0, r8
 80081a0:	4b98      	ldr	r3, [pc, #608]	; (8008404 <_printf_float+0x2cc>)
 80081a2:	990b      	ldr	r1, [sp, #44]	; 0x2c
 80081a4:	f7f8 fc14 	bl	80009d0 <__aeabi_dcmple>
 80081a8:	bb30      	cbnz	r0, 80081f8 <_printf_float+0xc0>
 80081aa:	2200      	movs	r2, #0
 80081ac:	2300      	movs	r3, #0
 80081ae:	4640      	mov	r0, r8
 80081b0:	4651      	mov	r1, sl
 80081b2:	f7f8 fc03 	bl	80009bc <__aeabi_dcmplt>
 80081b6:	b110      	cbz	r0, 80081be <_printf_float+0x86>
 80081b8:	232d      	movs	r3, #45	; 0x2d
 80081ba:	f884 3043 	strb.w	r3, [r4, #67]	; 0x43
 80081be:	4b92      	ldr	r3, [pc, #584]	; (8008408 <_printf_float+0x2d0>)
 80081c0:	4892      	ldr	r0, [pc, #584]	; (800840c <_printf_float+0x2d4>)
 80081c2:	f1b9 0f47 	cmp.w	r9, #71	; 0x47
 80081c6:	bf94      	ite	ls
 80081c8:	4698      	movls	r8, r3
 80081ca:	4680      	movhi	r8, r0
 80081cc:	2303      	movs	r3, #3
 80081ce:	f04f 0a00 	mov.w	sl, #0
 80081d2:	6123      	str	r3, [r4, #16]
 80081d4:	f02b 0304 	bic.w	r3, fp, #4
 80081d8:	6023      	str	r3, [r4, #0]
 80081da:	4633      	mov	r3, r6
 80081dc:	4621      	mov	r1, r4
 80081de:	4628      	mov	r0, r5
 80081e0:	9700      	str	r7, [sp, #0]
 80081e2:	aa0f      	add	r2, sp, #60	; 0x3c
 80081e4:	f000 f9d4 	bl	8008590 <_printf_common>
 80081e8:	3001      	adds	r0, #1
 80081ea:	f040 8090 	bne.w	800830e <_printf_float+0x1d6>
 80081ee:	f04f 30ff 	mov.w	r0, #4294967295	; 0xffffffff
 80081f2:	b011      	add	sp, #68	; 0x44
 80081f4:	e8bd 8ff0 	ldmia.w	sp!, {r4, r5, r6, r7, r8, r9, sl, fp, pc}
 80081f8:	4642      	mov	r2, r8
 80081fa:	4653      	mov	r3, sl
 80081fc:	4640      	mov	r0, r8
 80081fe:	4651      	mov	r1, sl
 8008200:	f7f8 fc04 	bl	8000a0c <__aeabi_dcmpun>
 8008204:	b148      	cbz	r0, 800821a <_printf_float+0xe2>
 8008206:	f1ba 0f00 	cmp.w	sl, #0
 800820a:	bfb8      	it	lt
 800820c:	232d      	movlt	r3, #45	; 0x2d
 800820e:	4880      	ldr	r0, [pc, #512]	; (8008410 <_printf_float+0x2d8>)
 8008210:	bfb8      	it	lt
 8008212:	f884 3043 	strblt.w	r3, [r4, #67]	; 0x43
 8008216:	4b7f      	ldr	r3, [pc, #508]	; (8008414 <_printf_float+0x2dc>)
 8008218:	e7d3      	b.n	80081c2 <_printf_float+0x8a>
 800821a:	6863      	ldr	r3, [r4, #4]
 800821c:	f009 01df 	and.w	r1, r9, #223	; 0xdf
 8008220:	1c5a      	adds	r2, r3, #1
 8008222:	d142      	bne.n	80082aa <_printf_float+0x172>
 8008224:	2306      	movs	r3, #6
 8008226:	6063      	str	r3, [r4, #4]
 8008228:	2200      	movs	r2, #0
 800822a:	9206      	str	r2, [sp, #24]
 800822c:	aa0e      	add	r2, sp, #56	; 0x38
 800822e:	e9cd 9204 	strd	r9, r2, [sp, #16]
 8008232:	aa0d      	add	r2, sp, #52	; 0x34
 8008234:	f44b 6380 	orr.w	r3, fp, #1024	; 0x400
 8008238:	9203      	str	r2, [sp, #12]
 800823a:	f10d 0233 	add.w	r2, sp, #51	; 0x33
 800823e:	e9cd 3201 	strd	r3, r2, [sp, #4]
 8008242:	6023      	str	r3, [r4, #0]
 8008244:	6863      	ldr	r3, [r4, #4]
 8008246:	4642      	mov	r2, r8
 8008248:	9300      	str	r3, [sp, #0]
 800824a:	4628      	mov	r0, r5
 800824c:	4653      	mov	r3, sl
 800824e:	910b      	str	r1, [sp, #44]	; 0x2c
 8008250:	f7ff fed4 	bl	8007ffc <__cvt>
 8008254:	990b      	ldr	r1, [sp, #44]	; 0x2c
 8008256:	4680      	mov	r8, r0
 8008258:	2947      	cmp	r1, #71	; 0x47
 800825a:	990d      	ldr	r1, [sp, #52]	; 0x34
 800825c:	d108      	bne.n	8008270 <_printf_float+0x138>
 800825e:	1cc8      	adds	r0, r1, #3
 8008260:	db02      	blt.n	8008268 <_printf_float+0x130>
 8008262:	6863      	ldr	r3, [r4, #4]
 8008264:	4299      	cmp	r1, r3
 8008266:	dd40      	ble.n	80082ea <_printf_float+0x1b2>
 8008268:	f1a9 0902 	sub.w	r9, r9, #2
 800826c:	fa5f f989 	uxtb.w	r9, r9
 8008270:	f1b9 0f65 	cmp.w	r9, #101	; 0x65
 8008274:	d81f      	bhi.n	80082b6 <_printf_float+0x17e>
 8008276:	464a      	mov	r2, r9
 8008278:	3901      	subs	r1, #1
 800827a:	f104 0050 	add.w	r0, r4, #80	; 0x50
 800827e:	910d      	str	r1, [sp, #52]	; 0x34
 8008280:	f7ff ff1b 	bl	80080ba <__exponent>
 8008284:	9a0e      	ldr	r2, [sp, #56]	; 0x38
 8008286:	4682      	mov	sl, r0
 8008288:	1813      	adds	r3, r2, r0
 800828a:	2a01      	cmp	r2, #1
 800828c:	6123      	str	r3, [r4, #16]
 800828e:	dc02      	bgt.n	8008296 <_printf_float+0x15e>
 8008290:	6822      	ldr	r2, [r4, #0]
 8008292:	07d2      	lsls	r2, r2, #31
 8008294:	d501      	bpl.n	800829a <_printf_float+0x162>
 8008296:	3301      	adds	r3, #1
 8008298:	6123      	str	r3, [r4, #16]
 800829a:	f89d 3033 	ldrb.w	r3, [sp, #51]	; 0x33
 800829e:	2b00      	cmp	r3, #0
 80082a0:	d09b      	beq.n	80081da <_printf_float+0xa2>
 80082a2:	232d      	movs	r3, #45	; 0x2d
 80082a4:	f884 3043 	strb.w	r3, [r4, #67]	; 0x43
 80082a8:	e797      	b.n	80081da <_printf_float+0xa2>
 80082aa:	2947      	cmp	r1, #71	; 0x47
 80082ac:	d1bc      	bne.n	8008228 <_printf_float+0xf0>
 80082ae:	2b00      	cmp	r3, #0
 80082b0:	d1ba      	bne.n	8008228 <_printf_float+0xf0>
 80082b2:	2301      	movs	r3, #1
 80082b4:	e7b7      	b.n	8008226 <_printf_float+0xee>
 80082b6:	f1b9 0f66 	cmp.w	r9, #102	; 0x66
 80082ba:	d118      	bne.n	80082ee <_printf_float+0x1b6>
 80082bc:	2900      	cmp	r1, #0
 80082be:	6863      	ldr	r3, [r4, #4]
 80082c0:	dd0b      	ble.n	80082da <_printf_float+0x1a2>
 80082c2:	6121      	str	r1, [r4, #16]
 80082c4:	b913      	cbnz	r3, 80082cc <_printf_float+0x194>
 80082c6:	6822      	ldr	r2, [r4, #0]
 80082c8:	07d0      	lsls	r0, r2, #31
 80082ca:	d502      	bpl.n	80082d2 <_printf_float+0x19a>
 80082cc:	3301      	adds	r3, #1
 80082ce:	440b      	add	r3, r1
 80082d0:	6123      	str	r3, [r4, #16]
 80082d2:	f04f 0a00 	mov.w	sl, #0
 80082d6:	65a1      	str	r1, [r4, #88]	; 0x58
 80082d8:	e7df      	b.n	800829a <_printf_float+0x162>
 80082da:	b913      	cbnz	r3, 80082e2 <_printf_float+0x1aa>
 80082dc:	6822      	ldr	r2, [r4, #0]
 80082de:	07d2      	lsls	r2, r2, #31
 80082e0:	d501      	bpl.n	80082e6 <_printf_float+0x1ae>
 80082e2:	3302      	adds	r3, #2
 80082e4:	e7f4      	b.n	80082d0 <_printf_float+0x198>
 80082e6:	2301      	movs	r3, #1
 80082e8:	e7f2      	b.n	80082d0 <_printf_float+0x198>
 80082ea:	f04f 0967 	mov.w	r9, #103	; 0x67
 80082ee:	9b0e      	ldr	r3, [sp, #56]	; 0x38
 80082f0:	4299      	cmp	r1, r3
 80082f2:	db05      	blt.n	8008300 <_printf_float+0x1c8>
 80082f4:	6823      	ldr	r3, [r4, #0]
 80082f6:	6121      	str	r1, [r4, #16]
 80082f8:	07d8      	lsls	r0, r3, #31
 80082fa:	d5ea      	bpl.n	80082d2 <_printf_float+0x19a>
 80082fc:	1c4b      	adds	r3, r1, #1
 80082fe:	e7e7      	b.n	80082d0 <_printf_float+0x198>
 8008300:	2900      	cmp	r1, #0
 8008302:	bfcc      	ite	gt
 8008304:	2201      	movgt	r2, #1
 8008306:	f1c1 0202 	rsble	r2, r1, #2
 800830a:	4413      	add	r3, r2
 800830c:	e7e0      	b.n	80082d0 <_printf_float+0x198>
 800830e:	6823      	ldr	r3, [r4, #0]
 8008310:	055a      	lsls	r2, r3, #21
 8008312:	d407      	bmi.n	8008324 <_printf_float+0x1ec>
 8008314:	6923      	ldr	r3, [r4, #16]
 8008316:	4642      	mov	r2, r8
 8008318:	4631      	mov	r1, r6
 800831a:	4628      	mov	r0, r5
 800831c:	47b8      	blx	r7
 800831e:	3001      	adds	r0, #1
 8008320:	d12b      	bne.n	800837a <_printf_float+0x242>
 8008322:	e764      	b.n	80081ee <_printf_float+0xb6>
 8008324:	f1b9 0f65 	cmp.w	r9, #101	; 0x65
 8008328:	f240 80dd 	bls.w	80084e6 <_printf_float+0x3ae>
 800832c:	e9d4 0112 	ldrd	r0, r1, [r4, #72]	; 0x48
 8008330:	2200      	movs	r2, #0
 8008332:	2300      	movs	r3, #0
 8008334:	f7f8 fb38 	bl	80009a8 <__aeabi_dcmpeq>
 8008338:	2800      	cmp	r0, #0
 800833a:	d033      	beq.n	80083a4 <_printf_float+0x26c>
 800833c:	2301      	movs	r3, #1
 800833e:	4631      	mov	r1, r6
 8008340:	4628      	mov	r0, r5
 8008342:	4a35      	ldr	r2, [pc, #212]	; (8008418 <_printf_float+0x2e0>)
 8008344:	47b8      	blx	r7
 8008346:	3001      	adds	r0, #1
 8008348:	f43f af51 	beq.w	80081ee <_printf_float+0xb6>
 800834c:	e9dd 230d 	ldrd	r2, r3, [sp, #52]	; 0x34
 8008350:	429a      	cmp	r2, r3
 8008352:	db02      	blt.n	800835a <_printf_float+0x222>
 8008354:	6823      	ldr	r3, [r4, #0]
 8008356:	07d8      	lsls	r0, r3, #31
 8008358:	d50f      	bpl.n	800837a <_printf_float+0x242>
 800835a:	e9dd 2309 	ldrd	r2, r3, [sp, #36]	; 0x24
 800835e:	4631      	mov	r1, r6
 8008360:	4628      	mov	r0, r5
 8008362:	47b8      	blx	r7
 8008364:	3001      	adds	r0, #1
 8008366:	f43f af42 	beq.w	80081ee <_printf_float+0xb6>
 800836a:	f04f 0800 	mov.w	r8, #0
 800836e:	f104 091a 	add.w	r9, r4, #26
 8008372:	9b0e      	ldr	r3, [sp, #56]	; 0x38
 8008374:	3b01      	subs	r3, #1
 8008376:	4543      	cmp	r3, r8
 8008378:	dc09      	bgt.n	800838e <_printf_float+0x256>
 800837a:	6823      	ldr	r3, [r4, #0]
 800837c:	079b      	lsls	r3, r3, #30
 800837e:	f100 8102 	bmi.w	8008586 <_printf_float+0x44e>
 8008382:	68e0      	ldr	r0, [r4, #12]
 8008384:	9b0f      	ldr	r3, [sp, #60]	; 0x3c
 8008386:	4298      	cmp	r0, r3
 8008388:	bfb8      	it	lt
 800838a:	4618      	movlt	r0, r3
 800838c:	e731      	b.n	80081f2 <_printf_float+0xba>
 800838e:	2301      	movs	r3, #1
 8008390:	464a      	mov	r2, r9
 8008392:	4631      	mov	r1, r6
 8008394:	4628      	mov	r0, r5
 8008396:	47b8      	blx	r7
 8008398:	3001      	adds	r0, #1
 800839a:	f43f af28 	beq.w	80081ee <_printf_float+0xb6>
 800839e:	f108 0801 	add.w	r8, r8, #1
 80083a2:	e7e6      	b.n	8008372 <_printf_float+0x23a>
 80083a4:	9b0d      	ldr	r3, [sp, #52]	; 0x34
 80083a6:	2b00      	cmp	r3, #0
 80083a8:	dc38      	bgt.n	800841c <_printf_float+0x2e4>
 80083aa:	2301      	movs	r3, #1
 80083ac:	4631      	mov	r1, r6
 80083ae:	4628      	mov	r0, r5
 80083b0:	4a19      	ldr	r2, [pc, #100]	; (8008418 <_printf_float+0x2e0>)
 80083b2:	47b8      	blx	r7
 80083b4:	3001      	adds	r0, #1
 80083b6:	f43f af1a 	beq.w	80081ee <_printf_float+0xb6>
 80083ba:	e9dd 230d 	ldrd	r2, r3, [sp, #52]	; 0x34
 80083be:	4313      	orrs	r3, r2
 80083c0:	d102      	bne.n	80083c8 <_printf_float+0x290>
 80083c2:	6823      	ldr	r3, [r4, #0]
 80083c4:	07d9      	lsls	r1, r3, #31
 80083c6:	d5d8      	bpl.n	800837a <_printf_float+0x242>
 80083c8:	e9dd 2309 	ldrd	r2, r3, [sp, #36]	; 0x24
 80083cc:	4631      	mov	r1, r6
 80083ce:	4628      	mov	r0, r5
 80083d0:	47b8      	blx	r7
 80083d2:	3001      	adds	r0, #1
 80083d4:	f43f af0b 	beq.w	80081ee <_printf_float+0xb6>
 80083d8:	f04f 0900 	mov.w	r9, #0
 80083dc:	f104 0a1a 	add.w	sl, r4, #26
 80083e0:	9b0d      	ldr	r3, [sp, #52]	; 0x34
 80083e2:	425b      	negs	r3, r3
 80083e4:	454b      	cmp	r3, r9
 80083e6:	dc01      	bgt.n	80083ec <_printf_float+0x2b4>
 80083e8:	9b0e      	ldr	r3, [sp, #56]	; 0x38
 80083ea:	e794      	b.n	8008316 <_printf_float+0x1de>
 80083ec:	2301      	movs	r3, #1
 80083ee:	4652      	mov	r2, sl
 80083f0:	4631      	mov	r1, r6
 80083f2:	4628      	mov	r0, r5
 80083f4:	47b8      	blx	r7
 80083f6:	3001      	adds	r0, #1
 80083f8:	f43f aef9 	beq.w	80081ee <_printf_float+0xb6>
 80083fc:	f109 0901 	add.w	r9, r9, #1
 8008400:	e7ee      	b.n	80083e0 <_printf_float+0x2a8>
 8008402:	bf00      	nop
 8008404:	7fefffff 	.word	0x7fefffff
 8008408:	0800aff8 	.word	0x0800aff8
 800840c:	0800affc 	.word	0x0800affc
 8008410:	0800b004 	.word	0x0800b004
 8008414:	0800b000 	.word	0x0800b000
 8008418:	0800b008 	.word	0x0800b008
 800841c:	9a0e      	ldr	r2, [sp, #56]	; 0x38
 800841e:	6da3      	ldr	r3, [r4, #88]	; 0x58
 8008420:	429a      	cmp	r2, r3
 8008422:	bfa8      	it	ge
 8008424:	461a      	movge	r2, r3
 8008426:	2a00      	cmp	r2, #0
 8008428:	4691      	mov	r9, r2
 800842a:	dc37      	bgt.n	800849c <_printf_float+0x364>
 800842c:	f04f 0b00 	mov.w	fp, #0
 8008430:	ea29 79e9 	bic.w	r9, r9, r9, asr #31
 8008434:	f104 021a 	add.w	r2, r4, #26
 8008438:	f8d4 a058 	ldr.w	sl, [r4, #88]	; 0x58
 800843c:	ebaa 0309 	sub.w	r3, sl, r9
 8008440:	455b      	cmp	r3, fp
 8008442:	dc33      	bgt.n	80084ac <_printf_float+0x374>
 8008444:	e9dd 230d 	ldrd	r2, r3, [sp, #52]	; 0x34
 8008448:	429a      	cmp	r2, r3
 800844a:	db3b      	blt.n	80084c4 <_printf_float+0x38c>
 800844c:	6823      	ldr	r3, [r4, #0]
 800844e:	07da      	lsls	r2, r3, #31
 8008450:	d438      	bmi.n	80084c4 <_printf_float+0x38c>
 8008452:	9a0e      	ldr	r2, [sp, #56]	; 0x38
 8008454:	990d      	ldr	r1, [sp, #52]	; 0x34
 8008456:	eba2 030a 	sub.w	r3, r2, sl
 800845a:	eba2 0901 	sub.w	r9, r2, r1
 800845e:	4599      	cmp	r9, r3
 8008460:	bfa8      	it	ge
 8008462:	4699      	movge	r9, r3
 8008464:	f1b9 0f00 	cmp.w	r9, #0
 8008468:	dc34      	bgt.n	80084d4 <_printf_float+0x39c>
 800846a:	f04f 0800 	mov.w	r8, #0
 800846e:	ea29 79e9 	bic.w	r9, r9, r9, asr #31
 8008472:	f104 0a1a 	add.w	sl, r4, #26
 8008476:	e9dd 230d 	ldrd	r2, r3, [sp, #52]	; 0x34
 800847a:	1a9b      	subs	r3, r3, r2
 800847c:	eba3 0309 	sub.w	r3, r3, r9
 8008480:	4543      	cmp	r3, r8
 8008482:	f77f af7a 	ble.w	800837a <_printf_float+0x242>
 8008486:	2301      	movs	r3, #1
 8008488:	4652      	mov	r2, sl
 800848a:	4631      	mov	r1, r6
 800848c:	4628      	mov	r0, r5
 800848e:	47b8      	blx	r7
 8008490:	3001      	adds	r0, #1
 8008492:	f43f aeac 	beq.w	80081ee <_printf_float+0xb6>
 8008496:	f108 0801 	add.w	r8, r8, #1
 800849a:	e7ec      	b.n	8008476 <_printf_float+0x33e>
 800849c:	4613      	mov	r3, r2
 800849e:	4631      	mov	r1, r6
 80084a0:	4642      	mov	r2, r8
 80084a2:	4628      	mov	r0, r5
 80084a4:	47b8      	blx	r7
 80084a6:	3001      	adds	r0, #1
 80084a8:	d1c0      	bne.n	800842c <_printf_float+0x2f4>
 80084aa:	e6a0      	b.n	80081ee <_printf_float+0xb6>
 80084ac:	2301      	movs	r3, #1
 80084ae:	4631      	mov	r1, r6
 80084b0:	4628      	mov	r0, r5
 80084b2:	920b      	str	r2, [sp, #44]	; 0x2c
 80084b4:	47b8      	blx	r7
 80084b6:	3001      	adds	r0, #1
 80084b8:	f43f ae99 	beq.w	80081ee <_printf_float+0xb6>
 80084bc:	9a0b      	ldr	r2, [sp, #44]	; 0x2c
 80084be:	f10b 0b01 	add.w	fp, fp, #1
 80084c2:	e7b9      	b.n	8008438 <_printf_float+0x300>
 80084c4:	4631      	mov	r1, r6
 80084c6:	e9dd 2309 	ldrd	r2, r3, [sp, #36]	; 0x24
 80084ca:	4628      	mov	r0, r5
 80084cc:	47b8      	blx	r7
 80084ce:	3001      	adds	r0, #1
 80084d0:	d1bf      	bne.n	8008452 <_printf_float+0x31a>
 80084d2:	e68c      	b.n	80081ee <_printf_float+0xb6>
 80084d4:	464b      	mov	r3, r9
 80084d6:	4631      	mov	r1, r6
 80084d8:	4628      	mov	r0, r5
 80084da:	eb08 020a 	add.w	r2, r8, sl
 80084de:	47b8      	blx	r7
 80084e0:	3001      	adds	r0, #1
 80084e2:	d1c2      	bne.n	800846a <_printf_float+0x332>
 80084e4:	e683      	b.n	80081ee <_printf_float+0xb6>
 80084e6:	9a0e      	ldr	r2, [sp, #56]	; 0x38
 80084e8:	2a01      	cmp	r2, #1
 80084ea:	dc01      	bgt.n	80084f0 <_printf_float+0x3b8>
 80084ec:	07db      	lsls	r3, r3, #31
 80084ee:	d537      	bpl.n	8008560 <_printf_float+0x428>
 80084f0:	2301      	movs	r3, #1
 80084f2:	4642      	mov	r2, r8
 80084f4:	4631      	mov	r1, r6
 80084f6:	4628      	mov	r0, r5
 80084f8:	47b8      	blx	r7
 80084fa:	3001      	adds	r0, #1
 80084fc:	f43f ae77 	beq.w	80081ee <_printf_float+0xb6>
 8008500:	e9dd 2309 	ldrd	r2, r3, [sp, #36]	; 0x24
 8008504:	4631      	mov	r1, r6
 8008506:	4628      	mov	r0, r5
 8008508:	47b8      	blx	r7
 800850a:	3001      	adds	r0, #1
 800850c:	f43f ae6f 	beq.w	80081ee <_printf_float+0xb6>
 8008510:	e9d4 0112 	ldrd	r0, r1, [r4, #72]	; 0x48
 8008514:	2200      	movs	r2, #0
 8008516:	2300      	movs	r3, #0
 8008518:	f7f8 fa46 	bl	80009a8 <__aeabi_dcmpeq>
 800851c:	b9d8      	cbnz	r0, 8008556 <_printf_float+0x41e>
 800851e:	9b0e      	ldr	r3, [sp, #56]	; 0x38
 8008520:	f108 0201 	add.w	r2, r8, #1
 8008524:	3b01      	subs	r3, #1
 8008526:	4631      	mov	r1, r6
 8008528:	4628      	mov	r0, r5
 800852a:	47b8      	blx	r7
 800852c:	3001      	adds	r0, #1
 800852e:	d10e      	bne.n	800854e <_printf_float+0x416>
 8008530:	e65d      	b.n	80081ee <_printf_float+0xb6>
 8008532:	2301      	movs	r3, #1
 8008534:	464a      	mov	r2, r9
 8008536:	4631      	mov	r1, r6
 8008538:	4628      	mov	r0, r5
 800853a:	47b8      	blx	r7
 800853c:	3001      	adds	r0, #1
 800853e:	f43f ae56 	beq.w	80081ee <_printf_float+0xb6>
 8008542:	f108 0801 	add.w	r8, r8, #1
 8008546:	9b0e      	ldr	r3, [sp, #56]	; 0x38
 8008548:	3b01      	subs	r3, #1
 800854a:	4543      	cmp	r3, r8
 800854c:	dcf1      	bgt.n	8008532 <_printf_float+0x3fa>
 800854e:	4653      	mov	r3, sl
 8008550:	f104 0250 	add.w	r2, r4, #80	; 0x50
 8008554:	e6e0      	b.n	8008318 <_printf_float+0x1e0>
 8008556:	f04f 0800 	mov.w	r8, #0
 800855a:	f104 091a 	add.w	r9, r4, #26
 800855e:	e7f2      	b.n	8008546 <_printf_float+0x40e>
 8008560:	2301      	movs	r3, #1
 8008562:	4642      	mov	r2, r8
 8008564:	e7df      	b.n	8008526 <_printf_float+0x3ee>
 8008566:	2301      	movs	r3, #1
 8008568:	464a      	mov	r2, r9
 800856a:	4631      	mov	r1, r6
 800856c:	4628      	mov	r0, r5
 800856e:	47b8      	blx	r7
 8008570:	3001      	adds	r0, #1
 8008572:	f43f ae3c 	beq.w	80081ee <_printf_float+0xb6>
 8008576:	f108 0801 	add.w	r8, r8, #1
 800857a:	68e3      	ldr	r3, [r4, #12]
 800857c:	990f      	ldr	r1, [sp, #60]	; 0x3c
 800857e:	1a5b      	subs	r3, r3, r1
 8008580:	4543      	cmp	r3, r8
 8008582:	dcf0      	bgt.n	8008566 <_printf_float+0x42e>
 8008584:	e6fd      	b.n	8008382 <_printf_float+0x24a>
 8008586:	f04f 0800 	mov.w	r8, #0
 800858a:	f104 0919 	add.w	r9, r4, #25
 800858e:	e7f4      	b.n	800857a <_printf_float+0x442>

08008590 <_printf_common>:
 8008590:	e92d 47f0 	stmdb	sp!, {r4, r5, r6, r7, r8, r9, sl, lr}
 8008594:	4616      	mov	r6, r2
 8008596:	4699      	mov	r9, r3
 8008598:	688a      	ldr	r2, [r1, #8]
 800859a:	690b      	ldr	r3, [r1, #16]
 800859c:	4607      	mov	r7, r0
 800859e:	4293      	cmp	r3, r2
 80085a0:	bfb8      	it	lt
 80085a2:	4613      	movlt	r3, r2
 80085a4:	6033      	str	r3, [r6, #0]
 80085a6:	f891 2043 	ldrb.w	r2, [r1, #67]	; 0x43
 80085aa:	460c      	mov	r4, r1
 80085ac:	f8dd 8020 	ldr.w	r8, [sp, #32]
 80085b0:	b10a      	cbz	r2, 80085b6 <_printf_common+0x26>
 80085b2:	3301      	adds	r3, #1
 80085b4:	6033      	str	r3, [r6, #0]
 80085b6:	6823      	ldr	r3, [r4, #0]
 80085b8:	0699      	lsls	r1, r3, #26
 80085ba:	bf42      	ittt	mi
 80085bc:	6833      	ldrmi	r3, [r6, #0]
 80085be:	3302      	addmi	r3, #2
 80085c0:	6033      	strmi	r3, [r6, #0]
 80085c2:	6825      	ldr	r5, [r4, #0]
 80085c4:	f015 0506 	ands.w	r5, r5, #6
 80085c8:	d106      	bne.n	80085d8 <_printf_common+0x48>
 80085ca:	f104 0a19 	add.w	sl, r4, #25
 80085ce:	68e3      	ldr	r3, [r4, #12]
 80085d0:	6832      	ldr	r2, [r6, #0]
 80085d2:	1a9b      	subs	r3, r3, r2
 80085d4:	42ab      	cmp	r3, r5
 80085d6:	dc28      	bgt.n	800862a <_printf_common+0x9a>
 80085d8:	f894 2043 	ldrb.w	r2, [r4, #67]	; 0x43
 80085dc:	1e13      	subs	r3, r2, #0
 80085de:	6822      	ldr	r2, [r4, #0]
 80085e0:	bf18      	it	ne
 80085e2:	2301      	movne	r3, #1
 80085e4:	0692      	lsls	r2, r2, #26
 80085e6:	d42d      	bmi.n	8008644 <_printf_common+0xb4>
 80085e8:	4649      	mov	r1, r9
 80085ea:	4638      	mov	r0, r7
 80085ec:	f104 0243 	add.w	r2, r4, #67	; 0x43
 80085f0:	47c0      	blx	r8
 80085f2:	3001      	adds	r0, #1
 80085f4:	d020      	beq.n	8008638 <_printf_common+0xa8>
 80085f6:	6823      	ldr	r3, [r4, #0]
 80085f8:	68e5      	ldr	r5, [r4, #12]
 80085fa:	f003 0306 	and.w	r3, r3, #6
 80085fe:	2b04      	cmp	r3, #4
 8008600:	bf18      	it	ne
 8008602:	2500      	movne	r5, #0
 8008604:	6832      	ldr	r2, [r6, #0]
 8008606:	f04f 0600 	mov.w	r6, #0
 800860a:	68a3      	ldr	r3, [r4, #8]
 800860c:	bf08      	it	eq
 800860e:	1aad      	subeq	r5, r5, r2
 8008610:	6922      	ldr	r2, [r4, #16]
 8008612:	bf08      	it	eq
 8008614:	ea25 75e5 	biceq.w	r5, r5, r5, asr #31
 8008618:	4293      	cmp	r3, r2
 800861a:	bfc4      	itt	gt
 800861c:	1a9b      	subgt	r3, r3, r2
 800861e:	18ed      	addgt	r5, r5, r3
 8008620:	341a      	adds	r4, #26
 8008622:	42b5      	cmp	r5, r6
 8008624:	d11a      	bne.n	800865c <_printf_common+0xcc>
 8008626:	2000      	movs	r0, #0
 8008628:	e008      	b.n	800863c <_printf_common+0xac>
 800862a:	2301      	movs	r3, #1
 800862c:	4652      	mov	r2, sl
 800862e:	4649      	mov	r1, r9
 8008630:	4638      	mov	r0, r7
 8008632:	47c0      	blx	r8
 8008634:	3001      	adds	r0, #1
 8008636:	d103      	bne.n	8008640 <_printf_common+0xb0>
 8008638:	f04f 30ff 	mov.w	r0, #4294967295	; 0xffffffff
 800863c:	e8bd 87f0 	ldmia.w	sp!, {r4, r5, r6, r7, r8, r9, sl, pc}
 8008640:	3501      	adds	r5, #1
 8008642:	e7c4      	b.n	80085ce <_printf_common+0x3e>
 8008644:	2030      	movs	r0, #48	; 0x30
 8008646:	18e1      	adds	r1, r4, r3
 8008648:	f881 0043 	strb.w	r0, [r1, #67]	; 0x43
 800864c:	1c5a      	adds	r2, r3, #1
 800864e:	f894 1045 	ldrb.w	r1, [r4, #69]	; 0x45
 8008652:	4422      	add	r2, r4
 8008654:	3302      	adds	r3, #2
 8008656:	f882 1043 	strb.w	r1, [r2, #67]	; 0x43
 800865a:	e7c5      	b.n	80085e8 <_printf_common+0x58>
 800865c:	2301      	movs	r3, #1
 800865e:	4622      	mov	r2, r4
 8008660:	4649      	mov	r1, r9
 8008662:	4638      	mov	r0, r7
 8008664:	47c0      	blx	r8
 8008666:	3001      	adds	r0, #1
 8008668:	d0e6      	beq.n	8008638 <_printf_common+0xa8>
 800866a:	3601      	adds	r6, #1
 800866c:	e7d9      	b.n	8008622 <_printf_common+0x92>
	...

08008670 <_printf_i>:
 8008670:	e92d 47ff 	stmdb	sp!, {r0, r1, r2, r3, r4, r5, r6, r7, r8, r9, sl, lr}
 8008674:	460c      	mov	r4, r1
 8008676:	7e27      	ldrb	r7, [r4, #24]
 8008678:	4691      	mov	r9, r2
 800867a:	2f78      	cmp	r7, #120	; 0x78
 800867c:	4680      	mov	r8, r0
 800867e:	469a      	mov	sl, r3
 8008680:	990c      	ldr	r1, [sp, #48]	; 0x30
 8008682:	f104 0243 	add.w	r2, r4, #67	; 0x43
 8008686:	d807      	bhi.n	8008698 <_printf_i+0x28>
 8008688:	2f62      	cmp	r7, #98	; 0x62
 800868a:	d80a      	bhi.n	80086a2 <_printf_i+0x32>
 800868c:	2f00      	cmp	r7, #0
 800868e:	f000 80d9 	beq.w	8008844 <_printf_i+0x1d4>
 8008692:	2f58      	cmp	r7, #88	; 0x58
 8008694:	f000 80a4 	beq.w	80087e0 <_printf_i+0x170>
 8008698:	f104 0642 	add.w	r6, r4, #66	; 0x42
 800869c:	f884 7042 	strb.w	r7, [r4, #66]	; 0x42
 80086a0:	e03a      	b.n	8008718 <_printf_i+0xa8>
 80086a2:	f1a7 0363 	sub.w	r3, r7, #99	; 0x63
 80086a6:	2b15      	cmp	r3, #21
 80086a8:	d8f6      	bhi.n	8008698 <_printf_i+0x28>
 80086aa:	a001      	add	r0, pc, #4	; (adr r0, 80086b0 <_printf_i+0x40>)
 80086ac:	f850 f023 	ldr.w	pc, [r0, r3, lsl #2]
 80086b0:	08008709 	.word	0x08008709
 80086b4:	0800871d 	.word	0x0800871d
 80086b8:	08008699 	.word	0x08008699
 80086bc:	08008699 	.word	0x08008699
 80086c0:	08008699 	.word	0x08008699
 80086c4:	08008699 	.word	0x08008699
 80086c8:	0800871d 	.word	0x0800871d
 80086cc:	08008699 	.word	0x08008699
 80086d0:	08008699 	.word	0x08008699
 80086d4:	08008699 	.word	0x08008699
 80086d8:	08008699 	.word	0x08008699
 80086dc:	0800882b 	.word	0x0800882b
 80086e0:	0800874d 	.word	0x0800874d
 80086e4:	0800880d 	.word	0x0800880d
 80086e8:	08008699 	.word	0x08008699
 80086ec:	08008699 	.word	0x08008699
 80086f0:	0800884d 	.word	0x0800884d
 80086f4:	08008699 	.word	0x08008699
 80086f8:	0800874d 	.word	0x0800874d
 80086fc:	08008699 	.word	0x08008699
 8008700:	08008699 	.word	0x08008699
 8008704:	08008815 	.word	0x08008815
 8008708:	680b      	ldr	r3, [r1, #0]
 800870a:	f104 0642 	add.w	r6, r4, #66	; 0x42
 800870e:	1d1a      	adds	r2, r3, #4
 8008710:	681b      	ldr	r3, [r3, #0]
 8008712:	600a      	str	r2, [r1, #0]
 8008714:	f884 3042 	strb.w	r3, [r4, #66]	; 0x42
 8008718:	2301      	movs	r3, #1
 800871a:	e0a4      	b.n	8008866 <_printf_i+0x1f6>
 800871c:	6825      	ldr	r5, [r4, #0]
 800871e:	6808      	ldr	r0, [r1, #0]
 8008720:	062e      	lsls	r6, r5, #24
 8008722:	f100 0304 	add.w	r3, r0, #4
 8008726:	d50a      	bpl.n	800873e <_printf_i+0xce>
 8008728:	6805      	ldr	r5, [r0, #0]
 800872a:	600b      	str	r3, [r1, #0]
 800872c:	2d00      	cmp	r5, #0
 800872e:	da03      	bge.n	8008738 <_printf_i+0xc8>
 8008730:	232d      	movs	r3, #45	; 0x2d
 8008732:	426d      	negs	r5, r5
 8008734:	f884 3043 	strb.w	r3, [r4, #67]	; 0x43
 8008738:	230a      	movs	r3, #10
 800873a:	485e      	ldr	r0, [pc, #376]	; (80088b4 <_printf_i+0x244>)
 800873c:	e019      	b.n	8008772 <_printf_i+0x102>
 800873e:	f015 0f40 	tst.w	r5, #64	; 0x40
 8008742:	6805      	ldr	r5, [r0, #0]
 8008744:	600b      	str	r3, [r1, #0]
 8008746:	bf18      	it	ne
 8008748:	b22d      	sxthne	r5, r5
 800874a:	e7ef      	b.n	800872c <_printf_i+0xbc>
 800874c:	680b      	ldr	r3, [r1, #0]
 800874e:	6825      	ldr	r5, [r4, #0]
 8008750:	1d18      	adds	r0, r3, #4
 8008752:	6008      	str	r0, [r1, #0]
 8008754:	0628      	lsls	r0, r5, #24
 8008756:	d501      	bpl.n	800875c <_printf_i+0xec>
 8008758:	681d      	ldr	r5, [r3, #0]
 800875a:	e002      	b.n	8008762 <_printf_i+0xf2>
 800875c:	0669      	lsls	r1, r5, #25
 800875e:	d5fb      	bpl.n	8008758 <_printf_i+0xe8>
 8008760:	881d      	ldrh	r5, [r3, #0]
 8008762:	2f6f      	cmp	r7, #111	; 0x6f
 8008764:	bf0c      	ite	eq
 8008766:	2308      	moveq	r3, #8
 8008768:	230a      	movne	r3, #10
 800876a:	4852      	ldr	r0, [pc, #328]	; (80088b4 <_printf_i+0x244>)
 800876c:	2100      	movs	r1, #0
 800876e:	f884 1043 	strb.w	r1, [r4, #67]	; 0x43
 8008772:	6866      	ldr	r6, [r4, #4]
 8008774:	2e00      	cmp	r6, #0
 8008776:	bfa8      	it	ge
 8008778:	6821      	ldrge	r1, [r4, #0]
 800877a:	60a6      	str	r6, [r4, #8]
 800877c:	bfa4      	itt	ge
 800877e:	f021 0104 	bicge.w	r1, r1, #4
 8008782:	6021      	strge	r1, [r4, #0]
 8008784:	b90d      	cbnz	r5, 800878a <_printf_i+0x11a>
 8008786:	2e00      	cmp	r6, #0
 8008788:	d04d      	beq.n	8008826 <_printf_i+0x1b6>
 800878a:	4616      	mov	r6, r2
 800878c:	fbb5 f1f3 	udiv	r1, r5, r3
 8008790:	fb03 5711 	mls	r7, r3, r1, r5
 8008794:	5dc7      	ldrb	r7, [r0, r7]
 8008796:	f806 7d01 	strb.w	r7, [r6, #-1]!
 800879a:	462f      	mov	r7, r5
 800879c:	42bb      	cmp	r3, r7
 800879e:	460d      	mov	r5, r1
 80087a0:	d9f4      	bls.n	800878c <_printf_i+0x11c>
 80087a2:	2b08      	cmp	r3, #8
 80087a4:	d10b      	bne.n	80087be <_printf_i+0x14e>
 80087a6:	6823      	ldr	r3, [r4, #0]
 80087a8:	07df      	lsls	r7, r3, #31
 80087aa:	d508      	bpl.n	80087be <_printf_i+0x14e>
 80087ac:	6923      	ldr	r3, [r4, #16]
 80087ae:	6861      	ldr	r1, [r4, #4]
 80087b0:	4299      	cmp	r1, r3
 80087b2:	bfde      	ittt	le
 80087b4:	2330      	movle	r3, #48	; 0x30
 80087b6:	f806 3c01 	strble.w	r3, [r6, #-1]
 80087ba:	f106 36ff 	addle.w	r6, r6, #4294967295	; 0xffffffff
 80087be:	1b92      	subs	r2, r2, r6
 80087c0:	6122      	str	r2, [r4, #16]
 80087c2:	464b      	mov	r3, r9
 80087c4:	4621      	mov	r1, r4
 80087c6:	4640      	mov	r0, r8
 80087c8:	f8cd a000 	str.w	sl, [sp]
 80087cc:	aa03      	add	r2, sp, #12
 80087ce:	f7ff fedf 	bl	8008590 <_printf_common>
 80087d2:	3001      	adds	r0, #1
 80087d4:	d14c      	bne.n	8008870 <_printf_i+0x200>
 80087d6:	f04f 30ff 	mov.w	r0, #4294967295	; 0xffffffff
 80087da:	b004      	add	sp, #16
 80087dc:	e8bd 87f0 	ldmia.w	sp!, {r4, r5, r6, r7, r8, r9, sl, pc}
 80087e0:	4834      	ldr	r0, [pc, #208]	; (80088b4 <_printf_i+0x244>)
 80087e2:	f884 7045 	strb.w	r7, [r4, #69]	; 0x45
 80087e6:	680e      	ldr	r6, [r1, #0]
 80087e8:	6823      	ldr	r3, [r4, #0]
 80087ea:	f856 5b04 	ldr.w	r5, [r6], #4
 80087ee:	061f      	lsls	r7, r3, #24
 80087f0:	600e      	str	r6, [r1, #0]
 80087f2:	d514      	bpl.n	800881e <_printf_i+0x1ae>
 80087f4:	07d9      	lsls	r1, r3, #31
 80087f6:	bf44      	itt	mi
 80087f8:	f043 0320 	orrmi.w	r3, r3, #32
 80087fc:	6023      	strmi	r3, [r4, #0]
 80087fe:	b91d      	cbnz	r5, 8008808 <_printf_i+0x198>
 8008800:	6823      	ldr	r3, [r4, #0]
 8008802:	f023 0320 	bic.w	r3, r3, #32
 8008806:	6023      	str	r3, [r4, #0]
 8008808:	2310      	movs	r3, #16
 800880a:	e7af      	b.n	800876c <_printf_i+0xfc>
 800880c:	6823      	ldr	r3, [r4, #0]
 800880e:	f043 0320 	orr.w	r3, r3, #32
 8008812:	6023      	str	r3, [r4, #0]
 8008814:	2378      	movs	r3, #120	; 0x78
 8008816:	4828      	ldr	r0, [pc, #160]	; (80088b8 <_printf_i+0x248>)
 8008818:	f884 3045 	strb.w	r3, [r4, #69]	; 0x45
 800881c:	e7e3      	b.n	80087e6 <_printf_i+0x176>
 800881e:	065e      	lsls	r6, r3, #25
 8008820:	bf48      	it	mi
 8008822:	b2ad      	uxthmi	r5, r5
 8008824:	e7e6      	b.n	80087f4 <_printf_i+0x184>
 8008826:	4616      	mov	r6, r2
 8008828:	e7bb      	b.n	80087a2 <_printf_i+0x132>
 800882a:	680b      	ldr	r3, [r1, #0]
 800882c:	6826      	ldr	r6, [r4, #0]
 800882e:	1d1d      	adds	r5, r3, #4
 8008830:	6960      	ldr	r0, [r4, #20]
 8008832:	600d      	str	r5, [r1, #0]
 8008834:	0635      	lsls	r5, r6, #24
 8008836:	681b      	ldr	r3, [r3, #0]
 8008838:	d501      	bpl.n	800883e <_printf_i+0x1ce>
 800883a:	6018      	str	r0, [r3, #0]
 800883c:	e002      	b.n	8008844 <_printf_i+0x1d4>
 800883e:	0671      	lsls	r1, r6, #25
 8008840:	d5fb      	bpl.n	800883a <_printf_i+0x1ca>
 8008842:	8018      	strh	r0, [r3, #0]
 8008844:	2300      	movs	r3, #0
 8008846:	4616      	mov	r6, r2
 8008848:	6123      	str	r3, [r4, #16]
 800884a:	e7ba      	b.n	80087c2 <_printf_i+0x152>
 800884c:	680b      	ldr	r3, [r1, #0]
 800884e:	1d1a      	adds	r2, r3, #4
 8008850:	600a      	str	r2, [r1, #0]
 8008852:	681e      	ldr	r6, [r3, #0]
 8008854:	2100      	movs	r1, #0
 8008856:	4630      	mov	r0, r6
 8008858:	6862      	ldr	r2, [r4, #4]
 800885a:	f000 fedf 	bl	800961c <memchr>
 800885e:	b108      	cbz	r0, 8008864 <_printf_i+0x1f4>
 8008860:	1b80      	subs	r0, r0, r6
 8008862:	6060      	str	r0, [r4, #4]
 8008864:	6863      	ldr	r3, [r4, #4]
 8008866:	6123      	str	r3, [r4, #16]
 8008868:	2300      	movs	r3, #0
 800886a:	f884 3043 	strb.w	r3, [r4, #67]	; 0x43
 800886e:	e7a8      	b.n	80087c2 <_printf_i+0x152>
 8008870:	4632      	mov	r2, r6
 8008872:	4649      	mov	r1, r9
 8008874:	4640      	mov	r0, r8
 8008876:	6923      	ldr	r3, [r4, #16]
 8008878:	47d0      	blx	sl
 800887a:	3001      	adds	r0, #1
 800887c:	d0ab      	beq.n	80087d6 <_printf_i+0x166>
 800887e:	6823      	ldr	r3, [r4, #0]
 8008880:	079b      	lsls	r3, r3, #30
 8008882:	d413      	bmi.n	80088ac <_printf_i+0x23c>
 8008884:	68e0      	ldr	r0, [r4, #12]
 8008886:	9b03      	ldr	r3, [sp, #12]
 8008888:	4298      	cmp	r0, r3
 800888a:	bfb8      	it	lt
 800888c:	4618      	movlt	r0, r3
 800888e:	e7a4      	b.n	80087da <_printf_i+0x16a>
 8008890:	2301      	movs	r3, #1
 8008892:	4632      	mov	r2, r6
 8008894:	4649      	mov	r1, r9
 8008896:	4640      	mov	r0, r8
 8008898:	47d0      	blx	sl
 800889a:	3001      	adds	r0, #1
 800889c:	d09b      	beq.n	80087d6 <_printf_i+0x166>
 800889e:	3501      	adds	r5, #1
 80088a0:	68e3      	ldr	r3, [r4, #12]
 80088a2:	9903      	ldr	r1, [sp, #12]
 80088a4:	1a5b      	subs	r3, r3, r1
 80088a6:	42ab      	cmp	r3, r5
 80088a8:	dcf2      	bgt.n	8008890 <_printf_i+0x220>
 80088aa:	e7eb      	b.n	8008884 <_printf_i+0x214>
 80088ac:	2500      	movs	r5, #0
 80088ae:	f104 0619 	add.w	r6, r4, #25
 80088b2:	e7f5      	b.n	80088a0 <_printf_i+0x230>
 80088b4:	0800b00a 	.word	0x0800b00a
 80088b8:	0800b01b 	.word	0x0800b01b

080088bc <siprintf>:
 80088bc:	b40e      	push	{r1, r2, r3}
 80088be:	f06f 4100 	mvn.w	r1, #2147483648	; 0x80000000
 80088c2:	b500      	push	{lr}
 80088c4:	b09c      	sub	sp, #112	; 0x70
 80088c6:	ab1d      	add	r3, sp, #116	; 0x74
 80088c8:	9002      	str	r0, [sp, #8]
 80088ca:	9006      	str	r0, [sp, #24]
 80088cc:	9107      	str	r1, [sp, #28]
 80088ce:	9104      	str	r1, [sp, #16]
 80088d0:	4808      	ldr	r0, [pc, #32]	; (80088f4 <siprintf+0x38>)
 80088d2:	4909      	ldr	r1, [pc, #36]	; (80088f8 <siprintf+0x3c>)
 80088d4:	f853 2b04 	ldr.w	r2, [r3], #4
 80088d8:	9105      	str	r1, [sp, #20]
 80088da:	6800      	ldr	r0, [r0, #0]
 80088dc:	a902      	add	r1, sp, #8
 80088de:	9301      	str	r3, [sp, #4]
 80088e0:	f001 fb3c 	bl	8009f5c <_svfiprintf_r>
 80088e4:	2200      	movs	r2, #0
 80088e6:	9b02      	ldr	r3, [sp, #8]
 80088e8:	701a      	strb	r2, [r3, #0]
 80088ea:	b01c      	add	sp, #112	; 0x70
 80088ec:	f85d eb04 	ldr.w	lr, [sp], #4
 80088f0:	b003      	add	sp, #12
 80088f2:	4770      	bx	lr
 80088f4:	20000174 	.word	0x20000174
 80088f8:	ffff0208 	.word	0xffff0208

080088fc <strcpy>:
 80088fc:	4603      	mov	r3, r0
 80088fe:	f811 2b01 	ldrb.w	r2, [r1], #1
 8008902:	f803 2b01 	strb.w	r2, [r3], #1
 8008906:	2a00      	cmp	r2, #0
 8008908:	d1f9      	bne.n	80088fe <strcpy+0x2>
 800890a:	4770      	bx	lr

0800890c <quorem>:
 800890c:	e92d 4ff7 	stmdb	sp!, {r0, r1, r2, r4, r5, r6, r7, r8, r9, sl, fp, lr}
 8008910:	6903      	ldr	r3, [r0, #16]
 8008912:	690c      	ldr	r4, [r1, #16]
 8008914:	4607      	mov	r7, r0
 8008916:	42a3      	cmp	r3, r4
 8008918:	f2c0 8083 	blt.w	8008a22 <quorem+0x116>
 800891c:	3c01      	subs	r4, #1
 800891e:	f100 0514 	add.w	r5, r0, #20
 8008922:	f101 0814 	add.w	r8, r1, #20
 8008926:	eb05 0384 	add.w	r3, r5, r4, lsl #2
 800892a:	9301      	str	r3, [sp, #4]
 800892c:	f858 3024 	ldr.w	r3, [r8, r4, lsl #2]
 8008930:	f855 2024 	ldr.w	r2, [r5, r4, lsl #2]
 8008934:	3301      	adds	r3, #1
 8008936:	429a      	cmp	r2, r3
 8008938:	fbb2 f6f3 	udiv	r6, r2, r3
 800893c:	ea4f 0b84 	mov.w	fp, r4, lsl #2
 8008940:	eb08 0984 	add.w	r9, r8, r4, lsl #2
 8008944:	d332      	bcc.n	80089ac <quorem+0xa0>
 8008946:	f04f 0e00 	mov.w	lr, #0
 800894a:	4640      	mov	r0, r8
 800894c:	46ac      	mov	ip, r5
 800894e:	46f2      	mov	sl, lr
 8008950:	f850 2b04 	ldr.w	r2, [r0], #4
 8008954:	b293      	uxth	r3, r2
 8008956:	fb06 e303 	mla	r3, r6, r3, lr
 800895a:	0c12      	lsrs	r2, r2, #16
 800895c:	ea4f 4e13 	mov.w	lr, r3, lsr #16
 8008960:	fb06 e202 	mla	r2, r6, r2, lr
 8008964:	b29b      	uxth	r3, r3
 8008966:	ebaa 0303 	sub.w	r3, sl, r3
 800896a:	f8dc a000 	ldr.w	sl, [ip]
 800896e:	ea4f 4e12 	mov.w	lr, r2, lsr #16
 8008972:	fa1f fa8a 	uxth.w	sl, sl
 8008976:	4453      	add	r3, sl
 8008978:	fa1f fa82 	uxth.w	sl, r2
 800897c:	f8dc 2000 	ldr.w	r2, [ip]
 8008980:	4581      	cmp	r9, r0
 8008982:	ebca 4212 	rsb	r2, sl, r2, lsr #16
 8008986:	eb02 4223 	add.w	r2, r2, r3, asr #16
 800898a:	b29b      	uxth	r3, r3
 800898c:	ea43 4302 	orr.w	r3, r3, r2, lsl #16
 8008990:	ea4f 4a22 	mov.w	sl, r2, asr #16
 8008994:	f84c 3b04 	str.w	r3, [ip], #4
 8008998:	d2da      	bcs.n	8008950 <quorem+0x44>
 800899a:	f855 300b 	ldr.w	r3, [r5, fp]
 800899e:	b92b      	cbnz	r3, 80089ac <quorem+0xa0>
 80089a0:	9b01      	ldr	r3, [sp, #4]
 80089a2:	3b04      	subs	r3, #4
 80089a4:	429d      	cmp	r5, r3
 80089a6:	461a      	mov	r2, r3
 80089a8:	d32f      	bcc.n	8008a0a <quorem+0xfe>
 80089aa:	613c      	str	r4, [r7, #16]
 80089ac:	4638      	mov	r0, r7
 80089ae:	f001 f8bd 	bl	8009b2c <__mcmp>
 80089b2:	2800      	cmp	r0, #0
 80089b4:	db25      	blt.n	8008a02 <quorem+0xf6>
 80089b6:	4628      	mov	r0, r5
 80089b8:	f04f 0c00 	mov.w	ip, #0
 80089bc:	3601      	adds	r6, #1
 80089be:	f858 1b04 	ldr.w	r1, [r8], #4
 80089c2:	f8d0 e000 	ldr.w	lr, [r0]
 80089c6:	b28b      	uxth	r3, r1
 80089c8:	ebac 0303 	sub.w	r3, ip, r3
 80089cc:	fa1f f28e 	uxth.w	r2, lr
 80089d0:	4413      	add	r3, r2
 80089d2:	0c0a      	lsrs	r2, r1, #16
 80089d4:	ebc2 421e 	rsb	r2, r2, lr, lsr #16
 80089d8:	eb02 4223 	add.w	r2, r2, r3, asr #16
 80089dc:	b29b      	uxth	r3, r3
 80089de:	ea43 4302 	orr.w	r3, r3, r2, lsl #16
 80089e2:	45c1      	cmp	r9, r8
 80089e4:	ea4f 4c22 	mov.w	ip, r2, asr #16
 80089e8:	f840 3b04 	str.w	r3, [r0], #4
 80089ec:	d2e7      	bcs.n	80089be <quorem+0xb2>
 80089ee:	f855 2024 	ldr.w	r2, [r5, r4, lsl #2]
 80089f2:	eb05 0384 	add.w	r3, r5, r4, lsl #2
 80089f6:	b922      	cbnz	r2, 8008a02 <quorem+0xf6>
 80089f8:	3b04      	subs	r3, #4
 80089fa:	429d      	cmp	r5, r3
 80089fc:	461a      	mov	r2, r3
 80089fe:	d30a      	bcc.n	8008a16 <quorem+0x10a>
 8008a00:	613c      	str	r4, [r7, #16]
 8008a02:	4630      	mov	r0, r6
 8008a04:	b003      	add	sp, #12
 8008a06:	e8bd 8ff0 	ldmia.w	sp!, {r4, r5, r6, r7, r8, r9, sl, fp, pc}
 8008a0a:	6812      	ldr	r2, [r2, #0]
 8008a0c:	3b04      	subs	r3, #4
 8008a0e:	2a00      	cmp	r2, #0
 8008a10:	d1cb      	bne.n	80089aa <quorem+0x9e>
 8008a12:	3c01      	subs	r4, #1
 8008a14:	e7c6      	b.n	80089a4 <quorem+0x98>
 8008a16:	6812      	ldr	r2, [r2, #0]
 8008a18:	3b04      	subs	r3, #4
 8008a1a:	2a00      	cmp	r2, #0
 8008a1c:	d1f0      	bne.n	8008a00 <quorem+0xf4>
 8008a1e:	3c01      	subs	r4, #1
 8008a20:	e7eb      	b.n	80089fa <quorem+0xee>
 8008a22:	2000      	movs	r0, #0
 8008a24:	e7ee      	b.n	8008a04 <quorem+0xf8>
	...

08008a28 <_dtoa_r>:
 8008a28:	e92d 4ff0 	stmdb	sp!, {r4, r5, r6, r7, r8, r9, sl, fp, lr}
 8008a2c:	4616      	mov	r6, r2
 8008a2e:	461f      	mov	r7, r3
 8008a30:	6a44      	ldr	r4, [r0, #36]	; 0x24
 8008a32:	b099      	sub	sp, #100	; 0x64
 8008a34:	4605      	mov	r5, r0
 8008a36:	e9cd 6704 	strd	r6, r7, [sp, #16]
 8008a3a:	f8dd 8094 	ldr.w	r8, [sp, #148]	; 0x94
 8008a3e:	b974      	cbnz	r4, 8008a5e <_dtoa_r+0x36>
 8008a40:	2010      	movs	r0, #16
 8008a42:	f000 fde3 	bl	800960c <malloc>
 8008a46:	4602      	mov	r2, r0
 8008a48:	6268      	str	r0, [r5, #36]	; 0x24
 8008a4a:	b920      	cbnz	r0, 8008a56 <_dtoa_r+0x2e>
 8008a4c:	21ea      	movs	r1, #234	; 0xea
 8008a4e:	4bae      	ldr	r3, [pc, #696]	; (8008d08 <_dtoa_r+0x2e0>)
 8008a50:	48ae      	ldr	r0, [pc, #696]	; (8008d0c <_dtoa_r+0x2e4>)
 8008a52:	f001 fb93 	bl	800a17c <__assert_func>
 8008a56:	e9c0 4401 	strd	r4, r4, [r0, #4]
 8008a5a:	6004      	str	r4, [r0, #0]
 8008a5c:	60c4      	str	r4, [r0, #12]
 8008a5e:	6a6b      	ldr	r3, [r5, #36]	; 0x24
 8008a60:	6819      	ldr	r1, [r3, #0]
 8008a62:	b151      	cbz	r1, 8008a7a <_dtoa_r+0x52>
 8008a64:	685a      	ldr	r2, [r3, #4]
 8008a66:	2301      	movs	r3, #1
 8008a68:	4093      	lsls	r3, r2
 8008a6a:	604a      	str	r2, [r1, #4]
 8008a6c:	608b      	str	r3, [r1, #8]
 8008a6e:	4628      	mov	r0, r5
 8008a70:	f000 fe22 	bl	80096b8 <_Bfree>
 8008a74:	2200      	movs	r2, #0
 8008a76:	6a6b      	ldr	r3, [r5, #36]	; 0x24
 8008a78:	601a      	str	r2, [r3, #0]
 8008a7a:	1e3b      	subs	r3, r7, #0
 8008a7c:	bfaf      	iteee	ge
 8008a7e:	2300      	movge	r3, #0
 8008a80:	2201      	movlt	r2, #1
 8008a82:	f023 4300 	biclt.w	r3, r3, #2147483648	; 0x80000000
 8008a86:	9305      	strlt	r3, [sp, #20]
 8008a88:	bfa8      	it	ge
 8008a8a:	f8c8 3000 	strge.w	r3, [r8]
 8008a8e:	f8dd 9014 	ldr.w	r9, [sp, #20]
 8008a92:	4b9f      	ldr	r3, [pc, #636]	; (8008d10 <_dtoa_r+0x2e8>)
 8008a94:	bfb8      	it	lt
 8008a96:	f8c8 2000 	strlt.w	r2, [r8]
 8008a9a:	ea33 0309 	bics.w	r3, r3, r9
 8008a9e:	d119      	bne.n	8008ad4 <_dtoa_r+0xac>
 8008aa0:	f242 730f 	movw	r3, #9999	; 0x270f
 8008aa4:	9a24      	ldr	r2, [sp, #144]	; 0x90
 8008aa6:	6013      	str	r3, [r2, #0]
 8008aa8:	f3c9 0313 	ubfx	r3, r9, #0, #20
 8008aac:	4333      	orrs	r3, r6
 8008aae:	f000 8580 	beq.w	80095b2 <_dtoa_r+0xb8a>
 8008ab2:	9b26      	ldr	r3, [sp, #152]	; 0x98
 8008ab4:	b953      	cbnz	r3, 8008acc <_dtoa_r+0xa4>
 8008ab6:	4b97      	ldr	r3, [pc, #604]	; (8008d14 <_dtoa_r+0x2ec>)
 8008ab8:	e022      	b.n	8008b00 <_dtoa_r+0xd8>
 8008aba:	4b97      	ldr	r3, [pc, #604]	; (8008d18 <_dtoa_r+0x2f0>)
 8008abc:	9308      	str	r3, [sp, #32]
 8008abe:	3308      	adds	r3, #8
 8008ac0:	9a26      	ldr	r2, [sp, #152]	; 0x98
 8008ac2:	6013      	str	r3, [r2, #0]
 8008ac4:	9808      	ldr	r0, [sp, #32]
 8008ac6:	b019      	add	sp, #100	; 0x64
 8008ac8:	e8bd 8ff0 	ldmia.w	sp!, {r4, r5, r6, r7, r8, r9, sl, fp, pc}
 8008acc:	4b91      	ldr	r3, [pc, #580]	; (8008d14 <_dtoa_r+0x2ec>)
 8008ace:	9308      	str	r3, [sp, #32]
 8008ad0:	3303      	adds	r3, #3
 8008ad2:	e7f5      	b.n	8008ac0 <_dtoa_r+0x98>
 8008ad4:	e9dd 3404 	ldrd	r3, r4, [sp, #16]
 8008ad8:	e9cd 340c 	strd	r3, r4, [sp, #48]	; 0x30
 8008adc:	e9dd 010c 	ldrd	r0, r1, [sp, #48]	; 0x30
 8008ae0:	2200      	movs	r2, #0
 8008ae2:	2300      	movs	r3, #0
 8008ae4:	f7f7 ff60 	bl	80009a8 <__aeabi_dcmpeq>
 8008ae8:	4680      	mov	r8, r0
 8008aea:	b158      	cbz	r0, 8008b04 <_dtoa_r+0xdc>
 8008aec:	2301      	movs	r3, #1
 8008aee:	9a24      	ldr	r2, [sp, #144]	; 0x90
 8008af0:	6013      	str	r3, [r2, #0]
 8008af2:	9b26      	ldr	r3, [sp, #152]	; 0x98
 8008af4:	2b00      	cmp	r3, #0
 8008af6:	f000 8559 	beq.w	80095ac <_dtoa_r+0xb84>
 8008afa:	4888      	ldr	r0, [pc, #544]	; (8008d1c <_dtoa_r+0x2f4>)
 8008afc:	6018      	str	r0, [r3, #0]
 8008afe:	1e43      	subs	r3, r0, #1
 8008b00:	9308      	str	r3, [sp, #32]
 8008b02:	e7df      	b.n	8008ac4 <_dtoa_r+0x9c>
 8008b04:	ab16      	add	r3, sp, #88	; 0x58
 8008b06:	9301      	str	r3, [sp, #4]
 8008b08:	ab17      	add	r3, sp, #92	; 0x5c
 8008b0a:	9300      	str	r3, [sp, #0]
 8008b0c:	4628      	mov	r0, r5
 8008b0e:	e9dd 230c 	ldrd	r2, r3, [sp, #48]	; 0x30
 8008b12:	f001 f8b7 	bl	8009c84 <__d2b>
 8008b16:	f3c9 540a 	ubfx	r4, r9, #20, #11
 8008b1a:	4682      	mov	sl, r0
 8008b1c:	2c00      	cmp	r4, #0
 8008b1e:	d07e      	beq.n	8008c1e <_dtoa_r+0x1f6>
 8008b20:	e9dd 010c 	ldrd	r0, r1, [sp, #48]	; 0x30
 8008b24:	9b0d      	ldr	r3, [sp, #52]	; 0x34
 8008b26:	f2a4 34ff 	subw	r4, r4, #1023	; 0x3ff
 8008b2a:	f3c3 0313 	ubfx	r3, r3, #0, #20
 8008b2e:	f043 517f 	orr.w	r1, r3, #1069547520	; 0x3fc00000
 8008b32:	f441 1140 	orr.w	r1, r1, #3145728	; 0x300000
 8008b36:	f8cd 804c 	str.w	r8, [sp, #76]	; 0x4c
 8008b3a:	2200      	movs	r2, #0
 8008b3c:	4b78      	ldr	r3, [pc, #480]	; (8008d20 <_dtoa_r+0x2f8>)
 8008b3e:	f7f7 fb13 	bl	8000168 <__aeabi_dsub>
 8008b42:	a36b      	add	r3, pc, #428	; (adr r3, 8008cf0 <_dtoa_r+0x2c8>)
 8008b44:	e9d3 2300 	ldrd	r2, r3, [r3]
 8008b48:	f7f7 fcc6 	bl	80004d8 <__aeabi_dmul>
 8008b4c:	a36a      	add	r3, pc, #424	; (adr r3, 8008cf8 <_dtoa_r+0x2d0>)
 8008b4e:	e9d3 2300 	ldrd	r2, r3, [r3]
 8008b52:	f7f7 fb0b 	bl	800016c <__adddf3>
 8008b56:	4606      	mov	r6, r0
 8008b58:	4620      	mov	r0, r4
 8008b5a:	460f      	mov	r7, r1
 8008b5c:	f7f7 fc52 	bl	8000404 <__aeabi_i2d>
 8008b60:	a367      	add	r3, pc, #412	; (adr r3, 8008d00 <_dtoa_r+0x2d8>)
 8008b62:	e9d3 2300 	ldrd	r2, r3, [r3]
 8008b66:	f7f7 fcb7 	bl	80004d8 <__aeabi_dmul>
 8008b6a:	4602      	mov	r2, r0
 8008b6c:	460b      	mov	r3, r1
 8008b6e:	4630      	mov	r0, r6
 8008b70:	4639      	mov	r1, r7
 8008b72:	f7f7 fafb 	bl	800016c <__adddf3>
 8008b76:	4606      	mov	r6, r0
 8008b78:	460f      	mov	r7, r1
 8008b7a:	f7f7 ff5d 	bl	8000a38 <__aeabi_d2iz>
 8008b7e:	2200      	movs	r2, #0
 8008b80:	4681      	mov	r9, r0
 8008b82:	2300      	movs	r3, #0
 8008b84:	4630      	mov	r0, r6
 8008b86:	4639      	mov	r1, r7
 8008b88:	f7f7 ff18 	bl	80009bc <__aeabi_dcmplt>
 8008b8c:	b148      	cbz	r0, 8008ba2 <_dtoa_r+0x17a>
 8008b8e:	4648      	mov	r0, r9
 8008b90:	f7f7 fc38 	bl	8000404 <__aeabi_i2d>
 8008b94:	4632      	mov	r2, r6
 8008b96:	463b      	mov	r3, r7
 8008b98:	f7f7 ff06 	bl	80009a8 <__aeabi_dcmpeq>
 8008b9c:	b908      	cbnz	r0, 8008ba2 <_dtoa_r+0x17a>
 8008b9e:	f109 39ff 	add.w	r9, r9, #4294967295	; 0xffffffff
 8008ba2:	f1b9 0f16 	cmp.w	r9, #22
 8008ba6:	d857      	bhi.n	8008c58 <_dtoa_r+0x230>
 8008ba8:	e9dd 010c 	ldrd	r0, r1, [sp, #48]	; 0x30
 8008bac:	4b5d      	ldr	r3, [pc, #372]	; (8008d24 <_dtoa_r+0x2fc>)
 8008bae:	eb03 03c9 	add.w	r3, r3, r9, lsl #3
 8008bb2:	e9d3 2300 	ldrd	r2, r3, [r3]
 8008bb6:	f7f7 ff01 	bl	80009bc <__aeabi_dcmplt>
 8008bba:	2800      	cmp	r0, #0
 8008bbc:	d04e      	beq.n	8008c5c <_dtoa_r+0x234>
 8008bbe:	2300      	movs	r3, #0
 8008bc0:	f109 39ff 	add.w	r9, r9, #4294967295	; 0xffffffff
 8008bc4:	930f      	str	r3, [sp, #60]	; 0x3c
 8008bc6:	9b16      	ldr	r3, [sp, #88]	; 0x58
 8008bc8:	1b1c      	subs	r4, r3, r4
 8008bca:	1e63      	subs	r3, r4, #1
 8008bcc:	9309      	str	r3, [sp, #36]	; 0x24
 8008bce:	bf49      	itett	mi
 8008bd0:	f1c4 0301 	rsbmi	r3, r4, #1
 8008bd4:	2300      	movpl	r3, #0
 8008bd6:	9306      	strmi	r3, [sp, #24]
 8008bd8:	2300      	movmi	r3, #0
 8008bda:	bf54      	ite	pl
 8008bdc:	9306      	strpl	r3, [sp, #24]
 8008bde:	9309      	strmi	r3, [sp, #36]	; 0x24
 8008be0:	f1b9 0f00 	cmp.w	r9, #0
 8008be4:	db3c      	blt.n	8008c60 <_dtoa_r+0x238>
 8008be6:	9b09      	ldr	r3, [sp, #36]	; 0x24
 8008be8:	f8cd 9038 	str.w	r9, [sp, #56]	; 0x38
 8008bec:	444b      	add	r3, r9
 8008bee:	9309      	str	r3, [sp, #36]	; 0x24
 8008bf0:	2300      	movs	r3, #0
 8008bf2:	930a      	str	r3, [sp, #40]	; 0x28
 8008bf4:	9b22      	ldr	r3, [sp, #136]	; 0x88
 8008bf6:	2b09      	cmp	r3, #9
 8008bf8:	d86c      	bhi.n	8008cd4 <_dtoa_r+0x2ac>
 8008bfa:	2b05      	cmp	r3, #5
 8008bfc:	bfc4      	itt	gt
 8008bfe:	3b04      	subgt	r3, #4
 8008c00:	9322      	strgt	r3, [sp, #136]	; 0x88
 8008c02:	9b22      	ldr	r3, [sp, #136]	; 0x88
 8008c04:	bfc8      	it	gt
 8008c06:	2400      	movgt	r4, #0
 8008c08:	f1a3 0302 	sub.w	r3, r3, #2
 8008c0c:	bfd8      	it	le
 8008c0e:	2401      	movle	r4, #1
 8008c10:	2b03      	cmp	r3, #3
 8008c12:	f200 808b 	bhi.w	8008d2c <_dtoa_r+0x304>
 8008c16:	e8df f003 	tbb	[pc, r3]
 8008c1a:	4f2d      	.short	0x4f2d
 8008c1c:	5b4d      	.short	0x5b4d
 8008c1e:	e9dd 4316 	ldrd	r4, r3, [sp, #88]	; 0x58
 8008c22:	441c      	add	r4, r3
 8008c24:	f204 4332 	addw	r3, r4, #1074	; 0x432
 8008c28:	2b20      	cmp	r3, #32
 8008c2a:	bfc3      	ittte	gt
 8008c2c:	f1c3 0340 	rsbgt	r3, r3, #64	; 0x40
 8008c30:	f204 4012 	addwgt	r0, r4, #1042	; 0x412
 8008c34:	fa09 f303 	lslgt.w	r3, r9, r3
 8008c38:	f1c3 0320 	rsble	r3, r3, #32
 8008c3c:	bfc6      	itte	gt
 8008c3e:	fa26 f000 	lsrgt.w	r0, r6, r0
 8008c42:	4318      	orrgt	r0, r3
 8008c44:	fa06 f003 	lslle.w	r0, r6, r3
 8008c48:	f7f7 fbcc 	bl	80003e4 <__aeabi_ui2d>
 8008c4c:	2301      	movs	r3, #1
 8008c4e:	f1a1 71f8 	sub.w	r1, r1, #32505856	; 0x1f00000
 8008c52:	3c01      	subs	r4, #1
 8008c54:	9313      	str	r3, [sp, #76]	; 0x4c
 8008c56:	e770      	b.n	8008b3a <_dtoa_r+0x112>
 8008c58:	2301      	movs	r3, #1
 8008c5a:	e7b3      	b.n	8008bc4 <_dtoa_r+0x19c>
 8008c5c:	900f      	str	r0, [sp, #60]	; 0x3c
 8008c5e:	e7b2      	b.n	8008bc6 <_dtoa_r+0x19e>
 8008c60:	9b06      	ldr	r3, [sp, #24]
 8008c62:	eba3 0309 	sub.w	r3, r3, r9
 8008c66:	9306      	str	r3, [sp, #24]
 8008c68:	f1c9 0300 	rsb	r3, r9, #0
 8008c6c:	930a      	str	r3, [sp, #40]	; 0x28
 8008c6e:	2300      	movs	r3, #0
 8008c70:	930e      	str	r3, [sp, #56]	; 0x38
 8008c72:	e7bf      	b.n	8008bf4 <_dtoa_r+0x1cc>
 8008c74:	2300      	movs	r3, #0
 8008c76:	930b      	str	r3, [sp, #44]	; 0x2c
 8008c78:	9b23      	ldr	r3, [sp, #140]	; 0x8c
 8008c7a:	2b00      	cmp	r3, #0
 8008c7c:	dc59      	bgt.n	8008d32 <_dtoa_r+0x30a>
 8008c7e:	f04f 0b01 	mov.w	fp, #1
 8008c82:	465b      	mov	r3, fp
 8008c84:	f8cd b008 	str.w	fp, [sp, #8]
 8008c88:	f8cd b08c 	str.w	fp, [sp, #140]	; 0x8c
 8008c8c:	2200      	movs	r2, #0
 8008c8e:	6a68      	ldr	r0, [r5, #36]	; 0x24
 8008c90:	6042      	str	r2, [r0, #4]
 8008c92:	2204      	movs	r2, #4
 8008c94:	f102 0614 	add.w	r6, r2, #20
 8008c98:	429e      	cmp	r6, r3
 8008c9a:	6841      	ldr	r1, [r0, #4]
 8008c9c:	d94f      	bls.n	8008d3e <_dtoa_r+0x316>
 8008c9e:	4628      	mov	r0, r5
 8008ca0:	f000 fcca 	bl	8009638 <_Balloc>
 8008ca4:	9008      	str	r0, [sp, #32]
 8008ca6:	2800      	cmp	r0, #0
 8008ca8:	d14d      	bne.n	8008d46 <_dtoa_r+0x31e>
 8008caa:	4602      	mov	r2, r0
 8008cac:	f44f 71d5 	mov.w	r1, #426	; 0x1aa
 8008cb0:	4b1d      	ldr	r3, [pc, #116]	; (8008d28 <_dtoa_r+0x300>)
 8008cb2:	e6cd      	b.n	8008a50 <_dtoa_r+0x28>
 8008cb4:	2301      	movs	r3, #1
 8008cb6:	e7de      	b.n	8008c76 <_dtoa_r+0x24e>
 8008cb8:	2300      	movs	r3, #0
 8008cba:	930b      	str	r3, [sp, #44]	; 0x2c
 8008cbc:	9b23      	ldr	r3, [sp, #140]	; 0x8c
 8008cbe:	eb09 0b03 	add.w	fp, r9, r3
 8008cc2:	f10b 0301 	add.w	r3, fp, #1
 8008cc6:	2b01      	cmp	r3, #1
 8008cc8:	9302      	str	r3, [sp, #8]
 8008cca:	bfb8      	it	lt
 8008ccc:	2301      	movlt	r3, #1
 8008cce:	e7dd      	b.n	8008c8c <_dtoa_r+0x264>
 8008cd0:	2301      	movs	r3, #1
 8008cd2:	e7f2      	b.n	8008cba <_dtoa_r+0x292>
 8008cd4:	2401      	movs	r4, #1
 8008cd6:	2300      	movs	r3, #0
 8008cd8:	940b      	str	r4, [sp, #44]	; 0x2c
 8008cda:	9322      	str	r3, [sp, #136]	; 0x88
 8008cdc:	f04f 3bff 	mov.w	fp, #4294967295	; 0xffffffff
 8008ce0:	2200      	movs	r2, #0
 8008ce2:	2312      	movs	r3, #18
 8008ce4:	f8cd b008 	str.w	fp, [sp, #8]
 8008ce8:	9223      	str	r2, [sp, #140]	; 0x8c
 8008cea:	e7cf      	b.n	8008c8c <_dtoa_r+0x264>
 8008cec:	f3af 8000 	nop.w
 8008cf0:	636f4361 	.word	0x636f4361
 8008cf4:	3fd287a7 	.word	0x3fd287a7
 8008cf8:	8b60c8b3 	.word	0x8b60c8b3
 8008cfc:	3fc68a28 	.word	0x3fc68a28
 8008d00:	509f79fb 	.word	0x509f79fb
 8008d04:	3fd34413 	.word	0x3fd34413
 8008d08:	0800b039 	.word	0x0800b039
 8008d0c:	0800b050 	.word	0x0800b050
 8008d10:	7ff00000 	.word	0x7ff00000
 8008d14:	0800b035 	.word	0x0800b035
 8008d18:	0800b02c 	.word	0x0800b02c
 8008d1c:	0800b009 	.word	0x0800b009
 8008d20:	3ff80000 	.word	0x3ff80000
 8008d24:	0800b148 	.word	0x0800b148
 8008d28:	0800b0af 	.word	0x0800b0af
 8008d2c:	2301      	movs	r3, #1
 8008d2e:	930b      	str	r3, [sp, #44]	; 0x2c
 8008d30:	e7d4      	b.n	8008cdc <_dtoa_r+0x2b4>
 8008d32:	f8dd b08c 	ldr.w	fp, [sp, #140]	; 0x8c
 8008d36:	465b      	mov	r3, fp
 8008d38:	f8cd b008 	str.w	fp, [sp, #8]
 8008d3c:	e7a6      	b.n	8008c8c <_dtoa_r+0x264>
 8008d3e:	3101      	adds	r1, #1
 8008d40:	6041      	str	r1, [r0, #4]
 8008d42:	0052      	lsls	r2, r2, #1
 8008d44:	e7a6      	b.n	8008c94 <_dtoa_r+0x26c>
 8008d46:	6a6b      	ldr	r3, [r5, #36]	; 0x24
 8008d48:	9a08      	ldr	r2, [sp, #32]
 8008d4a:	601a      	str	r2, [r3, #0]
 8008d4c:	9b02      	ldr	r3, [sp, #8]
 8008d4e:	2b0e      	cmp	r3, #14
 8008d50:	f200 80a8 	bhi.w	8008ea4 <_dtoa_r+0x47c>
 8008d54:	2c00      	cmp	r4, #0
 8008d56:	f000 80a5 	beq.w	8008ea4 <_dtoa_r+0x47c>
 8008d5a:	f1b9 0f00 	cmp.w	r9, #0
 8008d5e:	dd34      	ble.n	8008dca <_dtoa_r+0x3a2>
 8008d60:	4a9a      	ldr	r2, [pc, #616]	; (8008fcc <_dtoa_r+0x5a4>)
 8008d62:	f009 030f 	and.w	r3, r9, #15
 8008d66:	eb02 03c3 	add.w	r3, r2, r3, lsl #3
 8008d6a:	f419 7f80 	tst.w	r9, #256	; 0x100
 8008d6e:	e9d3 3400 	ldrd	r3, r4, [r3]
 8008d72:	e9cd 3410 	strd	r3, r4, [sp, #64]	; 0x40
 8008d76:	ea4f 1429 	mov.w	r4, r9, asr #4
 8008d7a:	d016      	beq.n	8008daa <_dtoa_r+0x382>
 8008d7c:	e9dd 010c 	ldrd	r0, r1, [sp, #48]	; 0x30
 8008d80:	4b93      	ldr	r3, [pc, #588]	; (8008fd0 <_dtoa_r+0x5a8>)
 8008d82:	2703      	movs	r7, #3
 8008d84:	e9d3 2308 	ldrd	r2, r3, [r3, #32]
 8008d88:	f7f7 fcd0 	bl	800072c <__aeabi_ddiv>
 8008d8c:	e9cd 0104 	strd	r0, r1, [sp, #16]
 8008d90:	f004 040f 	and.w	r4, r4, #15
 8008d94:	4e8e      	ldr	r6, [pc, #568]	; (8008fd0 <_dtoa_r+0x5a8>)
 8008d96:	b954      	cbnz	r4, 8008dae <_dtoa_r+0x386>
 8008d98:	e9dd 2310 	ldrd	r2, r3, [sp, #64]	; 0x40
 8008d9c:	e9dd 0104 	ldrd	r0, r1, [sp, #16]
 8008da0:	f7f7 fcc4 	bl	800072c <__aeabi_ddiv>
 8008da4:	e9cd 0104 	strd	r0, r1, [sp, #16]
 8008da8:	e029      	b.n	8008dfe <_dtoa_r+0x3d6>
 8008daa:	2702      	movs	r7, #2
 8008dac:	e7f2      	b.n	8008d94 <_dtoa_r+0x36c>
 8008dae:	07e1      	lsls	r1, r4, #31
 8008db0:	d508      	bpl.n	8008dc4 <_dtoa_r+0x39c>
 8008db2:	e9dd 0110 	ldrd	r0, r1, [sp, #64]	; 0x40
 8008db6:	e9d6 2300 	ldrd	r2, r3, [r6]
 8008dba:	f7f7 fb8d 	bl	80004d8 <__aeabi_dmul>
 8008dbe:	e9cd 0110 	strd	r0, r1, [sp, #64]	; 0x40
 8008dc2:	3701      	adds	r7, #1
 8008dc4:	1064      	asrs	r4, r4, #1
 8008dc6:	3608      	adds	r6, #8
 8008dc8:	e7e5      	b.n	8008d96 <_dtoa_r+0x36e>
 8008dca:	f000 80a5 	beq.w	8008f18 <_dtoa_r+0x4f0>
 8008dce:	e9dd 010c 	ldrd	r0, r1, [sp, #48]	; 0x30
 8008dd2:	f1c9 0400 	rsb	r4, r9, #0
 8008dd6:	4b7d      	ldr	r3, [pc, #500]	; (8008fcc <_dtoa_r+0x5a4>)
 8008dd8:	f004 020f 	and.w	r2, r4, #15
 8008ddc:	eb03 03c2 	add.w	r3, r3, r2, lsl #3
 8008de0:	e9d3 2300 	ldrd	r2, r3, [r3]
 8008de4:	f7f7 fb78 	bl	80004d8 <__aeabi_dmul>
 8008de8:	2702      	movs	r7, #2
 8008dea:	2300      	movs	r3, #0
 8008dec:	e9cd 0104 	strd	r0, r1, [sp, #16]
 8008df0:	4e77      	ldr	r6, [pc, #476]	; (8008fd0 <_dtoa_r+0x5a8>)
 8008df2:	1124      	asrs	r4, r4, #4
 8008df4:	2c00      	cmp	r4, #0
 8008df6:	f040 8084 	bne.w	8008f02 <_dtoa_r+0x4da>
 8008dfa:	2b00      	cmp	r3, #0
 8008dfc:	d1d2      	bne.n	8008da4 <_dtoa_r+0x37c>
 8008dfe:	9b0f      	ldr	r3, [sp, #60]	; 0x3c
 8008e00:	2b00      	cmp	r3, #0
 8008e02:	f000 808b 	beq.w	8008f1c <_dtoa_r+0x4f4>
 8008e06:	e9dd 3404 	ldrd	r3, r4, [sp, #16]
 8008e0a:	e9cd 3410 	strd	r3, r4, [sp, #64]	; 0x40
 8008e0e:	e9dd 0110 	ldrd	r0, r1, [sp, #64]	; 0x40
 8008e12:	2200      	movs	r2, #0
 8008e14:	4b6f      	ldr	r3, [pc, #444]	; (8008fd4 <_dtoa_r+0x5ac>)
 8008e16:	f7f7 fdd1 	bl	80009bc <__aeabi_dcmplt>
 8008e1a:	2800      	cmp	r0, #0
 8008e1c:	d07e      	beq.n	8008f1c <_dtoa_r+0x4f4>
 8008e1e:	9b02      	ldr	r3, [sp, #8]
 8008e20:	2b00      	cmp	r3, #0
 8008e22:	d07b      	beq.n	8008f1c <_dtoa_r+0x4f4>
 8008e24:	f1bb 0f00 	cmp.w	fp, #0
 8008e28:	dd38      	ble.n	8008e9c <_dtoa_r+0x474>
 8008e2a:	e9dd 0110 	ldrd	r0, r1, [sp, #64]	; 0x40
 8008e2e:	2200      	movs	r2, #0
 8008e30:	4b69      	ldr	r3, [pc, #420]	; (8008fd8 <_dtoa_r+0x5b0>)
 8008e32:	f7f7 fb51 	bl	80004d8 <__aeabi_dmul>
 8008e36:	465c      	mov	r4, fp
 8008e38:	e9cd 0104 	strd	r0, r1, [sp, #16]
 8008e3c:	f109 38ff 	add.w	r8, r9, #4294967295	; 0xffffffff
 8008e40:	3701      	adds	r7, #1
 8008e42:	4638      	mov	r0, r7
 8008e44:	f7f7 fade 	bl	8000404 <__aeabi_i2d>
 8008e48:	e9dd 2304 	ldrd	r2, r3, [sp, #16]
 8008e4c:	f7f7 fb44 	bl	80004d8 <__aeabi_dmul>
 8008e50:	2200      	movs	r2, #0
 8008e52:	4b62      	ldr	r3, [pc, #392]	; (8008fdc <_dtoa_r+0x5b4>)
 8008e54:	f7f7 f98a 	bl	800016c <__adddf3>
 8008e58:	f1a1 7650 	sub.w	r6, r1, #54525952	; 0x3400000
 8008e5c:	e9cd 0110 	strd	r0, r1, [sp, #64]	; 0x40
 8008e60:	9611      	str	r6, [sp, #68]	; 0x44
 8008e62:	2c00      	cmp	r4, #0
 8008e64:	d15d      	bne.n	8008f22 <_dtoa_r+0x4fa>
 8008e66:	e9dd 0104 	ldrd	r0, r1, [sp, #16]
 8008e6a:	2200      	movs	r2, #0
 8008e6c:	4b5c      	ldr	r3, [pc, #368]	; (8008fe0 <_dtoa_r+0x5b8>)
 8008e6e:	f7f7 f97b 	bl	8000168 <__aeabi_dsub>
 8008e72:	4602      	mov	r2, r0
 8008e74:	460b      	mov	r3, r1
 8008e76:	e9cd 2304 	strd	r2, r3, [sp, #16]
 8008e7a:	4633      	mov	r3, r6
 8008e7c:	9a10      	ldr	r2, [sp, #64]	; 0x40
 8008e7e:	f7f7 fdbb 	bl	80009f8 <__aeabi_dcmpgt>
 8008e82:	2800      	cmp	r0, #0
 8008e84:	f040 829e 	bne.w	80093c4 <_dtoa_r+0x99c>
 8008e88:	e9dd 0104 	ldrd	r0, r1, [sp, #16]
 8008e8c:	9a10      	ldr	r2, [sp, #64]	; 0x40
 8008e8e:	f106 4300 	add.w	r3, r6, #2147483648	; 0x80000000
 8008e92:	f7f7 fd93 	bl	80009bc <__aeabi_dcmplt>
 8008e96:	2800      	cmp	r0, #0
 8008e98:	f040 8292 	bne.w	80093c0 <_dtoa_r+0x998>
 8008e9c:	e9dd 340c 	ldrd	r3, r4, [sp, #48]	; 0x30
 8008ea0:	e9cd 3404 	strd	r3, r4, [sp, #16]
 8008ea4:	9b17      	ldr	r3, [sp, #92]	; 0x5c
 8008ea6:	2b00      	cmp	r3, #0
 8008ea8:	f2c0 8153 	blt.w	8009152 <_dtoa_r+0x72a>
 8008eac:	f1b9 0f0e 	cmp.w	r9, #14
 8008eb0:	f300 814f 	bgt.w	8009152 <_dtoa_r+0x72a>
 8008eb4:	4b45      	ldr	r3, [pc, #276]	; (8008fcc <_dtoa_r+0x5a4>)
 8008eb6:	eb03 03c9 	add.w	r3, r3, r9, lsl #3
 8008eba:	e9d3 3400 	ldrd	r3, r4, [r3]
 8008ebe:	e9cd 3406 	strd	r3, r4, [sp, #24]
 8008ec2:	9b23      	ldr	r3, [sp, #140]	; 0x8c
 8008ec4:	2b00      	cmp	r3, #0
 8008ec6:	f280 80db 	bge.w	8009080 <_dtoa_r+0x658>
 8008eca:	9b02      	ldr	r3, [sp, #8]
 8008ecc:	2b00      	cmp	r3, #0
 8008ece:	f300 80d7 	bgt.w	8009080 <_dtoa_r+0x658>
 8008ed2:	f040 8274 	bne.w	80093be <_dtoa_r+0x996>
 8008ed6:	e9dd 0106 	ldrd	r0, r1, [sp, #24]
 8008eda:	2200      	movs	r2, #0
 8008edc:	4b40      	ldr	r3, [pc, #256]	; (8008fe0 <_dtoa_r+0x5b8>)
 8008ede:	f7f7 fafb 	bl	80004d8 <__aeabi_dmul>
 8008ee2:	e9dd 2304 	ldrd	r2, r3, [sp, #16]
 8008ee6:	f7f7 fd7d 	bl	80009e4 <__aeabi_dcmpge>
 8008eea:	9c02      	ldr	r4, [sp, #8]
 8008eec:	4626      	mov	r6, r4
 8008eee:	2800      	cmp	r0, #0
 8008ef0:	f040 824a 	bne.w	8009388 <_dtoa_r+0x960>
 8008ef4:	2331      	movs	r3, #49	; 0x31
 8008ef6:	9f08      	ldr	r7, [sp, #32]
 8008ef8:	f109 0901 	add.w	r9, r9, #1
 8008efc:	f807 3b01 	strb.w	r3, [r7], #1
 8008f00:	e246      	b.n	8009390 <_dtoa_r+0x968>
 8008f02:	07e2      	lsls	r2, r4, #31
 8008f04:	d505      	bpl.n	8008f12 <_dtoa_r+0x4ea>
 8008f06:	e9d6 2300 	ldrd	r2, r3, [r6]
 8008f0a:	f7f7 fae5 	bl	80004d8 <__aeabi_dmul>
 8008f0e:	2301      	movs	r3, #1
 8008f10:	3701      	adds	r7, #1
 8008f12:	1064      	asrs	r4, r4, #1
 8008f14:	3608      	adds	r6, #8
 8008f16:	e76d      	b.n	8008df4 <_dtoa_r+0x3cc>
 8008f18:	2702      	movs	r7, #2
 8008f1a:	e770      	b.n	8008dfe <_dtoa_r+0x3d6>
 8008f1c:	46c8      	mov	r8, r9
 8008f1e:	9c02      	ldr	r4, [sp, #8]
 8008f20:	e78f      	b.n	8008e42 <_dtoa_r+0x41a>
 8008f22:	9908      	ldr	r1, [sp, #32]
 8008f24:	4b29      	ldr	r3, [pc, #164]	; (8008fcc <_dtoa_r+0x5a4>)
 8008f26:	4421      	add	r1, r4
 8008f28:	9112      	str	r1, [sp, #72]	; 0x48
 8008f2a:	990b      	ldr	r1, [sp, #44]	; 0x2c
 8008f2c:	eb03 03c4 	add.w	r3, r3, r4, lsl #3
 8008f30:	e9dd 6710 	ldrd	r6, r7, [sp, #64]	; 0x40
 8008f34:	e953 2302 	ldrd	r2, r3, [r3, #-8]
 8008f38:	2900      	cmp	r1, #0
 8008f3a:	d055      	beq.n	8008fe8 <_dtoa_r+0x5c0>
 8008f3c:	2000      	movs	r0, #0
 8008f3e:	4929      	ldr	r1, [pc, #164]	; (8008fe4 <_dtoa_r+0x5bc>)
 8008f40:	f7f7 fbf4 	bl	800072c <__aeabi_ddiv>
 8008f44:	463b      	mov	r3, r7
 8008f46:	4632      	mov	r2, r6
 8008f48:	f7f7 f90e 	bl	8000168 <__aeabi_dsub>
 8008f4c:	e9cd 0110 	strd	r0, r1, [sp, #64]	; 0x40
 8008f50:	9f08      	ldr	r7, [sp, #32]
 8008f52:	e9dd 0104 	ldrd	r0, r1, [sp, #16]
 8008f56:	f7f7 fd6f 	bl	8000a38 <__aeabi_d2iz>
 8008f5a:	4604      	mov	r4, r0
 8008f5c:	f7f7 fa52 	bl	8000404 <__aeabi_i2d>
 8008f60:	4602      	mov	r2, r0
 8008f62:	460b      	mov	r3, r1
 8008f64:	e9dd 0104 	ldrd	r0, r1, [sp, #16]
 8008f68:	f7f7 f8fe 	bl	8000168 <__aeabi_dsub>
 8008f6c:	4602      	mov	r2, r0
 8008f6e:	460b      	mov	r3, r1
 8008f70:	3430      	adds	r4, #48	; 0x30
 8008f72:	e9cd 2304 	strd	r2, r3, [sp, #16]
 8008f76:	e9dd 2310 	ldrd	r2, r3, [sp, #64]	; 0x40
 8008f7a:	f807 4b01 	strb.w	r4, [r7], #1
 8008f7e:	f7f7 fd1d 	bl	80009bc <__aeabi_dcmplt>
 8008f82:	2800      	cmp	r0, #0
 8008f84:	d174      	bne.n	8009070 <_dtoa_r+0x648>
 8008f86:	e9dd 2304 	ldrd	r2, r3, [sp, #16]
 8008f8a:	2000      	movs	r0, #0
 8008f8c:	4911      	ldr	r1, [pc, #68]	; (8008fd4 <_dtoa_r+0x5ac>)
 8008f8e:	f7f7 f8eb 	bl	8000168 <__aeabi_dsub>
 8008f92:	e9dd 2310 	ldrd	r2, r3, [sp, #64]	; 0x40
 8008f96:	f7f7 fd11 	bl	80009bc <__aeabi_dcmplt>
 8008f9a:	2800      	cmp	r0, #0
 8008f9c:	f040 80b6 	bne.w	800910c <_dtoa_r+0x6e4>
 8008fa0:	9b12      	ldr	r3, [sp, #72]	; 0x48
 8008fa2:	429f      	cmp	r7, r3
 8008fa4:	f43f af7a 	beq.w	8008e9c <_dtoa_r+0x474>
 8008fa8:	e9dd 0110 	ldrd	r0, r1, [sp, #64]	; 0x40
 8008fac:	2200      	movs	r2, #0
 8008fae:	4b0a      	ldr	r3, [pc, #40]	; (8008fd8 <_dtoa_r+0x5b0>)
 8008fb0:	f7f7 fa92 	bl	80004d8 <__aeabi_dmul>
 8008fb4:	2200      	movs	r2, #0
 8008fb6:	e9cd 0110 	strd	r0, r1, [sp, #64]	; 0x40
 8008fba:	e9dd 0104 	ldrd	r0, r1, [sp, #16]
 8008fbe:	4b06      	ldr	r3, [pc, #24]	; (8008fd8 <_dtoa_r+0x5b0>)
 8008fc0:	f7f7 fa8a 	bl	80004d8 <__aeabi_dmul>
 8008fc4:	e9cd 0104 	strd	r0, r1, [sp, #16]
 8008fc8:	e7c3      	b.n	8008f52 <_dtoa_r+0x52a>
 8008fca:	bf00      	nop
 8008fcc:	0800b148 	.word	0x0800b148
 8008fd0:	0800b120 	.word	0x0800b120
 8008fd4:	3ff00000 	.word	0x3ff00000
 8008fd8:	40240000 	.word	0x40240000
 8008fdc:	401c0000 	.word	0x401c0000
 8008fe0:	40140000 	.word	0x40140000
 8008fe4:	3fe00000 	.word	0x3fe00000
 8008fe8:	4630      	mov	r0, r6
 8008fea:	4639      	mov	r1, r7
 8008fec:	f7f7 fa74 	bl	80004d8 <__aeabi_dmul>
 8008ff0:	9b12      	ldr	r3, [sp, #72]	; 0x48
 8008ff2:	e9cd 0110 	strd	r0, r1, [sp, #64]	; 0x40
 8008ff6:	9c08      	ldr	r4, [sp, #32]
 8008ff8:	9314      	str	r3, [sp, #80]	; 0x50
 8008ffa:	e9dd 0104 	ldrd	r0, r1, [sp, #16]
 8008ffe:	f7f7 fd1b 	bl	8000a38 <__aeabi_d2iz>
 8009002:	9015      	str	r0, [sp, #84]	; 0x54
 8009004:	f7f7 f9fe 	bl	8000404 <__aeabi_i2d>
 8009008:	4602      	mov	r2, r0
 800900a:	460b      	mov	r3, r1
 800900c:	e9dd 0104 	ldrd	r0, r1, [sp, #16]
 8009010:	f7f7 f8aa 	bl	8000168 <__aeabi_dsub>
 8009014:	9b15      	ldr	r3, [sp, #84]	; 0x54
 8009016:	4606      	mov	r6, r0
 8009018:	3330      	adds	r3, #48	; 0x30
 800901a:	f804 3b01 	strb.w	r3, [r4], #1
 800901e:	9b12      	ldr	r3, [sp, #72]	; 0x48
 8009020:	460f      	mov	r7, r1
 8009022:	429c      	cmp	r4, r3
 8009024:	f04f 0200 	mov.w	r2, #0
 8009028:	d124      	bne.n	8009074 <_dtoa_r+0x64c>
 800902a:	e9dd 0110 	ldrd	r0, r1, [sp, #64]	; 0x40
 800902e:	4bb3      	ldr	r3, [pc, #716]	; (80092fc <_dtoa_r+0x8d4>)
 8009030:	f7f7 f89c 	bl	800016c <__adddf3>
 8009034:	4602      	mov	r2, r0
 8009036:	460b      	mov	r3, r1
 8009038:	4630      	mov	r0, r6
 800903a:	4639      	mov	r1, r7
 800903c:	f7f7 fcdc 	bl	80009f8 <__aeabi_dcmpgt>
 8009040:	2800      	cmp	r0, #0
 8009042:	d162      	bne.n	800910a <_dtoa_r+0x6e2>
 8009044:	e9dd 2310 	ldrd	r2, r3, [sp, #64]	; 0x40
 8009048:	2000      	movs	r0, #0
 800904a:	49ac      	ldr	r1, [pc, #688]	; (80092fc <_dtoa_r+0x8d4>)
 800904c:	f7f7 f88c 	bl	8000168 <__aeabi_dsub>
 8009050:	4602      	mov	r2, r0
 8009052:	460b      	mov	r3, r1
 8009054:	4630      	mov	r0, r6
 8009056:	4639      	mov	r1, r7
 8009058:	f7f7 fcb0 	bl	80009bc <__aeabi_dcmplt>
 800905c:	2800      	cmp	r0, #0
 800905e:	f43f af1d 	beq.w	8008e9c <_dtoa_r+0x474>
 8009062:	9f14      	ldr	r7, [sp, #80]	; 0x50
 8009064:	1e7b      	subs	r3, r7, #1
 8009066:	9314      	str	r3, [sp, #80]	; 0x50
 8009068:	f817 3c01 	ldrb.w	r3, [r7, #-1]
 800906c:	2b30      	cmp	r3, #48	; 0x30
 800906e:	d0f8      	beq.n	8009062 <_dtoa_r+0x63a>
 8009070:	46c1      	mov	r9, r8
 8009072:	e03a      	b.n	80090ea <_dtoa_r+0x6c2>
 8009074:	4ba2      	ldr	r3, [pc, #648]	; (8009300 <_dtoa_r+0x8d8>)
 8009076:	f7f7 fa2f 	bl	80004d8 <__aeabi_dmul>
 800907a:	e9cd 0104 	strd	r0, r1, [sp, #16]
 800907e:	e7bc      	b.n	8008ffa <_dtoa_r+0x5d2>
 8009080:	9f08      	ldr	r7, [sp, #32]
 8009082:	e9dd 2306 	ldrd	r2, r3, [sp, #24]
 8009086:	e9dd 0104 	ldrd	r0, r1, [sp, #16]
 800908a:	f7f7 fb4f 	bl	800072c <__aeabi_ddiv>
 800908e:	f7f7 fcd3 	bl	8000a38 <__aeabi_d2iz>
 8009092:	4604      	mov	r4, r0
 8009094:	f7f7 f9b6 	bl	8000404 <__aeabi_i2d>
 8009098:	e9dd 2306 	ldrd	r2, r3, [sp, #24]
 800909c:	f7f7 fa1c 	bl	80004d8 <__aeabi_dmul>
 80090a0:	f104 0630 	add.w	r6, r4, #48	; 0x30
 80090a4:	460b      	mov	r3, r1
 80090a6:	4602      	mov	r2, r0
 80090a8:	e9dd 0104 	ldrd	r0, r1, [sp, #16]
 80090ac:	f7f7 f85c 	bl	8000168 <__aeabi_dsub>
 80090b0:	f807 6b01 	strb.w	r6, [r7], #1
 80090b4:	9e08      	ldr	r6, [sp, #32]
 80090b6:	9b02      	ldr	r3, [sp, #8]
 80090b8:	1bbe      	subs	r6, r7, r6
 80090ba:	42b3      	cmp	r3, r6
 80090bc:	d13a      	bne.n	8009134 <_dtoa_r+0x70c>
 80090be:	4602      	mov	r2, r0
 80090c0:	460b      	mov	r3, r1
 80090c2:	f7f7 f853 	bl	800016c <__adddf3>
 80090c6:	4602      	mov	r2, r0
 80090c8:	460b      	mov	r3, r1
 80090ca:	e9cd 2302 	strd	r2, r3, [sp, #8]
 80090ce:	e9dd 2306 	ldrd	r2, r3, [sp, #24]
 80090d2:	f7f7 fc91 	bl	80009f8 <__aeabi_dcmpgt>
 80090d6:	bb58      	cbnz	r0, 8009130 <_dtoa_r+0x708>
 80090d8:	e9dd 2306 	ldrd	r2, r3, [sp, #24]
 80090dc:	e9dd 0102 	ldrd	r0, r1, [sp, #8]
 80090e0:	f7f7 fc62 	bl	80009a8 <__aeabi_dcmpeq>
 80090e4:	b108      	cbz	r0, 80090ea <_dtoa_r+0x6c2>
 80090e6:	07e1      	lsls	r1, r4, #31
 80090e8:	d422      	bmi.n	8009130 <_dtoa_r+0x708>
 80090ea:	4628      	mov	r0, r5
 80090ec:	4651      	mov	r1, sl
 80090ee:	f000 fae3 	bl	80096b8 <_Bfree>
 80090f2:	2300      	movs	r3, #0
 80090f4:	703b      	strb	r3, [r7, #0]
 80090f6:	9b24      	ldr	r3, [sp, #144]	; 0x90
 80090f8:	f109 0001 	add.w	r0, r9, #1
 80090fc:	6018      	str	r0, [r3, #0]
 80090fe:	9b26      	ldr	r3, [sp, #152]	; 0x98
 8009100:	2b00      	cmp	r3, #0
 8009102:	f43f acdf 	beq.w	8008ac4 <_dtoa_r+0x9c>
 8009106:	601f      	str	r7, [r3, #0]
 8009108:	e4dc      	b.n	8008ac4 <_dtoa_r+0x9c>
 800910a:	4627      	mov	r7, r4
 800910c:	463b      	mov	r3, r7
 800910e:	461f      	mov	r7, r3
 8009110:	f813 2d01 	ldrb.w	r2, [r3, #-1]!
 8009114:	2a39      	cmp	r2, #57	; 0x39
 8009116:	d107      	bne.n	8009128 <_dtoa_r+0x700>
 8009118:	9a08      	ldr	r2, [sp, #32]
 800911a:	429a      	cmp	r2, r3
 800911c:	d1f7      	bne.n	800910e <_dtoa_r+0x6e6>
 800911e:	2230      	movs	r2, #48	; 0x30
 8009120:	9908      	ldr	r1, [sp, #32]
 8009122:	f108 0801 	add.w	r8, r8, #1
 8009126:	700a      	strb	r2, [r1, #0]
 8009128:	781a      	ldrb	r2, [r3, #0]
 800912a:	3201      	adds	r2, #1
 800912c:	701a      	strb	r2, [r3, #0]
 800912e:	e79f      	b.n	8009070 <_dtoa_r+0x648>
 8009130:	46c8      	mov	r8, r9
 8009132:	e7eb      	b.n	800910c <_dtoa_r+0x6e4>
 8009134:	2200      	movs	r2, #0
 8009136:	4b72      	ldr	r3, [pc, #456]	; (8009300 <_dtoa_r+0x8d8>)
 8009138:	f7f7 f9ce 	bl	80004d8 <__aeabi_dmul>
 800913c:	4602      	mov	r2, r0
 800913e:	460b      	mov	r3, r1
 8009140:	e9cd 2304 	strd	r2, r3, [sp, #16]
 8009144:	2200      	movs	r2, #0
 8009146:	2300      	movs	r3, #0
 8009148:	f7f7 fc2e 	bl	80009a8 <__aeabi_dcmpeq>
 800914c:	2800      	cmp	r0, #0
 800914e:	d098      	beq.n	8009082 <_dtoa_r+0x65a>
 8009150:	e7cb      	b.n	80090ea <_dtoa_r+0x6c2>
 8009152:	9a0b      	ldr	r2, [sp, #44]	; 0x2c
 8009154:	2a00      	cmp	r2, #0
 8009156:	f000 80cd 	beq.w	80092f4 <_dtoa_r+0x8cc>
 800915a:	9a22      	ldr	r2, [sp, #136]	; 0x88
 800915c:	2a01      	cmp	r2, #1
 800915e:	f300 80af 	bgt.w	80092c0 <_dtoa_r+0x898>
 8009162:	9a13      	ldr	r2, [sp, #76]	; 0x4c
 8009164:	2a00      	cmp	r2, #0
 8009166:	f000 80a7 	beq.w	80092b8 <_dtoa_r+0x890>
 800916a:	f203 4333 	addw	r3, r3, #1075	; 0x433
 800916e:	9c0a      	ldr	r4, [sp, #40]	; 0x28
 8009170:	9f06      	ldr	r7, [sp, #24]
 8009172:	9a06      	ldr	r2, [sp, #24]
 8009174:	2101      	movs	r1, #1
 8009176:	441a      	add	r2, r3
 8009178:	9206      	str	r2, [sp, #24]
 800917a:	9a09      	ldr	r2, [sp, #36]	; 0x24
 800917c:	4628      	mov	r0, r5
 800917e:	441a      	add	r2, r3
 8009180:	9209      	str	r2, [sp, #36]	; 0x24
 8009182:	f000 fb53 	bl	800982c <__i2b>
 8009186:	4606      	mov	r6, r0
 8009188:	2f00      	cmp	r7, #0
 800918a:	dd0c      	ble.n	80091a6 <_dtoa_r+0x77e>
 800918c:	9b09      	ldr	r3, [sp, #36]	; 0x24
 800918e:	2b00      	cmp	r3, #0
 8009190:	dd09      	ble.n	80091a6 <_dtoa_r+0x77e>
 8009192:	42bb      	cmp	r3, r7
 8009194:	bfa8      	it	ge
 8009196:	463b      	movge	r3, r7
 8009198:	9a06      	ldr	r2, [sp, #24]
 800919a:	1aff      	subs	r7, r7, r3
 800919c:	1ad2      	subs	r2, r2, r3
 800919e:	9206      	str	r2, [sp, #24]
 80091a0:	9a09      	ldr	r2, [sp, #36]	; 0x24
 80091a2:	1ad3      	subs	r3, r2, r3
 80091a4:	9309      	str	r3, [sp, #36]	; 0x24
 80091a6:	9b0a      	ldr	r3, [sp, #40]	; 0x28
 80091a8:	b1f3      	cbz	r3, 80091e8 <_dtoa_r+0x7c0>
 80091aa:	9b0b      	ldr	r3, [sp, #44]	; 0x2c
 80091ac:	2b00      	cmp	r3, #0
 80091ae:	f000 80a9 	beq.w	8009304 <_dtoa_r+0x8dc>
 80091b2:	2c00      	cmp	r4, #0
 80091b4:	dd10      	ble.n	80091d8 <_dtoa_r+0x7b0>
 80091b6:	4631      	mov	r1, r6
 80091b8:	4622      	mov	r2, r4
 80091ba:	4628      	mov	r0, r5
 80091bc:	f000 fbf0 	bl	80099a0 <__pow5mult>
 80091c0:	4652      	mov	r2, sl
 80091c2:	4601      	mov	r1, r0
 80091c4:	4606      	mov	r6, r0
 80091c6:	4628      	mov	r0, r5
 80091c8:	f000 fb46 	bl	8009858 <__multiply>
 80091cc:	4680      	mov	r8, r0
 80091ce:	4651      	mov	r1, sl
 80091d0:	4628      	mov	r0, r5
 80091d2:	f000 fa71 	bl	80096b8 <_Bfree>
 80091d6:	46c2      	mov	sl, r8
 80091d8:	9b0a      	ldr	r3, [sp, #40]	; 0x28
 80091da:	1b1a      	subs	r2, r3, r4
 80091dc:	d004      	beq.n	80091e8 <_dtoa_r+0x7c0>
 80091de:	4651      	mov	r1, sl
 80091e0:	4628      	mov	r0, r5
 80091e2:	f000 fbdd 	bl	80099a0 <__pow5mult>
 80091e6:	4682      	mov	sl, r0
 80091e8:	2101      	movs	r1, #1
 80091ea:	4628      	mov	r0, r5
 80091ec:	f000 fb1e 	bl	800982c <__i2b>
 80091f0:	9b0e      	ldr	r3, [sp, #56]	; 0x38
 80091f2:	4604      	mov	r4, r0
 80091f4:	2b00      	cmp	r3, #0
 80091f6:	f340 8087 	ble.w	8009308 <_dtoa_r+0x8e0>
 80091fa:	461a      	mov	r2, r3
 80091fc:	4601      	mov	r1, r0
 80091fe:	4628      	mov	r0, r5
 8009200:	f000 fbce 	bl	80099a0 <__pow5mult>
 8009204:	9b22      	ldr	r3, [sp, #136]	; 0x88
 8009206:	4604      	mov	r4, r0
 8009208:	2b01      	cmp	r3, #1
 800920a:	f340 8080 	ble.w	800930e <_dtoa_r+0x8e6>
 800920e:	f04f 0800 	mov.w	r8, #0
 8009212:	6923      	ldr	r3, [r4, #16]
 8009214:	eb04 0383 	add.w	r3, r4, r3, lsl #2
 8009218:	6918      	ldr	r0, [r3, #16]
 800921a:	f000 fab9 	bl	8009790 <__hi0bits>
 800921e:	f1c0 0020 	rsb	r0, r0, #32
 8009222:	9b09      	ldr	r3, [sp, #36]	; 0x24
 8009224:	4418      	add	r0, r3
 8009226:	f010 001f 	ands.w	r0, r0, #31
 800922a:	f000 8092 	beq.w	8009352 <_dtoa_r+0x92a>
 800922e:	f1c0 0320 	rsb	r3, r0, #32
 8009232:	2b04      	cmp	r3, #4
 8009234:	f340 808a 	ble.w	800934c <_dtoa_r+0x924>
 8009238:	f1c0 001c 	rsb	r0, r0, #28
 800923c:	9b06      	ldr	r3, [sp, #24]
 800923e:	4407      	add	r7, r0
 8009240:	4403      	add	r3, r0
 8009242:	9306      	str	r3, [sp, #24]
 8009244:	9b09      	ldr	r3, [sp, #36]	; 0x24
 8009246:	4403      	add	r3, r0
 8009248:	9309      	str	r3, [sp, #36]	; 0x24
 800924a:	9b06      	ldr	r3, [sp, #24]
 800924c:	2b00      	cmp	r3, #0
 800924e:	dd05      	ble.n	800925c <_dtoa_r+0x834>
 8009250:	4651      	mov	r1, sl
 8009252:	461a      	mov	r2, r3
 8009254:	4628      	mov	r0, r5
 8009256:	f000 fbfd 	bl	8009a54 <__lshift>
 800925a:	4682      	mov	sl, r0
 800925c:	9b09      	ldr	r3, [sp, #36]	; 0x24
 800925e:	2b00      	cmp	r3, #0
 8009260:	dd05      	ble.n	800926e <_dtoa_r+0x846>
 8009262:	4621      	mov	r1, r4
 8009264:	461a      	mov	r2, r3
 8009266:	4628      	mov	r0, r5
 8009268:	f000 fbf4 	bl	8009a54 <__lshift>
 800926c:	4604      	mov	r4, r0
 800926e:	9b0f      	ldr	r3, [sp, #60]	; 0x3c
 8009270:	2b00      	cmp	r3, #0
 8009272:	d070      	beq.n	8009356 <_dtoa_r+0x92e>
 8009274:	4621      	mov	r1, r4
 8009276:	4650      	mov	r0, sl
 8009278:	f000 fc58 	bl	8009b2c <__mcmp>
 800927c:	2800      	cmp	r0, #0
 800927e:	da6a      	bge.n	8009356 <_dtoa_r+0x92e>
 8009280:	2300      	movs	r3, #0
 8009282:	4651      	mov	r1, sl
 8009284:	220a      	movs	r2, #10
 8009286:	4628      	mov	r0, r5
 8009288:	f000 fa38 	bl	80096fc <__multadd>
 800928c:	9b0b      	ldr	r3, [sp, #44]	; 0x2c
 800928e:	4682      	mov	sl, r0
 8009290:	f109 39ff 	add.w	r9, r9, #4294967295	; 0xffffffff
 8009294:	2b00      	cmp	r3, #0
 8009296:	f000 8193 	beq.w	80095c0 <_dtoa_r+0xb98>
 800929a:	4631      	mov	r1, r6
 800929c:	2300      	movs	r3, #0
 800929e:	220a      	movs	r2, #10
 80092a0:	4628      	mov	r0, r5
 80092a2:	f000 fa2b 	bl	80096fc <__multadd>
 80092a6:	f1bb 0f00 	cmp.w	fp, #0
 80092aa:	4606      	mov	r6, r0
 80092ac:	f300 8093 	bgt.w	80093d6 <_dtoa_r+0x9ae>
 80092b0:	9b22      	ldr	r3, [sp, #136]	; 0x88
 80092b2:	2b02      	cmp	r3, #2
 80092b4:	dc57      	bgt.n	8009366 <_dtoa_r+0x93e>
 80092b6:	e08e      	b.n	80093d6 <_dtoa_r+0x9ae>
 80092b8:	9b16      	ldr	r3, [sp, #88]	; 0x58
 80092ba:	f1c3 0336 	rsb	r3, r3, #54	; 0x36
 80092be:	e756      	b.n	800916e <_dtoa_r+0x746>
 80092c0:	9b02      	ldr	r3, [sp, #8]
 80092c2:	1e5c      	subs	r4, r3, #1
 80092c4:	9b0a      	ldr	r3, [sp, #40]	; 0x28
 80092c6:	42a3      	cmp	r3, r4
 80092c8:	bfb7      	itett	lt
 80092ca:	9b0a      	ldrlt	r3, [sp, #40]	; 0x28
 80092cc:	1b1c      	subge	r4, r3, r4
 80092ce:	1ae2      	sublt	r2, r4, r3
 80092d0:	9b0e      	ldrlt	r3, [sp, #56]	; 0x38
 80092d2:	bfbe      	ittt	lt
 80092d4:	940a      	strlt	r4, [sp, #40]	; 0x28
 80092d6:	189b      	addlt	r3, r3, r2
 80092d8:	930e      	strlt	r3, [sp, #56]	; 0x38
 80092da:	9b02      	ldr	r3, [sp, #8]
 80092dc:	bfb8      	it	lt
 80092de:	2400      	movlt	r4, #0
 80092e0:	2b00      	cmp	r3, #0
 80092e2:	bfbb      	ittet	lt
 80092e4:	9b06      	ldrlt	r3, [sp, #24]
 80092e6:	9a02      	ldrlt	r2, [sp, #8]
 80092e8:	9f06      	ldrge	r7, [sp, #24]
 80092ea:	1a9f      	sublt	r7, r3, r2
 80092ec:	bfac      	ite	ge
 80092ee:	9b02      	ldrge	r3, [sp, #8]
 80092f0:	2300      	movlt	r3, #0
 80092f2:	e73e      	b.n	8009172 <_dtoa_r+0x74a>
 80092f4:	9c0a      	ldr	r4, [sp, #40]	; 0x28
 80092f6:	9f06      	ldr	r7, [sp, #24]
 80092f8:	9e0b      	ldr	r6, [sp, #44]	; 0x2c
 80092fa:	e745      	b.n	8009188 <_dtoa_r+0x760>
 80092fc:	3fe00000 	.word	0x3fe00000
 8009300:	40240000 	.word	0x40240000
 8009304:	9a0a      	ldr	r2, [sp, #40]	; 0x28
 8009306:	e76a      	b.n	80091de <_dtoa_r+0x7b6>
 8009308:	9b22      	ldr	r3, [sp, #136]	; 0x88
 800930a:	2b01      	cmp	r3, #1
 800930c:	dc19      	bgt.n	8009342 <_dtoa_r+0x91a>
 800930e:	9b04      	ldr	r3, [sp, #16]
 8009310:	b9bb      	cbnz	r3, 8009342 <_dtoa_r+0x91a>
 8009312:	9b05      	ldr	r3, [sp, #20]
 8009314:	f3c3 0313 	ubfx	r3, r3, #0, #20
 8009318:	b99b      	cbnz	r3, 8009342 <_dtoa_r+0x91a>
 800931a:	9b05      	ldr	r3, [sp, #20]
 800931c:	f023 4300 	bic.w	r3, r3, #2147483648	; 0x80000000
 8009320:	0d1b      	lsrs	r3, r3, #20
 8009322:	051b      	lsls	r3, r3, #20
 8009324:	b183      	cbz	r3, 8009348 <_dtoa_r+0x920>
 8009326:	f04f 0801 	mov.w	r8, #1
 800932a:	9b06      	ldr	r3, [sp, #24]
 800932c:	3301      	adds	r3, #1
 800932e:	9306      	str	r3, [sp, #24]
 8009330:	9b09      	ldr	r3, [sp, #36]	; 0x24
 8009332:	3301      	adds	r3, #1
 8009334:	9309      	str	r3, [sp, #36]	; 0x24
 8009336:	9b0e      	ldr	r3, [sp, #56]	; 0x38
 8009338:	2b00      	cmp	r3, #0
 800933a:	f47f af6a 	bne.w	8009212 <_dtoa_r+0x7ea>
 800933e:	2001      	movs	r0, #1
 8009340:	e76f      	b.n	8009222 <_dtoa_r+0x7fa>
 8009342:	f04f 0800 	mov.w	r8, #0
 8009346:	e7f6      	b.n	8009336 <_dtoa_r+0x90e>
 8009348:	4698      	mov	r8, r3
 800934a:	e7f4      	b.n	8009336 <_dtoa_r+0x90e>
 800934c:	f43f af7d 	beq.w	800924a <_dtoa_r+0x822>
 8009350:	4618      	mov	r0, r3
 8009352:	301c      	adds	r0, #28
 8009354:	e772      	b.n	800923c <_dtoa_r+0x814>
 8009356:	9b02      	ldr	r3, [sp, #8]
 8009358:	2b00      	cmp	r3, #0
 800935a:	dc36      	bgt.n	80093ca <_dtoa_r+0x9a2>
 800935c:	9b22      	ldr	r3, [sp, #136]	; 0x88
 800935e:	2b02      	cmp	r3, #2
 8009360:	dd33      	ble.n	80093ca <_dtoa_r+0x9a2>
 8009362:	f8dd b008 	ldr.w	fp, [sp, #8]
 8009366:	f1bb 0f00 	cmp.w	fp, #0
 800936a:	d10d      	bne.n	8009388 <_dtoa_r+0x960>
 800936c:	4621      	mov	r1, r4
 800936e:	465b      	mov	r3, fp
 8009370:	2205      	movs	r2, #5
 8009372:	4628      	mov	r0, r5
 8009374:	f000 f9c2 	bl	80096fc <__multadd>
 8009378:	4601      	mov	r1, r0
 800937a:	4604      	mov	r4, r0
 800937c:	4650      	mov	r0, sl
 800937e:	f000 fbd5 	bl	8009b2c <__mcmp>
 8009382:	2800      	cmp	r0, #0
 8009384:	f73f adb6 	bgt.w	8008ef4 <_dtoa_r+0x4cc>
 8009388:	9b23      	ldr	r3, [sp, #140]	; 0x8c
 800938a:	9f08      	ldr	r7, [sp, #32]
 800938c:	ea6f 0903 	mvn.w	r9, r3
 8009390:	f04f 0800 	mov.w	r8, #0
 8009394:	4621      	mov	r1, r4
 8009396:	4628      	mov	r0, r5
 8009398:	f000 f98e 	bl	80096b8 <_Bfree>
 800939c:	2e00      	cmp	r6, #0
 800939e:	f43f aea4 	beq.w	80090ea <_dtoa_r+0x6c2>
 80093a2:	f1b8 0f00 	cmp.w	r8, #0
 80093a6:	d005      	beq.n	80093b4 <_dtoa_r+0x98c>
 80093a8:	45b0      	cmp	r8, r6
 80093aa:	d003      	beq.n	80093b4 <_dtoa_r+0x98c>
 80093ac:	4641      	mov	r1, r8
 80093ae:	4628      	mov	r0, r5
 80093b0:	f000 f982 	bl	80096b8 <_Bfree>
 80093b4:	4631      	mov	r1, r6
 80093b6:	4628      	mov	r0, r5
 80093b8:	f000 f97e 	bl	80096b8 <_Bfree>
 80093bc:	e695      	b.n	80090ea <_dtoa_r+0x6c2>
 80093be:	2400      	movs	r4, #0
 80093c0:	4626      	mov	r6, r4
 80093c2:	e7e1      	b.n	8009388 <_dtoa_r+0x960>
 80093c4:	46c1      	mov	r9, r8
 80093c6:	4626      	mov	r6, r4
 80093c8:	e594      	b.n	8008ef4 <_dtoa_r+0x4cc>
 80093ca:	9b0b      	ldr	r3, [sp, #44]	; 0x2c
 80093cc:	f8dd b008 	ldr.w	fp, [sp, #8]
 80093d0:	2b00      	cmp	r3, #0
 80093d2:	f000 80fc 	beq.w	80095ce <_dtoa_r+0xba6>
 80093d6:	2f00      	cmp	r7, #0
 80093d8:	dd05      	ble.n	80093e6 <_dtoa_r+0x9be>
 80093da:	4631      	mov	r1, r6
 80093dc:	463a      	mov	r2, r7
 80093de:	4628      	mov	r0, r5
 80093e0:	f000 fb38 	bl	8009a54 <__lshift>
 80093e4:	4606      	mov	r6, r0
 80093e6:	f1b8 0f00 	cmp.w	r8, #0
 80093ea:	d05c      	beq.n	80094a6 <_dtoa_r+0xa7e>
 80093ec:	4628      	mov	r0, r5
 80093ee:	6871      	ldr	r1, [r6, #4]
 80093f0:	f000 f922 	bl	8009638 <_Balloc>
 80093f4:	4607      	mov	r7, r0
 80093f6:	b928      	cbnz	r0, 8009404 <_dtoa_r+0x9dc>
 80093f8:	4602      	mov	r2, r0
 80093fa:	f240 21ea 	movw	r1, #746	; 0x2ea
 80093fe:	4b7e      	ldr	r3, [pc, #504]	; (80095f8 <_dtoa_r+0xbd0>)
 8009400:	f7ff bb26 	b.w	8008a50 <_dtoa_r+0x28>
 8009404:	6932      	ldr	r2, [r6, #16]
 8009406:	f106 010c 	add.w	r1, r6, #12
 800940a:	3202      	adds	r2, #2
 800940c:	0092      	lsls	r2, r2, #2
 800940e:	300c      	adds	r0, #12
 8009410:	f7fe fdde 	bl	8007fd0 <memcpy>
 8009414:	2201      	movs	r2, #1
 8009416:	4639      	mov	r1, r7
 8009418:	4628      	mov	r0, r5
 800941a:	f000 fb1b 	bl	8009a54 <__lshift>
 800941e:	46b0      	mov	r8, r6
 8009420:	4606      	mov	r6, r0
 8009422:	9b08      	ldr	r3, [sp, #32]
 8009424:	3301      	adds	r3, #1
 8009426:	9302      	str	r3, [sp, #8]
 8009428:	9b08      	ldr	r3, [sp, #32]
 800942a:	445b      	add	r3, fp
 800942c:	930a      	str	r3, [sp, #40]	; 0x28
 800942e:	9b04      	ldr	r3, [sp, #16]
 8009430:	f003 0301 	and.w	r3, r3, #1
 8009434:	9309      	str	r3, [sp, #36]	; 0x24
 8009436:	9b02      	ldr	r3, [sp, #8]
 8009438:	4621      	mov	r1, r4
 800943a:	4650      	mov	r0, sl
 800943c:	f103 3bff 	add.w	fp, r3, #4294967295	; 0xffffffff
 8009440:	f7ff fa64 	bl	800890c <quorem>
 8009444:	4603      	mov	r3, r0
 8009446:	4641      	mov	r1, r8
 8009448:	3330      	adds	r3, #48	; 0x30
 800944a:	9004      	str	r0, [sp, #16]
 800944c:	4650      	mov	r0, sl
 800944e:	930b      	str	r3, [sp, #44]	; 0x2c
 8009450:	f000 fb6c 	bl	8009b2c <__mcmp>
 8009454:	4632      	mov	r2, r6
 8009456:	9006      	str	r0, [sp, #24]
 8009458:	4621      	mov	r1, r4
 800945a:	4628      	mov	r0, r5
 800945c:	f000 fb82 	bl	8009b64 <__mdiff>
 8009460:	68c2      	ldr	r2, [r0, #12]
 8009462:	4607      	mov	r7, r0
 8009464:	9b0b      	ldr	r3, [sp, #44]	; 0x2c
 8009466:	bb02      	cbnz	r2, 80094aa <_dtoa_r+0xa82>
 8009468:	4601      	mov	r1, r0
 800946a:	4650      	mov	r0, sl
 800946c:	f000 fb5e 	bl	8009b2c <__mcmp>
 8009470:	4602      	mov	r2, r0
 8009472:	9b0b      	ldr	r3, [sp, #44]	; 0x2c
 8009474:	4639      	mov	r1, r7
 8009476:	4628      	mov	r0, r5
 8009478:	e9cd 320b 	strd	r3, r2, [sp, #44]	; 0x2c
 800947c:	f000 f91c 	bl	80096b8 <_Bfree>
 8009480:	9b22      	ldr	r3, [sp, #136]	; 0x88
 8009482:	9a0c      	ldr	r2, [sp, #48]	; 0x30
 8009484:	9f02      	ldr	r7, [sp, #8]
 8009486:	ea43 0102 	orr.w	r1, r3, r2
 800948a:	9b09      	ldr	r3, [sp, #36]	; 0x24
 800948c:	430b      	orrs	r3, r1
 800948e:	9b0b      	ldr	r3, [sp, #44]	; 0x2c
 8009490:	d10d      	bne.n	80094ae <_dtoa_r+0xa86>
 8009492:	2b39      	cmp	r3, #57	; 0x39
 8009494:	d027      	beq.n	80094e6 <_dtoa_r+0xabe>
 8009496:	9a06      	ldr	r2, [sp, #24]
 8009498:	2a00      	cmp	r2, #0
 800949a:	dd01      	ble.n	80094a0 <_dtoa_r+0xa78>
 800949c:	9b04      	ldr	r3, [sp, #16]
 800949e:	3331      	adds	r3, #49	; 0x31
 80094a0:	f88b 3000 	strb.w	r3, [fp]
 80094a4:	e776      	b.n	8009394 <_dtoa_r+0x96c>
 80094a6:	4630      	mov	r0, r6
 80094a8:	e7b9      	b.n	800941e <_dtoa_r+0x9f6>
 80094aa:	2201      	movs	r2, #1
 80094ac:	e7e2      	b.n	8009474 <_dtoa_r+0xa4c>
 80094ae:	9906      	ldr	r1, [sp, #24]
 80094b0:	2900      	cmp	r1, #0
 80094b2:	db04      	blt.n	80094be <_dtoa_r+0xa96>
 80094b4:	9822      	ldr	r0, [sp, #136]	; 0x88
 80094b6:	4301      	orrs	r1, r0
 80094b8:	9809      	ldr	r0, [sp, #36]	; 0x24
 80094ba:	4301      	orrs	r1, r0
 80094bc:	d120      	bne.n	8009500 <_dtoa_r+0xad8>
 80094be:	2a00      	cmp	r2, #0
 80094c0:	ddee      	ble.n	80094a0 <_dtoa_r+0xa78>
 80094c2:	4651      	mov	r1, sl
 80094c4:	2201      	movs	r2, #1
 80094c6:	4628      	mov	r0, r5
 80094c8:	9302      	str	r3, [sp, #8]
 80094ca:	f000 fac3 	bl	8009a54 <__lshift>
 80094ce:	4621      	mov	r1, r4
 80094d0:	4682      	mov	sl, r0
 80094d2:	f000 fb2b 	bl	8009b2c <__mcmp>
 80094d6:	2800      	cmp	r0, #0
 80094d8:	9b02      	ldr	r3, [sp, #8]
 80094da:	dc02      	bgt.n	80094e2 <_dtoa_r+0xaba>
 80094dc:	d1e0      	bne.n	80094a0 <_dtoa_r+0xa78>
 80094de:	07da      	lsls	r2, r3, #31
 80094e0:	d5de      	bpl.n	80094a0 <_dtoa_r+0xa78>
 80094e2:	2b39      	cmp	r3, #57	; 0x39
 80094e4:	d1da      	bne.n	800949c <_dtoa_r+0xa74>
 80094e6:	2339      	movs	r3, #57	; 0x39
 80094e8:	f88b 3000 	strb.w	r3, [fp]
 80094ec:	463b      	mov	r3, r7
 80094ee:	461f      	mov	r7, r3
 80094f0:	f817 2c01 	ldrb.w	r2, [r7, #-1]
 80094f4:	3b01      	subs	r3, #1
 80094f6:	2a39      	cmp	r2, #57	; 0x39
 80094f8:	d050      	beq.n	800959c <_dtoa_r+0xb74>
 80094fa:	3201      	adds	r2, #1
 80094fc:	701a      	strb	r2, [r3, #0]
 80094fe:	e749      	b.n	8009394 <_dtoa_r+0x96c>
 8009500:	2a00      	cmp	r2, #0
 8009502:	dd03      	ble.n	800950c <_dtoa_r+0xae4>
 8009504:	2b39      	cmp	r3, #57	; 0x39
 8009506:	d0ee      	beq.n	80094e6 <_dtoa_r+0xabe>
 8009508:	3301      	adds	r3, #1
 800950a:	e7c9      	b.n	80094a0 <_dtoa_r+0xa78>
 800950c:	9a02      	ldr	r2, [sp, #8]
 800950e:	990a      	ldr	r1, [sp, #40]	; 0x28
 8009510:	f802 3c01 	strb.w	r3, [r2, #-1]
 8009514:	428a      	cmp	r2, r1
 8009516:	d02a      	beq.n	800956e <_dtoa_r+0xb46>
 8009518:	4651      	mov	r1, sl
 800951a:	2300      	movs	r3, #0
 800951c:	220a      	movs	r2, #10
 800951e:	4628      	mov	r0, r5
 8009520:	f000 f8ec 	bl	80096fc <__multadd>
 8009524:	45b0      	cmp	r8, r6
 8009526:	4682      	mov	sl, r0
 8009528:	f04f 0300 	mov.w	r3, #0
 800952c:	f04f 020a 	mov.w	r2, #10
 8009530:	4641      	mov	r1, r8
 8009532:	4628      	mov	r0, r5
 8009534:	d107      	bne.n	8009546 <_dtoa_r+0xb1e>
 8009536:	f000 f8e1 	bl	80096fc <__multadd>
 800953a:	4680      	mov	r8, r0
 800953c:	4606      	mov	r6, r0
 800953e:	9b02      	ldr	r3, [sp, #8]
 8009540:	3301      	adds	r3, #1
 8009542:	9302      	str	r3, [sp, #8]
 8009544:	e777      	b.n	8009436 <_dtoa_r+0xa0e>
 8009546:	f000 f8d9 	bl	80096fc <__multadd>
 800954a:	4631      	mov	r1, r6
 800954c:	4680      	mov	r8, r0
 800954e:	2300      	movs	r3, #0
 8009550:	220a      	movs	r2, #10
 8009552:	4628      	mov	r0, r5
 8009554:	f000 f8d2 	bl	80096fc <__multadd>
 8009558:	4606      	mov	r6, r0
 800955a:	e7f0      	b.n	800953e <_dtoa_r+0xb16>
 800955c:	f1bb 0f00 	cmp.w	fp, #0
 8009560:	bfcc      	ite	gt
 8009562:	465f      	movgt	r7, fp
 8009564:	2701      	movle	r7, #1
 8009566:	f04f 0800 	mov.w	r8, #0
 800956a:	9a08      	ldr	r2, [sp, #32]
 800956c:	4417      	add	r7, r2
 800956e:	4651      	mov	r1, sl
 8009570:	2201      	movs	r2, #1
 8009572:	4628      	mov	r0, r5
 8009574:	9302      	str	r3, [sp, #8]
 8009576:	f000 fa6d 	bl	8009a54 <__lshift>
 800957a:	4621      	mov	r1, r4
 800957c:	4682      	mov	sl, r0
 800957e:	f000 fad5 	bl	8009b2c <__mcmp>
 8009582:	2800      	cmp	r0, #0
 8009584:	dcb2      	bgt.n	80094ec <_dtoa_r+0xac4>
 8009586:	d102      	bne.n	800958e <_dtoa_r+0xb66>
 8009588:	9b02      	ldr	r3, [sp, #8]
 800958a:	07db      	lsls	r3, r3, #31
 800958c:	d4ae      	bmi.n	80094ec <_dtoa_r+0xac4>
 800958e:	463b      	mov	r3, r7
 8009590:	461f      	mov	r7, r3
 8009592:	f813 2d01 	ldrb.w	r2, [r3, #-1]!
 8009596:	2a30      	cmp	r2, #48	; 0x30
 8009598:	d0fa      	beq.n	8009590 <_dtoa_r+0xb68>
 800959a:	e6fb      	b.n	8009394 <_dtoa_r+0x96c>
 800959c:	9a08      	ldr	r2, [sp, #32]
 800959e:	429a      	cmp	r2, r3
 80095a0:	d1a5      	bne.n	80094ee <_dtoa_r+0xac6>
 80095a2:	2331      	movs	r3, #49	; 0x31
 80095a4:	f109 0901 	add.w	r9, r9, #1
 80095a8:	7013      	strb	r3, [r2, #0]
 80095aa:	e6f3      	b.n	8009394 <_dtoa_r+0x96c>
 80095ac:	4b13      	ldr	r3, [pc, #76]	; (80095fc <_dtoa_r+0xbd4>)
 80095ae:	f7ff baa7 	b.w	8008b00 <_dtoa_r+0xd8>
 80095b2:	9b26      	ldr	r3, [sp, #152]	; 0x98
 80095b4:	2b00      	cmp	r3, #0
 80095b6:	f47f aa80 	bne.w	8008aba <_dtoa_r+0x92>
 80095ba:	4b11      	ldr	r3, [pc, #68]	; (8009600 <_dtoa_r+0xbd8>)
 80095bc:	f7ff baa0 	b.w	8008b00 <_dtoa_r+0xd8>
 80095c0:	f1bb 0f00 	cmp.w	fp, #0
 80095c4:	dc03      	bgt.n	80095ce <_dtoa_r+0xba6>
 80095c6:	9b22      	ldr	r3, [sp, #136]	; 0x88
 80095c8:	2b02      	cmp	r3, #2
 80095ca:	f73f aecc 	bgt.w	8009366 <_dtoa_r+0x93e>
 80095ce:	9f08      	ldr	r7, [sp, #32]
 80095d0:	4621      	mov	r1, r4
 80095d2:	4650      	mov	r0, sl
 80095d4:	f7ff f99a 	bl	800890c <quorem>
 80095d8:	9a08      	ldr	r2, [sp, #32]
 80095da:	f100 0330 	add.w	r3, r0, #48	; 0x30
 80095de:	f807 3b01 	strb.w	r3, [r7], #1
 80095e2:	1aba      	subs	r2, r7, r2
 80095e4:	4593      	cmp	fp, r2
 80095e6:	ddb9      	ble.n	800955c <_dtoa_r+0xb34>
 80095e8:	4651      	mov	r1, sl
 80095ea:	2300      	movs	r3, #0
 80095ec:	220a      	movs	r2, #10
 80095ee:	4628      	mov	r0, r5
 80095f0:	f000 f884 	bl	80096fc <__multadd>
 80095f4:	4682      	mov	sl, r0
 80095f6:	e7eb      	b.n	80095d0 <_dtoa_r+0xba8>
 80095f8:	0800b0af 	.word	0x0800b0af
 80095fc:	0800b008 	.word	0x0800b008
 8009600:	0800b02c 	.word	0x0800b02c

08009604 <_localeconv_r>:
 8009604:	4800      	ldr	r0, [pc, #0]	; (8009608 <_localeconv_r+0x4>)
 8009606:	4770      	bx	lr
 8009608:	200002c8 	.word	0x200002c8

0800960c <malloc>:
 800960c:	4b02      	ldr	r3, [pc, #8]	; (8009618 <malloc+0xc>)
 800960e:	4601      	mov	r1, r0
 8009610:	6818      	ldr	r0, [r3, #0]
 8009612:	f000 bbed 	b.w	8009df0 <_malloc_r>
 8009616:	bf00      	nop
 8009618:	20000174 	.word	0x20000174

0800961c <memchr>:
 800961c:	4603      	mov	r3, r0
 800961e:	b510      	push	{r4, lr}
 8009620:	b2c9      	uxtb	r1, r1
 8009622:	4402      	add	r2, r0
 8009624:	4293      	cmp	r3, r2
 8009626:	4618      	mov	r0, r3
 8009628:	d101      	bne.n	800962e <memchr+0x12>
 800962a:	2000      	movs	r0, #0
 800962c:	e003      	b.n	8009636 <memchr+0x1a>
 800962e:	7804      	ldrb	r4, [r0, #0]
 8009630:	3301      	adds	r3, #1
 8009632:	428c      	cmp	r4, r1
 8009634:	d1f6      	bne.n	8009624 <memchr+0x8>
 8009636:	bd10      	pop	{r4, pc}

08009638 <_Balloc>:
 8009638:	b570      	push	{r4, r5, r6, lr}
 800963a:	6a46      	ldr	r6, [r0, #36]	; 0x24
 800963c:	4604      	mov	r4, r0
 800963e:	460d      	mov	r5, r1
 8009640:	b976      	cbnz	r6, 8009660 <_Balloc+0x28>
 8009642:	2010      	movs	r0, #16
 8009644:	f7ff ffe2 	bl	800960c <malloc>
 8009648:	4602      	mov	r2, r0
 800964a:	6260      	str	r0, [r4, #36]	; 0x24
 800964c:	b920      	cbnz	r0, 8009658 <_Balloc+0x20>
 800964e:	2166      	movs	r1, #102	; 0x66
 8009650:	4b17      	ldr	r3, [pc, #92]	; (80096b0 <_Balloc+0x78>)
 8009652:	4818      	ldr	r0, [pc, #96]	; (80096b4 <_Balloc+0x7c>)
 8009654:	f000 fd92 	bl	800a17c <__assert_func>
 8009658:	e9c0 6601 	strd	r6, r6, [r0, #4]
 800965c:	6006      	str	r6, [r0, #0]
 800965e:	60c6      	str	r6, [r0, #12]
 8009660:	6a66      	ldr	r6, [r4, #36]	; 0x24
 8009662:	68f3      	ldr	r3, [r6, #12]
 8009664:	b183      	cbz	r3, 8009688 <_Balloc+0x50>
 8009666:	6a63      	ldr	r3, [r4, #36]	; 0x24
 8009668:	68db      	ldr	r3, [r3, #12]
 800966a:	f853 0025 	ldr.w	r0, [r3, r5, lsl #2]
 800966e:	b9b8      	cbnz	r0, 80096a0 <_Balloc+0x68>
 8009670:	2101      	movs	r1, #1
 8009672:	fa01 f605 	lsl.w	r6, r1, r5
 8009676:	1d72      	adds	r2, r6, #5
 8009678:	4620      	mov	r0, r4
 800967a:	0092      	lsls	r2, r2, #2
 800967c:	f000 fb5e 	bl	8009d3c <_calloc_r>
 8009680:	b160      	cbz	r0, 800969c <_Balloc+0x64>
 8009682:	e9c0 5601 	strd	r5, r6, [r0, #4]
 8009686:	e00e      	b.n	80096a6 <_Balloc+0x6e>
 8009688:	2221      	movs	r2, #33	; 0x21
 800968a:	2104      	movs	r1, #4
 800968c:	4620      	mov	r0, r4
 800968e:	f000 fb55 	bl	8009d3c <_calloc_r>
 8009692:	6a63      	ldr	r3, [r4, #36]	; 0x24
 8009694:	60f0      	str	r0, [r6, #12]
 8009696:	68db      	ldr	r3, [r3, #12]
 8009698:	2b00      	cmp	r3, #0
 800969a:	d1e4      	bne.n	8009666 <_Balloc+0x2e>
 800969c:	2000      	movs	r0, #0
 800969e:	bd70      	pop	{r4, r5, r6, pc}
 80096a0:	6802      	ldr	r2, [r0, #0]
 80096a2:	f843 2025 	str.w	r2, [r3, r5, lsl #2]
 80096a6:	2300      	movs	r3, #0
 80096a8:	e9c0 3303 	strd	r3, r3, [r0, #12]
 80096ac:	e7f7      	b.n	800969e <_Balloc+0x66>
 80096ae:	bf00      	nop
 80096b0:	0800b039 	.word	0x0800b039
 80096b4:	0800b0c0 	.word	0x0800b0c0

080096b8 <_Bfree>:
 80096b8:	b570      	push	{r4, r5, r6, lr}
 80096ba:	6a46      	ldr	r6, [r0, #36]	; 0x24
 80096bc:	4605      	mov	r5, r0
 80096be:	460c      	mov	r4, r1
 80096c0:	b976      	cbnz	r6, 80096e0 <_Bfree+0x28>
 80096c2:	2010      	movs	r0, #16
 80096c4:	f7ff ffa2 	bl	800960c <malloc>
 80096c8:	4602      	mov	r2, r0
 80096ca:	6268      	str	r0, [r5, #36]	; 0x24
 80096cc:	b920      	cbnz	r0, 80096d8 <_Bfree+0x20>
 80096ce:	218a      	movs	r1, #138	; 0x8a
 80096d0:	4b08      	ldr	r3, [pc, #32]	; (80096f4 <_Bfree+0x3c>)
 80096d2:	4809      	ldr	r0, [pc, #36]	; (80096f8 <_Bfree+0x40>)
 80096d4:	f000 fd52 	bl	800a17c <__assert_func>
 80096d8:	e9c0 6601 	strd	r6, r6, [r0, #4]
 80096dc:	6006      	str	r6, [r0, #0]
 80096de:	60c6      	str	r6, [r0, #12]
 80096e0:	b13c      	cbz	r4, 80096f2 <_Bfree+0x3a>
 80096e2:	6a6b      	ldr	r3, [r5, #36]	; 0x24
 80096e4:	6862      	ldr	r2, [r4, #4]
 80096e6:	68db      	ldr	r3, [r3, #12]
 80096e8:	f853 1022 	ldr.w	r1, [r3, r2, lsl #2]
 80096ec:	6021      	str	r1, [r4, #0]
 80096ee:	f843 4022 	str.w	r4, [r3, r2, lsl #2]
 80096f2:	bd70      	pop	{r4, r5, r6, pc}
 80096f4:	0800b039 	.word	0x0800b039
 80096f8:	0800b0c0 	.word	0x0800b0c0

080096fc <__multadd>:
 80096fc:	e92d 41f0 	stmdb	sp!, {r4, r5, r6, r7, r8, lr}
 8009700:	4698      	mov	r8, r3
 8009702:	460c      	mov	r4, r1
 8009704:	2300      	movs	r3, #0
 8009706:	690e      	ldr	r6, [r1, #16]
 8009708:	4607      	mov	r7, r0
 800970a:	f101 0014 	add.w	r0, r1, #20
 800970e:	6805      	ldr	r5, [r0, #0]
 8009710:	3301      	adds	r3, #1
 8009712:	b2a9      	uxth	r1, r5
 8009714:	fb02 8101 	mla	r1, r2, r1, r8
 8009718:	0c2d      	lsrs	r5, r5, #16
 800971a:	ea4f 4c11 	mov.w	ip, r1, lsr #16
 800971e:	fb02 c505 	mla	r5, r2, r5, ip
 8009722:	b289      	uxth	r1, r1
 8009724:	eb01 4105 	add.w	r1, r1, r5, lsl #16
 8009728:	429e      	cmp	r6, r3
 800972a:	ea4f 4815 	mov.w	r8, r5, lsr #16
 800972e:	f840 1b04 	str.w	r1, [r0], #4
 8009732:	dcec      	bgt.n	800970e <__multadd+0x12>
 8009734:	f1b8 0f00 	cmp.w	r8, #0
 8009738:	d022      	beq.n	8009780 <__multadd+0x84>
 800973a:	68a3      	ldr	r3, [r4, #8]
 800973c:	42b3      	cmp	r3, r6
 800973e:	dc19      	bgt.n	8009774 <__multadd+0x78>
 8009740:	6861      	ldr	r1, [r4, #4]
 8009742:	4638      	mov	r0, r7
 8009744:	3101      	adds	r1, #1
 8009746:	f7ff ff77 	bl	8009638 <_Balloc>
 800974a:	4605      	mov	r5, r0
 800974c:	b928      	cbnz	r0, 800975a <__multadd+0x5e>
 800974e:	4602      	mov	r2, r0
 8009750:	21b5      	movs	r1, #181	; 0xb5
 8009752:	4b0d      	ldr	r3, [pc, #52]	; (8009788 <__multadd+0x8c>)
 8009754:	480d      	ldr	r0, [pc, #52]	; (800978c <__multadd+0x90>)
 8009756:	f000 fd11 	bl	800a17c <__assert_func>
 800975a:	6922      	ldr	r2, [r4, #16]
 800975c:	f104 010c 	add.w	r1, r4, #12
 8009760:	3202      	adds	r2, #2
 8009762:	0092      	lsls	r2, r2, #2
 8009764:	300c      	adds	r0, #12
 8009766:	f7fe fc33 	bl	8007fd0 <memcpy>
 800976a:	4621      	mov	r1, r4
 800976c:	4638      	mov	r0, r7
 800976e:	f7ff ffa3 	bl	80096b8 <_Bfree>
 8009772:	462c      	mov	r4, r5
 8009774:	eb04 0386 	add.w	r3, r4, r6, lsl #2
 8009778:	3601      	adds	r6, #1
 800977a:	f8c3 8014 	str.w	r8, [r3, #20]
 800977e:	6126      	str	r6, [r4, #16]
 8009780:	4620      	mov	r0, r4
 8009782:	e8bd 81f0 	ldmia.w	sp!, {r4, r5, r6, r7, r8, pc}
 8009786:	bf00      	nop
 8009788:	0800b0af 	.word	0x0800b0af
 800978c:	0800b0c0 	.word	0x0800b0c0

08009790 <__hi0bits>:
 8009790:	0c02      	lsrs	r2, r0, #16
 8009792:	0412      	lsls	r2, r2, #16
 8009794:	4603      	mov	r3, r0
 8009796:	b9ca      	cbnz	r2, 80097cc <__hi0bits+0x3c>
 8009798:	0403      	lsls	r3, r0, #16
 800979a:	2010      	movs	r0, #16
 800979c:	f013 4f7f 	tst.w	r3, #4278190080	; 0xff000000
 80097a0:	bf04      	itt	eq
 80097a2:	021b      	lsleq	r3, r3, #8
 80097a4:	3008      	addeq	r0, #8
 80097a6:	f013 4f70 	tst.w	r3, #4026531840	; 0xf0000000
 80097aa:	bf04      	itt	eq
 80097ac:	011b      	lsleq	r3, r3, #4
 80097ae:	3004      	addeq	r0, #4
 80097b0:	f013 4f40 	tst.w	r3, #3221225472	; 0xc0000000
 80097b4:	bf04      	itt	eq
 80097b6:	009b      	lsleq	r3, r3, #2
 80097b8:	3002      	addeq	r0, #2
 80097ba:	2b00      	cmp	r3, #0
 80097bc:	db05      	blt.n	80097ca <__hi0bits+0x3a>
 80097be:	f013 4f80 	tst.w	r3, #1073741824	; 0x40000000
 80097c2:	f100 0001 	add.w	r0, r0, #1
 80097c6:	bf08      	it	eq
 80097c8:	2020      	moveq	r0, #32
 80097ca:	4770      	bx	lr
 80097cc:	2000      	movs	r0, #0
 80097ce:	e7e5      	b.n	800979c <__hi0bits+0xc>

080097d0 <__lo0bits>:
 80097d0:	6803      	ldr	r3, [r0, #0]
 80097d2:	4602      	mov	r2, r0
 80097d4:	f013 0007 	ands.w	r0, r3, #7
 80097d8:	d00b      	beq.n	80097f2 <__lo0bits+0x22>
 80097da:	07d9      	lsls	r1, r3, #31
 80097dc:	d422      	bmi.n	8009824 <__lo0bits+0x54>
 80097de:	0798      	lsls	r0, r3, #30
 80097e0:	bf49      	itett	mi
 80097e2:	085b      	lsrmi	r3, r3, #1
 80097e4:	089b      	lsrpl	r3, r3, #2
 80097e6:	2001      	movmi	r0, #1
 80097e8:	6013      	strmi	r3, [r2, #0]
 80097ea:	bf5c      	itt	pl
 80097ec:	2002      	movpl	r0, #2
 80097ee:	6013      	strpl	r3, [r2, #0]
 80097f0:	4770      	bx	lr
 80097f2:	b299      	uxth	r1, r3
 80097f4:	b909      	cbnz	r1, 80097fa <__lo0bits+0x2a>
 80097f6:	2010      	movs	r0, #16
 80097f8:	0c1b      	lsrs	r3, r3, #16
 80097fa:	f013 0fff 	tst.w	r3, #255	; 0xff
 80097fe:	bf04      	itt	eq
 8009800:	0a1b      	lsreq	r3, r3, #8
 8009802:	3008      	addeq	r0, #8
 8009804:	0719      	lsls	r1, r3, #28
 8009806:	bf04      	itt	eq
 8009808:	091b      	lsreq	r3, r3, #4
 800980a:	3004      	addeq	r0, #4
 800980c:	0799      	lsls	r1, r3, #30
 800980e:	bf04      	itt	eq
 8009810:	089b      	lsreq	r3, r3, #2
 8009812:	3002      	addeq	r0, #2
 8009814:	07d9      	lsls	r1, r3, #31
 8009816:	d403      	bmi.n	8009820 <__lo0bits+0x50>
 8009818:	085b      	lsrs	r3, r3, #1
 800981a:	f100 0001 	add.w	r0, r0, #1
 800981e:	d003      	beq.n	8009828 <__lo0bits+0x58>
 8009820:	6013      	str	r3, [r2, #0]
 8009822:	4770      	bx	lr
 8009824:	2000      	movs	r0, #0
 8009826:	4770      	bx	lr
 8009828:	2020      	movs	r0, #32
 800982a:	4770      	bx	lr

0800982c <__i2b>:
 800982c:	b510      	push	{r4, lr}
 800982e:	460c      	mov	r4, r1
 8009830:	2101      	movs	r1, #1
 8009832:	f7ff ff01 	bl	8009638 <_Balloc>
 8009836:	4602      	mov	r2, r0
 8009838:	b928      	cbnz	r0, 8009846 <__i2b+0x1a>
 800983a:	f44f 71a0 	mov.w	r1, #320	; 0x140
 800983e:	4b04      	ldr	r3, [pc, #16]	; (8009850 <__i2b+0x24>)
 8009840:	4804      	ldr	r0, [pc, #16]	; (8009854 <__i2b+0x28>)
 8009842:	f000 fc9b 	bl	800a17c <__assert_func>
 8009846:	2301      	movs	r3, #1
 8009848:	6144      	str	r4, [r0, #20]
 800984a:	6103      	str	r3, [r0, #16]
 800984c:	bd10      	pop	{r4, pc}
 800984e:	bf00      	nop
 8009850:	0800b0af 	.word	0x0800b0af
 8009854:	0800b0c0 	.word	0x0800b0c0

08009858 <__multiply>:
 8009858:	e92d 4ff0 	stmdb	sp!, {r4, r5, r6, r7, r8, r9, sl, fp, lr}
 800985c:	4614      	mov	r4, r2
 800985e:	690a      	ldr	r2, [r1, #16]
 8009860:	6923      	ldr	r3, [r4, #16]
 8009862:	460d      	mov	r5, r1
 8009864:	429a      	cmp	r2, r3
 8009866:	bfbe      	ittt	lt
 8009868:	460b      	movlt	r3, r1
 800986a:	4625      	movlt	r5, r4
 800986c:	461c      	movlt	r4, r3
 800986e:	f8d5 a010 	ldr.w	sl, [r5, #16]
 8009872:	f8d4 9010 	ldr.w	r9, [r4, #16]
 8009876:	68ab      	ldr	r3, [r5, #8]
 8009878:	6869      	ldr	r1, [r5, #4]
 800987a:	eb0a 0709 	add.w	r7, sl, r9
 800987e:	42bb      	cmp	r3, r7
 8009880:	b085      	sub	sp, #20
 8009882:	bfb8      	it	lt
 8009884:	3101      	addlt	r1, #1
 8009886:	f7ff fed7 	bl	8009638 <_Balloc>
 800988a:	b930      	cbnz	r0, 800989a <__multiply+0x42>
 800988c:	4602      	mov	r2, r0
 800988e:	f240 115d 	movw	r1, #349	; 0x15d
 8009892:	4b41      	ldr	r3, [pc, #260]	; (8009998 <__multiply+0x140>)
 8009894:	4841      	ldr	r0, [pc, #260]	; (800999c <__multiply+0x144>)
 8009896:	f000 fc71 	bl	800a17c <__assert_func>
 800989a:	f100 0614 	add.w	r6, r0, #20
 800989e:	4633      	mov	r3, r6
 80098a0:	2200      	movs	r2, #0
 80098a2:	eb06 0887 	add.w	r8, r6, r7, lsl #2
 80098a6:	4543      	cmp	r3, r8
 80098a8:	d31e      	bcc.n	80098e8 <__multiply+0x90>
 80098aa:	f105 0c14 	add.w	ip, r5, #20
 80098ae:	f104 0314 	add.w	r3, r4, #20
 80098b2:	eb0c 0c8a 	add.w	ip, ip, sl, lsl #2
 80098b6:	eb03 0289 	add.w	r2, r3, r9, lsl #2
 80098ba:	9202      	str	r2, [sp, #8]
 80098bc:	ebac 0205 	sub.w	r2, ip, r5
 80098c0:	3a15      	subs	r2, #21
 80098c2:	f022 0203 	bic.w	r2, r2, #3
 80098c6:	3204      	adds	r2, #4
 80098c8:	f105 0115 	add.w	r1, r5, #21
 80098cc:	458c      	cmp	ip, r1
 80098ce:	bf38      	it	cc
 80098d0:	2204      	movcc	r2, #4
 80098d2:	9201      	str	r2, [sp, #4]
 80098d4:	9a02      	ldr	r2, [sp, #8]
 80098d6:	9303      	str	r3, [sp, #12]
 80098d8:	429a      	cmp	r2, r3
 80098da:	d808      	bhi.n	80098ee <__multiply+0x96>
 80098dc:	2f00      	cmp	r7, #0
 80098de:	dc55      	bgt.n	800998c <__multiply+0x134>
 80098e0:	6107      	str	r7, [r0, #16]
 80098e2:	b005      	add	sp, #20
 80098e4:	e8bd 8ff0 	ldmia.w	sp!, {r4, r5, r6, r7, r8, r9, sl, fp, pc}
 80098e8:	f843 2b04 	str.w	r2, [r3], #4
 80098ec:	e7db      	b.n	80098a6 <__multiply+0x4e>
 80098ee:	f8b3 a000 	ldrh.w	sl, [r3]
 80098f2:	f1ba 0f00 	cmp.w	sl, #0
 80098f6:	d020      	beq.n	800993a <__multiply+0xe2>
 80098f8:	46b1      	mov	r9, r6
 80098fa:	2200      	movs	r2, #0
 80098fc:	f105 0e14 	add.w	lr, r5, #20
 8009900:	f85e 4b04 	ldr.w	r4, [lr], #4
 8009904:	f8d9 b000 	ldr.w	fp, [r9]
 8009908:	b2a1      	uxth	r1, r4
 800990a:	fa1f fb8b 	uxth.w	fp, fp
 800990e:	fb0a b101 	mla	r1, sl, r1, fp
 8009912:	4411      	add	r1, r2
 8009914:	f8d9 2000 	ldr.w	r2, [r9]
 8009918:	0c24      	lsrs	r4, r4, #16
 800991a:	0c12      	lsrs	r2, r2, #16
 800991c:	fb0a 2404 	mla	r4, sl, r4, r2
 8009920:	eb04 4411 	add.w	r4, r4, r1, lsr #16
 8009924:	b289      	uxth	r1, r1
 8009926:	ea41 4104 	orr.w	r1, r1, r4, lsl #16
 800992a:	45f4      	cmp	ip, lr
 800992c:	ea4f 4214 	mov.w	r2, r4, lsr #16
 8009930:	f849 1b04 	str.w	r1, [r9], #4
 8009934:	d8e4      	bhi.n	8009900 <__multiply+0xa8>
 8009936:	9901      	ldr	r1, [sp, #4]
 8009938:	5072      	str	r2, [r6, r1]
 800993a:	9a03      	ldr	r2, [sp, #12]
 800993c:	3304      	adds	r3, #4
 800993e:	f8b2 9002 	ldrh.w	r9, [r2, #2]
 8009942:	f1b9 0f00 	cmp.w	r9, #0
 8009946:	d01f      	beq.n	8009988 <__multiply+0x130>
 8009948:	46b6      	mov	lr, r6
 800994a:	f04f 0a00 	mov.w	sl, #0
 800994e:	6834      	ldr	r4, [r6, #0]
 8009950:	f105 0114 	add.w	r1, r5, #20
 8009954:	880a      	ldrh	r2, [r1, #0]
 8009956:	f8be b002 	ldrh.w	fp, [lr, #2]
 800995a:	b2a4      	uxth	r4, r4
 800995c:	fb09 b202 	mla	r2, r9, r2, fp
 8009960:	4492      	add	sl, r2
 8009962:	ea44 440a 	orr.w	r4, r4, sl, lsl #16
 8009966:	f84e 4b04 	str.w	r4, [lr], #4
 800996a:	f851 4b04 	ldr.w	r4, [r1], #4
 800996e:	f8be 2000 	ldrh.w	r2, [lr]
 8009972:	0c24      	lsrs	r4, r4, #16
 8009974:	fb09 2404 	mla	r4, r9, r4, r2
 8009978:	458c      	cmp	ip, r1
 800997a:	eb04 441a 	add.w	r4, r4, sl, lsr #16
 800997e:	ea4f 4a14 	mov.w	sl, r4, lsr #16
 8009982:	d8e7      	bhi.n	8009954 <__multiply+0xfc>
 8009984:	9a01      	ldr	r2, [sp, #4]
 8009986:	50b4      	str	r4, [r6, r2]
 8009988:	3604      	adds	r6, #4
 800998a:	e7a3      	b.n	80098d4 <__multiply+0x7c>
 800998c:	f858 3d04 	ldr.w	r3, [r8, #-4]!
 8009990:	2b00      	cmp	r3, #0
 8009992:	d1a5      	bne.n	80098e0 <__multiply+0x88>
 8009994:	3f01      	subs	r7, #1
 8009996:	e7a1      	b.n	80098dc <__multiply+0x84>
 8009998:	0800b0af 	.word	0x0800b0af
 800999c:	0800b0c0 	.word	0x0800b0c0

080099a0 <__pow5mult>:
 80099a0:	e92d 43f8 	stmdb	sp!, {r3, r4, r5, r6, r7, r8, r9, lr}
 80099a4:	4615      	mov	r5, r2
 80099a6:	f012 0203 	ands.w	r2, r2, #3
 80099aa:	4606      	mov	r6, r0
 80099ac:	460f      	mov	r7, r1
 80099ae:	d007      	beq.n	80099c0 <__pow5mult+0x20>
 80099b0:	4c25      	ldr	r4, [pc, #148]	; (8009a48 <__pow5mult+0xa8>)
 80099b2:	3a01      	subs	r2, #1
 80099b4:	2300      	movs	r3, #0
 80099b6:	f854 2022 	ldr.w	r2, [r4, r2, lsl #2]
 80099ba:	f7ff fe9f 	bl	80096fc <__multadd>
 80099be:	4607      	mov	r7, r0
 80099c0:	10ad      	asrs	r5, r5, #2
 80099c2:	d03d      	beq.n	8009a40 <__pow5mult+0xa0>
 80099c4:	6a74      	ldr	r4, [r6, #36]	; 0x24
 80099c6:	b97c      	cbnz	r4, 80099e8 <__pow5mult+0x48>
 80099c8:	2010      	movs	r0, #16
 80099ca:	f7ff fe1f 	bl	800960c <malloc>
 80099ce:	4602      	mov	r2, r0
 80099d0:	6270      	str	r0, [r6, #36]	; 0x24
 80099d2:	b928      	cbnz	r0, 80099e0 <__pow5mult+0x40>
 80099d4:	f44f 71d7 	mov.w	r1, #430	; 0x1ae
 80099d8:	4b1c      	ldr	r3, [pc, #112]	; (8009a4c <__pow5mult+0xac>)
 80099da:	481d      	ldr	r0, [pc, #116]	; (8009a50 <__pow5mult+0xb0>)
 80099dc:	f000 fbce 	bl	800a17c <__assert_func>
 80099e0:	e9c0 4401 	strd	r4, r4, [r0, #4]
 80099e4:	6004      	str	r4, [r0, #0]
 80099e6:	60c4      	str	r4, [r0, #12]
 80099e8:	f8d6 8024 	ldr.w	r8, [r6, #36]	; 0x24
 80099ec:	f8d8 4008 	ldr.w	r4, [r8, #8]
 80099f0:	b94c      	cbnz	r4, 8009a06 <__pow5mult+0x66>
 80099f2:	f240 2171 	movw	r1, #625	; 0x271
 80099f6:	4630      	mov	r0, r6
 80099f8:	f7ff ff18 	bl	800982c <__i2b>
 80099fc:	2300      	movs	r3, #0
 80099fe:	4604      	mov	r4, r0
 8009a00:	f8c8 0008 	str.w	r0, [r8, #8]
 8009a04:	6003      	str	r3, [r0, #0]
 8009a06:	f04f 0900 	mov.w	r9, #0
 8009a0a:	07eb      	lsls	r3, r5, #31
 8009a0c:	d50a      	bpl.n	8009a24 <__pow5mult+0x84>
 8009a0e:	4639      	mov	r1, r7
 8009a10:	4622      	mov	r2, r4
 8009a12:	4630      	mov	r0, r6
 8009a14:	f7ff ff20 	bl	8009858 <__multiply>
 8009a18:	4680      	mov	r8, r0
 8009a1a:	4639      	mov	r1, r7
 8009a1c:	4630      	mov	r0, r6
 8009a1e:	f7ff fe4b 	bl	80096b8 <_Bfree>
 8009a22:	4647      	mov	r7, r8
 8009a24:	106d      	asrs	r5, r5, #1
 8009a26:	d00b      	beq.n	8009a40 <__pow5mult+0xa0>
 8009a28:	6820      	ldr	r0, [r4, #0]
 8009a2a:	b938      	cbnz	r0, 8009a3c <__pow5mult+0x9c>
 8009a2c:	4622      	mov	r2, r4
 8009a2e:	4621      	mov	r1, r4
 8009a30:	4630      	mov	r0, r6
 8009a32:	f7ff ff11 	bl	8009858 <__multiply>
 8009a36:	6020      	str	r0, [r4, #0]
 8009a38:	f8c0 9000 	str.w	r9, [r0]
 8009a3c:	4604      	mov	r4, r0
 8009a3e:	e7e4      	b.n	8009a0a <__pow5mult+0x6a>
 8009a40:	4638      	mov	r0, r7
 8009a42:	e8bd 83f8 	ldmia.w	sp!, {r3, r4, r5, r6, r7, r8, r9, pc}
 8009a46:	bf00      	nop
 8009a48:	0800b210 	.word	0x0800b210
 8009a4c:	0800b039 	.word	0x0800b039
 8009a50:	0800b0c0 	.word	0x0800b0c0

08009a54 <__lshift>:
 8009a54:	e92d 47f0 	stmdb	sp!, {r4, r5, r6, r7, r8, r9, sl, lr}
 8009a58:	460c      	mov	r4, r1
 8009a5a:	4607      	mov	r7, r0
 8009a5c:	4691      	mov	r9, r2
 8009a5e:	6923      	ldr	r3, [r4, #16]
 8009a60:	6849      	ldr	r1, [r1, #4]
 8009a62:	eb03 1862 	add.w	r8, r3, r2, asr #5
 8009a66:	68a3      	ldr	r3, [r4, #8]
 8009a68:	ea4f 1a62 	mov.w	sl, r2, asr #5
 8009a6c:	f108 0601 	add.w	r6, r8, #1
 8009a70:	42b3      	cmp	r3, r6
 8009a72:	db0b      	blt.n	8009a8c <__lshift+0x38>
 8009a74:	4638      	mov	r0, r7
 8009a76:	f7ff fddf 	bl	8009638 <_Balloc>
 8009a7a:	4605      	mov	r5, r0
 8009a7c:	b948      	cbnz	r0, 8009a92 <__lshift+0x3e>
 8009a7e:	4602      	mov	r2, r0
 8009a80:	f240 11d9 	movw	r1, #473	; 0x1d9
 8009a84:	4b27      	ldr	r3, [pc, #156]	; (8009b24 <__lshift+0xd0>)
 8009a86:	4828      	ldr	r0, [pc, #160]	; (8009b28 <__lshift+0xd4>)
 8009a88:	f000 fb78 	bl	800a17c <__assert_func>
 8009a8c:	3101      	adds	r1, #1
 8009a8e:	005b      	lsls	r3, r3, #1
 8009a90:	e7ee      	b.n	8009a70 <__lshift+0x1c>
 8009a92:	2300      	movs	r3, #0
 8009a94:	f100 0114 	add.w	r1, r0, #20
 8009a98:	f100 0210 	add.w	r2, r0, #16
 8009a9c:	4618      	mov	r0, r3
 8009a9e:	4553      	cmp	r3, sl
 8009aa0:	db33      	blt.n	8009b0a <__lshift+0xb6>
 8009aa2:	6920      	ldr	r0, [r4, #16]
 8009aa4:	ea2a 7aea 	bic.w	sl, sl, sl, asr #31
 8009aa8:	f104 0314 	add.w	r3, r4, #20
 8009aac:	f019 091f 	ands.w	r9, r9, #31
 8009ab0:	eb01 018a 	add.w	r1, r1, sl, lsl #2
 8009ab4:	eb03 0c80 	add.w	ip, r3, r0, lsl #2
 8009ab8:	d02b      	beq.n	8009b12 <__lshift+0xbe>
 8009aba:	468a      	mov	sl, r1
 8009abc:	2200      	movs	r2, #0
 8009abe:	f1c9 0e20 	rsb	lr, r9, #32
 8009ac2:	6818      	ldr	r0, [r3, #0]
 8009ac4:	fa00 f009 	lsl.w	r0, r0, r9
 8009ac8:	4302      	orrs	r2, r0
 8009aca:	f84a 2b04 	str.w	r2, [sl], #4
 8009ace:	f853 2b04 	ldr.w	r2, [r3], #4
 8009ad2:	459c      	cmp	ip, r3
 8009ad4:	fa22 f20e 	lsr.w	r2, r2, lr
 8009ad8:	d8f3      	bhi.n	8009ac2 <__lshift+0x6e>
 8009ada:	ebac 0304 	sub.w	r3, ip, r4
 8009ade:	3b15      	subs	r3, #21
 8009ae0:	f023 0303 	bic.w	r3, r3, #3
 8009ae4:	3304      	adds	r3, #4
 8009ae6:	f104 0015 	add.w	r0, r4, #21
 8009aea:	4584      	cmp	ip, r0
 8009aec:	bf38      	it	cc
 8009aee:	2304      	movcc	r3, #4
 8009af0:	50ca      	str	r2, [r1, r3]
 8009af2:	b10a      	cbz	r2, 8009af8 <__lshift+0xa4>
 8009af4:	f108 0602 	add.w	r6, r8, #2
 8009af8:	3e01      	subs	r6, #1
 8009afa:	4638      	mov	r0, r7
 8009afc:	4621      	mov	r1, r4
 8009afe:	612e      	str	r6, [r5, #16]
 8009b00:	f7ff fdda 	bl	80096b8 <_Bfree>
 8009b04:	4628      	mov	r0, r5
 8009b06:	e8bd 87f0 	ldmia.w	sp!, {r4, r5, r6, r7, r8, r9, sl, pc}
 8009b0a:	f842 0f04 	str.w	r0, [r2, #4]!
 8009b0e:	3301      	adds	r3, #1
 8009b10:	e7c5      	b.n	8009a9e <__lshift+0x4a>
 8009b12:	3904      	subs	r1, #4
 8009b14:	f853 2b04 	ldr.w	r2, [r3], #4
 8009b18:	459c      	cmp	ip, r3
 8009b1a:	f841 2f04 	str.w	r2, [r1, #4]!
 8009b1e:	d8f9      	bhi.n	8009b14 <__lshift+0xc0>
 8009b20:	e7ea      	b.n	8009af8 <__lshift+0xa4>
 8009b22:	bf00      	nop
 8009b24:	0800b0af 	.word	0x0800b0af
 8009b28:	0800b0c0 	.word	0x0800b0c0

08009b2c <__mcmp>:
 8009b2c:	4603      	mov	r3, r0
 8009b2e:	690a      	ldr	r2, [r1, #16]
 8009b30:	6900      	ldr	r0, [r0, #16]
 8009b32:	b530      	push	{r4, r5, lr}
 8009b34:	1a80      	subs	r0, r0, r2
 8009b36:	d10d      	bne.n	8009b54 <__mcmp+0x28>
 8009b38:	3314      	adds	r3, #20
 8009b3a:	3114      	adds	r1, #20
 8009b3c:	eb03 0482 	add.w	r4, r3, r2, lsl #2
 8009b40:	eb01 0182 	add.w	r1, r1, r2, lsl #2
 8009b44:	f854 5d04 	ldr.w	r5, [r4, #-4]!
 8009b48:	f851 2d04 	ldr.w	r2, [r1, #-4]!
 8009b4c:	4295      	cmp	r5, r2
 8009b4e:	d002      	beq.n	8009b56 <__mcmp+0x2a>
 8009b50:	d304      	bcc.n	8009b5c <__mcmp+0x30>
 8009b52:	2001      	movs	r0, #1
 8009b54:	bd30      	pop	{r4, r5, pc}
 8009b56:	42a3      	cmp	r3, r4
 8009b58:	d3f4      	bcc.n	8009b44 <__mcmp+0x18>
 8009b5a:	e7fb      	b.n	8009b54 <__mcmp+0x28>
 8009b5c:	f04f 30ff 	mov.w	r0, #4294967295	; 0xffffffff
 8009b60:	e7f8      	b.n	8009b54 <__mcmp+0x28>
	...

08009b64 <__mdiff>:
 8009b64:	e92d 4ff8 	stmdb	sp!, {r3, r4, r5, r6, r7, r8, r9, sl, fp, lr}
 8009b68:	460c      	mov	r4, r1
 8009b6a:	4606      	mov	r6, r0
 8009b6c:	4611      	mov	r1, r2
 8009b6e:	4620      	mov	r0, r4
 8009b70:	4692      	mov	sl, r2
 8009b72:	f7ff ffdb 	bl	8009b2c <__mcmp>
 8009b76:	1e05      	subs	r5, r0, #0
 8009b78:	d111      	bne.n	8009b9e <__mdiff+0x3a>
 8009b7a:	4629      	mov	r1, r5
 8009b7c:	4630      	mov	r0, r6
 8009b7e:	f7ff fd5b 	bl	8009638 <_Balloc>
 8009b82:	4602      	mov	r2, r0
 8009b84:	b928      	cbnz	r0, 8009b92 <__mdiff+0x2e>
 8009b86:	f240 2132 	movw	r1, #562	; 0x232
 8009b8a:	4b3c      	ldr	r3, [pc, #240]	; (8009c7c <__mdiff+0x118>)
 8009b8c:	483c      	ldr	r0, [pc, #240]	; (8009c80 <__mdiff+0x11c>)
 8009b8e:	f000 faf5 	bl	800a17c <__assert_func>
 8009b92:	2301      	movs	r3, #1
 8009b94:	e9c0 3504 	strd	r3, r5, [r0, #16]
 8009b98:	4610      	mov	r0, r2
 8009b9a:	e8bd 8ff8 	ldmia.w	sp!, {r3, r4, r5, r6, r7, r8, r9, sl, fp, pc}
 8009b9e:	bfa4      	itt	ge
 8009ba0:	4653      	movge	r3, sl
 8009ba2:	46a2      	movge	sl, r4
 8009ba4:	4630      	mov	r0, r6
 8009ba6:	f8da 1004 	ldr.w	r1, [sl, #4]
 8009baa:	bfa6      	itte	ge
 8009bac:	461c      	movge	r4, r3
 8009bae:	2500      	movge	r5, #0
 8009bb0:	2501      	movlt	r5, #1
 8009bb2:	f7ff fd41 	bl	8009638 <_Balloc>
 8009bb6:	4602      	mov	r2, r0
 8009bb8:	b918      	cbnz	r0, 8009bc2 <__mdiff+0x5e>
 8009bba:	f44f 7110 	mov.w	r1, #576	; 0x240
 8009bbe:	4b2f      	ldr	r3, [pc, #188]	; (8009c7c <__mdiff+0x118>)
 8009bc0:	e7e4      	b.n	8009b8c <__mdiff+0x28>
 8009bc2:	f100 0814 	add.w	r8, r0, #20
 8009bc6:	f8da 7010 	ldr.w	r7, [sl, #16]
 8009bca:	60c5      	str	r5, [r0, #12]
 8009bcc:	f04f 0c00 	mov.w	ip, #0
 8009bd0:	f10a 0514 	add.w	r5, sl, #20
 8009bd4:	f10a 0010 	add.w	r0, sl, #16
 8009bd8:	46c2      	mov	sl, r8
 8009bda:	6926      	ldr	r6, [r4, #16]
 8009bdc:	f104 0914 	add.w	r9, r4, #20
 8009be0:	eb05 0e87 	add.w	lr, r5, r7, lsl #2
 8009be4:	eb09 0686 	add.w	r6, r9, r6, lsl #2
 8009be8:	f850 bf04 	ldr.w	fp, [r0, #4]!
 8009bec:	f859 3b04 	ldr.w	r3, [r9], #4
 8009bf0:	fa1f f18b 	uxth.w	r1, fp
 8009bf4:	4461      	add	r1, ip
 8009bf6:	fa1f fc83 	uxth.w	ip, r3
 8009bfa:	0c1b      	lsrs	r3, r3, #16
 8009bfc:	eba1 010c 	sub.w	r1, r1, ip
 8009c00:	ebc3 431b 	rsb	r3, r3, fp, lsr #16
 8009c04:	eb03 4321 	add.w	r3, r3, r1, asr #16
 8009c08:	b289      	uxth	r1, r1
 8009c0a:	ea4f 4c23 	mov.w	ip, r3, asr #16
 8009c0e:	454e      	cmp	r6, r9
 8009c10:	ea41 4303 	orr.w	r3, r1, r3, lsl #16
 8009c14:	f84a 3b04 	str.w	r3, [sl], #4
 8009c18:	d8e6      	bhi.n	8009be8 <__mdiff+0x84>
 8009c1a:	1b33      	subs	r3, r6, r4
 8009c1c:	3b15      	subs	r3, #21
 8009c1e:	f023 0303 	bic.w	r3, r3, #3
 8009c22:	3415      	adds	r4, #21
 8009c24:	3304      	adds	r3, #4
 8009c26:	42a6      	cmp	r6, r4
 8009c28:	bf38      	it	cc
 8009c2a:	2304      	movcc	r3, #4
 8009c2c:	441d      	add	r5, r3
 8009c2e:	4443      	add	r3, r8
 8009c30:	461e      	mov	r6, r3
 8009c32:	462c      	mov	r4, r5
 8009c34:	4574      	cmp	r4, lr
 8009c36:	d30e      	bcc.n	8009c56 <__mdiff+0xf2>
 8009c38:	f10e 0103 	add.w	r1, lr, #3
 8009c3c:	1b49      	subs	r1, r1, r5
 8009c3e:	f021 0103 	bic.w	r1, r1, #3
 8009c42:	3d03      	subs	r5, #3
 8009c44:	45ae      	cmp	lr, r5
 8009c46:	bf38      	it	cc
 8009c48:	2100      	movcc	r1, #0
 8009c4a:	4419      	add	r1, r3
 8009c4c:	f851 3d04 	ldr.w	r3, [r1, #-4]!
 8009c50:	b18b      	cbz	r3, 8009c76 <__mdiff+0x112>
 8009c52:	6117      	str	r7, [r2, #16]
 8009c54:	e7a0      	b.n	8009b98 <__mdiff+0x34>
 8009c56:	f854 8b04 	ldr.w	r8, [r4], #4
 8009c5a:	fa1f f188 	uxth.w	r1, r8
 8009c5e:	4461      	add	r1, ip
 8009c60:	1408      	asrs	r0, r1, #16
 8009c62:	eb00 4018 	add.w	r0, r0, r8, lsr #16
 8009c66:	b289      	uxth	r1, r1
 8009c68:	ea41 4100 	orr.w	r1, r1, r0, lsl #16
 8009c6c:	ea4f 4c20 	mov.w	ip, r0, asr #16
 8009c70:	f846 1b04 	str.w	r1, [r6], #4
 8009c74:	e7de      	b.n	8009c34 <__mdiff+0xd0>
 8009c76:	3f01      	subs	r7, #1
 8009c78:	e7e8      	b.n	8009c4c <__mdiff+0xe8>
 8009c7a:	bf00      	nop
 8009c7c:	0800b0af 	.word	0x0800b0af
 8009c80:	0800b0c0 	.word	0x0800b0c0

08009c84 <__d2b>:
 8009c84:	e92d 41f3 	stmdb	sp!, {r0, r1, r4, r5, r6, r7, r8, lr}
 8009c88:	2101      	movs	r1, #1
 8009c8a:	e9dd 7608 	ldrd	r7, r6, [sp, #32]
 8009c8e:	4690      	mov	r8, r2
 8009c90:	461d      	mov	r5, r3
 8009c92:	f7ff fcd1 	bl	8009638 <_Balloc>
 8009c96:	4604      	mov	r4, r0
 8009c98:	b930      	cbnz	r0, 8009ca8 <__d2b+0x24>
 8009c9a:	4602      	mov	r2, r0
 8009c9c:	f240 310a 	movw	r1, #778	; 0x30a
 8009ca0:	4b24      	ldr	r3, [pc, #144]	; (8009d34 <__d2b+0xb0>)
 8009ca2:	4825      	ldr	r0, [pc, #148]	; (8009d38 <__d2b+0xb4>)
 8009ca4:	f000 fa6a 	bl	800a17c <__assert_func>
 8009ca8:	f3c5 0313 	ubfx	r3, r5, #0, #20
 8009cac:	f3c5 550a 	ubfx	r5, r5, #20, #11
 8009cb0:	bb2d      	cbnz	r5, 8009cfe <__d2b+0x7a>
 8009cb2:	9301      	str	r3, [sp, #4]
 8009cb4:	f1b8 0300 	subs.w	r3, r8, #0
 8009cb8:	d026      	beq.n	8009d08 <__d2b+0x84>
 8009cba:	4668      	mov	r0, sp
 8009cbc:	9300      	str	r3, [sp, #0]
 8009cbe:	f7ff fd87 	bl	80097d0 <__lo0bits>
 8009cc2:	9900      	ldr	r1, [sp, #0]
 8009cc4:	b1f0      	cbz	r0, 8009d04 <__d2b+0x80>
 8009cc6:	9a01      	ldr	r2, [sp, #4]
 8009cc8:	f1c0 0320 	rsb	r3, r0, #32
 8009ccc:	fa02 f303 	lsl.w	r3, r2, r3
 8009cd0:	430b      	orrs	r3, r1
 8009cd2:	40c2      	lsrs	r2, r0
 8009cd4:	6163      	str	r3, [r4, #20]
 8009cd6:	9201      	str	r2, [sp, #4]
 8009cd8:	9b01      	ldr	r3, [sp, #4]
 8009cda:	2b00      	cmp	r3, #0
 8009cdc:	bf14      	ite	ne
 8009cde:	2102      	movne	r1, #2
 8009ce0:	2101      	moveq	r1, #1
 8009ce2:	61a3      	str	r3, [r4, #24]
 8009ce4:	6121      	str	r1, [r4, #16]
 8009ce6:	b1c5      	cbz	r5, 8009d1a <__d2b+0x96>
 8009ce8:	f2a5 4533 	subw	r5, r5, #1075	; 0x433
 8009cec:	4405      	add	r5, r0
 8009cee:	f1c0 0035 	rsb	r0, r0, #53	; 0x35
 8009cf2:	603d      	str	r5, [r7, #0]
 8009cf4:	6030      	str	r0, [r6, #0]
 8009cf6:	4620      	mov	r0, r4
 8009cf8:	b002      	add	sp, #8
 8009cfa:	e8bd 81f0 	ldmia.w	sp!, {r4, r5, r6, r7, r8, pc}
 8009cfe:	f443 1380 	orr.w	r3, r3, #1048576	; 0x100000
 8009d02:	e7d6      	b.n	8009cb2 <__d2b+0x2e>
 8009d04:	6161      	str	r1, [r4, #20]
 8009d06:	e7e7      	b.n	8009cd8 <__d2b+0x54>
 8009d08:	a801      	add	r0, sp, #4
 8009d0a:	f7ff fd61 	bl	80097d0 <__lo0bits>
 8009d0e:	2101      	movs	r1, #1
 8009d10:	9b01      	ldr	r3, [sp, #4]
 8009d12:	6121      	str	r1, [r4, #16]
 8009d14:	6163      	str	r3, [r4, #20]
 8009d16:	3020      	adds	r0, #32
 8009d18:	e7e5      	b.n	8009ce6 <__d2b+0x62>
 8009d1a:	eb04 0381 	add.w	r3, r4, r1, lsl #2
 8009d1e:	f2a0 4032 	subw	r0, r0, #1074	; 0x432
 8009d22:	6038      	str	r0, [r7, #0]
 8009d24:	6918      	ldr	r0, [r3, #16]
 8009d26:	f7ff fd33 	bl	8009790 <__hi0bits>
 8009d2a:	ebc0 1141 	rsb	r1, r0, r1, lsl #5
 8009d2e:	6031      	str	r1, [r6, #0]
 8009d30:	e7e1      	b.n	8009cf6 <__d2b+0x72>
 8009d32:	bf00      	nop
 8009d34:	0800b0af 	.word	0x0800b0af
 8009d38:	0800b0c0 	.word	0x0800b0c0

08009d3c <_calloc_r>:
 8009d3c:	b538      	push	{r3, r4, r5, lr}
 8009d3e:	fb02 f501 	mul.w	r5, r2, r1
 8009d42:	4629      	mov	r1, r5
 8009d44:	f000 f854 	bl	8009df0 <_malloc_r>
 8009d48:	4604      	mov	r4, r0
 8009d4a:	b118      	cbz	r0, 8009d54 <_calloc_r+0x18>
 8009d4c:	462a      	mov	r2, r5
 8009d4e:	2100      	movs	r1, #0
 8009d50:	f7fe f94c 	bl	8007fec <memset>
 8009d54:	4620      	mov	r0, r4
 8009d56:	bd38      	pop	{r3, r4, r5, pc}

08009d58 <_free_r>:
 8009d58:	b538      	push	{r3, r4, r5, lr}
 8009d5a:	4605      	mov	r5, r0
 8009d5c:	2900      	cmp	r1, #0
 8009d5e:	d043      	beq.n	8009de8 <_free_r+0x90>
 8009d60:	f851 3c04 	ldr.w	r3, [r1, #-4]
 8009d64:	1f0c      	subs	r4, r1, #4
 8009d66:	2b00      	cmp	r3, #0
 8009d68:	bfb8      	it	lt
 8009d6a:	18e4      	addlt	r4, r4, r3
 8009d6c:	f000 fa62 	bl	800a234 <__malloc_lock>
 8009d70:	4a1e      	ldr	r2, [pc, #120]	; (8009dec <_free_r+0x94>)
 8009d72:	6813      	ldr	r3, [r2, #0]
 8009d74:	4610      	mov	r0, r2
 8009d76:	b933      	cbnz	r3, 8009d86 <_free_r+0x2e>
 8009d78:	6063      	str	r3, [r4, #4]
 8009d7a:	6014      	str	r4, [r2, #0]
 8009d7c:	4628      	mov	r0, r5
 8009d7e:	e8bd 4038 	ldmia.w	sp!, {r3, r4, r5, lr}
 8009d82:	f000 ba5d 	b.w	800a240 <__malloc_unlock>
 8009d86:	42a3      	cmp	r3, r4
 8009d88:	d90a      	bls.n	8009da0 <_free_r+0x48>
 8009d8a:	6821      	ldr	r1, [r4, #0]
 8009d8c:	1862      	adds	r2, r4, r1
 8009d8e:	4293      	cmp	r3, r2
 8009d90:	bf01      	itttt	eq
 8009d92:	681a      	ldreq	r2, [r3, #0]
 8009d94:	685b      	ldreq	r3, [r3, #4]
 8009d96:	1852      	addeq	r2, r2, r1
 8009d98:	6022      	streq	r2, [r4, #0]
 8009d9a:	6063      	str	r3, [r4, #4]
 8009d9c:	6004      	str	r4, [r0, #0]
 8009d9e:	e7ed      	b.n	8009d7c <_free_r+0x24>
 8009da0:	461a      	mov	r2, r3
 8009da2:	685b      	ldr	r3, [r3, #4]
 8009da4:	b10b      	cbz	r3, 8009daa <_free_r+0x52>
 8009da6:	42a3      	cmp	r3, r4
 8009da8:	d9fa      	bls.n	8009da0 <_free_r+0x48>
 8009daa:	6811      	ldr	r1, [r2, #0]
 8009dac:	1850      	adds	r0, r2, r1
 8009dae:	42a0      	cmp	r0, r4
 8009db0:	d10b      	bne.n	8009dca <_free_r+0x72>
 8009db2:	6820      	ldr	r0, [r4, #0]
 8009db4:	4401      	add	r1, r0
 8009db6:	1850      	adds	r0, r2, r1
 8009db8:	4283      	cmp	r3, r0
 8009dba:	6011      	str	r1, [r2, #0]
 8009dbc:	d1de      	bne.n	8009d7c <_free_r+0x24>
 8009dbe:	6818      	ldr	r0, [r3, #0]
 8009dc0:	685b      	ldr	r3, [r3, #4]
 8009dc2:	4401      	add	r1, r0
 8009dc4:	6011      	str	r1, [r2, #0]
 8009dc6:	6053      	str	r3, [r2, #4]
 8009dc8:	e7d8      	b.n	8009d7c <_free_r+0x24>
 8009dca:	d902      	bls.n	8009dd2 <_free_r+0x7a>
 8009dcc:	230c      	movs	r3, #12
 8009dce:	602b      	str	r3, [r5, #0]
 8009dd0:	e7d4      	b.n	8009d7c <_free_r+0x24>
 8009dd2:	6820      	ldr	r0, [r4, #0]
 8009dd4:	1821      	adds	r1, r4, r0
 8009dd6:	428b      	cmp	r3, r1
 8009dd8:	bf01      	itttt	eq
 8009dda:	6819      	ldreq	r1, [r3, #0]
 8009ddc:	685b      	ldreq	r3, [r3, #4]
 8009dde:	1809      	addeq	r1, r1, r0
 8009de0:	6021      	streq	r1, [r4, #0]
 8009de2:	6063      	str	r3, [r4, #4]
 8009de4:	6054      	str	r4, [r2, #4]
 8009de6:	e7c9      	b.n	8009d7c <_free_r+0x24>
 8009de8:	bd38      	pop	{r3, r4, r5, pc}
 8009dea:	bf00      	nop
 8009dec:	20000580 	.word	0x20000580

08009df0 <_malloc_r>:
 8009df0:	b5f8      	push	{r3, r4, r5, r6, r7, lr}
 8009df2:	1ccd      	adds	r5, r1, #3
 8009df4:	f025 0503 	bic.w	r5, r5, #3
 8009df8:	3508      	adds	r5, #8
 8009dfa:	2d0c      	cmp	r5, #12
 8009dfc:	bf38      	it	cc
 8009dfe:	250c      	movcc	r5, #12
 8009e00:	2d00      	cmp	r5, #0
 8009e02:	4606      	mov	r6, r0
 8009e04:	db01      	blt.n	8009e0a <_malloc_r+0x1a>
 8009e06:	42a9      	cmp	r1, r5
 8009e08:	d903      	bls.n	8009e12 <_malloc_r+0x22>
 8009e0a:	230c      	movs	r3, #12
 8009e0c:	6033      	str	r3, [r6, #0]
 8009e0e:	2000      	movs	r0, #0
 8009e10:	bdf8      	pop	{r3, r4, r5, r6, r7, pc}
 8009e12:	f000 fa0f 	bl	800a234 <__malloc_lock>
 8009e16:	4921      	ldr	r1, [pc, #132]	; (8009e9c <_malloc_r+0xac>)
 8009e18:	680a      	ldr	r2, [r1, #0]
 8009e1a:	4614      	mov	r4, r2
 8009e1c:	b99c      	cbnz	r4, 8009e46 <_malloc_r+0x56>
 8009e1e:	4f20      	ldr	r7, [pc, #128]	; (8009ea0 <_malloc_r+0xb0>)
 8009e20:	683b      	ldr	r3, [r7, #0]
 8009e22:	b923      	cbnz	r3, 8009e2e <_malloc_r+0x3e>
 8009e24:	4621      	mov	r1, r4
 8009e26:	4630      	mov	r0, r6
 8009e28:	f000 f998 	bl	800a15c <_sbrk_r>
 8009e2c:	6038      	str	r0, [r7, #0]
 8009e2e:	4629      	mov	r1, r5
 8009e30:	4630      	mov	r0, r6
 8009e32:	f000 f993 	bl	800a15c <_sbrk_r>
 8009e36:	1c43      	adds	r3, r0, #1
 8009e38:	d123      	bne.n	8009e82 <_malloc_r+0x92>
 8009e3a:	230c      	movs	r3, #12
 8009e3c:	4630      	mov	r0, r6
 8009e3e:	6033      	str	r3, [r6, #0]
 8009e40:	f000 f9fe 	bl	800a240 <__malloc_unlock>
 8009e44:	e7e3      	b.n	8009e0e <_malloc_r+0x1e>
 8009e46:	6823      	ldr	r3, [r4, #0]
 8009e48:	1b5b      	subs	r3, r3, r5
 8009e4a:	d417      	bmi.n	8009e7c <_malloc_r+0x8c>
 8009e4c:	2b0b      	cmp	r3, #11
 8009e4e:	d903      	bls.n	8009e58 <_malloc_r+0x68>
 8009e50:	6023      	str	r3, [r4, #0]
 8009e52:	441c      	add	r4, r3
 8009e54:	6025      	str	r5, [r4, #0]
 8009e56:	e004      	b.n	8009e62 <_malloc_r+0x72>
 8009e58:	6863      	ldr	r3, [r4, #4]
 8009e5a:	42a2      	cmp	r2, r4
 8009e5c:	bf0c      	ite	eq
 8009e5e:	600b      	streq	r3, [r1, #0]
 8009e60:	6053      	strne	r3, [r2, #4]
 8009e62:	4630      	mov	r0, r6
 8009e64:	f000 f9ec 	bl	800a240 <__malloc_unlock>
 8009e68:	f104 000b 	add.w	r0, r4, #11
 8009e6c:	1d23      	adds	r3, r4, #4
 8009e6e:	f020 0007 	bic.w	r0, r0, #7
 8009e72:	1ac2      	subs	r2, r0, r3
 8009e74:	d0cc      	beq.n	8009e10 <_malloc_r+0x20>
 8009e76:	1a1b      	subs	r3, r3, r0
 8009e78:	50a3      	str	r3, [r4, r2]
 8009e7a:	e7c9      	b.n	8009e10 <_malloc_r+0x20>
 8009e7c:	4622      	mov	r2, r4
 8009e7e:	6864      	ldr	r4, [r4, #4]
 8009e80:	e7cc      	b.n	8009e1c <_malloc_r+0x2c>
 8009e82:	1cc4      	adds	r4, r0, #3
 8009e84:	f024 0403 	bic.w	r4, r4, #3
 8009e88:	42a0      	cmp	r0, r4
 8009e8a:	d0e3      	beq.n	8009e54 <_malloc_r+0x64>
 8009e8c:	1a21      	subs	r1, r4, r0
 8009e8e:	4630      	mov	r0, r6
 8009e90:	f000 f964 	bl	800a15c <_sbrk_r>
 8009e94:	3001      	adds	r0, #1
 8009e96:	d1dd      	bne.n	8009e54 <_malloc_r+0x64>
 8009e98:	e7cf      	b.n	8009e3a <_malloc_r+0x4a>
 8009e9a:	bf00      	nop
 8009e9c:	20000580 	.word	0x20000580
 8009ea0:	20000584 	.word	0x20000584

08009ea4 <__ssputs_r>:
 8009ea4:	e92d 47f0 	stmdb	sp!, {r4, r5, r6, r7, r8, r9, sl, lr}
 8009ea8:	688e      	ldr	r6, [r1, #8]
 8009eaa:	4682      	mov	sl, r0
 8009eac:	429e      	cmp	r6, r3
 8009eae:	460c      	mov	r4, r1
 8009eb0:	4690      	mov	r8, r2
 8009eb2:	461f      	mov	r7, r3
 8009eb4:	d838      	bhi.n	8009f28 <__ssputs_r+0x84>
 8009eb6:	898a      	ldrh	r2, [r1, #12]
 8009eb8:	f412 6f90 	tst.w	r2, #1152	; 0x480
 8009ebc:	d032      	beq.n	8009f24 <__ssputs_r+0x80>
 8009ebe:	6825      	ldr	r5, [r4, #0]
 8009ec0:	6909      	ldr	r1, [r1, #16]
 8009ec2:	3301      	adds	r3, #1
 8009ec4:	eba5 0901 	sub.w	r9, r5, r1
 8009ec8:	6965      	ldr	r5, [r4, #20]
 8009eca:	444b      	add	r3, r9
 8009ecc:	eb05 0545 	add.w	r5, r5, r5, lsl #1
 8009ed0:	eb05 75d5 	add.w	r5, r5, r5, lsr #31
 8009ed4:	106d      	asrs	r5, r5, #1
 8009ed6:	429d      	cmp	r5, r3
 8009ed8:	bf38      	it	cc
 8009eda:	461d      	movcc	r5, r3
 8009edc:	0553      	lsls	r3, r2, #21
 8009ede:	d531      	bpl.n	8009f44 <__ssputs_r+0xa0>
 8009ee0:	4629      	mov	r1, r5
 8009ee2:	f7ff ff85 	bl	8009df0 <_malloc_r>
 8009ee6:	4606      	mov	r6, r0
 8009ee8:	b950      	cbnz	r0, 8009f00 <__ssputs_r+0x5c>
 8009eea:	230c      	movs	r3, #12
 8009eec:	f04f 30ff 	mov.w	r0, #4294967295	; 0xffffffff
 8009ef0:	f8ca 3000 	str.w	r3, [sl]
 8009ef4:	89a3      	ldrh	r3, [r4, #12]
 8009ef6:	f043 0340 	orr.w	r3, r3, #64	; 0x40
 8009efa:	81a3      	strh	r3, [r4, #12]
 8009efc:	e8bd 87f0 	ldmia.w	sp!, {r4, r5, r6, r7, r8, r9, sl, pc}
 8009f00:	464a      	mov	r2, r9
 8009f02:	6921      	ldr	r1, [r4, #16]
 8009f04:	f7fe f864 	bl	8007fd0 <memcpy>
 8009f08:	89a3      	ldrh	r3, [r4, #12]
 8009f0a:	f423 6390 	bic.w	r3, r3, #1152	; 0x480
 8009f0e:	f043 0380 	orr.w	r3, r3, #128	; 0x80
 8009f12:	81a3      	strh	r3, [r4, #12]
 8009f14:	6126      	str	r6, [r4, #16]
 8009f16:	444e      	add	r6, r9
 8009f18:	6026      	str	r6, [r4, #0]
 8009f1a:	463e      	mov	r6, r7
 8009f1c:	6165      	str	r5, [r4, #20]
 8009f1e:	eba5 0509 	sub.w	r5, r5, r9
 8009f22:	60a5      	str	r5, [r4, #8]
 8009f24:	42be      	cmp	r6, r7
 8009f26:	d900      	bls.n	8009f2a <__ssputs_r+0x86>
 8009f28:	463e      	mov	r6, r7
 8009f2a:	4632      	mov	r2, r6
 8009f2c:	4641      	mov	r1, r8
 8009f2e:	6820      	ldr	r0, [r4, #0]
 8009f30:	f000 f966 	bl	800a200 <memmove>
 8009f34:	68a3      	ldr	r3, [r4, #8]
 8009f36:	6822      	ldr	r2, [r4, #0]
 8009f38:	1b9b      	subs	r3, r3, r6
 8009f3a:	4432      	add	r2, r6
 8009f3c:	2000      	movs	r0, #0
 8009f3e:	60a3      	str	r3, [r4, #8]
 8009f40:	6022      	str	r2, [r4, #0]
 8009f42:	e7db      	b.n	8009efc <__ssputs_r+0x58>
 8009f44:	462a      	mov	r2, r5
 8009f46:	f000 f981 	bl	800a24c <_realloc_r>
 8009f4a:	4606      	mov	r6, r0
 8009f4c:	2800      	cmp	r0, #0
 8009f4e:	d1e1      	bne.n	8009f14 <__ssputs_r+0x70>
 8009f50:	4650      	mov	r0, sl
 8009f52:	6921      	ldr	r1, [r4, #16]
 8009f54:	f7ff ff00 	bl	8009d58 <_free_r>
 8009f58:	e7c7      	b.n	8009eea <__ssputs_r+0x46>
	...

08009f5c <_svfiprintf_r>:
 8009f5c:	e92d 4ff0 	stmdb	sp!, {r4, r5, r6, r7, r8, r9, sl, fp, lr}
 8009f60:	4698      	mov	r8, r3
 8009f62:	898b      	ldrh	r3, [r1, #12]
 8009f64:	4607      	mov	r7, r0
 8009f66:	061b      	lsls	r3, r3, #24
 8009f68:	460d      	mov	r5, r1
 8009f6a:	4614      	mov	r4, r2
 8009f6c:	b09d      	sub	sp, #116	; 0x74
 8009f6e:	d50e      	bpl.n	8009f8e <_svfiprintf_r+0x32>
 8009f70:	690b      	ldr	r3, [r1, #16]
 8009f72:	b963      	cbnz	r3, 8009f8e <_svfiprintf_r+0x32>
 8009f74:	2140      	movs	r1, #64	; 0x40
 8009f76:	f7ff ff3b 	bl	8009df0 <_malloc_r>
 8009f7a:	6028      	str	r0, [r5, #0]
 8009f7c:	6128      	str	r0, [r5, #16]
 8009f7e:	b920      	cbnz	r0, 8009f8a <_svfiprintf_r+0x2e>
 8009f80:	230c      	movs	r3, #12
 8009f82:	603b      	str	r3, [r7, #0]
 8009f84:	f04f 30ff 	mov.w	r0, #4294967295	; 0xffffffff
 8009f88:	e0d1      	b.n	800a12e <_svfiprintf_r+0x1d2>
 8009f8a:	2340      	movs	r3, #64	; 0x40
 8009f8c:	616b      	str	r3, [r5, #20]
 8009f8e:	2300      	movs	r3, #0
 8009f90:	9309      	str	r3, [sp, #36]	; 0x24
 8009f92:	2320      	movs	r3, #32
 8009f94:	f88d 3029 	strb.w	r3, [sp, #41]	; 0x29
 8009f98:	2330      	movs	r3, #48	; 0x30
 8009f9a:	f04f 0901 	mov.w	r9, #1
 8009f9e:	f8cd 800c 	str.w	r8, [sp, #12]
 8009fa2:	f8df 81a4 	ldr.w	r8, [pc, #420]	; 800a148 <_svfiprintf_r+0x1ec>
 8009fa6:	f88d 302a 	strb.w	r3, [sp, #42]	; 0x2a
 8009faa:	4623      	mov	r3, r4
 8009fac:	469a      	mov	sl, r3
 8009fae:	f813 2b01 	ldrb.w	r2, [r3], #1
 8009fb2:	b10a      	cbz	r2, 8009fb8 <_svfiprintf_r+0x5c>
 8009fb4:	2a25      	cmp	r2, #37	; 0x25
 8009fb6:	d1f9      	bne.n	8009fac <_svfiprintf_r+0x50>
 8009fb8:	ebba 0b04 	subs.w	fp, sl, r4
 8009fbc:	d00b      	beq.n	8009fd6 <_svfiprintf_r+0x7a>
 8009fbe:	465b      	mov	r3, fp
 8009fc0:	4622      	mov	r2, r4
 8009fc2:	4629      	mov	r1, r5
 8009fc4:	4638      	mov	r0, r7
 8009fc6:	f7ff ff6d 	bl	8009ea4 <__ssputs_r>
 8009fca:	3001      	adds	r0, #1
 8009fcc:	f000 80aa 	beq.w	800a124 <_svfiprintf_r+0x1c8>
 8009fd0:	9a09      	ldr	r2, [sp, #36]	; 0x24
 8009fd2:	445a      	add	r2, fp
 8009fd4:	9209      	str	r2, [sp, #36]	; 0x24
 8009fd6:	f89a 3000 	ldrb.w	r3, [sl]
 8009fda:	2b00      	cmp	r3, #0
 8009fdc:	f000 80a2 	beq.w	800a124 <_svfiprintf_r+0x1c8>
 8009fe0:	2300      	movs	r3, #0
 8009fe2:	f04f 32ff 	mov.w	r2, #4294967295	; 0xffffffff
 8009fe6:	e9cd 2305 	strd	r2, r3, [sp, #20]
 8009fea:	f10a 0a01 	add.w	sl, sl, #1
 8009fee:	9304      	str	r3, [sp, #16]
 8009ff0:	9307      	str	r3, [sp, #28]
 8009ff2:	f88d 3053 	strb.w	r3, [sp, #83]	; 0x53
 8009ff6:	931a      	str	r3, [sp, #104]	; 0x68
 8009ff8:	4654      	mov	r4, sl
 8009ffa:	2205      	movs	r2, #5
 8009ffc:	f814 1b01 	ldrb.w	r1, [r4], #1
 800a000:	4851      	ldr	r0, [pc, #324]	; (800a148 <_svfiprintf_r+0x1ec>)
 800a002:	f7ff fb0b 	bl	800961c <memchr>
 800a006:	9a04      	ldr	r2, [sp, #16]
 800a008:	b9d8      	cbnz	r0, 800a042 <_svfiprintf_r+0xe6>
 800a00a:	06d0      	lsls	r0, r2, #27
 800a00c:	bf44      	itt	mi
 800a00e:	2320      	movmi	r3, #32
 800a010:	f88d 3053 	strbmi.w	r3, [sp, #83]	; 0x53
 800a014:	0711      	lsls	r1, r2, #28
 800a016:	bf44      	itt	mi
 800a018:	232b      	movmi	r3, #43	; 0x2b
 800a01a:	f88d 3053 	strbmi.w	r3, [sp, #83]	; 0x53
 800a01e:	f89a 3000 	ldrb.w	r3, [sl]
 800a022:	2b2a      	cmp	r3, #42	; 0x2a
 800a024:	d015      	beq.n	800a052 <_svfiprintf_r+0xf6>
 800a026:	4654      	mov	r4, sl
 800a028:	2000      	movs	r0, #0
 800a02a:	f04f 0c0a 	mov.w	ip, #10
 800a02e:	9a07      	ldr	r2, [sp, #28]
 800a030:	4621      	mov	r1, r4
 800a032:	f811 3b01 	ldrb.w	r3, [r1], #1
 800a036:	3b30      	subs	r3, #48	; 0x30
 800a038:	2b09      	cmp	r3, #9
 800a03a:	d94e      	bls.n	800a0da <_svfiprintf_r+0x17e>
 800a03c:	b1b0      	cbz	r0, 800a06c <_svfiprintf_r+0x110>
 800a03e:	9207      	str	r2, [sp, #28]
 800a040:	e014      	b.n	800a06c <_svfiprintf_r+0x110>
 800a042:	eba0 0308 	sub.w	r3, r0, r8
 800a046:	fa09 f303 	lsl.w	r3, r9, r3
 800a04a:	4313      	orrs	r3, r2
 800a04c:	46a2      	mov	sl, r4
 800a04e:	9304      	str	r3, [sp, #16]
 800a050:	e7d2      	b.n	8009ff8 <_svfiprintf_r+0x9c>
 800a052:	9b03      	ldr	r3, [sp, #12]
 800a054:	1d19      	adds	r1, r3, #4
 800a056:	681b      	ldr	r3, [r3, #0]
 800a058:	9103      	str	r1, [sp, #12]
 800a05a:	2b00      	cmp	r3, #0
 800a05c:	bfbb      	ittet	lt
 800a05e:	425b      	neglt	r3, r3
 800a060:	f042 0202 	orrlt.w	r2, r2, #2
 800a064:	9307      	strge	r3, [sp, #28]
 800a066:	9307      	strlt	r3, [sp, #28]
 800a068:	bfb8      	it	lt
 800a06a:	9204      	strlt	r2, [sp, #16]
 800a06c:	7823      	ldrb	r3, [r4, #0]
 800a06e:	2b2e      	cmp	r3, #46	; 0x2e
 800a070:	d10c      	bne.n	800a08c <_svfiprintf_r+0x130>
 800a072:	7863      	ldrb	r3, [r4, #1]
 800a074:	2b2a      	cmp	r3, #42	; 0x2a
 800a076:	d135      	bne.n	800a0e4 <_svfiprintf_r+0x188>
 800a078:	9b03      	ldr	r3, [sp, #12]
 800a07a:	3402      	adds	r4, #2
 800a07c:	1d1a      	adds	r2, r3, #4
 800a07e:	681b      	ldr	r3, [r3, #0]
 800a080:	9203      	str	r2, [sp, #12]
 800a082:	2b00      	cmp	r3, #0
 800a084:	bfb8      	it	lt
 800a086:	f04f 33ff 	movlt.w	r3, #4294967295	; 0xffffffff
 800a08a:	9305      	str	r3, [sp, #20]
 800a08c:	f8df a0c8 	ldr.w	sl, [pc, #200]	; 800a158 <_svfiprintf_r+0x1fc>
 800a090:	2203      	movs	r2, #3
 800a092:	4650      	mov	r0, sl
 800a094:	7821      	ldrb	r1, [r4, #0]
 800a096:	f7ff fac1 	bl	800961c <memchr>
 800a09a:	b140      	cbz	r0, 800a0ae <_svfiprintf_r+0x152>
 800a09c:	2340      	movs	r3, #64	; 0x40
 800a09e:	eba0 000a 	sub.w	r0, r0, sl
 800a0a2:	fa03 f000 	lsl.w	r0, r3, r0
 800a0a6:	9b04      	ldr	r3, [sp, #16]
 800a0a8:	3401      	adds	r4, #1
 800a0aa:	4303      	orrs	r3, r0
 800a0ac:	9304      	str	r3, [sp, #16]
 800a0ae:	f814 1b01 	ldrb.w	r1, [r4], #1
 800a0b2:	2206      	movs	r2, #6
 800a0b4:	4825      	ldr	r0, [pc, #148]	; (800a14c <_svfiprintf_r+0x1f0>)
 800a0b6:	f88d 1028 	strb.w	r1, [sp, #40]	; 0x28
 800a0ba:	f7ff faaf 	bl	800961c <memchr>
 800a0be:	2800      	cmp	r0, #0
 800a0c0:	d038      	beq.n	800a134 <_svfiprintf_r+0x1d8>
 800a0c2:	4b23      	ldr	r3, [pc, #140]	; (800a150 <_svfiprintf_r+0x1f4>)
 800a0c4:	bb1b      	cbnz	r3, 800a10e <_svfiprintf_r+0x1b2>
 800a0c6:	9b03      	ldr	r3, [sp, #12]
 800a0c8:	3307      	adds	r3, #7
 800a0ca:	f023 0307 	bic.w	r3, r3, #7
 800a0ce:	3308      	adds	r3, #8
 800a0d0:	9303      	str	r3, [sp, #12]
 800a0d2:	9b09      	ldr	r3, [sp, #36]	; 0x24
 800a0d4:	4433      	add	r3, r6
 800a0d6:	9309      	str	r3, [sp, #36]	; 0x24
 800a0d8:	e767      	b.n	8009faa <_svfiprintf_r+0x4e>
 800a0da:	460c      	mov	r4, r1
 800a0dc:	2001      	movs	r0, #1
 800a0de:	fb0c 3202 	mla	r2, ip, r2, r3
 800a0e2:	e7a5      	b.n	800a030 <_svfiprintf_r+0xd4>
 800a0e4:	2300      	movs	r3, #0
 800a0e6:	f04f 0c0a 	mov.w	ip, #10
 800a0ea:	4619      	mov	r1, r3
 800a0ec:	3401      	adds	r4, #1
 800a0ee:	9305      	str	r3, [sp, #20]
 800a0f0:	4620      	mov	r0, r4
 800a0f2:	f810 2b01 	ldrb.w	r2, [r0], #1
 800a0f6:	3a30      	subs	r2, #48	; 0x30
 800a0f8:	2a09      	cmp	r2, #9
 800a0fa:	d903      	bls.n	800a104 <_svfiprintf_r+0x1a8>
 800a0fc:	2b00      	cmp	r3, #0
 800a0fe:	d0c5      	beq.n	800a08c <_svfiprintf_r+0x130>
 800a100:	9105      	str	r1, [sp, #20]
 800a102:	e7c3      	b.n	800a08c <_svfiprintf_r+0x130>
 800a104:	4604      	mov	r4, r0
 800a106:	2301      	movs	r3, #1
 800a108:	fb0c 2101 	mla	r1, ip, r1, r2
 800a10c:	e7f0      	b.n	800a0f0 <_svfiprintf_r+0x194>
 800a10e:	ab03      	add	r3, sp, #12
 800a110:	9300      	str	r3, [sp, #0]
 800a112:	462a      	mov	r2, r5
 800a114:	4638      	mov	r0, r7
 800a116:	4b0f      	ldr	r3, [pc, #60]	; (800a154 <_svfiprintf_r+0x1f8>)
 800a118:	a904      	add	r1, sp, #16
 800a11a:	f7fe f80d 	bl	8008138 <_printf_float>
 800a11e:	1c42      	adds	r2, r0, #1
 800a120:	4606      	mov	r6, r0
 800a122:	d1d6      	bne.n	800a0d2 <_svfiprintf_r+0x176>
 800a124:	89ab      	ldrh	r3, [r5, #12]
 800a126:	065b      	lsls	r3, r3, #25
 800a128:	f53f af2c 	bmi.w	8009f84 <_svfiprintf_r+0x28>
 800a12c:	9809      	ldr	r0, [sp, #36]	; 0x24
 800a12e:	b01d      	add	sp, #116	; 0x74
 800a130:	e8bd 8ff0 	ldmia.w	sp!, {r4, r5, r6, r7, r8, r9, sl, fp, pc}
 800a134:	ab03      	add	r3, sp, #12
 800a136:	9300      	str	r3, [sp, #0]
 800a138:	462a      	mov	r2, r5
 800a13a:	4638      	mov	r0, r7
 800a13c:	4b05      	ldr	r3, [pc, #20]	; (800a154 <_svfiprintf_r+0x1f8>)
 800a13e:	a904      	add	r1, sp, #16
 800a140:	f7fe fa96 	bl	8008670 <_printf_i>
 800a144:	e7eb      	b.n	800a11e <_svfiprintf_r+0x1c2>
 800a146:	bf00      	nop
 800a148:	0800b21c 	.word	0x0800b21c
 800a14c:	0800b226 	.word	0x0800b226
 800a150:	08008139 	.word	0x08008139
 800a154:	08009ea5 	.word	0x08009ea5
 800a158:	0800b222 	.word	0x0800b222

0800a15c <_sbrk_r>:
 800a15c:	b538      	push	{r3, r4, r5, lr}
 800a15e:	2300      	movs	r3, #0
 800a160:	4d05      	ldr	r5, [pc, #20]	; (800a178 <_sbrk_r+0x1c>)
 800a162:	4604      	mov	r4, r0
 800a164:	4608      	mov	r0, r1
 800a166:	602b      	str	r3, [r5, #0]
 800a168:	f7fa fa8c 	bl	8004684 <_sbrk>
 800a16c:	1c43      	adds	r3, r0, #1
 800a16e:	d102      	bne.n	800a176 <_sbrk_r+0x1a>
 800a170:	682b      	ldr	r3, [r5, #0]
 800a172:	b103      	cbz	r3, 800a176 <_sbrk_r+0x1a>
 800a174:	6023      	str	r3, [r4, #0]
 800a176:	bd38      	pop	{r3, r4, r5, pc}
 800a178:	20000d10 	.word	0x20000d10

0800a17c <__assert_func>:
 800a17c:	b51f      	push	{r0, r1, r2, r3, r4, lr}
 800a17e:	4614      	mov	r4, r2
 800a180:	461a      	mov	r2, r3
 800a182:	4b09      	ldr	r3, [pc, #36]	; (800a1a8 <__assert_func+0x2c>)
 800a184:	4605      	mov	r5, r0
 800a186:	681b      	ldr	r3, [r3, #0]
 800a188:	68d8      	ldr	r0, [r3, #12]
 800a18a:	b14c      	cbz	r4, 800a1a0 <__assert_func+0x24>
 800a18c:	4b07      	ldr	r3, [pc, #28]	; (800a1ac <__assert_func+0x30>)
 800a18e:	e9cd 3401 	strd	r3, r4, [sp, #4]
 800a192:	9100      	str	r1, [sp, #0]
 800a194:	462b      	mov	r3, r5
 800a196:	4906      	ldr	r1, [pc, #24]	; (800a1b0 <__assert_func+0x34>)
 800a198:	f000 f80e 	bl	800a1b8 <fiprintf>
 800a19c:	f000 faa2 	bl	800a6e4 <abort>
 800a1a0:	4b04      	ldr	r3, [pc, #16]	; (800a1b4 <__assert_func+0x38>)
 800a1a2:	461c      	mov	r4, r3
 800a1a4:	e7f3      	b.n	800a18e <__assert_func+0x12>
 800a1a6:	bf00      	nop
 800a1a8:	20000174 	.word	0x20000174
 800a1ac:	0800b22d 	.word	0x0800b22d
 800a1b0:	0800b23a 	.word	0x0800b23a
 800a1b4:	0800afc8 	.word	0x0800afc8

0800a1b8 <fiprintf>:
 800a1b8:	b40e      	push	{r1, r2, r3}
 800a1ba:	b503      	push	{r0, r1, lr}
 800a1bc:	4601      	mov	r1, r0
 800a1be:	ab03      	add	r3, sp, #12
 800a1c0:	4805      	ldr	r0, [pc, #20]	; (800a1d8 <fiprintf+0x20>)
 800a1c2:	f853 2b04 	ldr.w	r2, [r3], #4
 800a1c6:	6800      	ldr	r0, [r0, #0]
 800a1c8:	9301      	str	r3, [sp, #4]
 800a1ca:	f000 f88d 	bl	800a2e8 <_vfiprintf_r>
 800a1ce:	b002      	add	sp, #8
 800a1d0:	f85d eb04 	ldr.w	lr, [sp], #4
 800a1d4:	b003      	add	sp, #12
 800a1d6:	4770      	bx	lr
 800a1d8:	20000174 	.word	0x20000174

0800a1dc <__ascii_mbtowc>:
 800a1dc:	b082      	sub	sp, #8
 800a1de:	b901      	cbnz	r1, 800a1e2 <__ascii_mbtowc+0x6>
 800a1e0:	a901      	add	r1, sp, #4
 800a1e2:	b142      	cbz	r2, 800a1f6 <__ascii_mbtowc+0x1a>
 800a1e4:	b14b      	cbz	r3, 800a1fa <__ascii_mbtowc+0x1e>
 800a1e6:	7813      	ldrb	r3, [r2, #0]
 800a1e8:	600b      	str	r3, [r1, #0]
 800a1ea:	7812      	ldrb	r2, [r2, #0]
 800a1ec:	1e10      	subs	r0, r2, #0
 800a1ee:	bf18      	it	ne
 800a1f0:	2001      	movne	r0, #1
 800a1f2:	b002      	add	sp, #8
 800a1f4:	4770      	bx	lr
 800a1f6:	4610      	mov	r0, r2
 800a1f8:	e7fb      	b.n	800a1f2 <__ascii_mbtowc+0x16>
 800a1fa:	f06f 0001 	mvn.w	r0, #1
 800a1fe:	e7f8      	b.n	800a1f2 <__ascii_mbtowc+0x16>

0800a200 <memmove>:
 800a200:	4288      	cmp	r0, r1
 800a202:	b510      	push	{r4, lr}
 800a204:	eb01 0402 	add.w	r4, r1, r2
 800a208:	d902      	bls.n	800a210 <memmove+0x10>
 800a20a:	4284      	cmp	r4, r0
 800a20c:	4623      	mov	r3, r4
 800a20e:	d807      	bhi.n	800a220 <memmove+0x20>
 800a210:	1e43      	subs	r3, r0, #1
 800a212:	42a1      	cmp	r1, r4
 800a214:	d008      	beq.n	800a228 <memmove+0x28>
 800a216:	f811 2b01 	ldrb.w	r2, [r1], #1
 800a21a:	f803 2f01 	strb.w	r2, [r3, #1]!
 800a21e:	e7f8      	b.n	800a212 <memmove+0x12>
 800a220:	4601      	mov	r1, r0
 800a222:	4402      	add	r2, r0
 800a224:	428a      	cmp	r2, r1
 800a226:	d100      	bne.n	800a22a <memmove+0x2a>
 800a228:	bd10      	pop	{r4, pc}
 800a22a:	f813 4d01 	ldrb.w	r4, [r3, #-1]!
 800a22e:	f802 4d01 	strb.w	r4, [r2, #-1]!
 800a232:	e7f7      	b.n	800a224 <memmove+0x24>

0800a234 <__malloc_lock>:
 800a234:	4801      	ldr	r0, [pc, #4]	; (800a23c <__malloc_lock+0x8>)
 800a236:	f000 bc15 	b.w	800aa64 <__retarget_lock_acquire_recursive>
 800a23a:	bf00      	nop
 800a23c:	20000d18 	.word	0x20000d18

0800a240 <__malloc_unlock>:
 800a240:	4801      	ldr	r0, [pc, #4]	; (800a248 <__malloc_unlock+0x8>)
 800a242:	f000 bc10 	b.w	800aa66 <__retarget_lock_release_recursive>
 800a246:	bf00      	nop
 800a248:	20000d18 	.word	0x20000d18

0800a24c <_realloc_r>:
 800a24c:	b5f8      	push	{r3, r4, r5, r6, r7, lr}
 800a24e:	4607      	mov	r7, r0
 800a250:	4614      	mov	r4, r2
 800a252:	460e      	mov	r6, r1
 800a254:	b921      	cbnz	r1, 800a260 <_realloc_r+0x14>
 800a256:	4611      	mov	r1, r2
 800a258:	e8bd 40f8 	ldmia.w	sp!, {r3, r4, r5, r6, r7, lr}
 800a25c:	f7ff bdc8 	b.w	8009df0 <_malloc_r>
 800a260:	b922      	cbnz	r2, 800a26c <_realloc_r+0x20>
 800a262:	f7ff fd79 	bl	8009d58 <_free_r>
 800a266:	4625      	mov	r5, r4
 800a268:	4628      	mov	r0, r5
 800a26a:	bdf8      	pop	{r3, r4, r5, r6, r7, pc}
 800a26c:	f000 fc60 	bl	800ab30 <_malloc_usable_size_r>
 800a270:	42a0      	cmp	r0, r4
 800a272:	d20f      	bcs.n	800a294 <_realloc_r+0x48>
 800a274:	4621      	mov	r1, r4
 800a276:	4638      	mov	r0, r7
 800a278:	f7ff fdba 	bl	8009df0 <_malloc_r>
 800a27c:	4605      	mov	r5, r0
 800a27e:	2800      	cmp	r0, #0
 800a280:	d0f2      	beq.n	800a268 <_realloc_r+0x1c>
 800a282:	4631      	mov	r1, r6
 800a284:	4622      	mov	r2, r4
 800a286:	f7fd fea3 	bl	8007fd0 <memcpy>
 800a28a:	4631      	mov	r1, r6
 800a28c:	4638      	mov	r0, r7
 800a28e:	f7ff fd63 	bl	8009d58 <_free_r>
 800a292:	e7e9      	b.n	800a268 <_realloc_r+0x1c>
 800a294:	4635      	mov	r5, r6
 800a296:	e7e7      	b.n	800a268 <_realloc_r+0x1c>

0800a298 <__sfputc_r>:
 800a298:	6893      	ldr	r3, [r2, #8]
 800a29a:	b410      	push	{r4}
 800a29c:	3b01      	subs	r3, #1
 800a29e:	2b00      	cmp	r3, #0
 800a2a0:	6093      	str	r3, [r2, #8]
 800a2a2:	da07      	bge.n	800a2b4 <__sfputc_r+0x1c>
 800a2a4:	6994      	ldr	r4, [r2, #24]
 800a2a6:	42a3      	cmp	r3, r4
 800a2a8:	db01      	blt.n	800a2ae <__sfputc_r+0x16>
 800a2aa:	290a      	cmp	r1, #10
 800a2ac:	d102      	bne.n	800a2b4 <__sfputc_r+0x1c>
 800a2ae:	bc10      	pop	{r4}
 800a2b0:	f000 b94a 	b.w	800a548 <__swbuf_r>
 800a2b4:	6813      	ldr	r3, [r2, #0]
 800a2b6:	1c58      	adds	r0, r3, #1
 800a2b8:	6010      	str	r0, [r2, #0]
 800a2ba:	7019      	strb	r1, [r3, #0]
 800a2bc:	4608      	mov	r0, r1
 800a2be:	bc10      	pop	{r4}
 800a2c0:	4770      	bx	lr

0800a2c2 <__sfputs_r>:
 800a2c2:	b5f8      	push	{r3, r4, r5, r6, r7, lr}
 800a2c4:	4606      	mov	r6, r0
 800a2c6:	460f      	mov	r7, r1
 800a2c8:	4614      	mov	r4, r2
 800a2ca:	18d5      	adds	r5, r2, r3
 800a2cc:	42ac      	cmp	r4, r5
 800a2ce:	d101      	bne.n	800a2d4 <__sfputs_r+0x12>
 800a2d0:	2000      	movs	r0, #0
 800a2d2:	e007      	b.n	800a2e4 <__sfputs_r+0x22>
 800a2d4:	463a      	mov	r2, r7
 800a2d6:	4630      	mov	r0, r6
 800a2d8:	f814 1b01 	ldrb.w	r1, [r4], #1
 800a2dc:	f7ff ffdc 	bl	800a298 <__sfputc_r>
 800a2e0:	1c43      	adds	r3, r0, #1
 800a2e2:	d1f3      	bne.n	800a2cc <__sfputs_r+0xa>
 800a2e4:	bdf8      	pop	{r3, r4, r5, r6, r7, pc}
	...

0800a2e8 <_vfiprintf_r>:
 800a2e8:	e92d 4ff0 	stmdb	sp!, {r4, r5, r6, r7, r8, r9, sl, fp, lr}
 800a2ec:	460d      	mov	r5, r1
 800a2ee:	4614      	mov	r4, r2
 800a2f0:	4698      	mov	r8, r3
 800a2f2:	4606      	mov	r6, r0
 800a2f4:	b09d      	sub	sp, #116	; 0x74
 800a2f6:	b118      	cbz	r0, 800a300 <_vfiprintf_r+0x18>
 800a2f8:	6983      	ldr	r3, [r0, #24]
 800a2fa:	b90b      	cbnz	r3, 800a300 <_vfiprintf_r+0x18>
 800a2fc:	f000 fb14 	bl	800a928 <__sinit>
 800a300:	4b89      	ldr	r3, [pc, #548]	; (800a528 <_vfiprintf_r+0x240>)
 800a302:	429d      	cmp	r5, r3
 800a304:	d11b      	bne.n	800a33e <_vfiprintf_r+0x56>
 800a306:	6875      	ldr	r5, [r6, #4]
 800a308:	6e6b      	ldr	r3, [r5, #100]	; 0x64
 800a30a:	07d9      	lsls	r1, r3, #31
 800a30c:	d405      	bmi.n	800a31a <_vfiprintf_r+0x32>
 800a30e:	89ab      	ldrh	r3, [r5, #12]
 800a310:	059a      	lsls	r2, r3, #22
 800a312:	d402      	bmi.n	800a31a <_vfiprintf_r+0x32>
 800a314:	6da8      	ldr	r0, [r5, #88]	; 0x58
 800a316:	f000 fba5 	bl	800aa64 <__retarget_lock_acquire_recursive>
 800a31a:	89ab      	ldrh	r3, [r5, #12]
 800a31c:	071b      	lsls	r3, r3, #28
 800a31e:	d501      	bpl.n	800a324 <_vfiprintf_r+0x3c>
 800a320:	692b      	ldr	r3, [r5, #16]
 800a322:	b9eb      	cbnz	r3, 800a360 <_vfiprintf_r+0x78>
 800a324:	4629      	mov	r1, r5
 800a326:	4630      	mov	r0, r6
 800a328:	f000 f96e 	bl	800a608 <__swsetup_r>
 800a32c:	b1c0      	cbz	r0, 800a360 <_vfiprintf_r+0x78>
 800a32e:	6e6b      	ldr	r3, [r5, #100]	; 0x64
 800a330:	07dc      	lsls	r4, r3, #31
 800a332:	d50e      	bpl.n	800a352 <_vfiprintf_r+0x6a>
 800a334:	f04f 30ff 	mov.w	r0, #4294967295	; 0xffffffff
 800a338:	b01d      	add	sp, #116	; 0x74
 800a33a:	e8bd 8ff0 	ldmia.w	sp!, {r4, r5, r6, r7, r8, r9, sl, fp, pc}
 800a33e:	4b7b      	ldr	r3, [pc, #492]	; (800a52c <_vfiprintf_r+0x244>)
 800a340:	429d      	cmp	r5, r3
 800a342:	d101      	bne.n	800a348 <_vfiprintf_r+0x60>
 800a344:	68b5      	ldr	r5, [r6, #8]
 800a346:	e7df      	b.n	800a308 <_vfiprintf_r+0x20>
 800a348:	4b79      	ldr	r3, [pc, #484]	; (800a530 <_vfiprintf_r+0x248>)
 800a34a:	429d      	cmp	r5, r3
 800a34c:	bf08      	it	eq
 800a34e:	68f5      	ldreq	r5, [r6, #12]
 800a350:	e7da      	b.n	800a308 <_vfiprintf_r+0x20>
 800a352:	89ab      	ldrh	r3, [r5, #12]
 800a354:	0598      	lsls	r0, r3, #22
 800a356:	d4ed      	bmi.n	800a334 <_vfiprintf_r+0x4c>
 800a358:	6da8      	ldr	r0, [r5, #88]	; 0x58
 800a35a:	f000 fb84 	bl	800aa66 <__retarget_lock_release_recursive>
 800a35e:	e7e9      	b.n	800a334 <_vfiprintf_r+0x4c>
 800a360:	2300      	movs	r3, #0
 800a362:	9309      	str	r3, [sp, #36]	; 0x24
 800a364:	2320      	movs	r3, #32
 800a366:	f88d 3029 	strb.w	r3, [sp, #41]	; 0x29
 800a36a:	2330      	movs	r3, #48	; 0x30
 800a36c:	f04f 0901 	mov.w	r9, #1
 800a370:	f8cd 800c 	str.w	r8, [sp, #12]
 800a374:	f8df 81bc 	ldr.w	r8, [pc, #444]	; 800a534 <_vfiprintf_r+0x24c>
 800a378:	f88d 302a 	strb.w	r3, [sp, #42]	; 0x2a
 800a37c:	4623      	mov	r3, r4
 800a37e:	469a      	mov	sl, r3
 800a380:	f813 2b01 	ldrb.w	r2, [r3], #1
 800a384:	b10a      	cbz	r2, 800a38a <_vfiprintf_r+0xa2>
 800a386:	2a25      	cmp	r2, #37	; 0x25
 800a388:	d1f9      	bne.n	800a37e <_vfiprintf_r+0x96>
 800a38a:	ebba 0b04 	subs.w	fp, sl, r4
 800a38e:	d00b      	beq.n	800a3a8 <_vfiprintf_r+0xc0>
 800a390:	465b      	mov	r3, fp
 800a392:	4622      	mov	r2, r4
 800a394:	4629      	mov	r1, r5
 800a396:	4630      	mov	r0, r6
 800a398:	f7ff ff93 	bl	800a2c2 <__sfputs_r>
 800a39c:	3001      	adds	r0, #1
 800a39e:	f000 80aa 	beq.w	800a4f6 <_vfiprintf_r+0x20e>
 800a3a2:	9a09      	ldr	r2, [sp, #36]	; 0x24
 800a3a4:	445a      	add	r2, fp
 800a3a6:	9209      	str	r2, [sp, #36]	; 0x24
 800a3a8:	f89a 3000 	ldrb.w	r3, [sl]
 800a3ac:	2b00      	cmp	r3, #0
 800a3ae:	f000 80a2 	beq.w	800a4f6 <_vfiprintf_r+0x20e>
 800a3b2:	2300      	movs	r3, #0
 800a3b4:	f04f 32ff 	mov.w	r2, #4294967295	; 0xffffffff
 800a3b8:	e9cd 2305 	strd	r2, r3, [sp, #20]
 800a3bc:	f10a 0a01 	add.w	sl, sl, #1
 800a3c0:	9304      	str	r3, [sp, #16]
 800a3c2:	9307      	str	r3, [sp, #28]
 800a3c4:	f88d 3053 	strb.w	r3, [sp, #83]	; 0x53
 800a3c8:	931a      	str	r3, [sp, #104]	; 0x68
 800a3ca:	4654      	mov	r4, sl
 800a3cc:	2205      	movs	r2, #5
 800a3ce:	f814 1b01 	ldrb.w	r1, [r4], #1
 800a3d2:	4858      	ldr	r0, [pc, #352]	; (800a534 <_vfiprintf_r+0x24c>)
 800a3d4:	f7ff f922 	bl	800961c <memchr>
 800a3d8:	9a04      	ldr	r2, [sp, #16]
 800a3da:	b9d8      	cbnz	r0, 800a414 <_vfiprintf_r+0x12c>
 800a3dc:	06d1      	lsls	r1, r2, #27
 800a3de:	bf44      	itt	mi
 800a3e0:	2320      	movmi	r3, #32
 800a3e2:	f88d 3053 	strbmi.w	r3, [sp, #83]	; 0x53
 800a3e6:	0713      	lsls	r3, r2, #28
 800a3e8:	bf44      	itt	mi
 800a3ea:	232b      	movmi	r3, #43	; 0x2b
 800a3ec:	f88d 3053 	strbmi.w	r3, [sp, #83]	; 0x53
 800a3f0:	f89a 3000 	ldrb.w	r3, [sl]
 800a3f4:	2b2a      	cmp	r3, #42	; 0x2a
 800a3f6:	d015      	beq.n	800a424 <_vfiprintf_r+0x13c>
 800a3f8:	4654      	mov	r4, sl
 800a3fa:	2000      	movs	r0, #0
 800a3fc:	f04f 0c0a 	mov.w	ip, #10
 800a400:	9a07      	ldr	r2, [sp, #28]
 800a402:	4621      	mov	r1, r4
 800a404:	f811 3b01 	ldrb.w	r3, [r1], #1
 800a408:	3b30      	subs	r3, #48	; 0x30
 800a40a:	2b09      	cmp	r3, #9
 800a40c:	d94e      	bls.n	800a4ac <_vfiprintf_r+0x1c4>
 800a40e:	b1b0      	cbz	r0, 800a43e <_vfiprintf_r+0x156>
 800a410:	9207      	str	r2, [sp, #28]
 800a412:	e014      	b.n	800a43e <_vfiprintf_r+0x156>
 800a414:	eba0 0308 	sub.w	r3, r0, r8
 800a418:	fa09 f303 	lsl.w	r3, r9, r3
 800a41c:	4313      	orrs	r3, r2
 800a41e:	46a2      	mov	sl, r4
 800a420:	9304      	str	r3, [sp, #16]
 800a422:	e7d2      	b.n	800a3ca <_vfiprintf_r+0xe2>
 800a424:	9b03      	ldr	r3, [sp, #12]
 800a426:	1d19      	adds	r1, r3, #4
 800a428:	681b      	ldr	r3, [r3, #0]
 800a42a:	9103      	str	r1, [sp, #12]
 800a42c:	2b00      	cmp	r3, #0
 800a42e:	bfbb      	ittet	lt
 800a430:	425b      	neglt	r3, r3
 800a432:	f042 0202 	orrlt.w	r2, r2, #2
 800a436:	9307      	strge	r3, [sp, #28]
 800a438:	9307      	strlt	r3, [sp, #28]
 800a43a:	bfb8      	it	lt
 800a43c:	9204      	strlt	r2, [sp, #16]
 800a43e:	7823      	ldrb	r3, [r4, #0]
 800a440:	2b2e      	cmp	r3, #46	; 0x2e
 800a442:	d10c      	bne.n	800a45e <_vfiprintf_r+0x176>
 800a444:	7863      	ldrb	r3, [r4, #1]
 800a446:	2b2a      	cmp	r3, #42	; 0x2a
 800a448:	d135      	bne.n	800a4b6 <_vfiprintf_r+0x1ce>
 800a44a:	9b03      	ldr	r3, [sp, #12]
 800a44c:	3402      	adds	r4, #2
 800a44e:	1d1a      	adds	r2, r3, #4
 800a450:	681b      	ldr	r3, [r3, #0]
 800a452:	9203      	str	r2, [sp, #12]
 800a454:	2b00      	cmp	r3, #0
 800a456:	bfb8      	it	lt
 800a458:	f04f 33ff 	movlt.w	r3, #4294967295	; 0xffffffff
 800a45c:	9305      	str	r3, [sp, #20]
 800a45e:	f8df a0e4 	ldr.w	sl, [pc, #228]	; 800a544 <_vfiprintf_r+0x25c>
 800a462:	2203      	movs	r2, #3
 800a464:	4650      	mov	r0, sl
 800a466:	7821      	ldrb	r1, [r4, #0]
 800a468:	f7ff f8d8 	bl	800961c <memchr>
 800a46c:	b140      	cbz	r0, 800a480 <_vfiprintf_r+0x198>
 800a46e:	2340      	movs	r3, #64	; 0x40
 800a470:	eba0 000a 	sub.w	r0, r0, sl
 800a474:	fa03 f000 	lsl.w	r0, r3, r0
 800a478:	9b04      	ldr	r3, [sp, #16]
 800a47a:	3401      	adds	r4, #1
 800a47c:	4303      	orrs	r3, r0
 800a47e:	9304      	str	r3, [sp, #16]
 800a480:	f814 1b01 	ldrb.w	r1, [r4], #1
 800a484:	2206      	movs	r2, #6
 800a486:	482c      	ldr	r0, [pc, #176]	; (800a538 <_vfiprintf_r+0x250>)
 800a488:	f88d 1028 	strb.w	r1, [sp, #40]	; 0x28
 800a48c:	f7ff f8c6 	bl	800961c <memchr>
 800a490:	2800      	cmp	r0, #0
 800a492:	d03f      	beq.n	800a514 <_vfiprintf_r+0x22c>
 800a494:	4b29      	ldr	r3, [pc, #164]	; (800a53c <_vfiprintf_r+0x254>)
 800a496:	bb1b      	cbnz	r3, 800a4e0 <_vfiprintf_r+0x1f8>
 800a498:	9b03      	ldr	r3, [sp, #12]
 800a49a:	3307      	adds	r3, #7
 800a49c:	f023 0307 	bic.w	r3, r3, #7
 800a4a0:	3308      	adds	r3, #8
 800a4a2:	9303      	str	r3, [sp, #12]
 800a4a4:	9b09      	ldr	r3, [sp, #36]	; 0x24
 800a4a6:	443b      	add	r3, r7
 800a4a8:	9309      	str	r3, [sp, #36]	; 0x24
 800a4aa:	e767      	b.n	800a37c <_vfiprintf_r+0x94>
 800a4ac:	460c      	mov	r4, r1
 800a4ae:	2001      	movs	r0, #1
 800a4b0:	fb0c 3202 	mla	r2, ip, r2, r3
 800a4b4:	e7a5      	b.n	800a402 <_vfiprintf_r+0x11a>
 800a4b6:	2300      	movs	r3, #0
 800a4b8:	f04f 0c0a 	mov.w	ip, #10
 800a4bc:	4619      	mov	r1, r3
 800a4be:	3401      	adds	r4, #1
 800a4c0:	9305      	str	r3, [sp, #20]
 800a4c2:	4620      	mov	r0, r4
 800a4c4:	f810 2b01 	ldrb.w	r2, [r0], #1
 800a4c8:	3a30      	subs	r2, #48	; 0x30
 800a4ca:	2a09      	cmp	r2, #9
 800a4cc:	d903      	bls.n	800a4d6 <_vfiprintf_r+0x1ee>
 800a4ce:	2b00      	cmp	r3, #0
 800a4d0:	d0c5      	beq.n	800a45e <_vfiprintf_r+0x176>
 800a4d2:	9105      	str	r1, [sp, #20]
 800a4d4:	e7c3      	b.n	800a45e <_vfiprintf_r+0x176>
 800a4d6:	4604      	mov	r4, r0
 800a4d8:	2301      	movs	r3, #1
 800a4da:	fb0c 2101 	mla	r1, ip, r1, r2
 800a4de:	e7f0      	b.n	800a4c2 <_vfiprintf_r+0x1da>
 800a4e0:	ab03      	add	r3, sp, #12
 800a4e2:	9300      	str	r3, [sp, #0]
 800a4e4:	462a      	mov	r2, r5
 800a4e6:	4630      	mov	r0, r6
 800a4e8:	4b15      	ldr	r3, [pc, #84]	; (800a540 <_vfiprintf_r+0x258>)
 800a4ea:	a904      	add	r1, sp, #16
 800a4ec:	f7fd fe24 	bl	8008138 <_printf_float>
 800a4f0:	4607      	mov	r7, r0
 800a4f2:	1c78      	adds	r0, r7, #1
 800a4f4:	d1d6      	bne.n	800a4a4 <_vfiprintf_r+0x1bc>
 800a4f6:	6e6b      	ldr	r3, [r5, #100]	; 0x64
 800a4f8:	07d9      	lsls	r1, r3, #31
 800a4fa:	d405      	bmi.n	800a508 <_vfiprintf_r+0x220>
 800a4fc:	89ab      	ldrh	r3, [r5, #12]
 800a4fe:	059a      	lsls	r2, r3, #22
 800a500:	d402      	bmi.n	800a508 <_vfiprintf_r+0x220>
 800a502:	6da8      	ldr	r0, [r5, #88]	; 0x58
 800a504:	f000 faaf 	bl	800aa66 <__retarget_lock_release_recursive>
 800a508:	89ab      	ldrh	r3, [r5, #12]
 800a50a:	065b      	lsls	r3, r3, #25
 800a50c:	f53f af12 	bmi.w	800a334 <_vfiprintf_r+0x4c>
 800a510:	9809      	ldr	r0, [sp, #36]	; 0x24
 800a512:	e711      	b.n	800a338 <_vfiprintf_r+0x50>
 800a514:	ab03      	add	r3, sp, #12
 800a516:	9300      	str	r3, [sp, #0]
 800a518:	462a      	mov	r2, r5
 800a51a:	4630      	mov	r0, r6
 800a51c:	4b08      	ldr	r3, [pc, #32]	; (800a540 <_vfiprintf_r+0x258>)
 800a51e:	a904      	add	r1, sp, #16
 800a520:	f7fe f8a6 	bl	8008670 <_printf_i>
 800a524:	e7e4      	b.n	800a4f0 <_vfiprintf_r+0x208>
 800a526:	bf00      	nop
 800a528:	0800b394 	.word	0x0800b394
 800a52c:	0800b3b4 	.word	0x0800b3b4
 800a530:	0800b374 	.word	0x0800b374
 800a534:	0800b21c 	.word	0x0800b21c
 800a538:	0800b226 	.word	0x0800b226
 800a53c:	08008139 	.word	0x08008139
 800a540:	0800a2c3 	.word	0x0800a2c3
 800a544:	0800b222 	.word	0x0800b222

0800a548 <__swbuf_r>:
 800a548:	b5f8      	push	{r3, r4, r5, r6, r7, lr}
 800a54a:	460e      	mov	r6, r1
 800a54c:	4614      	mov	r4, r2
 800a54e:	4605      	mov	r5, r0
 800a550:	b118      	cbz	r0, 800a55a <__swbuf_r+0x12>
 800a552:	6983      	ldr	r3, [r0, #24]
 800a554:	b90b      	cbnz	r3, 800a55a <__swbuf_r+0x12>
 800a556:	f000 f9e7 	bl	800a928 <__sinit>
 800a55a:	4b21      	ldr	r3, [pc, #132]	; (800a5e0 <__swbuf_r+0x98>)
 800a55c:	429c      	cmp	r4, r3
 800a55e:	d12b      	bne.n	800a5b8 <__swbuf_r+0x70>
 800a560:	686c      	ldr	r4, [r5, #4]
 800a562:	69a3      	ldr	r3, [r4, #24]
 800a564:	60a3      	str	r3, [r4, #8]
 800a566:	89a3      	ldrh	r3, [r4, #12]
 800a568:	071a      	lsls	r2, r3, #28
 800a56a:	d52f      	bpl.n	800a5cc <__swbuf_r+0x84>
 800a56c:	6923      	ldr	r3, [r4, #16]
 800a56e:	b36b      	cbz	r3, 800a5cc <__swbuf_r+0x84>
 800a570:	6923      	ldr	r3, [r4, #16]
 800a572:	6820      	ldr	r0, [r4, #0]
 800a574:	b2f6      	uxtb	r6, r6
 800a576:	1ac0      	subs	r0, r0, r3
 800a578:	6963      	ldr	r3, [r4, #20]
 800a57a:	4637      	mov	r7, r6
 800a57c:	4283      	cmp	r3, r0
 800a57e:	dc04      	bgt.n	800a58a <__swbuf_r+0x42>
 800a580:	4621      	mov	r1, r4
 800a582:	4628      	mov	r0, r5
 800a584:	f000 f93c 	bl	800a800 <_fflush_r>
 800a588:	bb30      	cbnz	r0, 800a5d8 <__swbuf_r+0x90>
 800a58a:	68a3      	ldr	r3, [r4, #8]
 800a58c:	3001      	adds	r0, #1
 800a58e:	3b01      	subs	r3, #1
 800a590:	60a3      	str	r3, [r4, #8]
 800a592:	6823      	ldr	r3, [r4, #0]
 800a594:	1c5a      	adds	r2, r3, #1
 800a596:	6022      	str	r2, [r4, #0]
 800a598:	701e      	strb	r6, [r3, #0]
 800a59a:	6963      	ldr	r3, [r4, #20]
 800a59c:	4283      	cmp	r3, r0
 800a59e:	d004      	beq.n	800a5aa <__swbuf_r+0x62>
 800a5a0:	89a3      	ldrh	r3, [r4, #12]
 800a5a2:	07db      	lsls	r3, r3, #31
 800a5a4:	d506      	bpl.n	800a5b4 <__swbuf_r+0x6c>
 800a5a6:	2e0a      	cmp	r6, #10
 800a5a8:	d104      	bne.n	800a5b4 <__swbuf_r+0x6c>
 800a5aa:	4621      	mov	r1, r4
 800a5ac:	4628      	mov	r0, r5
 800a5ae:	f000 f927 	bl	800a800 <_fflush_r>
 800a5b2:	b988      	cbnz	r0, 800a5d8 <__swbuf_r+0x90>
 800a5b4:	4638      	mov	r0, r7
 800a5b6:	bdf8      	pop	{r3, r4, r5, r6, r7, pc}
 800a5b8:	4b0a      	ldr	r3, [pc, #40]	; (800a5e4 <__swbuf_r+0x9c>)
 800a5ba:	429c      	cmp	r4, r3
 800a5bc:	d101      	bne.n	800a5c2 <__swbuf_r+0x7a>
 800a5be:	68ac      	ldr	r4, [r5, #8]
 800a5c0:	e7cf      	b.n	800a562 <__swbuf_r+0x1a>
 800a5c2:	4b09      	ldr	r3, [pc, #36]	; (800a5e8 <__swbuf_r+0xa0>)
 800a5c4:	429c      	cmp	r4, r3
 800a5c6:	bf08      	it	eq
 800a5c8:	68ec      	ldreq	r4, [r5, #12]
 800a5ca:	e7ca      	b.n	800a562 <__swbuf_r+0x1a>
 800a5cc:	4621      	mov	r1, r4
 800a5ce:	4628      	mov	r0, r5
 800a5d0:	f000 f81a 	bl	800a608 <__swsetup_r>
 800a5d4:	2800      	cmp	r0, #0
 800a5d6:	d0cb      	beq.n	800a570 <__swbuf_r+0x28>
 800a5d8:	f04f 37ff 	mov.w	r7, #4294967295	; 0xffffffff
 800a5dc:	e7ea      	b.n	800a5b4 <__swbuf_r+0x6c>
 800a5de:	bf00      	nop
 800a5e0:	0800b394 	.word	0x0800b394
 800a5e4:	0800b3b4 	.word	0x0800b3b4
 800a5e8:	0800b374 	.word	0x0800b374

0800a5ec <__ascii_wctomb>:
 800a5ec:	4603      	mov	r3, r0
 800a5ee:	4608      	mov	r0, r1
 800a5f0:	b141      	cbz	r1, 800a604 <__ascii_wctomb+0x18>
 800a5f2:	2aff      	cmp	r2, #255	; 0xff
 800a5f4:	d904      	bls.n	800a600 <__ascii_wctomb+0x14>
 800a5f6:	228a      	movs	r2, #138	; 0x8a
 800a5f8:	f04f 30ff 	mov.w	r0, #4294967295	; 0xffffffff
 800a5fc:	601a      	str	r2, [r3, #0]
 800a5fe:	4770      	bx	lr
 800a600:	2001      	movs	r0, #1
 800a602:	700a      	strb	r2, [r1, #0]
 800a604:	4770      	bx	lr
	...

0800a608 <__swsetup_r>:
 800a608:	4b32      	ldr	r3, [pc, #200]	; (800a6d4 <__swsetup_r+0xcc>)
 800a60a:	b570      	push	{r4, r5, r6, lr}
 800a60c:	681d      	ldr	r5, [r3, #0]
 800a60e:	4606      	mov	r6, r0
 800a610:	460c      	mov	r4, r1
 800a612:	b125      	cbz	r5, 800a61e <__swsetup_r+0x16>
 800a614:	69ab      	ldr	r3, [r5, #24]
 800a616:	b913      	cbnz	r3, 800a61e <__swsetup_r+0x16>
 800a618:	4628      	mov	r0, r5
 800a61a:	f000 f985 	bl	800a928 <__sinit>
 800a61e:	4b2e      	ldr	r3, [pc, #184]	; (800a6d8 <__swsetup_r+0xd0>)
 800a620:	429c      	cmp	r4, r3
 800a622:	d10f      	bne.n	800a644 <__swsetup_r+0x3c>
 800a624:	686c      	ldr	r4, [r5, #4]
 800a626:	89a3      	ldrh	r3, [r4, #12]
 800a628:	f9b4 200c 	ldrsh.w	r2, [r4, #12]
 800a62c:	0719      	lsls	r1, r3, #28
 800a62e:	d42c      	bmi.n	800a68a <__swsetup_r+0x82>
 800a630:	06dd      	lsls	r5, r3, #27
 800a632:	d411      	bmi.n	800a658 <__swsetup_r+0x50>
 800a634:	2309      	movs	r3, #9
 800a636:	6033      	str	r3, [r6, #0]
 800a638:	f042 0340 	orr.w	r3, r2, #64	; 0x40
 800a63c:	f04f 30ff 	mov.w	r0, #4294967295	; 0xffffffff
 800a640:	81a3      	strh	r3, [r4, #12]
 800a642:	e03e      	b.n	800a6c2 <__swsetup_r+0xba>
 800a644:	4b25      	ldr	r3, [pc, #148]	; (800a6dc <__swsetup_r+0xd4>)
 800a646:	429c      	cmp	r4, r3
 800a648:	d101      	bne.n	800a64e <__swsetup_r+0x46>
 800a64a:	68ac      	ldr	r4, [r5, #8]
 800a64c:	e7eb      	b.n	800a626 <__swsetup_r+0x1e>
 800a64e:	4b24      	ldr	r3, [pc, #144]	; (800a6e0 <__swsetup_r+0xd8>)
 800a650:	429c      	cmp	r4, r3
 800a652:	bf08      	it	eq
 800a654:	68ec      	ldreq	r4, [r5, #12]
 800a656:	e7e6      	b.n	800a626 <__swsetup_r+0x1e>
 800a658:	0758      	lsls	r0, r3, #29
 800a65a:	d512      	bpl.n	800a682 <__swsetup_r+0x7a>
 800a65c:	6b61      	ldr	r1, [r4, #52]	; 0x34
 800a65e:	b141      	cbz	r1, 800a672 <__swsetup_r+0x6a>
 800a660:	f104 0344 	add.w	r3, r4, #68	; 0x44
 800a664:	4299      	cmp	r1, r3
 800a666:	d002      	beq.n	800a66e <__swsetup_r+0x66>
 800a668:	4630      	mov	r0, r6
 800a66a:	f7ff fb75 	bl	8009d58 <_free_r>
 800a66e:	2300      	movs	r3, #0
 800a670:	6363      	str	r3, [r4, #52]	; 0x34
 800a672:	89a3      	ldrh	r3, [r4, #12]
 800a674:	f023 0324 	bic.w	r3, r3, #36	; 0x24
 800a678:	81a3      	strh	r3, [r4, #12]
 800a67a:	2300      	movs	r3, #0
 800a67c:	6063      	str	r3, [r4, #4]
 800a67e:	6923      	ldr	r3, [r4, #16]
 800a680:	6023      	str	r3, [r4, #0]
 800a682:	89a3      	ldrh	r3, [r4, #12]
 800a684:	f043 0308 	orr.w	r3, r3, #8
 800a688:	81a3      	strh	r3, [r4, #12]
 800a68a:	6923      	ldr	r3, [r4, #16]
 800a68c:	b94b      	cbnz	r3, 800a6a2 <__swsetup_r+0x9a>
 800a68e:	89a3      	ldrh	r3, [r4, #12]
 800a690:	f403 7320 	and.w	r3, r3, #640	; 0x280
 800a694:	f5b3 7f00 	cmp.w	r3, #512	; 0x200
 800a698:	d003      	beq.n	800a6a2 <__swsetup_r+0x9a>
 800a69a:	4621      	mov	r1, r4
 800a69c:	4630      	mov	r0, r6
 800a69e:	f000 fa07 	bl	800aab0 <__smakebuf_r>
 800a6a2:	89a0      	ldrh	r0, [r4, #12]
 800a6a4:	f9b4 200c 	ldrsh.w	r2, [r4, #12]
 800a6a8:	f010 0301 	ands.w	r3, r0, #1
 800a6ac:	d00a      	beq.n	800a6c4 <__swsetup_r+0xbc>
 800a6ae:	2300      	movs	r3, #0
 800a6b0:	60a3      	str	r3, [r4, #8]
 800a6b2:	6963      	ldr	r3, [r4, #20]
 800a6b4:	425b      	negs	r3, r3
 800a6b6:	61a3      	str	r3, [r4, #24]
 800a6b8:	6923      	ldr	r3, [r4, #16]
 800a6ba:	b943      	cbnz	r3, 800a6ce <__swsetup_r+0xc6>
 800a6bc:	f010 0080 	ands.w	r0, r0, #128	; 0x80
 800a6c0:	d1ba      	bne.n	800a638 <__swsetup_r+0x30>
 800a6c2:	bd70      	pop	{r4, r5, r6, pc}
 800a6c4:	0781      	lsls	r1, r0, #30
 800a6c6:	bf58      	it	pl
 800a6c8:	6963      	ldrpl	r3, [r4, #20]
 800a6ca:	60a3      	str	r3, [r4, #8]
 800a6cc:	e7f4      	b.n	800a6b8 <__swsetup_r+0xb0>
 800a6ce:	2000      	movs	r0, #0
 800a6d0:	e7f7      	b.n	800a6c2 <__swsetup_r+0xba>
 800a6d2:	bf00      	nop
 800a6d4:	20000174 	.word	0x20000174
 800a6d8:	0800b394 	.word	0x0800b394
 800a6dc:	0800b3b4 	.word	0x0800b3b4
 800a6e0:	0800b374 	.word	0x0800b374

0800a6e4 <abort>:
 800a6e4:	2006      	movs	r0, #6
 800a6e6:	b508      	push	{r3, lr}
 800a6e8:	f000 fa52 	bl	800ab90 <raise>
 800a6ec:	2001      	movs	r0, #1
 800a6ee:	f7f9 ff9d 	bl	800462c <_exit>
	...

0800a6f4 <__sflush_r>:
 800a6f4:	898a      	ldrh	r2, [r1, #12]
 800a6f6:	e92d 41f0 	stmdb	sp!, {r4, r5, r6, r7, r8, lr}
 800a6fa:	4605      	mov	r5, r0
 800a6fc:	0710      	lsls	r0, r2, #28
 800a6fe:	460c      	mov	r4, r1
 800a700:	d458      	bmi.n	800a7b4 <__sflush_r+0xc0>
 800a702:	684b      	ldr	r3, [r1, #4]
 800a704:	2b00      	cmp	r3, #0
 800a706:	dc05      	bgt.n	800a714 <__sflush_r+0x20>
 800a708:	6c0b      	ldr	r3, [r1, #64]	; 0x40
 800a70a:	2b00      	cmp	r3, #0
 800a70c:	dc02      	bgt.n	800a714 <__sflush_r+0x20>
 800a70e:	2000      	movs	r0, #0
 800a710:	e8bd 81f0 	ldmia.w	sp!, {r4, r5, r6, r7, r8, pc}
 800a714:	6ae6      	ldr	r6, [r4, #44]	; 0x2c
 800a716:	2e00      	cmp	r6, #0
 800a718:	d0f9      	beq.n	800a70e <__sflush_r+0x1a>
 800a71a:	2300      	movs	r3, #0
 800a71c:	f412 5280 	ands.w	r2, r2, #4096	; 0x1000
 800a720:	682f      	ldr	r7, [r5, #0]
 800a722:	602b      	str	r3, [r5, #0]
 800a724:	d032      	beq.n	800a78c <__sflush_r+0x98>
 800a726:	6d60      	ldr	r0, [r4, #84]	; 0x54
 800a728:	89a3      	ldrh	r3, [r4, #12]
 800a72a:	075a      	lsls	r2, r3, #29
 800a72c:	d505      	bpl.n	800a73a <__sflush_r+0x46>
 800a72e:	6863      	ldr	r3, [r4, #4]
 800a730:	1ac0      	subs	r0, r0, r3
 800a732:	6b63      	ldr	r3, [r4, #52]	; 0x34
 800a734:	b10b      	cbz	r3, 800a73a <__sflush_r+0x46>
 800a736:	6c23      	ldr	r3, [r4, #64]	; 0x40
 800a738:	1ac0      	subs	r0, r0, r3
 800a73a:	2300      	movs	r3, #0
 800a73c:	4602      	mov	r2, r0
 800a73e:	6ae6      	ldr	r6, [r4, #44]	; 0x2c
 800a740:	4628      	mov	r0, r5
 800a742:	6a21      	ldr	r1, [r4, #32]
 800a744:	47b0      	blx	r6
 800a746:	1c43      	adds	r3, r0, #1
 800a748:	89a3      	ldrh	r3, [r4, #12]
 800a74a:	d106      	bne.n	800a75a <__sflush_r+0x66>
 800a74c:	6829      	ldr	r1, [r5, #0]
 800a74e:	291d      	cmp	r1, #29
 800a750:	d82c      	bhi.n	800a7ac <__sflush_r+0xb8>
 800a752:	4a2a      	ldr	r2, [pc, #168]	; (800a7fc <__sflush_r+0x108>)
 800a754:	40ca      	lsrs	r2, r1
 800a756:	07d6      	lsls	r6, r2, #31
 800a758:	d528      	bpl.n	800a7ac <__sflush_r+0xb8>
 800a75a:	2200      	movs	r2, #0
 800a75c:	6062      	str	r2, [r4, #4]
 800a75e:	6922      	ldr	r2, [r4, #16]
 800a760:	04d9      	lsls	r1, r3, #19
 800a762:	6022      	str	r2, [r4, #0]
 800a764:	d504      	bpl.n	800a770 <__sflush_r+0x7c>
 800a766:	1c42      	adds	r2, r0, #1
 800a768:	d101      	bne.n	800a76e <__sflush_r+0x7a>
 800a76a:	682b      	ldr	r3, [r5, #0]
 800a76c:	b903      	cbnz	r3, 800a770 <__sflush_r+0x7c>
 800a76e:	6560      	str	r0, [r4, #84]	; 0x54
 800a770:	6b61      	ldr	r1, [r4, #52]	; 0x34
 800a772:	602f      	str	r7, [r5, #0]
 800a774:	2900      	cmp	r1, #0
 800a776:	d0ca      	beq.n	800a70e <__sflush_r+0x1a>
 800a778:	f104 0344 	add.w	r3, r4, #68	; 0x44
 800a77c:	4299      	cmp	r1, r3
 800a77e:	d002      	beq.n	800a786 <__sflush_r+0x92>
 800a780:	4628      	mov	r0, r5
 800a782:	f7ff fae9 	bl	8009d58 <_free_r>
 800a786:	2000      	movs	r0, #0
 800a788:	6360      	str	r0, [r4, #52]	; 0x34
 800a78a:	e7c1      	b.n	800a710 <__sflush_r+0x1c>
 800a78c:	6a21      	ldr	r1, [r4, #32]
 800a78e:	2301      	movs	r3, #1
 800a790:	4628      	mov	r0, r5
 800a792:	47b0      	blx	r6
 800a794:	1c41      	adds	r1, r0, #1
 800a796:	d1c7      	bne.n	800a728 <__sflush_r+0x34>
 800a798:	682b      	ldr	r3, [r5, #0]
 800a79a:	2b00      	cmp	r3, #0
 800a79c:	d0c4      	beq.n	800a728 <__sflush_r+0x34>
 800a79e:	2b1d      	cmp	r3, #29
 800a7a0:	d001      	beq.n	800a7a6 <__sflush_r+0xb2>
 800a7a2:	2b16      	cmp	r3, #22
 800a7a4:	d101      	bne.n	800a7aa <__sflush_r+0xb6>
 800a7a6:	602f      	str	r7, [r5, #0]
 800a7a8:	e7b1      	b.n	800a70e <__sflush_r+0x1a>
 800a7aa:	89a3      	ldrh	r3, [r4, #12]
 800a7ac:	f043 0340 	orr.w	r3, r3, #64	; 0x40
 800a7b0:	81a3      	strh	r3, [r4, #12]
 800a7b2:	e7ad      	b.n	800a710 <__sflush_r+0x1c>
 800a7b4:	690f      	ldr	r7, [r1, #16]
 800a7b6:	2f00      	cmp	r7, #0
 800a7b8:	d0a9      	beq.n	800a70e <__sflush_r+0x1a>
 800a7ba:	0793      	lsls	r3, r2, #30
 800a7bc:	bf18      	it	ne
 800a7be:	2300      	movne	r3, #0
 800a7c0:	680e      	ldr	r6, [r1, #0]
 800a7c2:	bf08      	it	eq
 800a7c4:	694b      	ldreq	r3, [r1, #20]
 800a7c6:	eba6 0807 	sub.w	r8, r6, r7
 800a7ca:	600f      	str	r7, [r1, #0]
 800a7cc:	608b      	str	r3, [r1, #8]
 800a7ce:	f1b8 0f00 	cmp.w	r8, #0
 800a7d2:	dd9c      	ble.n	800a70e <__sflush_r+0x1a>
 800a7d4:	4643      	mov	r3, r8
 800a7d6:	463a      	mov	r2, r7
 800a7d8:	4628      	mov	r0, r5
 800a7da:	6a21      	ldr	r1, [r4, #32]
 800a7dc:	6aa6      	ldr	r6, [r4, #40]	; 0x28
 800a7de:	47b0      	blx	r6
 800a7e0:	2800      	cmp	r0, #0
 800a7e2:	dc06      	bgt.n	800a7f2 <__sflush_r+0xfe>
 800a7e4:	89a3      	ldrh	r3, [r4, #12]
 800a7e6:	f04f 30ff 	mov.w	r0, #4294967295	; 0xffffffff
 800a7ea:	f043 0340 	orr.w	r3, r3, #64	; 0x40
 800a7ee:	81a3      	strh	r3, [r4, #12]
 800a7f0:	e78e      	b.n	800a710 <__sflush_r+0x1c>
 800a7f2:	4407      	add	r7, r0
 800a7f4:	eba8 0800 	sub.w	r8, r8, r0
 800a7f8:	e7e9      	b.n	800a7ce <__sflush_r+0xda>
 800a7fa:	bf00      	nop
 800a7fc:	20400001 	.word	0x20400001

0800a800 <_fflush_r>:
 800a800:	b538      	push	{r3, r4, r5, lr}
 800a802:	690b      	ldr	r3, [r1, #16]
 800a804:	4605      	mov	r5, r0
 800a806:	460c      	mov	r4, r1
 800a808:	b913      	cbnz	r3, 800a810 <_fflush_r+0x10>
 800a80a:	2500      	movs	r5, #0
 800a80c:	4628      	mov	r0, r5
 800a80e:	bd38      	pop	{r3, r4, r5, pc}
 800a810:	b118      	cbz	r0, 800a81a <_fflush_r+0x1a>
 800a812:	6983      	ldr	r3, [r0, #24]
 800a814:	b90b      	cbnz	r3, 800a81a <_fflush_r+0x1a>
 800a816:	f000 f887 	bl	800a928 <__sinit>
 800a81a:	4b14      	ldr	r3, [pc, #80]	; (800a86c <_fflush_r+0x6c>)
 800a81c:	429c      	cmp	r4, r3
 800a81e:	d11b      	bne.n	800a858 <_fflush_r+0x58>
 800a820:	686c      	ldr	r4, [r5, #4]
 800a822:	f9b4 300c 	ldrsh.w	r3, [r4, #12]
 800a826:	2b00      	cmp	r3, #0
 800a828:	d0ef      	beq.n	800a80a <_fflush_r+0xa>
 800a82a:	6e62      	ldr	r2, [r4, #100]	; 0x64
 800a82c:	07d0      	lsls	r0, r2, #31
 800a82e:	d404      	bmi.n	800a83a <_fflush_r+0x3a>
 800a830:	0599      	lsls	r1, r3, #22
 800a832:	d402      	bmi.n	800a83a <_fflush_r+0x3a>
 800a834:	6da0      	ldr	r0, [r4, #88]	; 0x58
 800a836:	f000 f915 	bl	800aa64 <__retarget_lock_acquire_recursive>
 800a83a:	4628      	mov	r0, r5
 800a83c:	4621      	mov	r1, r4
 800a83e:	f7ff ff59 	bl	800a6f4 <__sflush_r>
 800a842:	6e63      	ldr	r3, [r4, #100]	; 0x64
 800a844:	4605      	mov	r5, r0
 800a846:	07da      	lsls	r2, r3, #31
 800a848:	d4e0      	bmi.n	800a80c <_fflush_r+0xc>
 800a84a:	89a3      	ldrh	r3, [r4, #12]
 800a84c:	059b      	lsls	r3, r3, #22
 800a84e:	d4dd      	bmi.n	800a80c <_fflush_r+0xc>
 800a850:	6da0      	ldr	r0, [r4, #88]	; 0x58
 800a852:	f000 f908 	bl	800aa66 <__retarget_lock_release_recursive>
 800a856:	e7d9      	b.n	800a80c <_fflush_r+0xc>
 800a858:	4b05      	ldr	r3, [pc, #20]	; (800a870 <_fflush_r+0x70>)
 800a85a:	429c      	cmp	r4, r3
 800a85c:	d101      	bne.n	800a862 <_fflush_r+0x62>
 800a85e:	68ac      	ldr	r4, [r5, #8]
 800a860:	e7df      	b.n	800a822 <_fflush_r+0x22>
 800a862:	4b04      	ldr	r3, [pc, #16]	; (800a874 <_fflush_r+0x74>)
 800a864:	429c      	cmp	r4, r3
 800a866:	bf08      	it	eq
 800a868:	68ec      	ldreq	r4, [r5, #12]
 800a86a:	e7da      	b.n	800a822 <_fflush_r+0x22>
 800a86c:	0800b394 	.word	0x0800b394
 800a870:	0800b3b4 	.word	0x0800b3b4
 800a874:	0800b374 	.word	0x0800b374

0800a878 <std>:
 800a878:	2300      	movs	r3, #0
 800a87a:	b510      	push	{r4, lr}
 800a87c:	4604      	mov	r4, r0
 800a87e:	e9c0 3300 	strd	r3, r3, [r0]
 800a882:	e9c0 3304 	strd	r3, r3, [r0, #16]
 800a886:	6083      	str	r3, [r0, #8]
 800a888:	8181      	strh	r1, [r0, #12]
 800a88a:	6643      	str	r3, [r0, #100]	; 0x64
 800a88c:	81c2      	strh	r2, [r0, #14]
 800a88e:	6183      	str	r3, [r0, #24]
 800a890:	4619      	mov	r1, r3
 800a892:	2208      	movs	r2, #8
 800a894:	305c      	adds	r0, #92	; 0x5c
 800a896:	f7fd fba9 	bl	8007fec <memset>
 800a89a:	4b05      	ldr	r3, [pc, #20]	; (800a8b0 <std+0x38>)
 800a89c:	6224      	str	r4, [r4, #32]
 800a89e:	6263      	str	r3, [r4, #36]	; 0x24
 800a8a0:	4b04      	ldr	r3, [pc, #16]	; (800a8b4 <std+0x3c>)
 800a8a2:	62a3      	str	r3, [r4, #40]	; 0x28
 800a8a4:	4b04      	ldr	r3, [pc, #16]	; (800a8b8 <std+0x40>)
 800a8a6:	62e3      	str	r3, [r4, #44]	; 0x2c
 800a8a8:	4b04      	ldr	r3, [pc, #16]	; (800a8bc <std+0x44>)
 800a8aa:	6323      	str	r3, [r4, #48]	; 0x30
 800a8ac:	bd10      	pop	{r4, pc}
 800a8ae:	bf00      	nop
 800a8b0:	0800abc9 	.word	0x0800abc9
 800a8b4:	0800abeb 	.word	0x0800abeb
 800a8b8:	0800ac23 	.word	0x0800ac23
 800a8bc:	0800ac47 	.word	0x0800ac47

0800a8c0 <_cleanup_r>:
 800a8c0:	4901      	ldr	r1, [pc, #4]	; (800a8c8 <_cleanup_r+0x8>)
 800a8c2:	f000 b8af 	b.w	800aa24 <_fwalk_reent>
 800a8c6:	bf00      	nop
 800a8c8:	0800a801 	.word	0x0800a801

0800a8cc <__sfmoreglue>:
 800a8cc:	b570      	push	{r4, r5, r6, lr}
 800a8ce:	2568      	movs	r5, #104	; 0x68
 800a8d0:	1e4a      	subs	r2, r1, #1
 800a8d2:	4355      	muls	r5, r2
 800a8d4:	460e      	mov	r6, r1
 800a8d6:	f105 0174 	add.w	r1, r5, #116	; 0x74
 800a8da:	f7ff fa89 	bl	8009df0 <_malloc_r>
 800a8de:	4604      	mov	r4, r0
 800a8e0:	b140      	cbz	r0, 800a8f4 <__sfmoreglue+0x28>
 800a8e2:	2100      	movs	r1, #0
 800a8e4:	e9c0 1600 	strd	r1, r6, [r0]
 800a8e8:	300c      	adds	r0, #12
 800a8ea:	60a0      	str	r0, [r4, #8]
 800a8ec:	f105 0268 	add.w	r2, r5, #104	; 0x68
 800a8f0:	f7fd fb7c 	bl	8007fec <memset>
 800a8f4:	4620      	mov	r0, r4
 800a8f6:	bd70      	pop	{r4, r5, r6, pc}

0800a8f8 <__sfp_lock_acquire>:
 800a8f8:	4801      	ldr	r0, [pc, #4]	; (800a900 <__sfp_lock_acquire+0x8>)
 800a8fa:	f000 b8b3 	b.w	800aa64 <__retarget_lock_acquire_recursive>
 800a8fe:	bf00      	nop
 800a900:	20000d1c 	.word	0x20000d1c

0800a904 <__sfp_lock_release>:
 800a904:	4801      	ldr	r0, [pc, #4]	; (800a90c <__sfp_lock_release+0x8>)
 800a906:	f000 b8ae 	b.w	800aa66 <__retarget_lock_release_recursive>
 800a90a:	bf00      	nop
 800a90c:	20000d1c 	.word	0x20000d1c

0800a910 <__sinit_lock_acquire>:
 800a910:	4801      	ldr	r0, [pc, #4]	; (800a918 <__sinit_lock_acquire+0x8>)
 800a912:	f000 b8a7 	b.w	800aa64 <__retarget_lock_acquire_recursive>
 800a916:	bf00      	nop
 800a918:	20000d17 	.word	0x20000d17

0800a91c <__sinit_lock_release>:
 800a91c:	4801      	ldr	r0, [pc, #4]	; (800a924 <__sinit_lock_release+0x8>)
 800a91e:	f000 b8a2 	b.w	800aa66 <__retarget_lock_release_recursive>
 800a922:	bf00      	nop
 800a924:	20000d17 	.word	0x20000d17

0800a928 <__sinit>:
 800a928:	b510      	push	{r4, lr}
 800a92a:	4604      	mov	r4, r0
 800a92c:	f7ff fff0 	bl	800a910 <__sinit_lock_acquire>
 800a930:	69a3      	ldr	r3, [r4, #24]
 800a932:	b11b      	cbz	r3, 800a93c <__sinit+0x14>
 800a934:	e8bd 4010 	ldmia.w	sp!, {r4, lr}
 800a938:	f7ff bff0 	b.w	800a91c <__sinit_lock_release>
 800a93c:	e9c4 3312 	strd	r3, r3, [r4, #72]	; 0x48
 800a940:	6523      	str	r3, [r4, #80]	; 0x50
 800a942:	4b13      	ldr	r3, [pc, #76]	; (800a990 <__sinit+0x68>)
 800a944:	4a13      	ldr	r2, [pc, #76]	; (800a994 <__sinit+0x6c>)
 800a946:	681b      	ldr	r3, [r3, #0]
 800a948:	62a2      	str	r2, [r4, #40]	; 0x28
 800a94a:	42a3      	cmp	r3, r4
 800a94c:	bf08      	it	eq
 800a94e:	2301      	moveq	r3, #1
 800a950:	4620      	mov	r0, r4
 800a952:	bf08      	it	eq
 800a954:	61a3      	streq	r3, [r4, #24]
 800a956:	f000 f81f 	bl	800a998 <__sfp>
 800a95a:	6060      	str	r0, [r4, #4]
 800a95c:	4620      	mov	r0, r4
 800a95e:	f000 f81b 	bl	800a998 <__sfp>
 800a962:	60a0      	str	r0, [r4, #8]
 800a964:	4620      	mov	r0, r4
 800a966:	f000 f817 	bl	800a998 <__sfp>
 800a96a:	2200      	movs	r2, #0
 800a96c:	2104      	movs	r1, #4
 800a96e:	60e0      	str	r0, [r4, #12]
 800a970:	6860      	ldr	r0, [r4, #4]
 800a972:	f7ff ff81 	bl	800a878 <std>
 800a976:	2201      	movs	r2, #1
 800a978:	2109      	movs	r1, #9
 800a97a:	68a0      	ldr	r0, [r4, #8]
 800a97c:	f7ff ff7c 	bl	800a878 <std>
 800a980:	2202      	movs	r2, #2
 800a982:	2112      	movs	r1, #18
 800a984:	68e0      	ldr	r0, [r4, #12]
 800a986:	f7ff ff77 	bl	800a878 <std>
 800a98a:	2301      	movs	r3, #1
 800a98c:	61a3      	str	r3, [r4, #24]
 800a98e:	e7d1      	b.n	800a934 <__sinit+0xc>
 800a990:	0800aff4 	.word	0x0800aff4
 800a994:	0800a8c1 	.word	0x0800a8c1

0800a998 <__sfp>:
 800a998:	b5f8      	push	{r3, r4, r5, r6, r7, lr}
 800a99a:	4607      	mov	r7, r0
 800a99c:	f7ff ffac 	bl	800a8f8 <__sfp_lock_acquire>
 800a9a0:	4b1e      	ldr	r3, [pc, #120]	; (800aa1c <__sfp+0x84>)
 800a9a2:	681e      	ldr	r6, [r3, #0]
 800a9a4:	69b3      	ldr	r3, [r6, #24]
 800a9a6:	b913      	cbnz	r3, 800a9ae <__sfp+0x16>
 800a9a8:	4630      	mov	r0, r6
 800a9aa:	f7ff ffbd 	bl	800a928 <__sinit>
 800a9ae:	3648      	adds	r6, #72	; 0x48
 800a9b0:	e9d6 3401 	ldrd	r3, r4, [r6, #4]
 800a9b4:	3b01      	subs	r3, #1
 800a9b6:	d503      	bpl.n	800a9c0 <__sfp+0x28>
 800a9b8:	6833      	ldr	r3, [r6, #0]
 800a9ba:	b30b      	cbz	r3, 800aa00 <__sfp+0x68>
 800a9bc:	6836      	ldr	r6, [r6, #0]
 800a9be:	e7f7      	b.n	800a9b0 <__sfp+0x18>
 800a9c0:	f9b4 500c 	ldrsh.w	r5, [r4, #12]
 800a9c4:	b9d5      	cbnz	r5, 800a9fc <__sfp+0x64>
 800a9c6:	4b16      	ldr	r3, [pc, #88]	; (800aa20 <__sfp+0x88>)
 800a9c8:	f104 0058 	add.w	r0, r4, #88	; 0x58
 800a9cc:	60e3      	str	r3, [r4, #12]
 800a9ce:	6665      	str	r5, [r4, #100]	; 0x64
 800a9d0:	f000 f847 	bl	800aa62 <__retarget_lock_init_recursive>
 800a9d4:	f7ff ff96 	bl	800a904 <__sfp_lock_release>
 800a9d8:	2208      	movs	r2, #8
 800a9da:	4629      	mov	r1, r5
 800a9dc:	e9c4 5501 	strd	r5, r5, [r4, #4]
 800a9e0:	e9c4 5504 	strd	r5, r5, [r4, #16]
 800a9e4:	6025      	str	r5, [r4, #0]
 800a9e6:	61a5      	str	r5, [r4, #24]
 800a9e8:	f104 005c 	add.w	r0, r4, #92	; 0x5c
 800a9ec:	f7fd fafe 	bl	8007fec <memset>
 800a9f0:	e9c4 550d 	strd	r5, r5, [r4, #52]	; 0x34
 800a9f4:	e9c4 5512 	strd	r5, r5, [r4, #72]	; 0x48
 800a9f8:	4620      	mov	r0, r4
 800a9fa:	bdf8      	pop	{r3, r4, r5, r6, r7, pc}
 800a9fc:	3468      	adds	r4, #104	; 0x68
 800a9fe:	e7d9      	b.n	800a9b4 <__sfp+0x1c>
 800aa00:	2104      	movs	r1, #4
 800aa02:	4638      	mov	r0, r7
 800aa04:	f7ff ff62 	bl	800a8cc <__sfmoreglue>
 800aa08:	4604      	mov	r4, r0
 800aa0a:	6030      	str	r0, [r6, #0]
 800aa0c:	2800      	cmp	r0, #0
 800aa0e:	d1d5      	bne.n	800a9bc <__sfp+0x24>
 800aa10:	f7ff ff78 	bl	800a904 <__sfp_lock_release>
 800aa14:	230c      	movs	r3, #12
 800aa16:	603b      	str	r3, [r7, #0]
 800aa18:	e7ee      	b.n	800a9f8 <__sfp+0x60>
 800aa1a:	bf00      	nop
 800aa1c:	0800aff4 	.word	0x0800aff4
 800aa20:	ffff0001 	.word	0xffff0001

0800aa24 <_fwalk_reent>:
 800aa24:	e92d 43f8 	stmdb	sp!, {r3, r4, r5, r6, r7, r8, r9, lr}
 800aa28:	4606      	mov	r6, r0
 800aa2a:	4688      	mov	r8, r1
 800aa2c:	2700      	movs	r7, #0
 800aa2e:	f100 0448 	add.w	r4, r0, #72	; 0x48
 800aa32:	e9d4 9501 	ldrd	r9, r5, [r4, #4]
 800aa36:	f1b9 0901 	subs.w	r9, r9, #1
 800aa3a:	d505      	bpl.n	800aa48 <_fwalk_reent+0x24>
 800aa3c:	6824      	ldr	r4, [r4, #0]
 800aa3e:	2c00      	cmp	r4, #0
 800aa40:	d1f7      	bne.n	800aa32 <_fwalk_reent+0xe>
 800aa42:	4638      	mov	r0, r7
 800aa44:	e8bd 83f8 	ldmia.w	sp!, {r3, r4, r5, r6, r7, r8, r9, pc}
 800aa48:	89ab      	ldrh	r3, [r5, #12]
 800aa4a:	2b01      	cmp	r3, #1
 800aa4c:	d907      	bls.n	800aa5e <_fwalk_reent+0x3a>
 800aa4e:	f9b5 300e 	ldrsh.w	r3, [r5, #14]
 800aa52:	3301      	adds	r3, #1
 800aa54:	d003      	beq.n	800aa5e <_fwalk_reent+0x3a>
 800aa56:	4629      	mov	r1, r5
 800aa58:	4630      	mov	r0, r6
 800aa5a:	47c0      	blx	r8
 800aa5c:	4307      	orrs	r7, r0
 800aa5e:	3568      	adds	r5, #104	; 0x68
 800aa60:	e7e9      	b.n	800aa36 <_fwalk_reent+0x12>

0800aa62 <__retarget_lock_init_recursive>:
 800aa62:	4770      	bx	lr

0800aa64 <__retarget_lock_acquire_recursive>:
 800aa64:	4770      	bx	lr

0800aa66 <__retarget_lock_release_recursive>:
 800aa66:	4770      	bx	lr

0800aa68 <__swhatbuf_r>:
 800aa68:	b570      	push	{r4, r5, r6, lr}
 800aa6a:	460e      	mov	r6, r1
 800aa6c:	f9b1 100e 	ldrsh.w	r1, [r1, #14]
 800aa70:	4614      	mov	r4, r2
 800aa72:	2900      	cmp	r1, #0
 800aa74:	461d      	mov	r5, r3
 800aa76:	b096      	sub	sp, #88	; 0x58
 800aa78:	da07      	bge.n	800aa8a <__swhatbuf_r+0x22>
 800aa7a:	2300      	movs	r3, #0
 800aa7c:	602b      	str	r3, [r5, #0]
 800aa7e:	89b3      	ldrh	r3, [r6, #12]
 800aa80:	061a      	lsls	r2, r3, #24
 800aa82:	d410      	bmi.n	800aaa6 <__swhatbuf_r+0x3e>
 800aa84:	f44f 6380 	mov.w	r3, #1024	; 0x400
 800aa88:	e00e      	b.n	800aaa8 <__swhatbuf_r+0x40>
 800aa8a:	466a      	mov	r2, sp
 800aa8c:	f000 f902 	bl	800ac94 <_fstat_r>
 800aa90:	2800      	cmp	r0, #0
 800aa92:	dbf2      	blt.n	800aa7a <__swhatbuf_r+0x12>
 800aa94:	9a01      	ldr	r2, [sp, #4]
 800aa96:	f402 4270 	and.w	r2, r2, #61440	; 0xf000
 800aa9a:	f5a2 5300 	sub.w	r3, r2, #8192	; 0x2000
 800aa9e:	425a      	negs	r2, r3
 800aaa0:	415a      	adcs	r2, r3
 800aaa2:	602a      	str	r2, [r5, #0]
 800aaa4:	e7ee      	b.n	800aa84 <__swhatbuf_r+0x1c>
 800aaa6:	2340      	movs	r3, #64	; 0x40
 800aaa8:	2000      	movs	r0, #0
 800aaaa:	6023      	str	r3, [r4, #0]
 800aaac:	b016      	add	sp, #88	; 0x58
 800aaae:	bd70      	pop	{r4, r5, r6, pc}

0800aab0 <__smakebuf_r>:
 800aab0:	898b      	ldrh	r3, [r1, #12]
 800aab2:	b573      	push	{r0, r1, r4, r5, r6, lr}
 800aab4:	079d      	lsls	r5, r3, #30
 800aab6:	4606      	mov	r6, r0
 800aab8:	460c      	mov	r4, r1
 800aaba:	d507      	bpl.n	800aacc <__smakebuf_r+0x1c>
 800aabc:	f104 0347 	add.w	r3, r4, #71	; 0x47
 800aac0:	6023      	str	r3, [r4, #0]
 800aac2:	6123      	str	r3, [r4, #16]
 800aac4:	2301      	movs	r3, #1
 800aac6:	6163      	str	r3, [r4, #20]
 800aac8:	b002      	add	sp, #8
 800aaca:	bd70      	pop	{r4, r5, r6, pc}
 800aacc:	466a      	mov	r2, sp
 800aace:	ab01      	add	r3, sp, #4
 800aad0:	f7ff ffca 	bl	800aa68 <__swhatbuf_r>
 800aad4:	9900      	ldr	r1, [sp, #0]
 800aad6:	4605      	mov	r5, r0
 800aad8:	4630      	mov	r0, r6
 800aada:	f7ff f989 	bl	8009df0 <_malloc_r>
 800aade:	b948      	cbnz	r0, 800aaf4 <__smakebuf_r+0x44>
 800aae0:	f9b4 300c 	ldrsh.w	r3, [r4, #12]
 800aae4:	059a      	lsls	r2, r3, #22
 800aae6:	d4ef      	bmi.n	800aac8 <__smakebuf_r+0x18>
 800aae8:	f023 0303 	bic.w	r3, r3, #3
 800aaec:	f043 0302 	orr.w	r3, r3, #2
 800aaf0:	81a3      	strh	r3, [r4, #12]
 800aaf2:	e7e3      	b.n	800aabc <__smakebuf_r+0xc>
 800aaf4:	4b0d      	ldr	r3, [pc, #52]	; (800ab2c <__smakebuf_r+0x7c>)
 800aaf6:	62b3      	str	r3, [r6, #40]	; 0x28
 800aaf8:	89a3      	ldrh	r3, [r4, #12]
 800aafa:	6020      	str	r0, [r4, #0]
 800aafc:	f043 0380 	orr.w	r3, r3, #128	; 0x80
 800ab00:	81a3      	strh	r3, [r4, #12]
 800ab02:	9b00      	ldr	r3, [sp, #0]
 800ab04:	6120      	str	r0, [r4, #16]
 800ab06:	6163      	str	r3, [r4, #20]
 800ab08:	9b01      	ldr	r3, [sp, #4]
 800ab0a:	b15b      	cbz	r3, 800ab24 <__smakebuf_r+0x74>
 800ab0c:	4630      	mov	r0, r6
 800ab0e:	f9b4 100e 	ldrsh.w	r1, [r4, #14]
 800ab12:	f000 f8d1 	bl	800acb8 <_isatty_r>
 800ab16:	b128      	cbz	r0, 800ab24 <__smakebuf_r+0x74>
 800ab18:	89a3      	ldrh	r3, [r4, #12]
 800ab1a:	f023 0303 	bic.w	r3, r3, #3
 800ab1e:	f043 0301 	orr.w	r3, r3, #1
 800ab22:	81a3      	strh	r3, [r4, #12]
 800ab24:	89a0      	ldrh	r0, [r4, #12]
 800ab26:	4305      	orrs	r5, r0
 800ab28:	81a5      	strh	r5, [r4, #12]
 800ab2a:	e7cd      	b.n	800aac8 <__smakebuf_r+0x18>
 800ab2c:	0800a8c1 	.word	0x0800a8c1

0800ab30 <_malloc_usable_size_r>:
 800ab30:	f851 3c04 	ldr.w	r3, [r1, #-4]
 800ab34:	1f18      	subs	r0, r3, #4
 800ab36:	2b00      	cmp	r3, #0
 800ab38:	bfbc      	itt	lt
 800ab3a:	580b      	ldrlt	r3, [r1, r0]
 800ab3c:	18c0      	addlt	r0, r0, r3
 800ab3e:	4770      	bx	lr

0800ab40 <_raise_r>:
 800ab40:	291f      	cmp	r1, #31
 800ab42:	b538      	push	{r3, r4, r5, lr}
 800ab44:	4604      	mov	r4, r0
 800ab46:	460d      	mov	r5, r1
 800ab48:	d904      	bls.n	800ab54 <_raise_r+0x14>
 800ab4a:	2316      	movs	r3, #22
 800ab4c:	6003      	str	r3, [r0, #0]
 800ab4e:	f04f 30ff 	mov.w	r0, #4294967295	; 0xffffffff
 800ab52:	bd38      	pop	{r3, r4, r5, pc}
 800ab54:	6c42      	ldr	r2, [r0, #68]	; 0x44
 800ab56:	b112      	cbz	r2, 800ab5e <_raise_r+0x1e>
 800ab58:	f852 3021 	ldr.w	r3, [r2, r1, lsl #2]
 800ab5c:	b94b      	cbnz	r3, 800ab72 <_raise_r+0x32>
 800ab5e:	4620      	mov	r0, r4
 800ab60:	f000 f830 	bl	800abc4 <_getpid_r>
 800ab64:	462a      	mov	r2, r5
 800ab66:	4601      	mov	r1, r0
 800ab68:	4620      	mov	r0, r4
 800ab6a:	e8bd 4038 	ldmia.w	sp!, {r3, r4, r5, lr}
 800ab6e:	f000 b817 	b.w	800aba0 <_kill_r>
 800ab72:	2b01      	cmp	r3, #1
 800ab74:	d00a      	beq.n	800ab8c <_raise_r+0x4c>
 800ab76:	1c59      	adds	r1, r3, #1
 800ab78:	d103      	bne.n	800ab82 <_raise_r+0x42>
 800ab7a:	2316      	movs	r3, #22
 800ab7c:	6003      	str	r3, [r0, #0]
 800ab7e:	2001      	movs	r0, #1
 800ab80:	e7e7      	b.n	800ab52 <_raise_r+0x12>
 800ab82:	2400      	movs	r4, #0
 800ab84:	4628      	mov	r0, r5
 800ab86:	f842 4025 	str.w	r4, [r2, r5, lsl #2]
 800ab8a:	4798      	blx	r3
 800ab8c:	2000      	movs	r0, #0
 800ab8e:	e7e0      	b.n	800ab52 <_raise_r+0x12>

0800ab90 <raise>:
 800ab90:	4b02      	ldr	r3, [pc, #8]	; (800ab9c <raise+0xc>)
 800ab92:	4601      	mov	r1, r0
 800ab94:	6818      	ldr	r0, [r3, #0]
 800ab96:	f7ff bfd3 	b.w	800ab40 <_raise_r>
 800ab9a:	bf00      	nop
 800ab9c:	20000174 	.word	0x20000174

0800aba0 <_kill_r>:
 800aba0:	b538      	push	{r3, r4, r5, lr}
 800aba2:	2300      	movs	r3, #0
 800aba4:	4d06      	ldr	r5, [pc, #24]	; (800abc0 <_kill_r+0x20>)
 800aba6:	4604      	mov	r4, r0
 800aba8:	4608      	mov	r0, r1
 800abaa:	4611      	mov	r1, r2
 800abac:	602b      	str	r3, [r5, #0]
 800abae:	f7f9 fd35 	bl	800461c <_kill>
 800abb2:	1c43      	adds	r3, r0, #1
 800abb4:	d102      	bne.n	800abbc <_kill_r+0x1c>
 800abb6:	682b      	ldr	r3, [r5, #0]
 800abb8:	b103      	cbz	r3, 800abbc <_kill_r+0x1c>
 800abba:	6023      	str	r3, [r4, #0]
 800abbc:	bd38      	pop	{r3, r4, r5, pc}
 800abbe:	bf00      	nop
 800abc0:	20000d10 	.word	0x20000d10

0800abc4 <_getpid_r>:
 800abc4:	f7f9 bd28 	b.w	8004618 <_getpid>

0800abc8 <__sread>:
 800abc8:	b510      	push	{r4, lr}
 800abca:	460c      	mov	r4, r1
 800abcc:	f9b1 100e 	ldrsh.w	r1, [r1, #14]
 800abd0:	f000 f894 	bl	800acfc <_read_r>
 800abd4:	2800      	cmp	r0, #0
 800abd6:	bfab      	itete	ge
 800abd8:	6d63      	ldrge	r3, [r4, #84]	; 0x54
 800abda:	89a3      	ldrhlt	r3, [r4, #12]
 800abdc:	181b      	addge	r3, r3, r0
 800abde:	f423 5380 	biclt.w	r3, r3, #4096	; 0x1000
 800abe2:	bfac      	ite	ge
 800abe4:	6563      	strge	r3, [r4, #84]	; 0x54
 800abe6:	81a3      	strhlt	r3, [r4, #12]
 800abe8:	bd10      	pop	{r4, pc}

0800abea <__swrite>:
 800abea:	e92d 41f0 	stmdb	sp!, {r4, r5, r6, r7, r8, lr}
 800abee:	461f      	mov	r7, r3
 800abf0:	898b      	ldrh	r3, [r1, #12]
 800abf2:	4605      	mov	r5, r0
 800abf4:	05db      	lsls	r3, r3, #23
 800abf6:	460c      	mov	r4, r1
 800abf8:	4616      	mov	r6, r2
 800abfa:	d505      	bpl.n	800ac08 <__swrite+0x1e>
 800abfc:	2302      	movs	r3, #2
 800abfe:	2200      	movs	r2, #0
 800ac00:	f9b1 100e 	ldrsh.w	r1, [r1, #14]
 800ac04:	f000 f868 	bl	800acd8 <_lseek_r>
 800ac08:	89a3      	ldrh	r3, [r4, #12]
 800ac0a:	4632      	mov	r2, r6
 800ac0c:	f423 5380 	bic.w	r3, r3, #4096	; 0x1000
 800ac10:	81a3      	strh	r3, [r4, #12]
 800ac12:	4628      	mov	r0, r5
 800ac14:	463b      	mov	r3, r7
 800ac16:	f9b4 100e 	ldrsh.w	r1, [r4, #14]
 800ac1a:	e8bd 41f0 	ldmia.w	sp!, {r4, r5, r6, r7, r8, lr}
 800ac1e:	f000 b817 	b.w	800ac50 <_write_r>

0800ac22 <__sseek>:
 800ac22:	b510      	push	{r4, lr}
 800ac24:	460c      	mov	r4, r1
 800ac26:	f9b1 100e 	ldrsh.w	r1, [r1, #14]
 800ac2a:	f000 f855 	bl	800acd8 <_lseek_r>
 800ac2e:	1c43      	adds	r3, r0, #1
 800ac30:	89a3      	ldrh	r3, [r4, #12]
 800ac32:	bf15      	itete	ne
 800ac34:	6560      	strne	r0, [r4, #84]	; 0x54
 800ac36:	f423 5380 	biceq.w	r3, r3, #4096	; 0x1000
 800ac3a:	f443 5380 	orrne.w	r3, r3, #4096	; 0x1000
 800ac3e:	81a3      	strheq	r3, [r4, #12]
 800ac40:	bf18      	it	ne
 800ac42:	81a3      	strhne	r3, [r4, #12]
 800ac44:	bd10      	pop	{r4, pc}

0800ac46 <__sclose>:
 800ac46:	f9b1 100e 	ldrsh.w	r1, [r1, #14]
 800ac4a:	f000 b813 	b.w	800ac74 <_close_r>
	...

0800ac50 <_write_r>:
 800ac50:	b538      	push	{r3, r4, r5, lr}
 800ac52:	4604      	mov	r4, r0
 800ac54:	4608      	mov	r0, r1
 800ac56:	4611      	mov	r1, r2
 800ac58:	2200      	movs	r2, #0
 800ac5a:	4d05      	ldr	r5, [pc, #20]	; (800ac70 <_write_r+0x20>)
 800ac5c:	602a      	str	r2, [r5, #0]
 800ac5e:	461a      	mov	r2, r3
 800ac60:	f7f9 fcf7 	bl	8004652 <_write>
 800ac64:	1c43      	adds	r3, r0, #1
 800ac66:	d102      	bne.n	800ac6e <_write_r+0x1e>
 800ac68:	682b      	ldr	r3, [r5, #0]
 800ac6a:	b103      	cbz	r3, 800ac6e <_write_r+0x1e>
 800ac6c:	6023      	str	r3, [r4, #0]
 800ac6e:	bd38      	pop	{r3, r4, r5, pc}
 800ac70:	20000d10 	.word	0x20000d10

0800ac74 <_close_r>:
 800ac74:	b538      	push	{r3, r4, r5, lr}
 800ac76:	2300      	movs	r3, #0
 800ac78:	4d05      	ldr	r5, [pc, #20]	; (800ac90 <_close_r+0x1c>)
 800ac7a:	4604      	mov	r4, r0
 800ac7c:	4608      	mov	r0, r1
 800ac7e:	602b      	str	r3, [r5, #0]
 800ac80:	f7f9 fcf4 	bl	800466c <_close>
 800ac84:	1c43      	adds	r3, r0, #1
 800ac86:	d102      	bne.n	800ac8e <_close_r+0x1a>
 800ac88:	682b      	ldr	r3, [r5, #0]
 800ac8a:	b103      	cbz	r3, 800ac8e <_close_r+0x1a>
 800ac8c:	6023      	str	r3, [r4, #0]
 800ac8e:	bd38      	pop	{r3, r4, r5, pc}
 800ac90:	20000d10 	.word	0x20000d10

0800ac94 <_fstat_r>:
 800ac94:	b538      	push	{r3, r4, r5, lr}
 800ac96:	2300      	movs	r3, #0
 800ac98:	4d06      	ldr	r5, [pc, #24]	; (800acb4 <_fstat_r+0x20>)
 800ac9a:	4604      	mov	r4, r0
 800ac9c:	4608      	mov	r0, r1
 800ac9e:	4611      	mov	r1, r2
 800aca0:	602b      	str	r3, [r5, #0]
 800aca2:	f7f9 fce6 	bl	8004672 <_fstat>
 800aca6:	1c43      	adds	r3, r0, #1
 800aca8:	d102      	bne.n	800acb0 <_fstat_r+0x1c>
 800acaa:	682b      	ldr	r3, [r5, #0]
 800acac:	b103      	cbz	r3, 800acb0 <_fstat_r+0x1c>
 800acae:	6023      	str	r3, [r4, #0]
 800acb0:	bd38      	pop	{r3, r4, r5, pc}
 800acb2:	bf00      	nop
 800acb4:	20000d10 	.word	0x20000d10

0800acb8 <_isatty_r>:
 800acb8:	b538      	push	{r3, r4, r5, lr}
 800acba:	2300      	movs	r3, #0
 800acbc:	4d05      	ldr	r5, [pc, #20]	; (800acd4 <_isatty_r+0x1c>)
 800acbe:	4604      	mov	r4, r0
 800acc0:	4608      	mov	r0, r1
 800acc2:	602b      	str	r3, [r5, #0]
 800acc4:	f7f9 fcda 	bl	800467c <_isatty>
 800acc8:	1c43      	adds	r3, r0, #1
 800acca:	d102      	bne.n	800acd2 <_isatty_r+0x1a>
 800accc:	682b      	ldr	r3, [r5, #0]
 800acce:	b103      	cbz	r3, 800acd2 <_isatty_r+0x1a>
 800acd0:	6023      	str	r3, [r4, #0]
 800acd2:	bd38      	pop	{r3, r4, r5, pc}
 800acd4:	20000d10 	.word	0x20000d10

0800acd8 <_lseek_r>:
 800acd8:	b538      	push	{r3, r4, r5, lr}
 800acda:	4604      	mov	r4, r0
 800acdc:	4608      	mov	r0, r1
 800acde:	4611      	mov	r1, r2
 800ace0:	2200      	movs	r2, #0
 800ace2:	4d05      	ldr	r5, [pc, #20]	; (800acf8 <_lseek_r+0x20>)
 800ace4:	602a      	str	r2, [r5, #0]
 800ace6:	461a      	mov	r2, r3
 800ace8:	f7f9 fcca 	bl	8004680 <_lseek>
 800acec:	1c43      	adds	r3, r0, #1
 800acee:	d102      	bne.n	800acf6 <_lseek_r+0x1e>
 800acf0:	682b      	ldr	r3, [r5, #0]
 800acf2:	b103      	cbz	r3, 800acf6 <_lseek_r+0x1e>
 800acf4:	6023      	str	r3, [r4, #0]
 800acf6:	bd38      	pop	{r3, r4, r5, pc}
 800acf8:	20000d10 	.word	0x20000d10

0800acfc <_read_r>:
 800acfc:	b538      	push	{r3, r4, r5, lr}
 800acfe:	4604      	mov	r4, r0
 800ad00:	4608      	mov	r0, r1
 800ad02:	4611      	mov	r1, r2
 800ad04:	2200      	movs	r2, #0
 800ad06:	4d05      	ldr	r5, [pc, #20]	; (800ad1c <_read_r+0x20>)
 800ad08:	602a      	str	r2, [r5, #0]
 800ad0a:	461a      	mov	r2, r3
 800ad0c:	f7f9 fc94 	bl	8004638 <_read>
 800ad10:	1c43      	adds	r3, r0, #1
 800ad12:	d102      	bne.n	800ad1a <_read_r+0x1e>
 800ad14:	682b      	ldr	r3, [r5, #0]
 800ad16:	b103      	cbz	r3, 800ad1a <_read_r+0x1e>
 800ad18:	6023      	str	r3, [r4, #0]
 800ad1a:	bd38      	pop	{r3, r4, r5, pc}
 800ad1c:	20000d10 	.word	0x20000d10

0800ad20 <_init>:
 800ad20:	b5f8      	push	{r3, r4, r5, r6, r7, lr}
 800ad22:	bf00      	nop
 800ad24:	bcf8      	pop	{r3, r4, r5, r6, r7}
 800ad26:	bc08      	pop	{r3}
 800ad28:	469e      	mov	lr, r3
 800ad2a:	4770      	bx	lr

0800ad2c <_fini>:
 800ad2c:	b5f8      	push	{r3, r4, r5, r6, r7, lr}
 800ad2e:	bf00      	nop
 800ad30:	bcf8      	pop	{r3, r4, r5, r6, r7}
 800ad32:	bc08      	pop	{r3}
 800ad34:	469e      	mov	lr, r3
 800ad36:	4770      	bx	lr
