
Anemometr_3.elf:     file format elf32-littlearm

Sections:
Idx Name          Size      VMA       LMA       File off  Algn
  0 .isr_vector   0000010c  08000000  08000000  00010000  2**0
                  CONTENTS, ALLOC, LOAD, READONLY, DATA
  1 .text         0000b55c  08000110  08000110  00010110  2**3
                  CONTENTS, ALLOC, LOAD, READONLY, CODE
  2 .rodata       000007c4  0800b670  0800b670  0001b670  2**3
                  CONTENTS, ALLOC, LOAD, READONLY, DATA
  3 .ARM.extab    00000000  0800be34  0800be34  00020344  2**0
                  CONTENTS
  4 .ARM          00000008  0800be34  0800be34  0001be34  2**2
                  CONTENTS, ALLOC, LOAD, READONLY, DATA
  5 .preinit_array 00000000  0800be3c  0800be3c  00020344  2**0
                  CONTENTS, ALLOC, LOAD, DATA
  6 .init_array   00000004  0800be3c  0800be3c  0001be3c  2**2
                  CONTENTS, ALLOC, LOAD, DATA
  7 .fini_array   00000004  0800be40  0800be40  0001be40  2**2
                  CONTENTS, ALLOC, LOAD, DATA
  8 .data         00000344  20000000  0800be44  00020000  2**2
                  CONTENTS, ALLOC, LOAD, DATA
  9 .bss          00001130  20000348  0800c188  00020348  2**3
                  ALLOC
 10 ._user_heap_stack 00000600  20001478  0800c188  00021478  2**0
                  ALLOC
 11 .ARM.attributes 00000029  00000000  00000000  00020344  2**0
                  CONTENTS, READONLY
 12 .comment      00000053  00000000  00000000  0002036d  2**0
                  CONTENTS, READONLY
 13 .debug_frame  00001560  00000000  00000000  000203c0  2**2
                  CONTENTS, READONLY, DEBUGGING, OCTETS

Disassembly of section .text:

08000110 <__do_global_dtors_aux>:
 8000110:	b510      	push	{r4, lr}
 8000112:	4c05      	ldr	r4, [pc, #20]	; (8000128 <__do_global_dtors_aux+0x18>)
 8000114:	7823      	ldrb	r3, [r4, #0]
 8000116:	b933      	cbnz	r3, 8000126 <__do_global_dtors_aux+0x16>
 8000118:	4b04      	ldr	r3, [pc, #16]	; (800012c <__do_global_dtors_aux+0x1c>)
 800011a:	b113      	cbz	r3, 8000122 <__do_global_dtors_aux+0x12>
 800011c:	4804      	ldr	r0, [pc, #16]	; (8000130 <__do_global_dtors_aux+0x20>)
 800011e:	f3af 8000 	nop.w
 8000122:	2301      	movs	r3, #1
 8000124:	7023      	strb	r3, [r4, #0]
 8000126:	bd10      	pop	{r4, pc}
 8000128:	20000348 	.word	0x20000348
 800012c:	00000000 	.word	0x00000000
 8000130:	0800b654 	.word	0x0800b654

08000134 <frame_dummy>:
 8000134:	b508      	push	{r3, lr}
 8000136:	4b03      	ldr	r3, [pc, #12]	; (8000144 <frame_dummy+0x10>)
 8000138:	b11b      	cbz	r3, 8000142 <frame_dummy+0xe>
 800013a:	4903      	ldr	r1, [pc, #12]	; (8000148 <frame_dummy+0x14>)
 800013c:	4803      	ldr	r0, [pc, #12]	; (800014c <frame_dummy+0x18>)
 800013e:	f3af 8000 	nop.w
 8000142:	bd08      	pop	{r3, pc}
 8000144:	00000000 	.word	0x00000000
 8000148:	2000034c 	.word	0x2000034c
 800014c:	0800b654 	.word	0x0800b654

08000150 <strlen>:
 8000150:	4603      	mov	r3, r0
 8000152:	f813 2b01 	ldrb.w	r2, [r3], #1
 8000156:	2a00      	cmp	r2, #0
 8000158:	d1fb      	bne.n	8000152 <strlen+0x2>
 800015a:	1a18      	subs	r0, r3, r0
 800015c:	3801      	subs	r0, #1
 800015e:	4770      	bx	lr

08000160 <__aeabi_drsub>:
 8000160:	f081 4100 	eor.w	r1, r1, #2147483648	; 0x80000000
 8000164:	e002      	b.n	800016c <__adddf3>
 8000166:	bf00      	nop

08000168 <__aeabi_dsub>:
 8000168:	f083 4300 	eor.w	r3, r3, #2147483648	; 0x80000000

0800016c <__adddf3>:
 800016c:	b530      	push	{r4, r5, lr}
 800016e:	ea4f 0441 	mov.w	r4, r1, lsl #1
 8000172:	ea4f 0543 	mov.w	r5, r3, lsl #1
 8000176:	ea94 0f05 	teq	r4, r5
 800017a:	bf08      	it	eq
 800017c:	ea90 0f02 	teqeq	r0, r2
 8000180:	bf1f      	itttt	ne
 8000182:	ea54 0c00 	orrsne.w	ip, r4, r0
 8000186:	ea55 0c02 	orrsne.w	ip, r5, r2
 800018a:	ea7f 5c64 	mvnsne.w	ip, r4, asr #21
 800018e:	ea7f 5c65 	mvnsne.w	ip, r5, asr #21
 8000192:	f000 80e2 	beq.w	800035a <__adddf3+0x1ee>
 8000196:	ea4f 5454 	mov.w	r4, r4, lsr #21
 800019a:	ebd4 5555 	rsbs	r5, r4, r5, lsr #21
 800019e:	bfb8      	it	lt
 80001a0:	426d      	neglt	r5, r5
 80001a2:	dd0c      	ble.n	80001be <__adddf3+0x52>
 80001a4:	442c      	add	r4, r5
 80001a6:	ea80 0202 	eor.w	r2, r0, r2
 80001aa:	ea81 0303 	eor.w	r3, r1, r3
 80001ae:	ea82 0000 	eor.w	r0, r2, r0
 80001b2:	ea83 0101 	eor.w	r1, r3, r1
 80001b6:	ea80 0202 	eor.w	r2, r0, r2
 80001ba:	ea81 0303 	eor.w	r3, r1, r3
 80001be:	2d36      	cmp	r5, #54	; 0x36
 80001c0:	bf88      	it	hi
 80001c2:	bd30      	pophi	{r4, r5, pc}
 80001c4:	f011 4f00 	tst.w	r1, #2147483648	; 0x80000000
 80001c8:	ea4f 3101 	mov.w	r1, r1, lsl #12
 80001cc:	f44f 1c80 	mov.w	ip, #1048576	; 0x100000
 80001d0:	ea4c 3111 	orr.w	r1, ip, r1, lsr #12
 80001d4:	d002      	beq.n	80001dc <__adddf3+0x70>
 80001d6:	4240      	negs	r0, r0
 80001d8:	eb61 0141 	sbc.w	r1, r1, r1, lsl #1
 80001dc:	f013 4f00 	tst.w	r3, #2147483648	; 0x80000000
 80001e0:	ea4f 3303 	mov.w	r3, r3, lsl #12
 80001e4:	ea4c 3313 	orr.w	r3, ip, r3, lsr #12
 80001e8:	d002      	beq.n	80001f0 <__adddf3+0x84>
 80001ea:	4252      	negs	r2, r2
 80001ec:	eb63 0343 	sbc.w	r3, r3, r3, lsl #1
 80001f0:	ea94 0f05 	teq	r4, r5
 80001f4:	f000 80a7 	beq.w	8000346 <__adddf3+0x1da>
 80001f8:	f1a4 0401 	sub.w	r4, r4, #1
 80001fc:	f1d5 0e20 	rsbs	lr, r5, #32
 8000200:	db0d      	blt.n	800021e <__adddf3+0xb2>
 8000202:	fa02 fc0e 	lsl.w	ip, r2, lr
 8000206:	fa22 f205 	lsr.w	r2, r2, r5
 800020a:	1880      	adds	r0, r0, r2
 800020c:	f141 0100 	adc.w	r1, r1, #0
 8000210:	fa03 f20e 	lsl.w	r2, r3, lr
 8000214:	1880      	adds	r0, r0, r2
 8000216:	fa43 f305 	asr.w	r3, r3, r5
 800021a:	4159      	adcs	r1, r3
 800021c:	e00e      	b.n	800023c <__adddf3+0xd0>
 800021e:	f1a5 0520 	sub.w	r5, r5, #32
 8000222:	f10e 0e20 	add.w	lr, lr, #32
 8000226:	2a01      	cmp	r2, #1
 8000228:	fa03 fc0e 	lsl.w	ip, r3, lr
 800022c:	bf28      	it	cs
 800022e:	f04c 0c02 	orrcs.w	ip, ip, #2
 8000232:	fa43 f305 	asr.w	r3, r3, r5
 8000236:	18c0      	adds	r0, r0, r3
 8000238:	eb51 71e3 	adcs.w	r1, r1, r3, asr #31
 800023c:	f001 4500 	and.w	r5, r1, #2147483648	; 0x80000000
 8000240:	d507      	bpl.n	8000252 <__adddf3+0xe6>
 8000242:	f04f 0e00 	mov.w	lr, #0
 8000246:	f1dc 0c00 	rsbs	ip, ip, #0
 800024a:	eb7e 0000 	sbcs.w	r0, lr, r0
 800024e:	eb6e 0101 	sbc.w	r1, lr, r1
 8000252:	f5b1 1f80 	cmp.w	r1, #1048576	; 0x100000
 8000256:	d31b      	bcc.n	8000290 <__adddf3+0x124>
 8000258:	f5b1 1f00 	cmp.w	r1, #2097152	; 0x200000
 800025c:	d30c      	bcc.n	8000278 <__adddf3+0x10c>
 800025e:	0849      	lsrs	r1, r1, #1
 8000260:	ea5f 0030 	movs.w	r0, r0, rrx
 8000264:	ea4f 0c3c 	mov.w	ip, ip, rrx
 8000268:	f104 0401 	add.w	r4, r4, #1
 800026c:	ea4f 5244 	mov.w	r2, r4, lsl #21
 8000270:	f512 0f80 	cmn.w	r2, #4194304	; 0x400000
 8000274:	f080 809a 	bcs.w	80003ac <__adddf3+0x240>
 8000278:	f1bc 4f00 	cmp.w	ip, #2147483648	; 0x80000000
 800027c:	bf08      	it	eq
 800027e:	ea5f 0c50 	movseq.w	ip, r0, lsr #1
 8000282:	f150 0000 	adcs.w	r0, r0, #0
 8000286:	eb41 5104 	adc.w	r1, r1, r4, lsl #20
 800028a:	ea41 0105 	orr.w	r1, r1, r5
 800028e:	bd30      	pop	{r4, r5, pc}
 8000290:	ea5f 0c4c 	movs.w	ip, ip, lsl #1
 8000294:	4140      	adcs	r0, r0
 8000296:	eb41 0101 	adc.w	r1, r1, r1
 800029a:	3c01      	subs	r4, #1
 800029c:	bf28      	it	cs
 800029e:	f5b1 1f80 	cmpcs.w	r1, #1048576	; 0x100000
 80002a2:	d2e9      	bcs.n	8000278 <__adddf3+0x10c>
 80002a4:	f091 0f00 	teq	r1, #0
 80002a8:	bf04      	itt	eq
 80002aa:	4601      	moveq	r1, r0
 80002ac:	2000      	moveq	r0, #0
 80002ae:	fab1 f381 	clz	r3, r1
 80002b2:	bf08      	it	eq
 80002b4:	3320      	addeq	r3, #32
 80002b6:	f1a3 030b 	sub.w	r3, r3, #11
 80002ba:	f1b3 0220 	subs.w	r2, r3, #32
 80002be:	da0c      	bge.n	80002da <__adddf3+0x16e>
 80002c0:	320c      	adds	r2, #12
 80002c2:	dd08      	ble.n	80002d6 <__adddf3+0x16a>
 80002c4:	f102 0c14 	add.w	ip, r2, #20
 80002c8:	f1c2 020c 	rsb	r2, r2, #12
 80002cc:	fa01 f00c 	lsl.w	r0, r1, ip
 80002d0:	fa21 f102 	lsr.w	r1, r1, r2
 80002d4:	e00c      	b.n	80002f0 <__adddf3+0x184>
 80002d6:	f102 0214 	add.w	r2, r2, #20
 80002da:	bfd8      	it	le
 80002dc:	f1c2 0c20 	rsble	ip, r2, #32
 80002e0:	fa01 f102 	lsl.w	r1, r1, r2
 80002e4:	fa20 fc0c 	lsr.w	ip, r0, ip
 80002e8:	bfdc      	itt	le
 80002ea:	ea41 010c 	orrle.w	r1, r1, ip
 80002ee:	4090      	lslle	r0, r2
 80002f0:	1ae4      	subs	r4, r4, r3
 80002f2:	bfa2      	ittt	ge
 80002f4:	eb01 5104 	addge.w	r1, r1, r4, lsl #20
 80002f8:	4329      	orrge	r1, r5
 80002fa:	bd30      	popge	{r4, r5, pc}
 80002fc:	ea6f 0404 	mvn.w	r4, r4
 8000300:	3c1f      	subs	r4, #31
 8000302:	da1c      	bge.n	800033e <__adddf3+0x1d2>
 8000304:	340c      	adds	r4, #12
 8000306:	dc0e      	bgt.n	8000326 <__adddf3+0x1ba>
 8000308:	f104 0414 	add.w	r4, r4, #20
 800030c:	f1c4 0220 	rsb	r2, r4, #32
 8000310:	fa20 f004 	lsr.w	r0, r0, r4
 8000314:	fa01 f302 	lsl.w	r3, r1, r2
 8000318:	ea40 0003 	orr.w	r0, r0, r3
 800031c:	fa21 f304 	lsr.w	r3, r1, r4
 8000320:	ea45 0103 	orr.w	r1, r5, r3
 8000324:	bd30      	pop	{r4, r5, pc}
 8000326:	f1c4 040c 	rsb	r4, r4, #12
 800032a:	f1c4 0220 	rsb	r2, r4, #32
 800032e:	fa20 f002 	lsr.w	r0, r0, r2
 8000332:	fa01 f304 	lsl.w	r3, r1, r4
 8000336:	ea40 0003 	orr.w	r0, r0, r3
 800033a:	4629      	mov	r1, r5
 800033c:	bd30      	pop	{r4, r5, pc}
 800033e:	fa21 f004 	lsr.w	r0, r1, r4
 8000342:	4629      	mov	r1, r5
 8000344:	bd30      	pop	{r4, r5, pc}
 8000346:	f094 0f00 	teq	r4, #0
 800034a:	f483 1380 	eor.w	r3, r3, #1048576	; 0x100000
 800034e:	bf06      	itte	eq
 8000350:	f481 1180 	eoreq.w	r1, r1, #1048576	; 0x100000
 8000354:	3401      	addeq	r4, #1
 8000356:	3d01      	subne	r5, #1
 8000358:	e74e      	b.n	80001f8 <__adddf3+0x8c>
 800035a:	ea7f 5c64 	mvns.w	ip, r4, asr #21
 800035e:	bf18      	it	ne
 8000360:	ea7f 5c65 	mvnsne.w	ip, r5, asr #21
 8000364:	d029      	beq.n	80003ba <__adddf3+0x24e>
 8000366:	ea94 0f05 	teq	r4, r5
 800036a:	bf08      	it	eq
 800036c:	ea90 0f02 	teqeq	r0, r2
 8000370:	d005      	beq.n	800037e <__adddf3+0x212>
 8000372:	ea54 0c00 	orrs.w	ip, r4, r0
 8000376:	bf04      	itt	eq
 8000378:	4619      	moveq	r1, r3
 800037a:	4610      	moveq	r0, r2
 800037c:	bd30      	pop	{r4, r5, pc}
 800037e:	ea91 0f03 	teq	r1, r3
 8000382:	bf1e      	ittt	ne
 8000384:	2100      	movne	r1, #0
 8000386:	2000      	movne	r0, #0
 8000388:	bd30      	popne	{r4, r5, pc}
 800038a:	ea5f 5c54 	movs.w	ip, r4, lsr #21
 800038e:	d105      	bne.n	800039c <__adddf3+0x230>
 8000390:	0040      	lsls	r0, r0, #1
 8000392:	4149      	adcs	r1, r1
 8000394:	bf28      	it	cs
 8000396:	f041 4100 	orrcs.w	r1, r1, #2147483648	; 0x80000000
 800039a:	bd30      	pop	{r4, r5, pc}
 800039c:	f514 0480 	adds.w	r4, r4, #4194304	; 0x400000
 80003a0:	bf3c      	itt	cc
 80003a2:	f501 1180 	addcc.w	r1, r1, #1048576	; 0x100000
 80003a6:	bd30      	popcc	{r4, r5, pc}
 80003a8:	f001 4500 	and.w	r5, r1, #2147483648	; 0x80000000
 80003ac:	f045 41fe 	orr.w	r1, r5, #2130706432	; 0x7f000000
 80003b0:	f441 0170 	orr.w	r1, r1, #15728640	; 0xf00000
 80003b4:	f04f 0000 	mov.w	r0, #0
 80003b8:	bd30      	pop	{r4, r5, pc}
 80003ba:	ea7f 5c64 	mvns.w	ip, r4, asr #21
 80003be:	bf1a      	itte	ne
 80003c0:	4619      	movne	r1, r3
 80003c2:	4610      	movne	r0, r2
 80003c4:	ea7f 5c65 	mvnseq.w	ip, r5, asr #21
 80003c8:	bf1c      	itt	ne
 80003ca:	460b      	movne	r3, r1
 80003cc:	4602      	movne	r2, r0
 80003ce:	ea50 3401 	orrs.w	r4, r0, r1, lsl #12
 80003d2:	bf06      	itte	eq
 80003d4:	ea52 3503 	orrseq.w	r5, r2, r3, lsl #12
 80003d8:	ea91 0f03 	teqeq	r1, r3
 80003dc:	f441 2100 	orrne.w	r1, r1, #524288	; 0x80000
 80003e0:	bd30      	pop	{r4, r5, pc}
 80003e2:	bf00      	nop

080003e4 <__aeabi_ui2d>:
 80003e4:	f090 0f00 	teq	r0, #0
 80003e8:	bf04      	itt	eq
 80003ea:	2100      	moveq	r1, #0
 80003ec:	4770      	bxeq	lr
 80003ee:	b530      	push	{r4, r5, lr}
 80003f0:	f44f 6480 	mov.w	r4, #1024	; 0x400
 80003f4:	f104 0432 	add.w	r4, r4, #50	; 0x32
 80003f8:	f04f 0500 	mov.w	r5, #0
 80003fc:	f04f 0100 	mov.w	r1, #0
 8000400:	e750      	b.n	80002a4 <__adddf3+0x138>
 8000402:	bf00      	nop

08000404 <__aeabi_i2d>:
 8000404:	f090 0f00 	teq	r0, #0
 8000408:	bf04      	itt	eq
 800040a:	2100      	moveq	r1, #0
 800040c:	4770      	bxeq	lr
 800040e:	b530      	push	{r4, r5, lr}
 8000410:	f44f 6480 	mov.w	r4, #1024	; 0x400
 8000414:	f104 0432 	add.w	r4, r4, #50	; 0x32
 8000418:	f010 4500 	ands.w	r5, r0, #2147483648	; 0x80000000
 800041c:	bf48      	it	mi
 800041e:	4240      	negmi	r0, r0
 8000420:	f04f 0100 	mov.w	r1, #0
 8000424:	e73e      	b.n	80002a4 <__adddf3+0x138>
 8000426:	bf00      	nop

08000428 <__aeabi_f2d>:
 8000428:	0042      	lsls	r2, r0, #1
 800042a:	ea4f 01e2 	mov.w	r1, r2, asr #3
 800042e:	ea4f 0131 	mov.w	r1, r1, rrx
 8000432:	ea4f 7002 	mov.w	r0, r2, lsl #28
 8000436:	bf1f      	itttt	ne
 8000438:	f012 437f 	andsne.w	r3, r2, #4278190080	; 0xff000000
 800043c:	f093 4f7f 	teqne	r3, #4278190080	; 0xff000000
 8000440:	f081 5160 	eorne.w	r1, r1, #939524096	; 0x38000000
 8000444:	4770      	bxne	lr
 8000446:	f032 427f 	bics.w	r2, r2, #4278190080	; 0xff000000
 800044a:	bf08      	it	eq
 800044c:	4770      	bxeq	lr
 800044e:	f093 4f7f 	teq	r3, #4278190080	; 0xff000000
 8000452:	bf04      	itt	eq
 8000454:	f441 2100 	orreq.w	r1, r1, #524288	; 0x80000
 8000458:	4770      	bxeq	lr
 800045a:	b530      	push	{r4, r5, lr}
 800045c:	f44f 7460 	mov.w	r4, #896	; 0x380
 8000460:	f001 4500 	and.w	r5, r1, #2147483648	; 0x80000000
 8000464:	f021 4100 	bic.w	r1, r1, #2147483648	; 0x80000000
 8000468:	e71c      	b.n	80002a4 <__adddf3+0x138>
 800046a:	bf00      	nop

0800046c <__aeabi_ul2d>:
 800046c:	ea50 0201 	orrs.w	r2, r0, r1
 8000470:	bf08      	it	eq
 8000472:	4770      	bxeq	lr
 8000474:	b530      	push	{r4, r5, lr}
 8000476:	f04f 0500 	mov.w	r5, #0
 800047a:	e00a      	b.n	8000492 <__aeabi_l2d+0x16>

0800047c <__aeabi_l2d>:
 800047c:	ea50 0201 	orrs.w	r2, r0, r1
 8000480:	bf08      	it	eq
 8000482:	4770      	bxeq	lr
 8000484:	b530      	push	{r4, r5, lr}
 8000486:	f011 4500 	ands.w	r5, r1, #2147483648	; 0x80000000
 800048a:	d502      	bpl.n	8000492 <__aeabi_l2d+0x16>
 800048c:	4240      	negs	r0, r0
 800048e:	eb61 0141 	sbc.w	r1, r1, r1, lsl #1
 8000492:	f44f 6480 	mov.w	r4, #1024	; 0x400
 8000496:	f104 0432 	add.w	r4, r4, #50	; 0x32
 800049a:	ea5f 5c91 	movs.w	ip, r1, lsr #22
 800049e:	f43f aed8 	beq.w	8000252 <__adddf3+0xe6>
 80004a2:	f04f 0203 	mov.w	r2, #3
 80004a6:	ea5f 0cdc 	movs.w	ip, ip, lsr #3
 80004aa:	bf18      	it	ne
 80004ac:	3203      	addne	r2, #3
 80004ae:	ea5f 0cdc 	movs.w	ip, ip, lsr #3
 80004b2:	bf18      	it	ne
 80004b4:	3203      	addne	r2, #3
 80004b6:	eb02 02dc 	add.w	r2, r2, ip, lsr #3
 80004ba:	f1c2 0320 	rsb	r3, r2, #32
 80004be:	fa00 fc03 	lsl.w	ip, r0, r3
 80004c2:	fa20 f002 	lsr.w	r0, r0, r2
 80004c6:	fa01 fe03 	lsl.w	lr, r1, r3
 80004ca:	ea40 000e 	orr.w	r0, r0, lr
 80004ce:	fa21 f102 	lsr.w	r1, r1, r2
 80004d2:	4414      	add	r4, r2
 80004d4:	e6bd      	b.n	8000252 <__adddf3+0xe6>
 80004d6:	bf00      	nop

080004d8 <__aeabi_dmul>:
 80004d8:	b570      	push	{r4, r5, r6, lr}
 80004da:	f04f 0cff 	mov.w	ip, #255	; 0xff
 80004de:	f44c 6ce0 	orr.w	ip, ip, #1792	; 0x700
 80004e2:	ea1c 5411 	ands.w	r4, ip, r1, lsr #20
 80004e6:	bf1d      	ittte	ne
 80004e8:	ea1c 5513 	andsne.w	r5, ip, r3, lsr #20
 80004ec:	ea94 0f0c 	teqne	r4, ip
 80004f0:	ea95 0f0c 	teqne	r5, ip
 80004f4:	f000 f8de 	bleq	80006b4 <__aeabi_dmul+0x1dc>
 80004f8:	442c      	add	r4, r5
 80004fa:	ea81 0603 	eor.w	r6, r1, r3
 80004fe:	ea21 514c 	bic.w	r1, r1, ip, lsl #21
 8000502:	ea23 534c 	bic.w	r3, r3, ip, lsl #21
 8000506:	ea50 3501 	orrs.w	r5, r0, r1, lsl #12
 800050a:	bf18      	it	ne
 800050c:	ea52 3503 	orrsne.w	r5, r2, r3, lsl #12
 8000510:	f441 1180 	orr.w	r1, r1, #1048576	; 0x100000
 8000514:	f443 1380 	orr.w	r3, r3, #1048576	; 0x100000
 8000518:	d038      	beq.n	800058c <__aeabi_dmul+0xb4>
 800051a:	fba0 ce02 	umull	ip, lr, r0, r2
 800051e:	f04f 0500 	mov.w	r5, #0
 8000522:	fbe1 e502 	umlal	lr, r5, r1, r2
 8000526:	f006 4200 	and.w	r2, r6, #2147483648	; 0x80000000
 800052a:	fbe0 e503 	umlal	lr, r5, r0, r3
 800052e:	f04f 0600 	mov.w	r6, #0
 8000532:	fbe1 5603 	umlal	r5, r6, r1, r3
 8000536:	f09c 0f00 	teq	ip, #0
 800053a:	bf18      	it	ne
 800053c:	f04e 0e01 	orrne.w	lr, lr, #1
 8000540:	f1a4 04ff 	sub.w	r4, r4, #255	; 0xff
 8000544:	f5b6 7f00 	cmp.w	r6, #512	; 0x200
 8000548:	f564 7440 	sbc.w	r4, r4, #768	; 0x300
 800054c:	d204      	bcs.n	8000558 <__aeabi_dmul+0x80>
 800054e:	ea5f 0e4e 	movs.w	lr, lr, lsl #1
 8000552:	416d      	adcs	r5, r5
 8000554:	eb46 0606 	adc.w	r6, r6, r6
 8000558:	ea42 21c6 	orr.w	r1, r2, r6, lsl #11
 800055c:	ea41 5155 	orr.w	r1, r1, r5, lsr #21
 8000560:	ea4f 20c5 	mov.w	r0, r5, lsl #11
 8000564:	ea40 505e 	orr.w	r0, r0, lr, lsr #21
 8000568:	ea4f 2ece 	mov.w	lr, lr, lsl #11
 800056c:	f1b4 0cfd 	subs.w	ip, r4, #253	; 0xfd
 8000570:	bf88      	it	hi
 8000572:	f5bc 6fe0 	cmphi.w	ip, #1792	; 0x700
 8000576:	d81e      	bhi.n	80005b6 <__aeabi_dmul+0xde>
 8000578:	f1be 4f00 	cmp.w	lr, #2147483648	; 0x80000000
 800057c:	bf08      	it	eq
 800057e:	ea5f 0e50 	movseq.w	lr, r0, lsr #1
 8000582:	f150 0000 	adcs.w	r0, r0, #0
 8000586:	eb41 5104 	adc.w	r1, r1, r4, lsl #20
 800058a:	bd70      	pop	{r4, r5, r6, pc}
 800058c:	f006 4600 	and.w	r6, r6, #2147483648	; 0x80000000
 8000590:	ea46 0101 	orr.w	r1, r6, r1
 8000594:	ea40 0002 	orr.w	r0, r0, r2
 8000598:	ea81 0103 	eor.w	r1, r1, r3
 800059c:	ebb4 045c 	subs.w	r4, r4, ip, lsr #1
 80005a0:	bfc2      	ittt	gt
 80005a2:	ebd4 050c 	rsbsgt	r5, r4, ip
 80005a6:	ea41 5104 	orrgt.w	r1, r1, r4, lsl #20
 80005aa:	bd70      	popgt	{r4, r5, r6, pc}
 80005ac:	f441 1180 	orr.w	r1, r1, #1048576	; 0x100000
 80005b0:	f04f 0e00 	mov.w	lr, #0
 80005b4:	3c01      	subs	r4, #1
 80005b6:	f300 80ab 	bgt.w	8000710 <__aeabi_dmul+0x238>
 80005ba:	f114 0f36 	cmn.w	r4, #54	; 0x36
 80005be:	bfde      	ittt	le
 80005c0:	2000      	movle	r0, #0
 80005c2:	f001 4100 	andle.w	r1, r1, #2147483648	; 0x80000000
 80005c6:	bd70      	pople	{r4, r5, r6, pc}
 80005c8:	f1c4 0400 	rsb	r4, r4, #0
 80005cc:	3c20      	subs	r4, #32
 80005ce:	da35      	bge.n	800063c <__aeabi_dmul+0x164>
 80005d0:	340c      	adds	r4, #12
 80005d2:	dc1b      	bgt.n	800060c <__aeabi_dmul+0x134>
 80005d4:	f104 0414 	add.w	r4, r4, #20
 80005d8:	f1c4 0520 	rsb	r5, r4, #32
 80005dc:	fa00 f305 	lsl.w	r3, r0, r5
 80005e0:	fa20 f004 	lsr.w	r0, r0, r4
 80005e4:	fa01 f205 	lsl.w	r2, r1, r5
 80005e8:	ea40 0002 	orr.w	r0, r0, r2
 80005ec:	f001 4200 	and.w	r2, r1, #2147483648	; 0x80000000
 80005f0:	f021 4100 	bic.w	r1, r1, #2147483648	; 0x80000000
 80005f4:	eb10 70d3 	adds.w	r0, r0, r3, lsr #31
 80005f8:	fa21 f604 	lsr.w	r6, r1, r4
 80005fc:	eb42 0106 	adc.w	r1, r2, r6
 8000600:	ea5e 0e43 	orrs.w	lr, lr, r3, lsl #1
 8000604:	bf08      	it	eq
 8000606:	ea20 70d3 	biceq.w	r0, r0, r3, lsr #31
 800060a:	bd70      	pop	{r4, r5, r6, pc}
 800060c:	f1c4 040c 	rsb	r4, r4, #12
 8000610:	f1c4 0520 	rsb	r5, r4, #32
 8000614:	fa00 f304 	lsl.w	r3, r0, r4
 8000618:	fa20 f005 	lsr.w	r0, r0, r5
 800061c:	fa01 f204 	lsl.w	r2, r1, r4
 8000620:	ea40 0002 	orr.w	r0, r0, r2
 8000624:	f001 4100 	and.w	r1, r1, #2147483648	; 0x80000000
 8000628:	eb10 70d3 	adds.w	r0, r0, r3, lsr #31
 800062c:	f141 0100 	adc.w	r1, r1, #0
 8000630:	ea5e 0e43 	orrs.w	lr, lr, r3, lsl #1
 8000634:	bf08      	it	eq
 8000636:	ea20 70d3 	biceq.w	r0, r0, r3, lsr #31
 800063a:	bd70      	pop	{r4, r5, r6, pc}
 800063c:	f1c4 0520 	rsb	r5, r4, #32
 8000640:	fa00 f205 	lsl.w	r2, r0, r5
 8000644:	ea4e 0e02 	orr.w	lr, lr, r2
 8000648:	fa20 f304 	lsr.w	r3, r0, r4
 800064c:	fa01 f205 	lsl.w	r2, r1, r5
 8000650:	ea43 0302 	orr.w	r3, r3, r2
 8000654:	fa21 f004 	lsr.w	r0, r1, r4
 8000658:	f001 4100 	and.w	r1, r1, #2147483648	; 0x80000000
 800065c:	fa21 f204 	lsr.w	r2, r1, r4
 8000660:	ea20 0002 	bic.w	r0, r0, r2
 8000664:	eb00 70d3 	add.w	r0, r0, r3, lsr #31
 8000668:	ea5e 0e43 	orrs.w	lr, lr, r3, lsl #1
 800066c:	bf08      	it	eq
 800066e:	ea20 70d3 	biceq.w	r0, r0, r3, lsr #31
 8000672:	bd70      	pop	{r4, r5, r6, pc}
 8000674:	f094 0f00 	teq	r4, #0
 8000678:	d10f      	bne.n	800069a <__aeabi_dmul+0x1c2>
 800067a:	f001 4600 	and.w	r6, r1, #2147483648	; 0x80000000
 800067e:	0040      	lsls	r0, r0, #1
 8000680:	eb41 0101 	adc.w	r1, r1, r1
 8000684:	f411 1f80 	tst.w	r1, #1048576	; 0x100000
 8000688:	bf08      	it	eq
 800068a:	3c01      	subeq	r4, #1
 800068c:	d0f7      	beq.n	800067e <__aeabi_dmul+0x1a6>
 800068e:	ea41 0106 	orr.w	r1, r1, r6
 8000692:	f095 0f00 	teq	r5, #0
 8000696:	bf18      	it	ne
 8000698:	4770      	bxne	lr
 800069a:	f003 4600 	and.w	r6, r3, #2147483648	; 0x80000000
 800069e:	0052      	lsls	r2, r2, #1
 80006a0:	eb43 0303 	adc.w	r3, r3, r3
 80006a4:	f413 1f80 	tst.w	r3, #1048576	; 0x100000
 80006a8:	bf08      	it	eq
 80006aa:	3d01      	subeq	r5, #1
 80006ac:	d0f7      	beq.n	800069e <__aeabi_dmul+0x1c6>
 80006ae:	ea43 0306 	orr.w	r3, r3, r6
 80006b2:	4770      	bx	lr
 80006b4:	ea94 0f0c 	teq	r4, ip
 80006b8:	ea0c 5513 	and.w	r5, ip, r3, lsr #20
 80006bc:	bf18      	it	ne
 80006be:	ea95 0f0c 	teqne	r5, ip
 80006c2:	d00c      	beq.n	80006de <__aeabi_dmul+0x206>
 80006c4:	ea50 0641 	orrs.w	r6, r0, r1, lsl #1
 80006c8:	bf18      	it	ne
 80006ca:	ea52 0643 	orrsne.w	r6, r2, r3, lsl #1
 80006ce:	d1d1      	bne.n	8000674 <__aeabi_dmul+0x19c>
 80006d0:	ea81 0103 	eor.w	r1, r1, r3
 80006d4:	f001 4100 	and.w	r1, r1, #2147483648	; 0x80000000
 80006d8:	f04f 0000 	mov.w	r0, #0
 80006dc:	bd70      	pop	{r4, r5, r6, pc}
 80006de:	ea50 0641 	orrs.w	r6, r0, r1, lsl #1
 80006e2:	bf06      	itte	eq
 80006e4:	4610      	moveq	r0, r2
 80006e6:	4619      	moveq	r1, r3
 80006e8:	ea52 0643 	orrsne.w	r6, r2, r3, lsl #1
 80006ec:	d019      	beq.n	8000722 <__aeabi_dmul+0x24a>
 80006ee:	ea94 0f0c 	teq	r4, ip
 80006f2:	d102      	bne.n	80006fa <__aeabi_dmul+0x222>
 80006f4:	ea50 3601 	orrs.w	r6, r0, r1, lsl #12
 80006f8:	d113      	bne.n	8000722 <__aeabi_dmul+0x24a>
 80006fa:	ea95 0f0c 	teq	r5, ip
 80006fe:	d105      	bne.n	800070c <__aeabi_dmul+0x234>
 8000700:	ea52 3603 	orrs.w	r6, r2, r3, lsl #12
 8000704:	bf1c      	itt	ne
 8000706:	4610      	movne	r0, r2
 8000708:	4619      	movne	r1, r3
 800070a:	d10a      	bne.n	8000722 <__aeabi_dmul+0x24a>
 800070c:	ea81 0103 	eor.w	r1, r1, r3
 8000710:	f001 4100 	and.w	r1, r1, #2147483648	; 0x80000000
 8000714:	f041 41fe 	orr.w	r1, r1, #2130706432	; 0x7f000000
 8000718:	f441 0170 	orr.w	r1, r1, #15728640	; 0xf00000
 800071c:	f04f 0000 	mov.w	r0, #0
 8000720:	bd70      	pop	{r4, r5, r6, pc}
 8000722:	f041 41fe 	orr.w	r1, r1, #2130706432	; 0x7f000000
 8000726:	f441 0178 	orr.w	r1, r1, #16252928	; 0xf80000
 800072a:	bd70      	pop	{r4, r5, r6, pc}

0800072c <__aeabi_ddiv>:
 800072c:	b570      	push	{r4, r5, r6, lr}
 800072e:	f04f 0cff 	mov.w	ip, #255	; 0xff
 8000732:	f44c 6ce0 	orr.w	ip, ip, #1792	; 0x700
 8000736:	ea1c 5411 	ands.w	r4, ip, r1, lsr #20
 800073a:	bf1d      	ittte	ne
 800073c:	ea1c 5513 	andsne.w	r5, ip, r3, lsr #20
 8000740:	ea94 0f0c 	teqne	r4, ip
 8000744:	ea95 0f0c 	teqne	r5, ip
 8000748:	f000 f8a7 	bleq	800089a <__aeabi_ddiv+0x16e>
 800074c:	eba4 0405 	sub.w	r4, r4, r5
 8000750:	ea81 0e03 	eor.w	lr, r1, r3
 8000754:	ea52 3503 	orrs.w	r5, r2, r3, lsl #12
 8000758:	ea4f 3101 	mov.w	r1, r1, lsl #12
 800075c:	f000 8088 	beq.w	8000870 <__aeabi_ddiv+0x144>
 8000760:	ea4f 3303 	mov.w	r3, r3, lsl #12
 8000764:	f04f 5580 	mov.w	r5, #268435456	; 0x10000000
 8000768:	ea45 1313 	orr.w	r3, r5, r3, lsr #4
 800076c:	ea43 6312 	orr.w	r3, r3, r2, lsr #24
 8000770:	ea4f 2202 	mov.w	r2, r2, lsl #8
 8000774:	ea45 1511 	orr.w	r5, r5, r1, lsr #4
 8000778:	ea45 6510 	orr.w	r5, r5, r0, lsr #24
 800077c:	ea4f 2600 	mov.w	r6, r0, lsl #8
 8000780:	f00e 4100 	and.w	r1, lr, #2147483648	; 0x80000000
 8000784:	429d      	cmp	r5, r3
 8000786:	bf08      	it	eq
 8000788:	4296      	cmpeq	r6, r2
 800078a:	f144 04fd 	adc.w	r4, r4, #253	; 0xfd
 800078e:	f504 7440 	add.w	r4, r4, #768	; 0x300
 8000792:	d202      	bcs.n	800079a <__aeabi_ddiv+0x6e>
 8000794:	085b      	lsrs	r3, r3, #1
 8000796:	ea4f 0232 	mov.w	r2, r2, rrx
 800079a:	1ab6      	subs	r6, r6, r2
 800079c:	eb65 0503 	sbc.w	r5, r5, r3
 80007a0:	085b      	lsrs	r3, r3, #1
 80007a2:	ea4f 0232 	mov.w	r2, r2, rrx
 80007a6:	f44f 1080 	mov.w	r0, #1048576	; 0x100000
 80007aa:	f44f 2c00 	mov.w	ip, #524288	; 0x80000
 80007ae:	ebb6 0e02 	subs.w	lr, r6, r2
 80007b2:	eb75 0e03 	sbcs.w	lr, r5, r3
 80007b6:	bf22      	ittt	cs
 80007b8:	1ab6      	subcs	r6, r6, r2
 80007ba:	4675      	movcs	r5, lr
 80007bc:	ea40 000c 	orrcs.w	r0, r0, ip
 80007c0:	085b      	lsrs	r3, r3, #1
 80007c2:	ea4f 0232 	mov.w	r2, r2, rrx
 80007c6:	ebb6 0e02 	subs.w	lr, r6, r2
 80007ca:	eb75 0e03 	sbcs.w	lr, r5, r3
 80007ce:	bf22      	ittt	cs
 80007d0:	1ab6      	subcs	r6, r6, r2
 80007d2:	4675      	movcs	r5, lr
 80007d4:	ea40 005c 	orrcs.w	r0, r0, ip, lsr #1
 80007d8:	085b      	lsrs	r3, r3, #1
 80007da:	ea4f 0232 	mov.w	r2, r2, rrx
 80007de:	ebb6 0e02 	subs.w	lr, r6, r2
 80007e2:	eb75 0e03 	sbcs.w	lr, r5, r3
 80007e6:	bf22      	ittt	cs
 80007e8:	1ab6      	subcs	r6, r6, r2
 80007ea:	4675      	movcs	r5, lr
 80007ec:	ea40 009c 	orrcs.w	r0, r0, ip, lsr #2
 80007f0:	085b      	lsrs	r3, r3, #1
 80007f2:	ea4f 0232 	mov.w	r2, r2, rrx
 80007f6:	ebb6 0e02 	subs.w	lr, r6, r2
 80007fa:	eb75 0e03 	sbcs.w	lr, r5, r3
 80007fe:	bf22      	ittt	cs
 8000800:	1ab6      	subcs	r6, r6, r2
 8000802:	4675      	movcs	r5, lr
 8000804:	ea40 00dc 	orrcs.w	r0, r0, ip, lsr #3
 8000808:	ea55 0e06 	orrs.w	lr, r5, r6
 800080c:	d018      	beq.n	8000840 <__aeabi_ddiv+0x114>
 800080e:	ea4f 1505 	mov.w	r5, r5, lsl #4
 8000812:	ea45 7516 	orr.w	r5, r5, r6, lsr #28
 8000816:	ea4f 1606 	mov.w	r6, r6, lsl #4
 800081a:	ea4f 03c3 	mov.w	r3, r3, lsl #3
 800081e:	ea43 7352 	orr.w	r3, r3, r2, lsr #29
 8000822:	ea4f 02c2 	mov.w	r2, r2, lsl #3
 8000826:	ea5f 1c1c 	movs.w	ip, ip, lsr #4
 800082a:	d1c0      	bne.n	80007ae <__aeabi_ddiv+0x82>
 800082c:	f411 1f80 	tst.w	r1, #1048576	; 0x100000
 8000830:	d10b      	bne.n	800084a <__aeabi_ddiv+0x11e>
 8000832:	ea41 0100 	orr.w	r1, r1, r0
 8000836:	f04f 0000 	mov.w	r0, #0
 800083a:	f04f 4c00 	mov.w	ip, #2147483648	; 0x80000000
 800083e:	e7b6      	b.n	80007ae <__aeabi_ddiv+0x82>
 8000840:	f411 1f80 	tst.w	r1, #1048576	; 0x100000
 8000844:	bf04      	itt	eq
 8000846:	4301      	orreq	r1, r0
 8000848:	2000      	moveq	r0, #0
 800084a:	f1b4 0cfd 	subs.w	ip, r4, #253	; 0xfd
 800084e:	bf88      	it	hi
 8000850:	f5bc 6fe0 	cmphi.w	ip, #1792	; 0x700
 8000854:	f63f aeaf 	bhi.w	80005b6 <__aeabi_dmul+0xde>
 8000858:	ebb5 0c03 	subs.w	ip, r5, r3
 800085c:	bf04      	itt	eq
 800085e:	ebb6 0c02 	subseq.w	ip, r6, r2
 8000862:	ea5f 0c50 	movseq.w	ip, r0, lsr #1
 8000866:	f150 0000 	adcs.w	r0, r0, #0
 800086a:	eb41 5104 	adc.w	r1, r1, r4, lsl #20
 800086e:	bd70      	pop	{r4, r5, r6, pc}
 8000870:	f00e 4e00 	and.w	lr, lr, #2147483648	; 0x80000000
 8000874:	ea4e 3111 	orr.w	r1, lr, r1, lsr #12
 8000878:	eb14 045c 	adds.w	r4, r4, ip, lsr #1
 800087c:	bfc2      	ittt	gt
 800087e:	ebd4 050c 	rsbsgt	r5, r4, ip
 8000882:	ea41 5104 	orrgt.w	r1, r1, r4, lsl #20
 8000886:	bd70      	popgt	{r4, r5, r6, pc}
 8000888:	f441 1180 	orr.w	r1, r1, #1048576	; 0x100000
 800088c:	f04f 0e00 	mov.w	lr, #0
 8000890:	3c01      	subs	r4, #1
 8000892:	e690      	b.n	80005b6 <__aeabi_dmul+0xde>
 8000894:	ea45 0e06 	orr.w	lr, r5, r6
 8000898:	e68d      	b.n	80005b6 <__aeabi_dmul+0xde>
 800089a:	ea0c 5513 	and.w	r5, ip, r3, lsr #20
 800089e:	ea94 0f0c 	teq	r4, ip
 80008a2:	bf08      	it	eq
 80008a4:	ea95 0f0c 	teqeq	r5, ip
 80008a8:	f43f af3b 	beq.w	8000722 <__aeabi_dmul+0x24a>
 80008ac:	ea94 0f0c 	teq	r4, ip
 80008b0:	d10a      	bne.n	80008c8 <__aeabi_ddiv+0x19c>
 80008b2:	ea50 3401 	orrs.w	r4, r0, r1, lsl #12
 80008b6:	f47f af34 	bne.w	8000722 <__aeabi_dmul+0x24a>
 80008ba:	ea95 0f0c 	teq	r5, ip
 80008be:	f47f af25 	bne.w	800070c <__aeabi_dmul+0x234>
 80008c2:	4610      	mov	r0, r2
 80008c4:	4619      	mov	r1, r3
 80008c6:	e72c      	b.n	8000722 <__aeabi_dmul+0x24a>
 80008c8:	ea95 0f0c 	teq	r5, ip
 80008cc:	d106      	bne.n	80008dc <__aeabi_ddiv+0x1b0>
 80008ce:	ea52 3503 	orrs.w	r5, r2, r3, lsl #12
 80008d2:	f43f aefd 	beq.w	80006d0 <__aeabi_dmul+0x1f8>
 80008d6:	4610      	mov	r0, r2
 80008d8:	4619      	mov	r1, r3
 80008da:	e722      	b.n	8000722 <__aeabi_dmul+0x24a>
 80008dc:	ea50 0641 	orrs.w	r6, r0, r1, lsl #1
 80008e0:	bf18      	it	ne
 80008e2:	ea52 0643 	orrsne.w	r6, r2, r3, lsl #1
 80008e6:	f47f aec5 	bne.w	8000674 <__aeabi_dmul+0x19c>
 80008ea:	ea50 0441 	orrs.w	r4, r0, r1, lsl #1
 80008ee:	f47f af0d 	bne.w	800070c <__aeabi_dmul+0x234>
 80008f2:	ea52 0543 	orrs.w	r5, r2, r3, lsl #1
 80008f6:	f47f aeeb 	bne.w	80006d0 <__aeabi_dmul+0x1f8>
 80008fa:	e712      	b.n	8000722 <__aeabi_dmul+0x24a>

080008fc <__gedf2>:
 80008fc:	f04f 3cff 	mov.w	ip, #4294967295	; 0xffffffff
 8000900:	e006      	b.n	8000910 <__cmpdf2+0x4>
 8000902:	bf00      	nop

08000904 <__ledf2>:
 8000904:	f04f 0c01 	mov.w	ip, #1
 8000908:	e002      	b.n	8000910 <__cmpdf2+0x4>
 800090a:	bf00      	nop

0800090c <__cmpdf2>:
 800090c:	f04f 0c01 	mov.w	ip, #1
 8000910:	f84d cd04 	str.w	ip, [sp, #-4]!
 8000914:	ea4f 0c41 	mov.w	ip, r1, lsl #1
 8000918:	ea7f 5c6c 	mvns.w	ip, ip, asr #21
 800091c:	ea4f 0c43 	mov.w	ip, r3, lsl #1
 8000920:	bf18      	it	ne
 8000922:	ea7f 5c6c 	mvnsne.w	ip, ip, asr #21
 8000926:	d01b      	beq.n	8000960 <__cmpdf2+0x54>
 8000928:	b001      	add	sp, #4
 800092a:	ea50 0c41 	orrs.w	ip, r0, r1, lsl #1
 800092e:	bf0c      	ite	eq
 8000930:	ea52 0c43 	orrseq.w	ip, r2, r3, lsl #1
 8000934:	ea91 0f03 	teqne	r1, r3
 8000938:	bf02      	ittt	eq
 800093a:	ea90 0f02 	teqeq	r0, r2
 800093e:	2000      	moveq	r0, #0
 8000940:	4770      	bxeq	lr
 8000942:	f110 0f00 	cmn.w	r0, #0
 8000946:	ea91 0f03 	teq	r1, r3
 800094a:	bf58      	it	pl
 800094c:	4299      	cmppl	r1, r3
 800094e:	bf08      	it	eq
 8000950:	4290      	cmpeq	r0, r2
 8000952:	bf2c      	ite	cs
 8000954:	17d8      	asrcs	r0, r3, #31
 8000956:	ea6f 70e3 	mvncc.w	r0, r3, asr #31
 800095a:	f040 0001 	orr.w	r0, r0, #1
 800095e:	4770      	bx	lr
 8000960:	ea4f 0c41 	mov.w	ip, r1, lsl #1
 8000964:	ea7f 5c6c 	mvns.w	ip, ip, asr #21
 8000968:	d102      	bne.n	8000970 <__cmpdf2+0x64>
 800096a:	ea50 3c01 	orrs.w	ip, r0, r1, lsl #12
 800096e:	d107      	bne.n	8000980 <__cmpdf2+0x74>
 8000970:	ea4f 0c43 	mov.w	ip, r3, lsl #1
 8000974:	ea7f 5c6c 	mvns.w	ip, ip, asr #21
 8000978:	d1d6      	bne.n	8000928 <__cmpdf2+0x1c>
 800097a:	ea52 3c03 	orrs.w	ip, r2, r3, lsl #12
 800097e:	d0d3      	beq.n	8000928 <__cmpdf2+0x1c>
 8000980:	f85d 0b04 	ldr.w	r0, [sp], #4
 8000984:	4770      	bx	lr
 8000986:	bf00      	nop

08000988 <__aeabi_cdrcmple>:
 8000988:	4684      	mov	ip, r0
 800098a:	4610      	mov	r0, r2
 800098c:	4662      	mov	r2, ip
 800098e:	468c      	mov	ip, r1
 8000990:	4619      	mov	r1, r3
 8000992:	4663      	mov	r3, ip
 8000994:	e000      	b.n	8000998 <__aeabi_cdcmpeq>
 8000996:	bf00      	nop

08000998 <__aeabi_cdcmpeq>:
 8000998:	b501      	push	{r0, lr}
 800099a:	f7ff ffb7 	bl	800090c <__cmpdf2>
 800099e:	2800      	cmp	r0, #0
 80009a0:	bf48      	it	mi
 80009a2:	f110 0f00 	cmnmi.w	r0, #0
 80009a6:	bd01      	pop	{r0, pc}

080009a8 <__aeabi_dcmpeq>:
 80009a8:	f84d ed08 	str.w	lr, [sp, #-8]!
 80009ac:	f7ff fff4 	bl	8000998 <__aeabi_cdcmpeq>
 80009b0:	bf0c      	ite	eq
 80009b2:	2001      	moveq	r0, #1
 80009b4:	2000      	movne	r0, #0
 80009b6:	f85d fb08 	ldr.w	pc, [sp], #8
 80009ba:	bf00      	nop

080009bc <__aeabi_dcmplt>:
 80009bc:	f84d ed08 	str.w	lr, [sp, #-8]!
 80009c0:	f7ff ffea 	bl	8000998 <__aeabi_cdcmpeq>
 80009c4:	bf34      	ite	cc
 80009c6:	2001      	movcc	r0, #1
 80009c8:	2000      	movcs	r0, #0
 80009ca:	f85d fb08 	ldr.w	pc, [sp], #8
 80009ce:	bf00      	nop

080009d0 <__aeabi_dcmple>:
 80009d0:	f84d ed08 	str.w	lr, [sp, #-8]!
 80009d4:	f7ff ffe0 	bl	8000998 <__aeabi_cdcmpeq>
 80009d8:	bf94      	ite	ls
 80009da:	2001      	movls	r0, #1
 80009dc:	2000      	movhi	r0, #0
 80009de:	f85d fb08 	ldr.w	pc, [sp], #8
 80009e2:	bf00      	nop

080009e4 <__aeabi_dcmpge>:
 80009e4:	f84d ed08 	str.w	lr, [sp, #-8]!
 80009e8:	f7ff ffce 	bl	8000988 <__aeabi_cdrcmple>
 80009ec:	bf94      	ite	ls
 80009ee:	2001      	movls	r0, #1
 80009f0:	2000      	movhi	r0, #0
 80009f2:	f85d fb08 	ldr.w	pc, [sp], #8
 80009f6:	bf00      	nop

080009f8 <__aeabi_dcmpgt>:
 80009f8:	f84d ed08 	str.w	lr, [sp, #-8]!
 80009fc:	f7ff ffc4 	bl	8000988 <__aeabi_cdrcmple>
 8000a00:	bf34      	ite	cc
 8000a02:	2001      	movcc	r0, #1
 8000a04:	2000      	movcs	r0, #0
 8000a06:	f85d fb08 	ldr.w	pc, [sp], #8
 8000a0a:	bf00      	nop

08000a0c <__aeabi_dcmpun>:
 8000a0c:	ea4f 0c41 	mov.w	ip, r1, lsl #1
 8000a10:	ea7f 5c6c 	mvns.w	ip, ip, asr #21
 8000a14:	d102      	bne.n	8000a1c <__aeabi_dcmpun+0x10>
 8000a16:	ea50 3c01 	orrs.w	ip, r0, r1, lsl #12
 8000a1a:	d10a      	bne.n	8000a32 <__aeabi_dcmpun+0x26>
 8000a1c:	ea4f 0c43 	mov.w	ip, r3, lsl #1
 8000a20:	ea7f 5c6c 	mvns.w	ip, ip, asr #21
 8000a24:	d102      	bne.n	8000a2c <__aeabi_dcmpun+0x20>
 8000a26:	ea52 3c03 	orrs.w	ip, r2, r3, lsl #12
 8000a2a:	d102      	bne.n	8000a32 <__aeabi_dcmpun+0x26>
 8000a2c:	f04f 0000 	mov.w	r0, #0
 8000a30:	4770      	bx	lr
 8000a32:	f04f 0001 	mov.w	r0, #1
 8000a36:	4770      	bx	lr

08000a38 <__aeabi_d2iz>:
 8000a38:	ea4f 0241 	mov.w	r2, r1, lsl #1
 8000a3c:	f512 1200 	adds.w	r2, r2, #2097152	; 0x200000
 8000a40:	d215      	bcs.n	8000a6e <__aeabi_d2iz+0x36>
 8000a42:	d511      	bpl.n	8000a68 <__aeabi_d2iz+0x30>
 8000a44:	f46f 7378 	mvn.w	r3, #992	; 0x3e0
 8000a48:	ebb3 5262 	subs.w	r2, r3, r2, asr #21
 8000a4c:	d912      	bls.n	8000a74 <__aeabi_d2iz+0x3c>
 8000a4e:	ea4f 23c1 	mov.w	r3, r1, lsl #11
 8000a52:	f043 4300 	orr.w	r3, r3, #2147483648	; 0x80000000
 8000a56:	ea43 5350 	orr.w	r3, r3, r0, lsr #21
 8000a5a:	f011 4f00 	tst.w	r1, #2147483648	; 0x80000000
 8000a5e:	fa23 f002 	lsr.w	r0, r3, r2
 8000a62:	bf18      	it	ne
 8000a64:	4240      	negne	r0, r0
 8000a66:	4770      	bx	lr
 8000a68:	f04f 0000 	mov.w	r0, #0
 8000a6c:	4770      	bx	lr
 8000a6e:	ea50 3001 	orrs.w	r0, r0, r1, lsl #12
 8000a72:	d105      	bne.n	8000a80 <__aeabi_d2iz+0x48>
 8000a74:	f011 4000 	ands.w	r0, r1, #2147483648	; 0x80000000
 8000a78:	bf08      	it	eq
 8000a7a:	f06f 4000 	mvneq.w	r0, #2147483648	; 0x80000000
 8000a7e:	4770      	bx	lr
 8000a80:	f04f 0000 	mov.w	r0, #0
 8000a84:	4770      	bx	lr
 8000a86:	bf00      	nop

08000a88 <__aeabi_d2f>:
 8000a88:	ea4f 0241 	mov.w	r2, r1, lsl #1
 8000a8c:	f1b2 43e0 	subs.w	r3, r2, #1879048192	; 0x70000000
 8000a90:	bf24      	itt	cs
 8000a92:	f5b3 1c00 	subscs.w	ip, r3, #2097152	; 0x200000
 8000a96:	f1dc 5cfe 	rsbscs	ip, ip, #532676608	; 0x1fc00000
 8000a9a:	d90d      	bls.n	8000ab8 <__aeabi_d2f+0x30>
 8000a9c:	f001 4c00 	and.w	ip, r1, #2147483648	; 0x80000000
 8000aa0:	ea4f 02c0 	mov.w	r2, r0, lsl #3
 8000aa4:	ea4c 7050 	orr.w	r0, ip, r0, lsr #29
 8000aa8:	f1b2 4f00 	cmp.w	r2, #2147483648	; 0x80000000
 8000aac:	eb40 0083 	adc.w	r0, r0, r3, lsl #2
 8000ab0:	bf08      	it	eq
 8000ab2:	f020 0001 	biceq.w	r0, r0, #1
 8000ab6:	4770      	bx	lr
 8000ab8:	f011 4f80 	tst.w	r1, #1073741824	; 0x40000000
 8000abc:	d121      	bne.n	8000b02 <__aeabi_d2f+0x7a>
 8000abe:	f113 7238 	adds.w	r2, r3, #48234496	; 0x2e00000
 8000ac2:	bfbc      	itt	lt
 8000ac4:	f001 4000 	andlt.w	r0, r1, #2147483648	; 0x80000000
 8000ac8:	4770      	bxlt	lr
 8000aca:	f441 1180 	orr.w	r1, r1, #1048576	; 0x100000
 8000ace:	ea4f 5252 	mov.w	r2, r2, lsr #21
 8000ad2:	f1c2 0218 	rsb	r2, r2, #24
 8000ad6:	f1c2 0c20 	rsb	ip, r2, #32
 8000ada:	fa10 f30c 	lsls.w	r3, r0, ip
 8000ade:	fa20 f002 	lsr.w	r0, r0, r2
 8000ae2:	bf18      	it	ne
 8000ae4:	f040 0001 	orrne.w	r0, r0, #1
 8000ae8:	ea4f 23c1 	mov.w	r3, r1, lsl #11
 8000aec:	ea4f 23d3 	mov.w	r3, r3, lsr #11
 8000af0:	fa03 fc0c 	lsl.w	ip, r3, ip
 8000af4:	ea40 000c 	orr.w	r0, r0, ip
 8000af8:	fa23 f302 	lsr.w	r3, r3, r2
 8000afc:	ea4f 0343 	mov.w	r3, r3, lsl #1
 8000b00:	e7cc      	b.n	8000a9c <__aeabi_d2f+0x14>
 8000b02:	ea7f 5362 	mvns.w	r3, r2, asr #21
 8000b06:	d107      	bne.n	8000b18 <__aeabi_d2f+0x90>
 8000b08:	ea50 3301 	orrs.w	r3, r0, r1, lsl #12
 8000b0c:	bf1e      	ittt	ne
 8000b0e:	f04f 40fe 	movne.w	r0, #2130706432	; 0x7f000000
 8000b12:	f440 0040 	orrne.w	r0, r0, #12582912	; 0xc00000
 8000b16:	4770      	bxne	lr
 8000b18:	f001 4000 	and.w	r0, r1, #2147483648	; 0x80000000
 8000b1c:	f040 40fe 	orr.w	r0, r0, #2130706432	; 0x7f000000
 8000b20:	f440 0000 	orr.w	r0, r0, #8388608	; 0x800000
 8000b24:	4770      	bx	lr
 8000b26:	bf00      	nop

08000b28 <__aeabi_frsub>:
 8000b28:	f080 4000 	eor.w	r0, r0, #2147483648	; 0x80000000
 8000b2c:	e002      	b.n	8000b34 <__addsf3>
 8000b2e:	bf00      	nop

08000b30 <__aeabi_fsub>:
 8000b30:	f081 4100 	eor.w	r1, r1, #2147483648	; 0x80000000

08000b34 <__addsf3>:
 8000b34:	0042      	lsls	r2, r0, #1
 8000b36:	bf1f      	itttt	ne
 8000b38:	ea5f 0341 	movsne.w	r3, r1, lsl #1
 8000b3c:	ea92 0f03 	teqne	r2, r3
 8000b40:	ea7f 6c22 	mvnsne.w	ip, r2, asr #24
 8000b44:	ea7f 6c23 	mvnsne.w	ip, r3, asr #24
 8000b48:	d06a      	beq.n	8000c20 <__addsf3+0xec>
 8000b4a:	ea4f 6212 	mov.w	r2, r2, lsr #24
 8000b4e:	ebd2 6313 	rsbs	r3, r2, r3, lsr #24
 8000b52:	bfc1      	itttt	gt
 8000b54:	18d2      	addgt	r2, r2, r3
 8000b56:	4041      	eorgt	r1, r0
 8000b58:	4048      	eorgt	r0, r1
 8000b5a:	4041      	eorgt	r1, r0
 8000b5c:	bfb8      	it	lt
 8000b5e:	425b      	neglt	r3, r3
 8000b60:	2b19      	cmp	r3, #25
 8000b62:	bf88      	it	hi
 8000b64:	4770      	bxhi	lr
 8000b66:	f010 4f00 	tst.w	r0, #2147483648	; 0x80000000
 8000b6a:	f440 0000 	orr.w	r0, r0, #8388608	; 0x800000
 8000b6e:	f020 407f 	bic.w	r0, r0, #4278190080	; 0xff000000
 8000b72:	bf18      	it	ne
 8000b74:	4240      	negne	r0, r0
 8000b76:	f011 4f00 	tst.w	r1, #2147483648	; 0x80000000
 8000b7a:	f441 0100 	orr.w	r1, r1, #8388608	; 0x800000
 8000b7e:	f021 417f 	bic.w	r1, r1, #4278190080	; 0xff000000
 8000b82:	bf18      	it	ne
 8000b84:	4249      	negne	r1, r1
 8000b86:	ea92 0f03 	teq	r2, r3
 8000b8a:	d03f      	beq.n	8000c0c <__addsf3+0xd8>
 8000b8c:	f1a2 0201 	sub.w	r2, r2, #1
 8000b90:	fa41 fc03 	asr.w	ip, r1, r3
 8000b94:	eb10 000c 	adds.w	r0, r0, ip
 8000b98:	f1c3 0320 	rsb	r3, r3, #32
 8000b9c:	fa01 f103 	lsl.w	r1, r1, r3
 8000ba0:	f000 4300 	and.w	r3, r0, #2147483648	; 0x80000000
 8000ba4:	d502      	bpl.n	8000bac <__addsf3+0x78>
 8000ba6:	4249      	negs	r1, r1
 8000ba8:	eb60 0040 	sbc.w	r0, r0, r0, lsl #1
 8000bac:	f5b0 0f00 	cmp.w	r0, #8388608	; 0x800000
 8000bb0:	d313      	bcc.n	8000bda <__addsf3+0xa6>
 8000bb2:	f1b0 7f80 	cmp.w	r0, #16777216	; 0x1000000
 8000bb6:	d306      	bcc.n	8000bc6 <__addsf3+0x92>
 8000bb8:	0840      	lsrs	r0, r0, #1
 8000bba:	ea4f 0131 	mov.w	r1, r1, rrx
 8000bbe:	f102 0201 	add.w	r2, r2, #1
 8000bc2:	2afe      	cmp	r2, #254	; 0xfe
 8000bc4:	d251      	bcs.n	8000c6a <__addsf3+0x136>
 8000bc6:	f1b1 4f00 	cmp.w	r1, #2147483648	; 0x80000000
 8000bca:	eb40 50c2 	adc.w	r0, r0, r2, lsl #23
 8000bce:	bf08      	it	eq
 8000bd0:	f020 0001 	biceq.w	r0, r0, #1
 8000bd4:	ea40 0003 	orr.w	r0, r0, r3
 8000bd8:	4770      	bx	lr
 8000bda:	0049      	lsls	r1, r1, #1
 8000bdc:	eb40 0000 	adc.w	r0, r0, r0
 8000be0:	3a01      	subs	r2, #1
 8000be2:	bf28      	it	cs
 8000be4:	f5b0 0f00 	cmpcs.w	r0, #8388608	; 0x800000
 8000be8:	d2ed      	bcs.n	8000bc6 <__addsf3+0x92>
 8000bea:	fab0 fc80 	clz	ip, r0
 8000bee:	f1ac 0c08 	sub.w	ip, ip, #8
 8000bf2:	ebb2 020c 	subs.w	r2, r2, ip
 8000bf6:	fa00 f00c 	lsl.w	r0, r0, ip
 8000bfa:	bfaa      	itet	ge
 8000bfc:	eb00 50c2 	addge.w	r0, r0, r2, lsl #23
 8000c00:	4252      	neglt	r2, r2
 8000c02:	4318      	orrge	r0, r3
 8000c04:	bfbc      	itt	lt
 8000c06:	40d0      	lsrlt	r0, r2
 8000c08:	4318      	orrlt	r0, r3
 8000c0a:	4770      	bx	lr
 8000c0c:	f092 0f00 	teq	r2, #0
 8000c10:	f481 0100 	eor.w	r1, r1, #8388608	; 0x800000
 8000c14:	bf06      	itte	eq
 8000c16:	f480 0000 	eoreq.w	r0, r0, #8388608	; 0x800000
 8000c1a:	3201      	addeq	r2, #1
 8000c1c:	3b01      	subne	r3, #1
 8000c1e:	e7b5      	b.n	8000b8c <__addsf3+0x58>
 8000c20:	ea4f 0341 	mov.w	r3, r1, lsl #1
 8000c24:	ea7f 6c22 	mvns.w	ip, r2, asr #24
 8000c28:	bf18      	it	ne
 8000c2a:	ea7f 6c23 	mvnsne.w	ip, r3, asr #24
 8000c2e:	d021      	beq.n	8000c74 <__addsf3+0x140>
 8000c30:	ea92 0f03 	teq	r2, r3
 8000c34:	d004      	beq.n	8000c40 <__addsf3+0x10c>
 8000c36:	f092 0f00 	teq	r2, #0
 8000c3a:	bf08      	it	eq
 8000c3c:	4608      	moveq	r0, r1
 8000c3e:	4770      	bx	lr
 8000c40:	ea90 0f01 	teq	r0, r1
 8000c44:	bf1c      	itt	ne
 8000c46:	2000      	movne	r0, #0
 8000c48:	4770      	bxne	lr
 8000c4a:	f012 4f7f 	tst.w	r2, #4278190080	; 0xff000000
 8000c4e:	d104      	bne.n	8000c5a <__addsf3+0x126>
 8000c50:	0040      	lsls	r0, r0, #1
 8000c52:	bf28      	it	cs
 8000c54:	f040 4000 	orrcs.w	r0, r0, #2147483648	; 0x80000000
 8000c58:	4770      	bx	lr
 8000c5a:	f112 7200 	adds.w	r2, r2, #33554432	; 0x2000000
 8000c5e:	bf3c      	itt	cc
 8000c60:	f500 0000 	addcc.w	r0, r0, #8388608	; 0x800000
 8000c64:	4770      	bxcc	lr
 8000c66:	f000 4300 	and.w	r3, r0, #2147483648	; 0x80000000
 8000c6a:	f043 40fe 	orr.w	r0, r3, #2130706432	; 0x7f000000
 8000c6e:	f440 0000 	orr.w	r0, r0, #8388608	; 0x800000
 8000c72:	4770      	bx	lr
 8000c74:	ea7f 6222 	mvns.w	r2, r2, asr #24
 8000c78:	bf16      	itet	ne
 8000c7a:	4608      	movne	r0, r1
 8000c7c:	ea7f 6323 	mvnseq.w	r3, r3, asr #24
 8000c80:	4601      	movne	r1, r0
 8000c82:	0242      	lsls	r2, r0, #9
 8000c84:	bf06      	itte	eq
 8000c86:	ea5f 2341 	movseq.w	r3, r1, lsl #9
 8000c8a:	ea90 0f01 	teqeq	r0, r1
 8000c8e:	f440 0080 	orrne.w	r0, r0, #4194304	; 0x400000
 8000c92:	4770      	bx	lr

08000c94 <__aeabi_ui2f>:
 8000c94:	f04f 0300 	mov.w	r3, #0
 8000c98:	e004      	b.n	8000ca4 <__aeabi_i2f+0x8>
 8000c9a:	bf00      	nop

08000c9c <__aeabi_i2f>:
 8000c9c:	f010 4300 	ands.w	r3, r0, #2147483648	; 0x80000000
 8000ca0:	bf48      	it	mi
 8000ca2:	4240      	negmi	r0, r0
 8000ca4:	ea5f 0c00 	movs.w	ip, r0
 8000ca8:	bf08      	it	eq
 8000caa:	4770      	bxeq	lr
 8000cac:	f043 4396 	orr.w	r3, r3, #1258291200	; 0x4b000000
 8000cb0:	4601      	mov	r1, r0
 8000cb2:	f04f 0000 	mov.w	r0, #0
 8000cb6:	e01c      	b.n	8000cf2 <__aeabi_l2f+0x2a>

08000cb8 <__aeabi_ul2f>:
 8000cb8:	ea50 0201 	orrs.w	r2, r0, r1
 8000cbc:	bf08      	it	eq
 8000cbe:	4770      	bxeq	lr
 8000cc0:	f04f 0300 	mov.w	r3, #0
 8000cc4:	e00a      	b.n	8000cdc <__aeabi_l2f+0x14>
 8000cc6:	bf00      	nop

08000cc8 <__aeabi_l2f>:
 8000cc8:	ea50 0201 	orrs.w	r2, r0, r1
 8000ccc:	bf08      	it	eq
 8000cce:	4770      	bxeq	lr
 8000cd0:	f011 4300 	ands.w	r3, r1, #2147483648	; 0x80000000
 8000cd4:	d502      	bpl.n	8000cdc <__aeabi_l2f+0x14>
 8000cd6:	4240      	negs	r0, r0
 8000cd8:	eb61 0141 	sbc.w	r1, r1, r1, lsl #1
 8000cdc:	ea5f 0c01 	movs.w	ip, r1
 8000ce0:	bf02      	ittt	eq
 8000ce2:	4684      	moveq	ip, r0
 8000ce4:	4601      	moveq	r1, r0
 8000ce6:	2000      	moveq	r0, #0
 8000ce8:	f043 43b6 	orr.w	r3, r3, #1526726656	; 0x5b000000
 8000cec:	bf08      	it	eq
 8000cee:	f1a3 5380 	subeq.w	r3, r3, #268435456	; 0x10000000
 8000cf2:	f5a3 0300 	sub.w	r3, r3, #8388608	; 0x800000
 8000cf6:	fabc f28c 	clz	r2, ip
 8000cfa:	3a08      	subs	r2, #8
 8000cfc:	eba3 53c2 	sub.w	r3, r3, r2, lsl #23
 8000d00:	db10      	blt.n	8000d24 <__aeabi_l2f+0x5c>
 8000d02:	fa01 fc02 	lsl.w	ip, r1, r2
 8000d06:	4463      	add	r3, ip
 8000d08:	fa00 fc02 	lsl.w	ip, r0, r2
 8000d0c:	f1c2 0220 	rsb	r2, r2, #32
 8000d10:	f1bc 4f00 	cmp.w	ip, #2147483648	; 0x80000000
 8000d14:	fa20 f202 	lsr.w	r2, r0, r2
 8000d18:	eb43 0002 	adc.w	r0, r3, r2
 8000d1c:	bf08      	it	eq
 8000d1e:	f020 0001 	biceq.w	r0, r0, #1
 8000d22:	4770      	bx	lr
 8000d24:	f102 0220 	add.w	r2, r2, #32
 8000d28:	fa01 fc02 	lsl.w	ip, r1, r2
 8000d2c:	f1c2 0220 	rsb	r2, r2, #32
 8000d30:	ea50 004c 	orrs.w	r0, r0, ip, lsl #1
 8000d34:	fa21 f202 	lsr.w	r2, r1, r2
 8000d38:	eb43 0002 	adc.w	r0, r3, r2
 8000d3c:	bf08      	it	eq
 8000d3e:	ea20 70dc 	biceq.w	r0, r0, ip, lsr #31
 8000d42:	4770      	bx	lr

08000d44 <__aeabi_fmul>:
 8000d44:	f04f 0cff 	mov.w	ip, #255	; 0xff
 8000d48:	ea1c 52d0 	ands.w	r2, ip, r0, lsr #23
 8000d4c:	bf1e      	ittt	ne
 8000d4e:	ea1c 53d1 	andsne.w	r3, ip, r1, lsr #23
 8000d52:	ea92 0f0c 	teqne	r2, ip
 8000d56:	ea93 0f0c 	teqne	r3, ip
 8000d5a:	d06f      	beq.n	8000e3c <__aeabi_fmul+0xf8>
 8000d5c:	441a      	add	r2, r3
 8000d5e:	ea80 0c01 	eor.w	ip, r0, r1
 8000d62:	0240      	lsls	r0, r0, #9
 8000d64:	bf18      	it	ne
 8000d66:	ea5f 2141 	movsne.w	r1, r1, lsl #9
 8000d6a:	d01e      	beq.n	8000daa <__aeabi_fmul+0x66>
 8000d6c:	f04f 6300 	mov.w	r3, #134217728	; 0x8000000
 8000d70:	ea43 1050 	orr.w	r0, r3, r0, lsr #5
 8000d74:	ea43 1151 	orr.w	r1, r3, r1, lsr #5
 8000d78:	fba0 3101 	umull	r3, r1, r0, r1
 8000d7c:	f00c 4000 	and.w	r0, ip, #2147483648	; 0x80000000
 8000d80:	f5b1 0f00 	cmp.w	r1, #8388608	; 0x800000
 8000d84:	bf3e      	ittt	cc
 8000d86:	0049      	lslcc	r1, r1, #1
 8000d88:	ea41 71d3 	orrcc.w	r1, r1, r3, lsr #31
 8000d8c:	005b      	lslcc	r3, r3, #1
 8000d8e:	ea40 0001 	orr.w	r0, r0, r1
 8000d92:	f162 027f 	sbc.w	r2, r2, #127	; 0x7f
 8000d96:	2afd      	cmp	r2, #253	; 0xfd
 8000d98:	d81d      	bhi.n	8000dd6 <__aeabi_fmul+0x92>
 8000d9a:	f1b3 4f00 	cmp.w	r3, #2147483648	; 0x80000000
 8000d9e:	eb40 50c2 	adc.w	r0, r0, r2, lsl #23
 8000da2:	bf08      	it	eq
 8000da4:	f020 0001 	biceq.w	r0, r0, #1
 8000da8:	4770      	bx	lr
 8000daa:	f090 0f00 	teq	r0, #0
 8000dae:	f00c 4c00 	and.w	ip, ip, #2147483648	; 0x80000000
 8000db2:	bf08      	it	eq
 8000db4:	0249      	lsleq	r1, r1, #9
 8000db6:	ea4c 2050 	orr.w	r0, ip, r0, lsr #9
 8000dba:	ea40 2051 	orr.w	r0, r0, r1, lsr #9
 8000dbe:	3a7f      	subs	r2, #127	; 0x7f
 8000dc0:	bfc2      	ittt	gt
 8000dc2:	f1d2 03ff 	rsbsgt	r3, r2, #255	; 0xff
 8000dc6:	ea40 50c2 	orrgt.w	r0, r0, r2, lsl #23
 8000dca:	4770      	bxgt	lr
 8000dcc:	f440 0000 	orr.w	r0, r0, #8388608	; 0x800000
 8000dd0:	f04f 0300 	mov.w	r3, #0
 8000dd4:	3a01      	subs	r2, #1
 8000dd6:	dc5d      	bgt.n	8000e94 <__aeabi_fmul+0x150>
 8000dd8:	f112 0f19 	cmn.w	r2, #25
 8000ddc:	bfdc      	itt	le
 8000dde:	f000 4000 	andle.w	r0, r0, #2147483648	; 0x80000000
 8000de2:	4770      	bxle	lr
 8000de4:	f1c2 0200 	rsb	r2, r2, #0
 8000de8:	0041      	lsls	r1, r0, #1
 8000dea:	fa21 f102 	lsr.w	r1, r1, r2
 8000dee:	f1c2 0220 	rsb	r2, r2, #32
 8000df2:	fa00 fc02 	lsl.w	ip, r0, r2
 8000df6:	ea5f 0031 	movs.w	r0, r1, rrx
 8000dfa:	f140 0000 	adc.w	r0, r0, #0
 8000dfe:	ea53 034c 	orrs.w	r3, r3, ip, lsl #1
 8000e02:	bf08      	it	eq
 8000e04:	ea20 70dc 	biceq.w	r0, r0, ip, lsr #31
 8000e08:	4770      	bx	lr
 8000e0a:	f092 0f00 	teq	r2, #0
 8000e0e:	f000 4c00 	and.w	ip, r0, #2147483648	; 0x80000000
 8000e12:	bf02      	ittt	eq
 8000e14:	0040      	lsleq	r0, r0, #1
 8000e16:	f410 0f00 	tsteq.w	r0, #8388608	; 0x800000
 8000e1a:	3a01      	subeq	r2, #1
 8000e1c:	d0f9      	beq.n	8000e12 <__aeabi_fmul+0xce>
 8000e1e:	ea40 000c 	orr.w	r0, r0, ip
 8000e22:	f093 0f00 	teq	r3, #0
 8000e26:	f001 4c00 	and.w	ip, r1, #2147483648	; 0x80000000
 8000e2a:	bf02      	ittt	eq
 8000e2c:	0049      	lsleq	r1, r1, #1
 8000e2e:	f411 0f00 	tsteq.w	r1, #8388608	; 0x800000
 8000e32:	3b01      	subeq	r3, #1
 8000e34:	d0f9      	beq.n	8000e2a <__aeabi_fmul+0xe6>
 8000e36:	ea41 010c 	orr.w	r1, r1, ip
 8000e3a:	e78f      	b.n	8000d5c <__aeabi_fmul+0x18>
 8000e3c:	ea0c 53d1 	and.w	r3, ip, r1, lsr #23
 8000e40:	ea92 0f0c 	teq	r2, ip
 8000e44:	bf18      	it	ne
 8000e46:	ea93 0f0c 	teqne	r3, ip
 8000e4a:	d00a      	beq.n	8000e62 <__aeabi_fmul+0x11e>
 8000e4c:	f030 4c00 	bics.w	ip, r0, #2147483648	; 0x80000000
 8000e50:	bf18      	it	ne
 8000e52:	f031 4c00 	bicsne.w	ip, r1, #2147483648	; 0x80000000
 8000e56:	d1d8      	bne.n	8000e0a <__aeabi_fmul+0xc6>
 8000e58:	ea80 0001 	eor.w	r0, r0, r1
 8000e5c:	f000 4000 	and.w	r0, r0, #2147483648	; 0x80000000
 8000e60:	4770      	bx	lr
 8000e62:	f090 0f00 	teq	r0, #0
 8000e66:	bf17      	itett	ne
 8000e68:	f090 4f00 	teqne	r0, #2147483648	; 0x80000000
 8000e6c:	4608      	moveq	r0, r1
 8000e6e:	f091 0f00 	teqne	r1, #0
 8000e72:	f091 4f00 	teqne	r1, #2147483648	; 0x80000000
 8000e76:	d014      	beq.n	8000ea2 <__aeabi_fmul+0x15e>
 8000e78:	ea92 0f0c 	teq	r2, ip
 8000e7c:	d101      	bne.n	8000e82 <__aeabi_fmul+0x13e>
 8000e7e:	0242      	lsls	r2, r0, #9
 8000e80:	d10f      	bne.n	8000ea2 <__aeabi_fmul+0x15e>
 8000e82:	ea93 0f0c 	teq	r3, ip
 8000e86:	d103      	bne.n	8000e90 <__aeabi_fmul+0x14c>
 8000e88:	024b      	lsls	r3, r1, #9
 8000e8a:	bf18      	it	ne
 8000e8c:	4608      	movne	r0, r1
 8000e8e:	d108      	bne.n	8000ea2 <__aeabi_fmul+0x15e>
 8000e90:	ea80 0001 	eor.w	r0, r0, r1
 8000e94:	f000 4000 	and.w	r0, r0, #2147483648	; 0x80000000
 8000e98:	f040 40fe 	orr.w	r0, r0, #2130706432	; 0x7f000000
 8000e9c:	f440 0000 	orr.w	r0, r0, #8388608	; 0x800000
 8000ea0:	4770      	bx	lr
 8000ea2:	f040 40fe 	orr.w	r0, r0, #2130706432	; 0x7f000000
 8000ea6:	f440 0040 	orr.w	r0, r0, #12582912	; 0xc00000
 8000eaa:	4770      	bx	lr

08000eac <__aeabi_fdiv>:
 8000eac:	f04f 0cff 	mov.w	ip, #255	; 0xff
 8000eb0:	ea1c 52d0 	ands.w	r2, ip, r0, lsr #23
 8000eb4:	bf1e      	ittt	ne
 8000eb6:	ea1c 53d1 	andsne.w	r3, ip, r1, lsr #23
 8000eba:	ea92 0f0c 	teqne	r2, ip
 8000ebe:	ea93 0f0c 	teqne	r3, ip
 8000ec2:	d069      	beq.n	8000f98 <__aeabi_fdiv+0xec>
 8000ec4:	eba2 0203 	sub.w	r2, r2, r3
 8000ec8:	ea80 0c01 	eor.w	ip, r0, r1
 8000ecc:	0249      	lsls	r1, r1, #9
 8000ece:	ea4f 2040 	mov.w	r0, r0, lsl #9
 8000ed2:	d037      	beq.n	8000f44 <__aeabi_fdiv+0x98>
 8000ed4:	f04f 5380 	mov.w	r3, #268435456	; 0x10000000
 8000ed8:	ea43 1111 	orr.w	r1, r3, r1, lsr #4
 8000edc:	ea43 1310 	orr.w	r3, r3, r0, lsr #4
 8000ee0:	f00c 4000 	and.w	r0, ip, #2147483648	; 0x80000000
 8000ee4:	428b      	cmp	r3, r1
 8000ee6:	bf38      	it	cc
 8000ee8:	005b      	lslcc	r3, r3, #1
 8000eea:	f142 027d 	adc.w	r2, r2, #125	; 0x7d
 8000eee:	f44f 0c00 	mov.w	ip, #8388608	; 0x800000
 8000ef2:	428b      	cmp	r3, r1
 8000ef4:	bf24      	itt	cs
 8000ef6:	1a5b      	subcs	r3, r3, r1
 8000ef8:	ea40 000c 	orrcs.w	r0, r0, ip
 8000efc:	ebb3 0f51 	cmp.w	r3, r1, lsr #1
 8000f00:	bf24      	itt	cs
 8000f02:	eba3 0351 	subcs.w	r3, r3, r1, lsr #1
 8000f06:	ea40 005c 	orrcs.w	r0, r0, ip, lsr #1
 8000f0a:	ebb3 0f91 	cmp.w	r3, r1, lsr #2
 8000f0e:	bf24      	itt	cs
 8000f10:	eba3 0391 	subcs.w	r3, r3, r1, lsr #2
 8000f14:	ea40 009c 	orrcs.w	r0, r0, ip, lsr #2
 8000f18:	ebb3 0fd1 	cmp.w	r3, r1, lsr #3
 8000f1c:	bf24      	itt	cs
 8000f1e:	eba3 03d1 	subcs.w	r3, r3, r1, lsr #3
 8000f22:	ea40 00dc 	orrcs.w	r0, r0, ip, lsr #3
 8000f26:	011b      	lsls	r3, r3, #4
 8000f28:	bf18      	it	ne
 8000f2a:	ea5f 1c1c 	movsne.w	ip, ip, lsr #4
 8000f2e:	d1e0      	bne.n	8000ef2 <__aeabi_fdiv+0x46>
 8000f30:	2afd      	cmp	r2, #253	; 0xfd
 8000f32:	f63f af50 	bhi.w	8000dd6 <__aeabi_fmul+0x92>
 8000f36:	428b      	cmp	r3, r1
 8000f38:	eb40 50c2 	adc.w	r0, r0, r2, lsl #23
 8000f3c:	bf08      	it	eq
 8000f3e:	f020 0001 	biceq.w	r0, r0, #1
 8000f42:	4770      	bx	lr
 8000f44:	f00c 4c00 	and.w	ip, ip, #2147483648	; 0x80000000
 8000f48:	ea4c 2050 	orr.w	r0, ip, r0, lsr #9
 8000f4c:	327f      	adds	r2, #127	; 0x7f
 8000f4e:	bfc2      	ittt	gt
 8000f50:	f1d2 03ff 	rsbsgt	r3, r2, #255	; 0xff
 8000f54:	ea40 50c2 	orrgt.w	r0, r0, r2, lsl #23
 8000f58:	4770      	bxgt	lr
 8000f5a:	f440 0000 	orr.w	r0, r0, #8388608	; 0x800000
 8000f5e:	f04f 0300 	mov.w	r3, #0
 8000f62:	3a01      	subs	r2, #1
 8000f64:	e737      	b.n	8000dd6 <__aeabi_fmul+0x92>
 8000f66:	f092 0f00 	teq	r2, #0
 8000f6a:	f000 4c00 	and.w	ip, r0, #2147483648	; 0x80000000
 8000f6e:	bf02      	ittt	eq
 8000f70:	0040      	lsleq	r0, r0, #1
 8000f72:	f410 0f00 	tsteq.w	r0, #8388608	; 0x800000
 8000f76:	3a01      	subeq	r2, #1
 8000f78:	d0f9      	beq.n	8000f6e <__aeabi_fdiv+0xc2>
 8000f7a:	ea40 000c 	orr.w	r0, r0, ip
 8000f7e:	f093 0f00 	teq	r3, #0
 8000f82:	f001 4c00 	and.w	ip, r1, #2147483648	; 0x80000000
 8000f86:	bf02      	ittt	eq
 8000f88:	0049      	lsleq	r1, r1, #1
 8000f8a:	f411 0f00 	tsteq.w	r1, #8388608	; 0x800000
 8000f8e:	3b01      	subeq	r3, #1
 8000f90:	d0f9      	beq.n	8000f86 <__aeabi_fdiv+0xda>
 8000f92:	ea41 010c 	orr.w	r1, r1, ip
 8000f96:	e795      	b.n	8000ec4 <__aeabi_fdiv+0x18>
 8000f98:	ea0c 53d1 	and.w	r3, ip, r1, lsr #23
 8000f9c:	ea92 0f0c 	teq	r2, ip
 8000fa0:	d108      	bne.n	8000fb4 <__aeabi_fdiv+0x108>
 8000fa2:	0242      	lsls	r2, r0, #9
 8000fa4:	f47f af7d 	bne.w	8000ea2 <__aeabi_fmul+0x15e>
 8000fa8:	ea93 0f0c 	teq	r3, ip
 8000fac:	f47f af70 	bne.w	8000e90 <__aeabi_fmul+0x14c>
 8000fb0:	4608      	mov	r0, r1
 8000fb2:	e776      	b.n	8000ea2 <__aeabi_fmul+0x15e>
 8000fb4:	ea93 0f0c 	teq	r3, ip
 8000fb8:	d104      	bne.n	8000fc4 <__aeabi_fdiv+0x118>
 8000fba:	024b      	lsls	r3, r1, #9
 8000fbc:	f43f af4c 	beq.w	8000e58 <__aeabi_fmul+0x114>
 8000fc0:	4608      	mov	r0, r1
 8000fc2:	e76e      	b.n	8000ea2 <__aeabi_fmul+0x15e>
 8000fc4:	f030 4c00 	bics.w	ip, r0, #2147483648	; 0x80000000
 8000fc8:	bf18      	it	ne
 8000fca:	f031 4c00 	bicsne.w	ip, r1, #2147483648	; 0x80000000
 8000fce:	d1ca      	bne.n	8000f66 <__aeabi_fdiv+0xba>
 8000fd0:	f030 4200 	bics.w	r2, r0, #2147483648	; 0x80000000
 8000fd4:	f47f af5c 	bne.w	8000e90 <__aeabi_fmul+0x14c>
 8000fd8:	f031 4300 	bics.w	r3, r1, #2147483648	; 0x80000000
 8000fdc:	f47f af3c 	bne.w	8000e58 <__aeabi_fmul+0x114>
 8000fe0:	e75f      	b.n	8000ea2 <__aeabi_fmul+0x15e>
 8000fe2:	bf00      	nop

08000fe4 <__gesf2>:
 8000fe4:	f04f 3cff 	mov.w	ip, #4294967295	; 0xffffffff
 8000fe8:	e006      	b.n	8000ff8 <__cmpsf2+0x4>
 8000fea:	bf00      	nop

08000fec <__lesf2>:
 8000fec:	f04f 0c01 	mov.w	ip, #1
 8000ff0:	e002      	b.n	8000ff8 <__cmpsf2+0x4>
 8000ff2:	bf00      	nop

08000ff4 <__cmpsf2>:
 8000ff4:	f04f 0c01 	mov.w	ip, #1
 8000ff8:	f84d cd04 	str.w	ip, [sp, #-4]!
 8000ffc:	ea4f 0240 	mov.w	r2, r0, lsl #1
 8001000:	ea4f 0341 	mov.w	r3, r1, lsl #1
 8001004:	ea7f 6c22 	mvns.w	ip, r2, asr #24
 8001008:	bf18      	it	ne
 800100a:	ea7f 6c23 	mvnsne.w	ip, r3, asr #24
 800100e:	d011      	beq.n	8001034 <__cmpsf2+0x40>
 8001010:	b001      	add	sp, #4
 8001012:	ea52 0c53 	orrs.w	ip, r2, r3, lsr #1
 8001016:	bf18      	it	ne
 8001018:	ea90 0f01 	teqne	r0, r1
 800101c:	bf58      	it	pl
 800101e:	ebb2 0003 	subspl.w	r0, r2, r3
 8001022:	bf88      	it	hi
 8001024:	17c8      	asrhi	r0, r1, #31
 8001026:	bf38      	it	cc
 8001028:	ea6f 70e1 	mvncc.w	r0, r1, asr #31
 800102c:	bf18      	it	ne
 800102e:	f040 0001 	orrne.w	r0, r0, #1
 8001032:	4770      	bx	lr
 8001034:	ea7f 6c22 	mvns.w	ip, r2, asr #24
 8001038:	d102      	bne.n	8001040 <__cmpsf2+0x4c>
 800103a:	ea5f 2c40 	movs.w	ip, r0, lsl #9
 800103e:	d105      	bne.n	800104c <__cmpsf2+0x58>
 8001040:	ea7f 6c23 	mvns.w	ip, r3, asr #24
 8001044:	d1e4      	bne.n	8001010 <__cmpsf2+0x1c>
 8001046:	ea5f 2c41 	movs.w	ip, r1, lsl #9
 800104a:	d0e1      	beq.n	8001010 <__cmpsf2+0x1c>
 800104c:	f85d 0b04 	ldr.w	r0, [sp], #4
 8001050:	4770      	bx	lr
 8001052:	bf00      	nop

08001054 <__aeabi_cfrcmple>:
 8001054:	4684      	mov	ip, r0
 8001056:	4608      	mov	r0, r1
 8001058:	4661      	mov	r1, ip
 800105a:	e7ff      	b.n	800105c <__aeabi_cfcmpeq>

0800105c <__aeabi_cfcmpeq>:
 800105c:	b50f      	push	{r0, r1, r2, r3, lr}
 800105e:	f7ff ffc9 	bl	8000ff4 <__cmpsf2>
 8001062:	2800      	cmp	r0, #0
 8001064:	bf48      	it	mi
 8001066:	f110 0f00 	cmnmi.w	r0, #0
 800106a:	bd0f      	pop	{r0, r1, r2, r3, pc}

0800106c <__aeabi_fcmpeq>:
 800106c:	f84d ed08 	str.w	lr, [sp, #-8]!
 8001070:	f7ff fff4 	bl	800105c <__aeabi_cfcmpeq>
 8001074:	bf0c      	ite	eq
 8001076:	2001      	moveq	r0, #1
 8001078:	2000      	movne	r0, #0
 800107a:	f85d fb08 	ldr.w	pc, [sp], #8
 800107e:	bf00      	nop

08001080 <__aeabi_fcmplt>:
 8001080:	f84d ed08 	str.w	lr, [sp, #-8]!
 8001084:	f7ff ffea 	bl	800105c <__aeabi_cfcmpeq>
 8001088:	bf34      	ite	cc
 800108a:	2001      	movcc	r0, #1
 800108c:	2000      	movcs	r0, #0
 800108e:	f85d fb08 	ldr.w	pc, [sp], #8
 8001092:	bf00      	nop

08001094 <__aeabi_fcmple>:
 8001094:	f84d ed08 	str.w	lr, [sp, #-8]!
 8001098:	f7ff ffe0 	bl	800105c <__aeabi_cfcmpeq>
 800109c:	bf94      	ite	ls
 800109e:	2001      	movls	r0, #1
 80010a0:	2000      	movhi	r0, #0
 80010a2:	f85d fb08 	ldr.w	pc, [sp], #8
 80010a6:	bf00      	nop

080010a8 <__aeabi_fcmpge>:
 80010a8:	f84d ed08 	str.w	lr, [sp, #-8]!
 80010ac:	f7ff ffd2 	bl	8001054 <__aeabi_cfrcmple>
 80010b0:	bf94      	ite	ls
 80010b2:	2001      	movls	r0, #1
 80010b4:	2000      	movhi	r0, #0
 80010b6:	f85d fb08 	ldr.w	pc, [sp], #8
 80010ba:	bf00      	nop

080010bc <__aeabi_fcmpgt>:
 80010bc:	f84d ed08 	str.w	lr, [sp, #-8]!
 80010c0:	f7ff ffc8 	bl	8001054 <__aeabi_cfrcmple>
 80010c4:	bf34      	ite	cc
 80010c6:	2001      	movcc	r0, #1
 80010c8:	2000      	movcs	r0, #0
 80010ca:	f85d fb08 	ldr.w	pc, [sp], #8
 80010ce:	bf00      	nop

080010d0 <__aeabi_f2iz>:
 80010d0:	ea4f 0240 	mov.w	r2, r0, lsl #1
 80010d4:	f1b2 4ffe 	cmp.w	r2, #2130706432	; 0x7f000000
 80010d8:	d30f      	bcc.n	80010fa <__aeabi_f2iz+0x2a>
 80010da:	f04f 039e 	mov.w	r3, #158	; 0x9e
 80010de:	ebb3 6212 	subs.w	r2, r3, r2, lsr #24
 80010e2:	d90d      	bls.n	8001100 <__aeabi_f2iz+0x30>
 80010e4:	ea4f 2300 	mov.w	r3, r0, lsl #8
 80010e8:	f043 4300 	orr.w	r3, r3, #2147483648	; 0x80000000
 80010ec:	f010 4f00 	tst.w	r0, #2147483648	; 0x80000000
 80010f0:	fa23 f002 	lsr.w	r0, r3, r2
 80010f4:	bf18      	it	ne
 80010f6:	4240      	negne	r0, r0
 80010f8:	4770      	bx	lr
 80010fa:	f04f 0000 	mov.w	r0, #0
 80010fe:	4770      	bx	lr
 8001100:	f112 0f61 	cmn.w	r2, #97	; 0x61
 8001104:	d101      	bne.n	800110a <__aeabi_f2iz+0x3a>
 8001106:	0242      	lsls	r2, r0, #9
 8001108:	d105      	bne.n	8001116 <__aeabi_f2iz+0x46>
 800110a:	f010 4000 	ands.w	r0, r0, #2147483648	; 0x80000000
 800110e:	bf08      	it	eq
 8001110:	f06f 4000 	mvneq.w	r0, #2147483648	; 0x80000000
 8001114:	4770      	bx	lr
 8001116:	f04f 0000 	mov.w	r0, #0
 800111a:	4770      	bx	lr

0800111c <__aeabi_f2uiz>:
 800111c:	0042      	lsls	r2, r0, #1
 800111e:	d20e      	bcs.n	800113e <__aeabi_f2uiz+0x22>
 8001120:	f1b2 4ffe 	cmp.w	r2, #2130706432	; 0x7f000000
 8001124:	d30b      	bcc.n	800113e <__aeabi_f2uiz+0x22>
 8001126:	f04f 039e 	mov.w	r3, #158	; 0x9e
 800112a:	ebb3 6212 	subs.w	r2, r3, r2, lsr #24
 800112e:	d409      	bmi.n	8001144 <__aeabi_f2uiz+0x28>
 8001130:	ea4f 2300 	mov.w	r3, r0, lsl #8
 8001134:	f043 4300 	orr.w	r3, r3, #2147483648	; 0x80000000
 8001138:	fa23 f002 	lsr.w	r0, r3, r2
 800113c:	4770      	bx	lr
 800113e:	f04f 0000 	mov.w	r0, #0
 8001142:	4770      	bx	lr
 8001144:	f112 0f61 	cmn.w	r2, #97	; 0x61
 8001148:	d101      	bne.n	800114e <__aeabi_f2uiz+0x32>
 800114a:	0242      	lsls	r2, r0, #9
 800114c:	d102      	bne.n	8001154 <__aeabi_f2uiz+0x38>
 800114e:	f04f 30ff 	mov.w	r0, #4294967295	; 0xffffffff
 8001152:	4770      	bx	lr
 8001154:	f04f 0000 	mov.w	r0, #0
 8001158:	4770      	bx	lr
 800115a:	bf00      	nop

0800115c <__aeabi_ldivmod>:
 800115c:	b97b      	cbnz	r3, 800117e <__aeabi_ldivmod+0x22>
 800115e:	b972      	cbnz	r2, 800117e <__aeabi_ldivmod+0x22>
 8001160:	2900      	cmp	r1, #0
 8001162:	bfbe      	ittt	lt
 8001164:	2000      	movlt	r0, #0
 8001166:	f04f 4100 	movlt.w	r1, #2147483648	; 0x80000000
 800116a:	e006      	blt.n	800117a <__aeabi_ldivmod+0x1e>
 800116c:	bf08      	it	eq
 800116e:	2800      	cmpeq	r0, #0
 8001170:	bf1c      	itt	ne
 8001172:	f06f 4100 	mvnne.w	r1, #2147483648	; 0x80000000
 8001176:	f04f 30ff 	movne.w	r0, #4294967295	; 0xffffffff
 800117a:	f000 b9a1 	b.w	80014c0 <__aeabi_idiv0>
 800117e:	f1ad 0c08 	sub.w	ip, sp, #8
 8001182:	e96d ce04 	strd	ip, lr, [sp, #-16]!
 8001186:	2900      	cmp	r1, #0
 8001188:	db09      	blt.n	800119e <__aeabi_ldivmod+0x42>
 800118a:	2b00      	cmp	r3, #0
 800118c:	db1a      	blt.n	80011c4 <__aeabi_ldivmod+0x68>
 800118e:	f000 f835 	bl	80011fc <__udivmoddi4>
 8001192:	f8dd e004 	ldr.w	lr, [sp, #4]
 8001196:	e9dd 2302 	ldrd	r2, r3, [sp, #8]
 800119a:	b004      	add	sp, #16
 800119c:	4770      	bx	lr
 800119e:	4240      	negs	r0, r0
 80011a0:	eb61 0141 	sbc.w	r1, r1, r1, lsl #1
 80011a4:	2b00      	cmp	r3, #0
 80011a6:	db1b      	blt.n	80011e0 <__aeabi_ldivmod+0x84>
 80011a8:	f000 f828 	bl	80011fc <__udivmoddi4>
 80011ac:	f8dd e004 	ldr.w	lr, [sp, #4]
 80011b0:	e9dd 2302 	ldrd	r2, r3, [sp, #8]
 80011b4:	b004      	add	sp, #16
 80011b6:	4240      	negs	r0, r0
 80011b8:	eb61 0141 	sbc.w	r1, r1, r1, lsl #1
 80011bc:	4252      	negs	r2, r2
 80011be:	eb63 0343 	sbc.w	r3, r3, r3, lsl #1
 80011c2:	4770      	bx	lr
 80011c4:	4252      	negs	r2, r2
 80011c6:	eb63 0343 	sbc.w	r3, r3, r3, lsl #1
 80011ca:	f000 f817 	bl	80011fc <__udivmoddi4>
 80011ce:	f8dd e004 	ldr.w	lr, [sp, #4]
 80011d2:	e9dd 2302 	ldrd	r2, r3, [sp, #8]
 80011d6:	b004      	add	sp, #16
 80011d8:	4240      	negs	r0, r0
 80011da:	eb61 0141 	sbc.w	r1, r1, r1, lsl #1
 80011de:	4770      	bx	lr
 80011e0:	4252      	negs	r2, r2
 80011e2:	eb63 0343 	sbc.w	r3, r3, r3, lsl #1
 80011e6:	f000 f809 	bl	80011fc <__udivmoddi4>
 80011ea:	f8dd e004 	ldr.w	lr, [sp, #4]
 80011ee:	e9dd 2302 	ldrd	r2, r3, [sp, #8]
 80011f2:	b004      	add	sp, #16
 80011f4:	4252      	negs	r2, r2
 80011f6:	eb63 0343 	sbc.w	r3, r3, r3, lsl #1
 80011fa:	4770      	bx	lr

080011fc <__udivmoddi4>:
 80011fc:	e92d 47f0 	stmdb	sp!, {r4, r5, r6, r7, r8, r9, sl, lr}
 8001200:	9e08      	ldr	r6, [sp, #32]
 8001202:	460d      	mov	r5, r1
 8001204:	4604      	mov	r4, r0
 8001206:	468e      	mov	lr, r1
 8001208:	2b00      	cmp	r3, #0
 800120a:	f040 8083 	bne.w	8001314 <__udivmoddi4+0x118>
 800120e:	428a      	cmp	r2, r1
 8001210:	4617      	mov	r7, r2
 8001212:	d947      	bls.n	80012a4 <__udivmoddi4+0xa8>
 8001214:	fab2 f382 	clz	r3, r2
 8001218:	b14b      	cbz	r3, 800122e <__udivmoddi4+0x32>
 800121a:	f1c3 0120 	rsb	r1, r3, #32
 800121e:	fa05 fe03 	lsl.w	lr, r5, r3
 8001222:	fa20 f101 	lsr.w	r1, r0, r1
 8001226:	409f      	lsls	r7, r3
 8001228:	ea41 0e0e 	orr.w	lr, r1, lr
 800122c:	409c      	lsls	r4, r3
 800122e:	ea4f 4817 	mov.w	r8, r7, lsr #16
 8001232:	fbbe fcf8 	udiv	ip, lr, r8
 8001236:	fa1f f987 	uxth.w	r9, r7
 800123a:	fb08 e21c 	mls	r2, r8, ip, lr
 800123e:	fb0c f009 	mul.w	r0, ip, r9
 8001242:	0c21      	lsrs	r1, r4, #16
 8001244:	ea41 4202 	orr.w	r2, r1, r2, lsl #16
 8001248:	4290      	cmp	r0, r2
 800124a:	d90a      	bls.n	8001262 <__udivmoddi4+0x66>
 800124c:	18ba      	adds	r2, r7, r2
 800124e:	f10c 31ff 	add.w	r1, ip, #4294967295	; 0xffffffff
 8001252:	f080 8118 	bcs.w	8001486 <__udivmoddi4+0x28a>
 8001256:	4290      	cmp	r0, r2
 8001258:	f240 8115 	bls.w	8001486 <__udivmoddi4+0x28a>
 800125c:	f1ac 0c02 	sub.w	ip, ip, #2
 8001260:	443a      	add	r2, r7
 8001262:	1a12      	subs	r2, r2, r0
 8001264:	fbb2 f0f8 	udiv	r0, r2, r8
 8001268:	fb08 2210 	mls	r2, r8, r0, r2
 800126c:	fb00 f109 	mul.w	r1, r0, r9
 8001270:	b2a4      	uxth	r4, r4
 8001272:	ea44 4402 	orr.w	r4, r4, r2, lsl #16
 8001276:	42a1      	cmp	r1, r4
 8001278:	d909      	bls.n	800128e <__udivmoddi4+0x92>
 800127a:	193c      	adds	r4, r7, r4
 800127c:	f100 32ff 	add.w	r2, r0, #4294967295	; 0xffffffff
 8001280:	f080 8103 	bcs.w	800148a <__udivmoddi4+0x28e>
 8001284:	42a1      	cmp	r1, r4
 8001286:	f240 8100 	bls.w	800148a <__udivmoddi4+0x28e>
 800128a:	3802      	subs	r0, #2
 800128c:	443c      	add	r4, r7
 800128e:	1a64      	subs	r4, r4, r1
 8001290:	2100      	movs	r1, #0
 8001292:	ea40 400c 	orr.w	r0, r0, ip, lsl #16
 8001296:	b11e      	cbz	r6, 80012a0 <__udivmoddi4+0xa4>
 8001298:	2200      	movs	r2, #0
 800129a:	40dc      	lsrs	r4, r3
 800129c:	e9c6 4200 	strd	r4, r2, [r6]
 80012a0:	e8bd 87f0 	ldmia.w	sp!, {r4, r5, r6, r7, r8, r9, sl, pc}
 80012a4:	b902      	cbnz	r2, 80012a8 <__udivmoddi4+0xac>
 80012a6:	deff      	udf	#255	; 0xff
 80012a8:	fab2 f382 	clz	r3, r2
 80012ac:	2b00      	cmp	r3, #0
 80012ae:	d14f      	bne.n	8001350 <__udivmoddi4+0x154>
 80012b0:	1a8d      	subs	r5, r1, r2
 80012b2:	2101      	movs	r1, #1
 80012b4:	ea4f 4e12 	mov.w	lr, r2, lsr #16
 80012b8:	fa1f f882 	uxth.w	r8, r2
 80012bc:	fbb5 fcfe 	udiv	ip, r5, lr
 80012c0:	fb0e 551c 	mls	r5, lr, ip, r5
 80012c4:	fb08 f00c 	mul.w	r0, r8, ip
 80012c8:	0c22      	lsrs	r2, r4, #16
 80012ca:	ea42 4505 	orr.w	r5, r2, r5, lsl #16
 80012ce:	42a8      	cmp	r0, r5
 80012d0:	d907      	bls.n	80012e2 <__udivmoddi4+0xe6>
 80012d2:	197d      	adds	r5, r7, r5
 80012d4:	f10c 32ff 	add.w	r2, ip, #4294967295	; 0xffffffff
 80012d8:	d202      	bcs.n	80012e0 <__udivmoddi4+0xe4>
 80012da:	42a8      	cmp	r0, r5
 80012dc:	f200 80e9 	bhi.w	80014b2 <__udivmoddi4+0x2b6>
 80012e0:	4694      	mov	ip, r2
 80012e2:	1a2d      	subs	r5, r5, r0
 80012e4:	fbb5 f0fe 	udiv	r0, r5, lr
 80012e8:	fb0e 5510 	mls	r5, lr, r0, r5
 80012ec:	fb08 f800 	mul.w	r8, r8, r0
 80012f0:	b2a4      	uxth	r4, r4
 80012f2:	ea44 4405 	orr.w	r4, r4, r5, lsl #16
 80012f6:	45a0      	cmp	r8, r4
 80012f8:	d907      	bls.n	800130a <__udivmoddi4+0x10e>
 80012fa:	193c      	adds	r4, r7, r4
 80012fc:	f100 32ff 	add.w	r2, r0, #4294967295	; 0xffffffff
 8001300:	d202      	bcs.n	8001308 <__udivmoddi4+0x10c>
 8001302:	45a0      	cmp	r8, r4
 8001304:	f200 80d9 	bhi.w	80014ba <__udivmoddi4+0x2be>
 8001308:	4610      	mov	r0, r2
 800130a:	eba4 0408 	sub.w	r4, r4, r8
 800130e:	ea40 400c 	orr.w	r0, r0, ip, lsl #16
 8001312:	e7c0      	b.n	8001296 <__udivmoddi4+0x9a>
 8001314:	428b      	cmp	r3, r1
 8001316:	d908      	bls.n	800132a <__udivmoddi4+0x12e>
 8001318:	2e00      	cmp	r6, #0
 800131a:	f000 80b1 	beq.w	8001480 <__udivmoddi4+0x284>
 800131e:	2100      	movs	r1, #0
 8001320:	e9c6 0500 	strd	r0, r5, [r6]
 8001324:	4608      	mov	r0, r1
 8001326:	e8bd 87f0 	ldmia.w	sp!, {r4, r5, r6, r7, r8, r9, sl, pc}
 800132a:	fab3 f183 	clz	r1, r3
 800132e:	2900      	cmp	r1, #0
 8001330:	d14b      	bne.n	80013ca <__udivmoddi4+0x1ce>
 8001332:	42ab      	cmp	r3, r5
 8001334:	d302      	bcc.n	800133c <__udivmoddi4+0x140>
 8001336:	4282      	cmp	r2, r0
 8001338:	f200 80b9 	bhi.w	80014ae <__udivmoddi4+0x2b2>
 800133c:	1a84      	subs	r4, r0, r2
 800133e:	eb65 0303 	sbc.w	r3, r5, r3
 8001342:	2001      	movs	r0, #1
 8001344:	469e      	mov	lr, r3
 8001346:	2e00      	cmp	r6, #0
 8001348:	d0aa      	beq.n	80012a0 <__udivmoddi4+0xa4>
 800134a:	e9c6 4e00 	strd	r4, lr, [r6]
 800134e:	e7a7      	b.n	80012a0 <__udivmoddi4+0xa4>
 8001350:	409f      	lsls	r7, r3
 8001352:	f1c3 0220 	rsb	r2, r3, #32
 8001356:	40d1      	lsrs	r1, r2
 8001358:	ea4f 4e17 	mov.w	lr, r7, lsr #16
 800135c:	fbb1 f0fe 	udiv	r0, r1, lr
 8001360:	fa1f f887 	uxth.w	r8, r7
 8001364:	fb0e 1110 	mls	r1, lr, r0, r1
 8001368:	fa24 f202 	lsr.w	r2, r4, r2
 800136c:	409d      	lsls	r5, r3
 800136e:	fb00 fc08 	mul.w	ip, r0, r8
 8001372:	432a      	orrs	r2, r5
 8001374:	0c15      	lsrs	r5, r2, #16
 8001376:	ea45 4501 	orr.w	r5, r5, r1, lsl #16
 800137a:	45ac      	cmp	ip, r5
 800137c:	fa04 f403 	lsl.w	r4, r4, r3
 8001380:	d909      	bls.n	8001396 <__udivmoddi4+0x19a>
 8001382:	197d      	adds	r5, r7, r5
 8001384:	f100 31ff 	add.w	r1, r0, #4294967295	; 0xffffffff
 8001388:	f080 808f 	bcs.w	80014aa <__udivmoddi4+0x2ae>
 800138c:	45ac      	cmp	ip, r5
 800138e:	f240 808c 	bls.w	80014aa <__udivmoddi4+0x2ae>
 8001392:	3802      	subs	r0, #2
 8001394:	443d      	add	r5, r7
 8001396:	eba5 050c 	sub.w	r5, r5, ip
 800139a:	fbb5 f1fe 	udiv	r1, r5, lr
 800139e:	fb0e 5c11 	mls	ip, lr, r1, r5
 80013a2:	fb01 f908 	mul.w	r9, r1, r8
 80013a6:	b295      	uxth	r5, r2
 80013a8:	ea45 450c 	orr.w	r5, r5, ip, lsl #16
 80013ac:	45a9      	cmp	r9, r5
 80013ae:	d907      	bls.n	80013c0 <__udivmoddi4+0x1c4>
 80013b0:	197d      	adds	r5, r7, r5
 80013b2:	f101 32ff 	add.w	r2, r1, #4294967295	; 0xffffffff
 80013b6:	d274      	bcs.n	80014a2 <__udivmoddi4+0x2a6>
 80013b8:	45a9      	cmp	r9, r5
 80013ba:	d972      	bls.n	80014a2 <__udivmoddi4+0x2a6>
 80013bc:	3902      	subs	r1, #2
 80013be:	443d      	add	r5, r7
 80013c0:	eba5 0509 	sub.w	r5, r5, r9
 80013c4:	ea41 4100 	orr.w	r1, r1, r0, lsl #16
 80013c8:	e778      	b.n	80012bc <__udivmoddi4+0xc0>
 80013ca:	f1c1 0720 	rsb	r7, r1, #32
 80013ce:	408b      	lsls	r3, r1
 80013d0:	fa22 fc07 	lsr.w	ip, r2, r7
 80013d4:	ea4c 0c03 	orr.w	ip, ip, r3
 80013d8:	fa25 f407 	lsr.w	r4, r5, r7
 80013dc:	ea4f 4e1c 	mov.w	lr, ip, lsr #16
 80013e0:	fbb4 f9fe 	udiv	r9, r4, lr
 80013e4:	fa1f f88c 	uxth.w	r8, ip
 80013e8:	fb0e 4419 	mls	r4, lr, r9, r4
 80013ec:	fa20 f307 	lsr.w	r3, r0, r7
 80013f0:	fb09 fa08 	mul.w	sl, r9, r8
 80013f4:	408d      	lsls	r5, r1
 80013f6:	431d      	orrs	r5, r3
 80013f8:	0c2b      	lsrs	r3, r5, #16
 80013fa:	ea43 4404 	orr.w	r4, r3, r4, lsl #16
 80013fe:	45a2      	cmp	sl, r4
 8001400:	fa02 f201 	lsl.w	r2, r2, r1
 8001404:	fa00 f301 	lsl.w	r3, r0, r1
 8001408:	d909      	bls.n	800141e <__udivmoddi4+0x222>
 800140a:	eb1c 0404 	adds.w	r4, ip, r4
 800140e:	f109 30ff 	add.w	r0, r9, #4294967295	; 0xffffffff
 8001412:	d248      	bcs.n	80014a6 <__udivmoddi4+0x2aa>
 8001414:	45a2      	cmp	sl, r4
 8001416:	d946      	bls.n	80014a6 <__udivmoddi4+0x2aa>
 8001418:	f1a9 0902 	sub.w	r9, r9, #2
 800141c:	4464      	add	r4, ip
 800141e:	eba4 040a 	sub.w	r4, r4, sl
 8001422:	fbb4 f0fe 	udiv	r0, r4, lr
 8001426:	fb0e 4410 	mls	r4, lr, r0, r4
 800142a:	fb00 fa08 	mul.w	sl, r0, r8
 800142e:	b2ad      	uxth	r5, r5
 8001430:	ea45 4404 	orr.w	r4, r5, r4, lsl #16
 8001434:	45a2      	cmp	sl, r4
 8001436:	d908      	bls.n	800144a <__udivmoddi4+0x24e>
 8001438:	eb1c 0404 	adds.w	r4, ip, r4
 800143c:	f100 35ff 	add.w	r5, r0, #4294967295	; 0xffffffff
 8001440:	d22d      	bcs.n	800149e <__udivmoddi4+0x2a2>
 8001442:	45a2      	cmp	sl, r4
 8001444:	d92b      	bls.n	800149e <__udivmoddi4+0x2a2>
 8001446:	3802      	subs	r0, #2
 8001448:	4464      	add	r4, ip
 800144a:	ea40 4009 	orr.w	r0, r0, r9, lsl #16
 800144e:	fba0 8902 	umull	r8, r9, r0, r2
 8001452:	eba4 040a 	sub.w	r4, r4, sl
 8001456:	454c      	cmp	r4, r9
 8001458:	46c6      	mov	lr, r8
 800145a:	464d      	mov	r5, r9
 800145c:	d319      	bcc.n	8001492 <__udivmoddi4+0x296>
 800145e:	d016      	beq.n	800148e <__udivmoddi4+0x292>
 8001460:	b15e      	cbz	r6, 800147a <__udivmoddi4+0x27e>
 8001462:	ebb3 020e 	subs.w	r2, r3, lr
 8001466:	eb64 0405 	sbc.w	r4, r4, r5
 800146a:	fa04 f707 	lsl.w	r7, r4, r7
 800146e:	fa22 f301 	lsr.w	r3, r2, r1
 8001472:	431f      	orrs	r7, r3
 8001474:	40cc      	lsrs	r4, r1
 8001476:	e9c6 7400 	strd	r7, r4, [r6]
 800147a:	2100      	movs	r1, #0
 800147c:	e8bd 87f0 	ldmia.w	sp!, {r4, r5, r6, r7, r8, r9, sl, pc}
 8001480:	4631      	mov	r1, r6
 8001482:	4630      	mov	r0, r6
 8001484:	e70c      	b.n	80012a0 <__udivmoddi4+0xa4>
 8001486:	468c      	mov	ip, r1
 8001488:	e6eb      	b.n	8001262 <__udivmoddi4+0x66>
 800148a:	4610      	mov	r0, r2
 800148c:	e6ff      	b.n	800128e <__udivmoddi4+0x92>
 800148e:	4543      	cmp	r3, r8
 8001490:	d2e6      	bcs.n	8001460 <__udivmoddi4+0x264>
 8001492:	ebb8 0e02 	subs.w	lr, r8, r2
 8001496:	eb69 050c 	sbc.w	r5, r9, ip
 800149a:	3801      	subs	r0, #1
 800149c:	e7e0      	b.n	8001460 <__udivmoddi4+0x264>
 800149e:	4628      	mov	r0, r5
 80014a0:	e7d3      	b.n	800144a <__udivmoddi4+0x24e>
 80014a2:	4611      	mov	r1, r2
 80014a4:	e78c      	b.n	80013c0 <__udivmoddi4+0x1c4>
 80014a6:	4681      	mov	r9, r0
 80014a8:	e7b9      	b.n	800141e <__udivmoddi4+0x222>
 80014aa:	4608      	mov	r0, r1
 80014ac:	e773      	b.n	8001396 <__udivmoddi4+0x19a>
 80014ae:	4608      	mov	r0, r1
 80014b0:	e749      	b.n	8001346 <__udivmoddi4+0x14a>
 80014b2:	f1ac 0c02 	sub.w	ip, ip, #2
 80014b6:	443d      	add	r5, r7
 80014b8:	e713      	b.n	80012e2 <__udivmoddi4+0xe6>
 80014ba:	3802      	subs	r0, #2
 80014bc:	443c      	add	r4, r7
 80014be:	e724      	b.n	800130a <__udivmoddi4+0x10e>

080014c0 <__aeabi_idiv0>:
 80014c0:	4770      	bx	lr
 80014c2:	bf00      	nop

080014c4 <BME280_WriteReg>:
 80014c4:	b57f      	push	{r0, r1, r2, r3, r4, r5, r6, lr}
 80014c6:	2301      	movs	r3, #1
 80014c8:	f88d 1017 	strb.w	r1, [sp, #23]
 80014cc:	f44f 3180 	mov.w	r1, #65536	; 0x10000
 80014d0:	e9cd 3101 	strd	r3, r1, [sp, #4]
 80014d4:	f10d 0117 	add.w	r1, sp, #23
 80014d8:	4602      	mov	r2, r0
 80014da:	9100      	str	r1, [sp, #0]
 80014dc:	4803      	ldr	r0, [pc, #12]	; (80014ec <BME280_WriteReg+0x28>)
 80014de:	21ec      	movs	r1, #236	; 0xec
 80014e0:	f004 ff64 	bl	80063ac <HAL_I2C_Mem_Write>
 80014e4:	b007      	add	sp, #28
 80014e6:	f85d fb04 	ldr.w	pc, [sp], #4
 80014ea:	bf00      	nop
 80014ec:	200012b4 	.word	0x200012b4

080014f0 <BME280_ReadReg>:
 80014f0:	b57f      	push	{r0, r1, r2, r3, r4, r5, r6, lr}
 80014f2:	2300      	movs	r3, #0
 80014f4:	f44f 3180 	mov.w	r1, #65536	; 0x10000
 80014f8:	f88d 3017 	strb.w	r3, [sp, #23]
 80014fc:	2301      	movs	r3, #1
 80014fe:	e9cd 3101 	strd	r3, r1, [sp, #4]
 8001502:	f10d 0117 	add.w	r1, sp, #23
 8001506:	4602      	mov	r2, r0
 8001508:	9100      	str	r1, [sp, #0]
 800150a:	4804      	ldr	r0, [pc, #16]	; (800151c <BME280_ReadReg+0x2c>)
 800150c:	21ec      	movs	r1, #236	; 0xec
 800150e:	f004 ffdd 	bl	80064cc <HAL_I2C_Mem_Read>
 8001512:	f89d 0017 	ldrb.w	r0, [sp, #23]
 8001516:	b007      	add	sp, #28
 8001518:	f85d fb04 	ldr.w	pc, [sp], #4
 800151c:	200012b4 	.word	0x200012b4

08001520 <BME280_ReadReg_U16>:
 8001520:	b51f      	push	{r0, r1, r2, r3, r4, lr}
 8001522:	4602      	mov	r2, r0
 8001524:	2302      	movs	r3, #2
 8001526:	f44f 3080 	mov.w	r0, #65536	; 0x10000
 800152a:	9100      	str	r1, [sp, #0]
 800152c:	e9cd 3001 	strd	r3, r0, [sp, #4]
 8001530:	21ec      	movs	r1, #236	; 0xec
 8001532:	2301      	movs	r3, #1
 8001534:	4802      	ldr	r0, [pc, #8]	; (8001540 <BME280_ReadReg_U16+0x20>)
 8001536:	f004 ffc9 	bl	80064cc <HAL_I2C_Mem_Read>
 800153a:	b005      	add	sp, #20
 800153c:	f85d fb04 	ldr.w	pc, [sp], #4
 8001540:	200012b4 	.word	0x200012b4

08001544 <BME280_ReadReg_S16>:
 8001544:	b51f      	push	{r0, r1, r2, r3, r4, lr}
 8001546:	4602      	mov	r2, r0
 8001548:	2302      	movs	r3, #2
 800154a:	f44f 3080 	mov.w	r0, #65536	; 0x10000
 800154e:	9100      	str	r1, [sp, #0]
 8001550:	e9cd 3001 	strd	r3, r0, [sp, #4]
 8001554:	21ec      	movs	r1, #236	; 0xec
 8001556:	2301      	movs	r3, #1
 8001558:	4802      	ldr	r0, [pc, #8]	; (8001564 <BME280_ReadReg_S16+0x20>)
 800155a:	f004 ffb7 	bl	80064cc <HAL_I2C_Mem_Read>
 800155e:	b005      	add	sp, #20
 8001560:	f85d fb04 	ldr.w	pc, [sp], #4
 8001564:	200012b4 	.word	0x200012b4

08001568 <BME280_ReadReg_BE_S16>:
 8001568:	b57f      	push	{r0, r1, r2, r3, r4, r5, r6, lr}
 800156a:	2302      	movs	r3, #2
 800156c:	f44f 3180 	mov.w	r1, #65536	; 0x10000
 8001570:	e9cd 3101 	strd	r3, r1, [sp, #4]
 8001574:	ab05      	add	r3, sp, #20
 8001576:	4602      	mov	r2, r0
 8001578:	9300      	str	r3, [sp, #0]
 800157a:	21ec      	movs	r1, #236	; 0xec
 800157c:	2301      	movs	r3, #1
 800157e:	4806      	ldr	r0, [pc, #24]	; (8001598 <BME280_ReadReg_BE_S16+0x30>)
 8001580:	f004 ffa4 	bl	80064cc <HAL_I2C_Mem_Read>
 8001584:	f89d 0014 	ldrb.w	r0, [sp, #20]
 8001588:	f89d 3015 	ldrb.w	r3, [sp, #21]
 800158c:	ea43 2000 	orr.w	r0, r3, r0, lsl #8
 8001590:	b007      	add	sp, #28
 8001592:	f85d fb04 	ldr.w	pc, [sp], #4
 8001596:	bf00      	nop
 8001598:	200012b4 	.word	0x200012b4

0800159c <BME280_ReadReg_BE_U24>:
 800159c:	b57f      	push	{r0, r1, r2, r3, r4, r5, r6, lr}
 800159e:	2303      	movs	r3, #3
 80015a0:	f44f 3180 	mov.w	r1, #65536	; 0x10000
 80015a4:	e9cd 3101 	strd	r3, r1, [sp, #4]
 80015a8:	ab05      	add	r3, sp, #20
 80015aa:	4602      	mov	r2, r0
 80015ac:	9300      	str	r3, [sp, #0]
 80015ae:	21ec      	movs	r1, #236	; 0xec
 80015b0:	2301      	movs	r3, #1
 80015b2:	4808      	ldr	r0, [pc, #32]	; (80015d4 <BME280_ReadReg_BE_U24+0x38>)
 80015b4:	f004 ff8a 	bl	80064cc <HAL_I2C_Mem_Read>
 80015b8:	f89d 3015 	ldrb.w	r3, [sp, #21]
 80015bc:	f89d 0014 	ldrb.w	r0, [sp, #20]
 80015c0:	021b      	lsls	r3, r3, #8
 80015c2:	ea43 4300 	orr.w	r3, r3, r0, lsl #16
 80015c6:	f89d 0016 	ldrb.w	r0, [sp, #22]
 80015ca:	4318      	orrs	r0, r3
 80015cc:	b007      	add	sp, #28
 80015ce:	f85d fb04 	ldr.w	pc, [sp], #4
 80015d2:	bf00      	nop
 80015d4:	200012b4 	.word	0x200012b4

080015d8 <BME280_ReadTemperature>:
 80015d8:	20fa      	movs	r0, #250	; 0xfa
 80015da:	b510      	push	{r4, lr}
 80015dc:	f7ff ffde 	bl	800159c <BME280_ReadReg_BE_U24>
 80015e0:	f5b0 0f00 	cmp.w	r0, #8388608	; 0x800000
 80015e4:	d037      	beq.n	8001656 <BME280_ReadTemperature+0x7e>
 80015e6:	1100      	asrs	r0, r0, #4
 80015e8:	4604      	mov	r4, r0
 80015ea:	491c      	ldr	r1, [pc, #112]	; (800165c <BME280_ReadTemperature+0x84>)
 80015ec:	2800      	cmp	r0, #0
 80015ee:	880a      	ldrh	r2, [r1, #0]
 80015f0:	bfb8      	it	lt
 80015f2:	1dc4      	addlt	r4, r0, #7
 80015f4:	2800      	cmp	r0, #0
 80015f6:	bfb8      	it	lt
 80015f8:	300f      	addlt	r0, #15
 80015fa:	ebc2 1020 	rsb	r0, r2, r0, asr #4
 80015fe:	4340      	muls	r0, r0
 8001600:	ea4f 0342 	mov.w	r3, r2, lsl #1
 8001604:	ebc3 04e4 	rsb	r4, r3, r4, asr #3
 8001608:	f9b1 3002 	ldrsh.w	r3, [r1, #2]
 800160c:	f9b1 2004 	ldrsh.w	r2, [r1, #4]
 8001610:	bf48      	it	mi
 8001612:	f600 70ff 	addwmi	r0, r0, #4095	; 0xfff
 8001616:	4363      	muls	r3, r4
 8001618:	1300      	asrs	r0, r0, #12
 800161a:	4350      	muls	r0, r2
 800161c:	2b00      	cmp	r3, #0
 800161e:	bfb8      	it	lt
 8001620:	f203 73ff 	addwlt	r3, r3, #2047	; 0x7ff
 8001624:	2800      	cmp	r0, #0
 8001626:	bfb8      	it	lt
 8001628:	f500 507f 	addlt.w	r0, r0, #16320	; 0x3fc0
 800162c:	4a0c      	ldr	r2, [pc, #48]	; (8001660 <BME280_ReadTemperature+0x88>)
 800162e:	bfb8      	it	lt
 8001630:	303f      	addlt	r0, #63	; 0x3f
 8001632:	12db      	asrs	r3, r3, #11
 8001634:	eb03 33a0 	add.w	r3, r3, r0, asr #14
 8001638:	6013      	str	r3, [r2, #0]
 800163a:	eb03 0383 	add.w	r3, r3, r3, lsl #2
 800163e:	f113 0080 	adds.w	r0, r3, #128	; 0x80
 8001642:	bf48      	it	mi
 8001644:	f203 107f 	addwmi	r0, r3, #383	; 0x17f
 8001648:	1200      	asrs	r0, r0, #8
 800164a:	f7ff fb27 	bl	8000c9c <__aeabi_i2f>
 800164e:	4905      	ldr	r1, [pc, #20]	; (8001664 <BME280_ReadTemperature+0x8c>)
 8001650:	f7ff fc2c 	bl	8000eac <__aeabi_fdiv>
 8001654:	bd10      	pop	{r4, pc}
 8001656:	4804      	ldr	r0, [pc, #16]	; (8001668 <BME280_ReadTemperature+0x90>)
 8001658:	e7fc      	b.n	8001654 <BME280_ReadTemperature+0x7c>
 800165a:	bf00      	nop
 800165c:	2000060c 	.word	0x2000060c
 8001660:	20000de4 	.word	0x20000de4
 8001664:	42c80000 	.word	0x42c80000
 8001668:	7fc00000 	.word	0x7fc00000

0800166c <BME280_ReadPressure>:
 800166c:	e92d 4ff7 	stmdb	sp!, {r0, r1, r2, r4, r5, r6, r7, r8, r9, sl, fp, lr}
 8001670:	f7ff ffb2 	bl	80015d8 <BME280_ReadTemperature>
 8001674:	20f7      	movs	r0, #247	; 0xf7
 8001676:	f7ff ff91 	bl	800159c <BME280_ReadReg_BE_U24>
 800167a:	4b86      	ldr	r3, [pc, #536]	; (8001894 <BME280_ReadPressure+0x228>)
 800167c:	4e86      	ldr	r6, [pc, #536]	; (8001898 <BME280_ReadPressure+0x22c>)
 800167e:	681a      	ldr	r2, [r3, #0]
 8001680:	4686      	mov	lr, r0
 8001682:	f5b2 37fa 	subs.w	r7, r2, #128000	; 0x1f400
 8001686:	ea4f 73e2 	mov.w	r3, r2, asr #31
 800168a:	fba7 1207 	umull	r1, r2, r7, r7
 800168e:	f143 3cff 	adc.w	ip, r3, #4294967295	; 0xffffffff
 8001692:	fb07 f30c 	mul.w	r3, r7, ip
 8001696:	e9cd 1200 	strd	r1, r2, [sp]
 800169a:	9a01      	ldr	r2, [sp, #4]
 800169c:	eb02 0343 	add.w	r3, r2, r3, lsl #1
 80016a0:	f9b6 2008 	ldrsh.w	r2, [r6, #8]
 80016a4:	9301      	str	r3, [sp, #4]
 80016a6:	fb02 f10c 	mul.w	r1, r2, ip
 80016aa:	17d3      	asrs	r3, r2, #31
 80016ac:	fb07 1103 	mla	r1, r7, r3, r1
 80016b0:	fba2 2307 	umull	r2, r3, r2, r7
 80016b4:	440b      	add	r3, r1
 80016b6:	0319      	lsls	r1, r3, #12
 80016b8:	9801      	ldr	r0, [sp, #4]
 80016ba:	ea41 5112 	orr.w	r1, r1, r2, lsr #20
 80016be:	ea4f 3902 	mov.w	r9, r2, lsl #12
 80016c2:	f9b6 200a 	ldrsh.w	r2, [r6, #10]
 80016c6:	fb02 fa00 	mul.w	sl, r2, r0
 80016ca:	9800      	ldr	r0, [sp, #0]
 80016cc:	17d3      	asrs	r3, r2, #31
 80016ce:	fb00 aa03 	mla	sl, r0, r3, sl
 80016d2:	fba2 2300 	umull	r2, r3, r2, r0
 80016d6:	4453      	add	r3, sl
 80016d8:	2a00      	cmp	r2, #0
 80016da:	f173 0800 	sbcs.w	r8, r3, #0
 80016de:	da02      	bge.n	80016e6 <BME280_ReadPressure+0x7a>
 80016e0:	32ff      	adds	r2, #255	; 0xff
 80016e2:	f143 0300 	adc.w	r3, r3, #0
 80016e6:	ea4f 2a12 	mov.w	sl, r2, lsr #8
 80016ea:	ea4a 6a03 	orr.w	sl, sl, r3, lsl #24
 80016ee:	88f2      	ldrh	r2, [r6, #6]
 80016f0:	ea4f 2b23 	mov.w	fp, r3, asr #8
 80016f4:	eb1a 0009 	adds.w	r0, sl, r9
 80016f8:	eb4b 0b01 	adc.w	fp, fp, r1
 80016fc:	3000      	adds	r0, #0
 80016fe:	fba0 0102 	umull	r0, r1, r0, r2
 8001702:	f54b 4b00 	adc.w	fp, fp, #32768	; 0x8000
 8001706:	fb02 110b 	mla	r1, r2, fp, r1
 800170a:	2800      	cmp	r0, #0
 800170c:	f171 0300 	sbcs.w	r3, r1, #0
 8001710:	da03      	bge.n	800171a <BME280_ReadPressure+0xae>
 8001712:	f110 30ff 	adds.w	r0, r0, #4294967295	; 0xffffffff
 8001716:	f141 0101 	adc.w	r1, r1, #1
 800171a:	104a      	asrs	r2, r1, #1
 800171c:	17cb      	asrs	r3, r1, #31
 800171e:	ea52 0103 	orrs.w	r1, r2, r3
 8001722:	f000 80b4 	beq.w	800188e <BME280_ReadPressure+0x222>
 8001726:	f9b6 a010 	ldrsh.w	sl, [r6, #16]
 800172a:	9901      	ldr	r1, [sp, #4]
 800172c:	9800      	ldr	r0, [sp, #0]
 800172e:	fb0a f901 	mul.w	r9, sl, r1
 8001732:	9900      	ldr	r1, [sp, #0]
 8001734:	ea4f 7bea 	mov.w	fp, sl, asr #31
 8001738:	fb01 910b 	mla	r1, r1, fp, r9
 800173c:	fbaa 8900 	umull	r8, r9, sl, r0
 8001740:	f9b6 000e 	ldrsh.w	r0, [r6, #14]
 8001744:	4489      	add	r9, r1
 8001746:	fb00 fc0c 	mul.w	ip, r0, ip
 800174a:	17c1      	asrs	r1, r0, #31
 800174c:	fb07 cc01 	mla	ip, r7, r1, ip
 8001750:	fba0 0107 	umull	r0, r1, r0, r7
 8001754:	4461      	add	r1, ip
 8001756:	ea4f 4c41 	mov.w	ip, r1, lsl #17
 800175a:	ea4c 3cd0 	orr.w	ip, ip, r0, lsr #15
 800175e:	0447      	lsls	r7, r0, #17
 8001760:	2000      	movs	r0, #0
 8001762:	eb17 0708 	adds.w	r7, r7, r8
 8001766:	eb4c 0c09 	adc.w	ip, ip, r9
 800176a:	19c0      	adds	r0, r0, r7
 800176c:	f640 4735 	movw	r7, #3125	; 0xc35
 8001770:	ea4f 1e2e 	mov.w	lr, lr, asr #4
 8001774:	f5ce 1e80 	rsb	lr, lr, #1048576	; 0x100000
 8001778:	ea4f 79ee 	mov.w	r9, lr, asr #31
 800177c:	f9b6 800c 	ldrsh.w	r8, [r6, #12]
 8001780:	ea4f 7ac9 	mov.w	sl, r9, lsl #31
 8001784:	ea4f 71ce 	mov.w	r1, lr, lsl #31
 8001788:	ea4a 0a5e 	orr.w	sl, sl, lr, lsr #1
 800178c:	ea4f 0ec8 	mov.w	lr, r8, lsl #3
 8001790:	eb4e 0c0c 	adc.w	ip, lr, ip
 8001794:	1a08      	subs	r0, r1, r0
 8001796:	fba0 0107 	umull	r0, r1, r0, r7
 800179a:	eb6a 0a0c 	sbc.w	sl, sl, ip
 800179e:	fb07 110a 	mla	r1, r7, sl, r1
 80017a2:	f7ff fcdb 	bl	800115c <__aeabi_ldivmod>
 80017a6:	2800      	cmp	r0, #0
 80017a8:	f171 0200 	sbcs.w	r2, r1, #0
 80017ac:	4680      	mov	r8, r0
 80017ae:	4689      	mov	r9, r1
 80017b0:	460b      	mov	r3, r1
 80017b2:	da06      	bge.n	80017c2 <BME280_ReadPressure+0x156>
 80017b4:	f641 70ff 	movw	r0, #8191	; 0x1fff
 80017b8:	2300      	movs	r3, #0
 80017ba:	eb18 0000 	adds.w	r0, r8, r0
 80017be:	eb41 0303 	adc.w	r3, r1, r3
 80017c2:	f9b6 2016 	ldrsh.w	r2, [r6, #22]
 80017c6:	1359      	asrs	r1, r3, #13
 80017c8:	0b40      	lsrs	r0, r0, #13
 80017ca:	ea40 40c3 	orr.w	r0, r0, r3, lsl #19
 80017ce:	fb02 f701 	mul.w	r7, r2, r1
 80017d2:	fba2 ab00 	umull	sl, fp, r2, r0
 80017d6:	17d3      	asrs	r3, r2, #31
 80017d8:	fb00 7703 	mla	r7, r0, r3, r7
 80017dc:	fb0a f101 	mul.w	r1, sl, r1
 80017e0:	44bb      	add	fp, r7
 80017e2:	fb00 130b 	mla	r3, r0, fp, r1
 80017e6:	fbaa 0100 	umull	r0, r1, sl, r0
 80017ea:	4419      	add	r1, r3
 80017ec:	460b      	mov	r3, r1
 80017ee:	2800      	cmp	r0, #0
 80017f0:	f173 0100 	sbcs.w	r1, r3, #0
 80017f4:	4602      	mov	r2, r0
 80017f6:	da06      	bge.n	8001806 <BME280_ReadPressure+0x19a>
 80017f8:	f06f 417e 	mvn.w	r1, #4261412864	; 0xfe000000
 80017fc:	1842      	adds	r2, r0, r1
 80017fe:	f04f 0100 	mov.w	r1, #0
 8001802:	eb41 0303 	adc.w	r3, r1, r3
 8001806:	f9b6 a014 	ldrsh.w	sl, [r6, #20]
 800180a:	0e51      	lsrs	r1, r2, #25
 800180c:	fb0a f709 	mul.w	r7, sl, r9
 8001810:	ea41 11c3 	orr.w	r1, r1, r3, lsl #7
 8001814:	eb11 0108 	adds.w	r1, r1, r8
 8001818:	ea4f 6063 	mov.w	r0, r3, asr #25
 800181c:	ea4f 7bea 	mov.w	fp, sl, asr #31
 8001820:	fb08 730b 	mla	r3, r8, fp, r7
 8001824:	eb40 0009 	adc.w	r0, r0, r9
 8001828:	fbaa 8908 	umull	r8, r9, sl, r8
 800182c:	4499      	add	r9, r3
 800182e:	f1b8 0f00 	cmp.w	r8, #0
 8001832:	f179 0300 	sbcs.w	r3, r9, #0
 8001836:	da06      	bge.n	8001846 <BME280_ReadPressure+0x1da>
 8001838:	4b18      	ldr	r3, [pc, #96]	; (800189c <BME280_ReadPressure+0x230>)
 800183a:	eb18 0803 	adds.w	r8, r8, r3
 800183e:	f04f 0300 	mov.w	r3, #0
 8001842:	eb49 0903 	adc.w	r9, r9, r3
 8001846:	ea4f 43d8 	mov.w	r3, r8, lsr #19
 800184a:	ea43 3349 	orr.w	r3, r3, r9, lsl #13
 800184e:	18cc      	adds	r4, r1, r3
 8001850:	ea4f 42e9 	mov.w	r2, r9, asr #19
 8001854:	eb40 0502 	adc.w	r5, r0, r2
 8001858:	2c00      	cmp	r4, #0
 800185a:	f175 0300 	sbcs.w	r3, r5, #0
 800185e:	da02      	bge.n	8001866 <BME280_ReadPressure+0x1fa>
 8001860:	34ff      	adds	r4, #255	; 0xff
 8001862:	f145 0500 	adc.w	r5, r5, #0
 8001866:	2210      	movs	r2, #16
 8001868:	0a23      	lsrs	r3, r4, #8
 800186a:	ea43 6005 	orr.w	r0, r3, r5, lsl #24
 800186e:	f9b6 3012 	ldrsh.w	r3, [r6, #18]
 8001872:	1229      	asrs	r1, r5, #8
 8001874:	fbc3 0102 	smlal	r0, r1, r3, r2
 8001878:	f7fe fe00 	bl	800047c <__aeabi_l2d>
 800187c:	2200      	movs	r2, #0
 800187e:	4b08      	ldr	r3, [pc, #32]	; (80018a0 <BME280_ReadPressure+0x234>)
 8001880:	f7fe fe2a 	bl	80004d8 <__aeabi_dmul>
 8001884:	f7ff f900 	bl	8000a88 <__aeabi_d2f>
 8001888:	b003      	add	sp, #12
 800188a:	e8bd 8ff0 	ldmia.w	sp!, {r4, r5, r6, r7, r8, r9, sl, fp, pc}
 800188e:	2000      	movs	r0, #0
 8001890:	e7fa      	b.n	8001888 <BME280_ReadPressure+0x21c>
 8001892:	bf00      	nop
 8001894:	20000de4 	.word	0x20000de4
 8001898:	2000060c 	.word	0x2000060c
 800189c:	0007ffff 	.word	0x0007ffff
 80018a0:	3f700000 	.word	0x3f700000

080018a4 <BME280_ReadHumidity>:
 80018a4:	b510      	push	{r4, lr}
 80018a6:	f7ff fe97 	bl	80015d8 <BME280_ReadTemperature>
 80018aa:	20fd      	movs	r0, #253	; 0xfd
 80018ac:	f7ff fe5c 	bl	8001568 <BME280_ReadReg_BE_S16>
 80018b0:	f5b0 4f00 	cmp.w	r0, #32768	; 0x8000
 80018b4:	d056      	beq.n	8001964 <BME280_ReadHumidity+0xc0>
 80018b6:	4a2c      	ldr	r2, [pc, #176]	; (8001968 <BME280_ReadHumidity+0xc4>)
 80018b8:	4b2c      	ldr	r3, [pc, #176]	; (800196c <BME280_ReadHumidity+0xc8>)
 80018ba:	f9b2 101e 	ldrsh.w	r1, [r2, #30]
 80018be:	681b      	ldr	r3, [r3, #0]
 80018c0:	0509      	lsls	r1, r1, #20
 80018c2:	ebc1 3180 	rsb	r1, r1, r0, lsl #14
 80018c6:	f9b2 0020 	ldrsh.w	r0, [r2, #32]
 80018ca:	f5a3 3396 	sub.w	r3, r3, #76800	; 0x12c00
 80018ce:	fb03 1010 	mls	r0, r3, r0, r1
 80018d2:	7f11      	ldrb	r1, [r2, #28]
 80018d4:	f510 4080 	adds.w	r0, r0, #16384	; 0x4000
 80018d8:	bf44      	itt	mi
 80018da:	f500 40ff 	addmi.w	r0, r0, #32640	; 0x7f80
 80018de:	307f      	addmi	r0, #127	; 0x7f
 80018e0:	4359      	muls	r1, r3
 80018e2:	f992 4022 	ldrsb.w	r4, [r2, #34]	; 0x22
 80018e6:	bf48      	it	mi
 80018e8:	f201 71ff 	addwmi	r1, r1, #2047	; 0x7ff
 80018ec:	4363      	muls	r3, r4
 80018ee:	ea4f 21e1 	mov.w	r1, r1, asr #11
 80018f2:	bf48      	it	mi
 80018f4:	f203 33ff 	addwmi	r3, r3, #1023	; 0x3ff
 80018f8:	f501 4100 	add.w	r1, r1, #32768	; 0x8000
 80018fc:	129b      	asrs	r3, r3, #10
 80018fe:	434b      	muls	r3, r1
 8001900:	bf48      	it	mi
 8001902:	f203 33ff 	addwmi	r3, r3, #1023	; 0x3ff
 8001906:	f9b2 101a 	ldrsh.w	r1, [r2, #26]
 800190a:	129b      	asrs	r3, r3, #10
 800190c:	f503 1300 	add.w	r3, r3, #2097152	; 0x200000
 8001910:	434b      	muls	r3, r1
 8001912:	f513 5300 	adds.w	r3, r3, #8192	; 0x2000
 8001916:	bf44      	itt	mi
 8001918:	f503 537f 	addmi.w	r3, r3, #16320	; 0x3fc0
 800191c:	333f      	addmi	r3, #63	; 0x3f
 800191e:	139b      	asrs	r3, r3, #14
 8001920:	13c0      	asrs	r0, r0, #15
 8001922:	4358      	muls	r0, r3
 8001924:	4603      	mov	r3, r0
 8001926:	2800      	cmp	r0, #0
 8001928:	bfbc      	itt	lt
 800192a:	f500 43ff 	addlt.w	r3, r0, #32640	; 0x7f80
 800192e:	337f      	addlt	r3, #127	; 0x7f
 8001930:	13db      	asrs	r3, r3, #15
 8001932:	435b      	muls	r3, r3
 8001934:	7e12      	ldrb	r2, [r2, #24]
 8001936:	bf48      	it	mi
 8001938:	337f      	addmi	r3, #127	; 0x7f
 800193a:	11db      	asrs	r3, r3, #7
 800193c:	4353      	muls	r3, r2
 800193e:	bf48      	it	mi
 8001940:	330f      	addmi	r3, #15
 8001942:	eba0 1023 	sub.w	r0, r0, r3, asr #4
 8001946:	ea20 70e0 	bic.w	r0, r0, r0, asr #31
 800194a:	f1b0 5fc8 	cmp.w	r0, #419430400	; 0x19000000
 800194e:	bfa8      	it	ge
 8001950:	f04f 50c8 	movge.w	r0, #419430400	; 0x19000000
 8001954:	1300      	asrs	r0, r0, #12
 8001956:	f7ff f99d 	bl	8000c94 <__aeabi_ui2f>
 800195a:	f04f 516a 	mov.w	r1, #981467136	; 0x3a800000
 800195e:	f7ff f9f1 	bl	8000d44 <__aeabi_fmul>
 8001962:	bd10      	pop	{r4, pc}
 8001964:	4802      	ldr	r0, [pc, #8]	; (8001970 <BME280_ReadHumidity+0xcc>)
 8001966:	e7fc      	b.n	8001962 <BME280_ReadHumidity+0xbe>
 8001968:	2000060c 	.word	0x2000060c
 800196c:	20000de4 	.word	0x20000de4
 8001970:	7fc00000 	.word	0x7fc00000

08001974 <BME280_Init>:
 8001974:	20d0      	movs	r0, #208	; 0xd0
 8001976:	b538      	push	{r3, r4, r5, lr}
 8001978:	f7ff fdba 	bl	80014f0 <BME280_ReadReg>
 800197c:	2860      	cmp	r0, #96	; 0x60
 800197e:	f040 80b1 	bne.w	8001ae4 <BME280_Init+0x170>
 8001982:	21b6      	movs	r1, #182	; 0xb6
 8001984:	20e0      	movs	r0, #224	; 0xe0
 8001986:	f7ff fd9d 	bl	80014c4 <BME280_WriteReg>
 800198a:	20f3      	movs	r0, #243	; 0xf3
 800198c:	f7ff fdb0 	bl	80014f0 <BME280_ReadReg>
 8001990:	07c3      	lsls	r3, r0, #31
 8001992:	d4fa      	bmi.n	800198a <BME280_Init+0x16>
 8001994:	4c54      	ldr	r4, [pc, #336]	; (8001ae8 <BME280_Init+0x174>)
 8001996:	2088      	movs	r0, #136	; 0x88
 8001998:	4621      	mov	r1, r4
 800199a:	f7ff fdc1 	bl	8001520 <BME280_ReadReg_U16>
 800199e:	1ca1      	adds	r1, r4, #2
 80019a0:	208a      	movs	r0, #138	; 0x8a
 80019a2:	f7ff fdcf 	bl	8001544 <BME280_ReadReg_S16>
 80019a6:	1d21      	adds	r1, r4, #4
 80019a8:	208c      	movs	r0, #140	; 0x8c
 80019aa:	f7ff fdcb 	bl	8001544 <BME280_ReadReg_S16>
 80019ae:	1da1      	adds	r1, r4, #6
 80019b0:	208e      	movs	r0, #142	; 0x8e
 80019b2:	f7ff fdb5 	bl	8001520 <BME280_ReadReg_U16>
 80019b6:	f104 0108 	add.w	r1, r4, #8
 80019ba:	2090      	movs	r0, #144	; 0x90
 80019bc:	f7ff fdc2 	bl	8001544 <BME280_ReadReg_S16>
 80019c0:	f104 010a 	add.w	r1, r4, #10
 80019c4:	2092      	movs	r0, #146	; 0x92
 80019c6:	f7ff fdbd 	bl	8001544 <BME280_ReadReg_S16>
 80019ca:	f104 010c 	add.w	r1, r4, #12
 80019ce:	2094      	movs	r0, #148	; 0x94
 80019d0:	f7ff fdb8 	bl	8001544 <BME280_ReadReg_S16>
 80019d4:	f104 010e 	add.w	r1, r4, #14
 80019d8:	2096      	movs	r0, #150	; 0x96
 80019da:	f7ff fdb3 	bl	8001544 <BME280_ReadReg_S16>
 80019de:	f104 0110 	add.w	r1, r4, #16
 80019e2:	2098      	movs	r0, #152	; 0x98
 80019e4:	f7ff fdae 	bl	8001544 <BME280_ReadReg_S16>
 80019e8:	f104 0112 	add.w	r1, r4, #18
 80019ec:	209a      	movs	r0, #154	; 0x9a
 80019ee:	f7ff fda9 	bl	8001544 <BME280_ReadReg_S16>
 80019f2:	f104 0114 	add.w	r1, r4, #20
 80019f6:	209c      	movs	r0, #156	; 0x9c
 80019f8:	f7ff fda4 	bl	8001544 <BME280_ReadReg_S16>
 80019fc:	f104 0116 	add.w	r1, r4, #22
 8001a00:	209e      	movs	r0, #158	; 0x9e
 8001a02:	f7ff fd9f 	bl	8001544 <BME280_ReadReg_S16>
 8001a06:	20a1      	movs	r0, #161	; 0xa1
 8001a08:	f7ff fd72 	bl	80014f0 <BME280_ReadReg>
 8001a0c:	f104 011a 	add.w	r1, r4, #26
 8001a10:	7620      	strb	r0, [r4, #24]
 8001a12:	20e1      	movs	r0, #225	; 0xe1
 8001a14:	f7ff fd96 	bl	8001544 <BME280_ReadReg_S16>
 8001a18:	20e3      	movs	r0, #227	; 0xe3
 8001a1a:	f7ff fd69 	bl	80014f0 <BME280_ReadReg>
 8001a1e:	7720      	strb	r0, [r4, #28]
 8001a20:	20e4      	movs	r0, #228	; 0xe4
 8001a22:	f7ff fd65 	bl	80014f0 <BME280_ReadReg>
 8001a26:	4605      	mov	r5, r0
 8001a28:	20e5      	movs	r0, #229	; 0xe5
 8001a2a:	f7ff fd61 	bl	80014f0 <BME280_ReadReg>
 8001a2e:	f000 030f 	and.w	r3, r0, #15
 8001a32:	ea43 1005 	orr.w	r0, r3, r5, lsl #4
 8001a36:	83e0      	strh	r0, [r4, #30]
 8001a38:	20e6      	movs	r0, #230	; 0xe6
 8001a3a:	f7ff fd59 	bl	80014f0 <BME280_ReadReg>
 8001a3e:	4605      	mov	r5, r0
 8001a40:	20e5      	movs	r0, #229	; 0xe5
 8001a42:	f7ff fd55 	bl	80014f0 <BME280_ReadReg>
 8001a46:	f3c0 1307 	ubfx	r3, r0, #4, #8
 8001a4a:	ea43 1005 	orr.w	r0, r3, r5, lsl #4
 8001a4e:	8420      	strh	r0, [r4, #32]
 8001a50:	20e7      	movs	r0, #231	; 0xe7
 8001a52:	f7ff fd4d 	bl	80014f0 <BME280_ReadReg>
 8001a56:	f884 0022 	strb.w	r0, [r4, #34]	; 0x22
 8001a5a:	20f5      	movs	r0, #245	; 0xf5
 8001a5c:	f7ff fd48 	bl	80014f0 <BME280_ReadReg>
 8001a60:	f000 011f 	and.w	r1, r0, #31
 8001a64:	f041 01a0 	orr.w	r1, r1, #160	; 0xa0
 8001a68:	20f5      	movs	r0, #245	; 0xf5
 8001a6a:	f7ff fd2b 	bl	80014c4 <BME280_WriteReg>
 8001a6e:	20f5      	movs	r0, #245	; 0xf5
 8001a70:	f7ff fd3e 	bl	80014f0 <BME280_ReadReg>
 8001a74:	f000 01e3 	and.w	r1, r0, #227	; 0xe3
 8001a78:	f041 0108 	orr.w	r1, r1, #8
 8001a7c:	20f5      	movs	r0, #245	; 0xf5
 8001a7e:	f7ff fd21 	bl	80014c4 <BME280_WriteReg>
 8001a82:	20f4      	movs	r0, #244	; 0xf4
 8001a84:	f7ff fd34 	bl	80014f0 <BME280_ReadReg>
 8001a88:	f000 011f 	and.w	r1, r0, #31
 8001a8c:	f041 0160 	orr.w	r1, r1, #96	; 0x60
 8001a90:	20f4      	movs	r0, #244	; 0xf4
 8001a92:	f7ff fd17 	bl	80014c4 <BME280_WriteReg>
 8001a96:	20f4      	movs	r0, #244	; 0xf4
 8001a98:	f7ff fd2a 	bl	80014f0 <BME280_ReadReg>
 8001a9c:	f000 01e3 	and.w	r1, r0, #227	; 0xe3
 8001aa0:	f041 010c 	orr.w	r1, r1, #12
 8001aa4:	20f4      	movs	r0, #244	; 0xf4
 8001aa6:	f7ff fd0d 	bl	80014c4 <BME280_WriteReg>
 8001aaa:	20f2      	movs	r0, #242	; 0xf2
 8001aac:	f7ff fd20 	bl	80014f0 <BME280_ReadReg>
 8001ab0:	f000 01f8 	and.w	r1, r0, #248	; 0xf8
 8001ab4:	f041 0103 	orr.w	r1, r1, #3
 8001ab8:	20f2      	movs	r0, #242	; 0xf2
 8001aba:	f7ff fd03 	bl	80014c4 <BME280_WriteReg>
 8001abe:	20f4      	movs	r0, #244	; 0xf4
 8001ac0:	f7ff fd16 	bl	80014f0 <BME280_ReadReg>
 8001ac4:	4601      	mov	r1, r0
 8001ac6:	20f4      	movs	r0, #244	; 0xf4
 8001ac8:	f7ff fcfc 	bl	80014c4 <BME280_WriteReg>
 8001acc:	20f4      	movs	r0, #244	; 0xf4
 8001ace:	f7ff fd0f 	bl	80014f0 <BME280_ReadReg>
 8001ad2:	e8bd 4038 	ldmia.w	sp!, {r3, r4, r5, lr}
 8001ad6:	f000 01fc 	and.w	r1, r0, #252	; 0xfc
 8001ada:	f041 0103 	orr.w	r1, r1, #3
 8001ade:	20f4      	movs	r0, #244	; 0xf4
 8001ae0:	f7ff bcf0 	b.w	80014c4 <BME280_WriteReg>
 8001ae4:	bd38      	pop	{r3, r4, r5, pc}
 8001ae6:	bf00      	nop
 8001ae8:	2000060c 	.word	0x2000060c

08001aec <default_ip_assign>:
 8001aec:	b508      	push	{r3, lr}
 8001aee:	2204      	movs	r2, #4
 8001af0:	f44f 6070 	mov.w	r0, #3840	; 0xf00
 8001af4:	4908      	ldr	r1, [pc, #32]	; (8001b18 <default_ip_assign+0x2c>)
 8001af6:	f003 fc57 	bl	80053a8 <WIZCHIP_WRITE_BUF>
 8001afa:	2204      	movs	r2, #4
 8001afc:	f44f 60a0 	mov.w	r0, #1280	; 0x500
 8001b00:	4906      	ldr	r1, [pc, #24]	; (8001b1c <default_ip_assign+0x30>)
 8001b02:	f003 fc51 	bl	80053a8 <WIZCHIP_WRITE_BUF>
 8001b06:	e8bd 4008 	ldmia.w	sp!, {r3, lr}
 8001b0a:	2204      	movs	r2, #4
 8001b0c:	f44f 7080 	mov.w	r0, #256	; 0x100
 8001b10:	4903      	ldr	r1, [pc, #12]	; (8001b20 <default_ip_assign+0x34>)
 8001b12:	f003 bc49 	b.w	80053a8 <WIZCHIP_WRITE_BUF>
 8001b16:	bf00      	nop
 8001b18:	2000046c 	.word	0x2000046c
 8001b1c:	20000470 	.word	0x20000470
 8001b20:	20000368 	.word	0x20000368

08001b24 <default_ip_update>:
 8001b24:	b508      	push	{r3, lr}
 8001b26:	2180      	movs	r1, #128	; 0x80
 8001b28:	2000      	movs	r0, #0
 8001b2a:	f003 fbd1 	bl	80052d0 <WIZCHIP_WRITE>
 8001b2e:	2000      	movs	r0, #0
 8001b30:	f003 fba0 	bl	8005274 <WIZCHIP_READ>
 8001b34:	f7ff ffda 	bl	8001aec <default_ip_assign>
 8001b38:	e8bd 4008 	ldmia.w	sp!, {r3, lr}
 8001b3c:	2206      	movs	r2, #6
 8001b3e:	f44f 6010 	mov.w	r0, #2304	; 0x900
 8001b42:	4901      	ldr	r1, [pc, #4]	; (8001b48 <default_ip_update+0x24>)
 8001b44:	f003 bc30 	b.w	80053a8 <WIZCHIP_WRITE_BUF>
 8001b48:	20000df8 	.word	0x20000df8

08001b4c <default_ip_conflict>:
 8001b4c:	b508      	push	{r3, lr}
 8001b4e:	2180      	movs	r1, #128	; 0x80
 8001b50:	2000      	movs	r0, #0
 8001b52:	f003 fbbd 	bl	80052d0 <WIZCHIP_WRITE>
 8001b56:	2000      	movs	r0, #0
 8001b58:	f003 fb8c 	bl	8005274 <WIZCHIP_READ>
 8001b5c:	e8bd 4008 	ldmia.w	sp!, {r3, lr}
 8001b60:	2206      	movs	r2, #6
 8001b62:	f44f 6010 	mov.w	r0, #2304	; 0x900
 8001b66:	4901      	ldr	r1, [pc, #4]	; (8001b6c <default_ip_conflict+0x20>)
 8001b68:	f003 bc1e 	b.w	80053a8 <WIZCHIP_WRITE_BUF>
 8001b6c:	20000df8 	.word	0x20000df8

08001b70 <reg_dhcp_cbfunc>:
 8001b70:	b570      	push	{r4, r5, r6, lr}
 8001b72:	4b09      	ldr	r3, [pc, #36]	; (8001b98 <reg_dhcp_cbfunc+0x28>)
 8001b74:	4e09      	ldr	r6, [pc, #36]	; (8001b9c <reg_dhcp_cbfunc+0x2c>)
 8001b76:	4c0a      	ldr	r4, [pc, #40]	; (8001ba0 <reg_dhcp_cbfunc+0x30>)
 8001b78:	601e      	str	r6, [r3, #0]
 8001b7a:	4e0a      	ldr	r6, [pc, #40]	; (8001ba4 <reg_dhcp_cbfunc+0x34>)
 8001b7c:	4d0a      	ldr	r5, [pc, #40]	; (8001ba8 <reg_dhcp_cbfunc+0x38>)
 8001b7e:	2800      	cmp	r0, #0
 8001b80:	bf08      	it	eq
 8001b82:	4630      	moveq	r0, r6
 8001b84:	2900      	cmp	r1, #0
 8001b86:	bf18      	it	ne
 8001b88:	460c      	movne	r4, r1
 8001b8a:	4e08      	ldr	r6, [pc, #32]	; (8001bac <reg_dhcp_cbfunc+0x3c>)
 8001b8c:	602c      	str	r4, [r5, #0]
 8001b8e:	6030      	str	r0, [r6, #0]
 8001b90:	b102      	cbz	r2, 8001b94 <reg_dhcp_cbfunc+0x24>
 8001b92:	601a      	str	r2, [r3, #0]
 8001b94:	bd70      	pop	{r4, r5, r6, pc}
 8001b96:	bf00      	nop
 8001b98:	2000000c 	.word	0x2000000c
 8001b9c:	08001b4d 	.word	0x08001b4d
 8001ba0:	08001b25 	.word	0x08001b25
 8001ba4:	08001aed 	.word	0x08001aed
 8001ba8:	20000010 	.word	0x20000010
 8001bac:	20000008 	.word	0x20000008

08001bb0 <makeDHCPMSG>:
 8001bb0:	b507      	push	{r0, r1, r2, lr}
 8001bb2:	2206      	movs	r2, #6
 8001bb4:	4669      	mov	r1, sp
 8001bb6:	f44f 6010 	mov.w	r0, #2304	; 0x900
 8001bba:	f003 fbbb 	bl	8005334 <WIZCHIP_READ_BUF>
 8001bbe:	4b20      	ldr	r3, [pc, #128]	; (8001c40 <makeDHCPMSG+0x90>)
 8001bc0:	4a20      	ldr	r2, [pc, #128]	; (8001c44 <makeDHCPMSG+0x94>)
 8001bc2:	681b      	ldr	r3, [r3, #0]
 8001bc4:	601a      	str	r2, [r3, #0]
 8001bc6:	4a20      	ldr	r2, [pc, #128]	; (8001c48 <makeDHCPMSG+0x98>)
 8001bc8:	6812      	ldr	r2, [r2, #0]
 8001bca:	0e11      	lsrs	r1, r2, #24
 8001bcc:	7119      	strb	r1, [r3, #4]
 8001bce:	0c11      	lsrs	r1, r2, #16
 8001bd0:	7159      	strb	r1, [r3, #5]
 8001bd2:	0a11      	lsrs	r1, r2, #8
 8001bd4:	7199      	strb	r1, [r3, #6]
 8001bd6:	71da      	strb	r2, [r3, #7]
 8001bd8:	2100      	movs	r1, #0
 8001bda:	f44f 0200 	mov.w	r2, #8388608	; 0x800000
 8001bde:	e9c3 2102 	strd	r2, r1, [r3, #8]
 8001be2:	4a1a      	ldr	r2, [pc, #104]	; (8001c4c <makeDHCPMSG+0x9c>)
 8001be4:	e9c3 1104 	strd	r1, r1, [r3, #16]
 8001be8:	7810      	ldrb	r0, [r2, #0]
 8001bea:	6199      	str	r1, [r3, #24]
 8001bec:	7718      	strb	r0, [r3, #28]
 8001bee:	7850      	ldrb	r0, [r2, #1]
 8001bf0:	7758      	strb	r0, [r3, #29]
 8001bf2:	7890      	ldrb	r0, [r2, #2]
 8001bf4:	7798      	strb	r0, [r3, #30]
 8001bf6:	78d0      	ldrb	r0, [r2, #3]
 8001bf8:	77d8      	strb	r0, [r3, #31]
 8001bfa:	7910      	ldrb	r0, [r2, #4]
 8001bfc:	7952      	ldrb	r2, [r2, #5]
 8001bfe:	f883 0020 	strb.w	r0, [r3, #32]
 8001c02:	f883 2021 	strb.w	r2, [r3, #33]	; 0x21
 8001c06:	f103 002c 	add.w	r0, r3, #44	; 0x2c
 8001c0a:	f103 0222 	add.w	r2, r3, #34	; 0x22
 8001c0e:	f802 1b01 	strb.w	r1, [r2], #1
 8001c12:	4282      	cmp	r2, r0
 8001c14:	d1fb      	bne.n	8001c0e <makeDHCPMSG+0x5e>
 8001c16:	2000      	movs	r0, #0
 8001c18:	f103 016c 	add.w	r1, r3, #108	; 0x6c
 8001c1c:	f802 0b01 	strb.w	r0, [r2], #1
 8001c20:	428a      	cmp	r2, r1
 8001c22:	d1fb      	bne.n	8001c1c <makeDHCPMSG+0x6c>
 8001c24:	2000      	movs	r0, #0
 8001c26:	f103 01ec 	add.w	r1, r3, #236	; 0xec
 8001c2a:	f802 0b01 	strb.w	r0, [r2], #1
 8001c2e:	4291      	cmp	r1, r2
 8001c30:	d1fb      	bne.n	8001c2a <makeDHCPMSG+0x7a>
 8001c32:	4a07      	ldr	r2, [pc, #28]	; (8001c50 <makeDHCPMSG+0xa0>)
 8001c34:	f8c3 20ec 	str.w	r2, [r3, #236]	; 0xec
 8001c38:	b003      	add	sp, #12
 8001c3a:	f85d fb04 	ldr.w	pc, [sp], #4
 8001c3e:	bf00      	nop
 8001c40:	20000e0c 	.word	0x20000e0c
 8001c44:	00060101 	.word	0x00060101
 8001c48:	20000e00 	.word	0x20000e00
 8001c4c:	20000df8 	.word	0x20000df8
 8001c50:	63538263 	.word	0x63538263

08001c54 <send_DHCP_DECLINE>:
 8001c54:	b51f      	push	{r0, r1, r2, r3, r4, lr}
 8001c56:	f7ff ffab 	bl	8001bb0 <makeDHCPMSG>
 8001c5a:	4b2d      	ldr	r3, [pc, #180]	; (8001d10 <send_DHCP_DECLINE+0xbc>)
 8001c5c:	2200      	movs	r2, #0
 8001c5e:	6819      	ldr	r1, [r3, #0]
 8001c60:	4b2c      	ldr	r3, [pc, #176]	; (8001d14 <send_DHCP_DECLINE+0xc0>)
 8001c62:	728a      	strb	r2, [r1, #10]
 8001c64:	f8c1 30f0 	str.w	r3, [r1, #240]	; 0xf0
 8001c68:	f240 1307 	movw	r3, #263	; 0x107
 8001c6c:	f8a1 30f4 	strh.w	r3, [r1, #244]	; 0xf4
 8001c70:	4b29      	ldr	r3, [pc, #164]	; (8001d18 <send_DHCP_DECLINE+0xc4>)
 8001c72:	72ca      	strb	r2, [r1, #11]
 8001c74:	7818      	ldrb	r0, [r3, #0]
 8001c76:	f881 00f6 	strb.w	r0, [r1, #246]	; 0xf6
 8001c7a:	7858      	ldrb	r0, [r3, #1]
 8001c7c:	f881 00f7 	strb.w	r0, [r1, #247]	; 0xf7
 8001c80:	7898      	ldrb	r0, [r3, #2]
 8001c82:	f881 00f8 	strb.w	r0, [r1, #248]	; 0xf8
 8001c86:	78d8      	ldrb	r0, [r3, #3]
 8001c88:	f881 00f9 	strb.w	r0, [r1, #249]	; 0xf9
 8001c8c:	7918      	ldrb	r0, [r3, #4]
 8001c8e:	795b      	ldrb	r3, [r3, #5]
 8001c90:	f881 00fa 	strb.w	r0, [r1, #250]	; 0xfa
 8001c94:	f881 30fb 	strb.w	r3, [r1, #251]	; 0xfb
 8001c98:	f240 4332 	movw	r3, #1074	; 0x432
 8001c9c:	f8a1 30fc 	strh.w	r3, [r1, #252]	; 0xfc
 8001ca0:	4b1e      	ldr	r3, [pc, #120]	; (8001d1c <send_DHCP_DECLINE+0xc8>)
 8001ca2:	7818      	ldrb	r0, [r3, #0]
 8001ca4:	f881 00fe 	strb.w	r0, [r1, #254]	; 0xfe
 8001ca8:	7858      	ldrb	r0, [r3, #1]
 8001caa:	f881 00ff 	strb.w	r0, [r1, #255]	; 0xff
 8001cae:	7898      	ldrb	r0, [r3, #2]
 8001cb0:	78db      	ldrb	r3, [r3, #3]
 8001cb2:	f881 0100 	strb.w	r0, [r1, #256]	; 0x100
 8001cb6:	f881 3101 	strb.w	r3, [r1, #257]	; 0x101
 8001cba:	f240 4336 	movw	r3, #1078	; 0x436
 8001cbe:	f8a1 3102 	strh.w	r3, [r1, #258]	; 0x102
 8001cc2:	4b17      	ldr	r3, [pc, #92]	; (8001d20 <send_DHCP_DECLINE+0xcc>)
 8001cc4:	7818      	ldrb	r0, [r3, #0]
 8001cc6:	f881 0104 	strb.w	r0, [r1, #260]	; 0x104
 8001cca:	7858      	ldrb	r0, [r3, #1]
 8001ccc:	f881 0105 	strb.w	r0, [r1, #261]	; 0x105
 8001cd0:	7898      	ldrb	r0, [r3, #2]
 8001cd2:	f881 0106 	strb.w	r0, [r1, #262]	; 0x106
 8001cd6:	78db      	ldrb	r3, [r3, #3]
 8001cd8:	f501 7009 	add.w	r0, r1, #548	; 0x224
 8001cdc:	f881 3107 	strb.w	r3, [r1, #263]	; 0x107
 8001ce0:	23ff      	movs	r3, #255	; 0xff
 8001ce2:	f881 3108 	strb.w	r3, [r1, #264]	; 0x108
 8001ce6:	f201 1309 	addw	r3, r1, #265	; 0x109
 8001cea:	f803 2b01 	strb.w	r2, [r3], #1
 8001cee:	4283      	cmp	r3, r0
 8001cf0:	d1fb      	bne.n	8001cea <send_DHCP_DECLINE+0x96>
 8001cf2:	f04f 33ff 	mov.w	r3, #4294967295	; 0xffffffff
 8001cf6:	9303      	str	r3, [sp, #12]
 8001cf8:	2343      	movs	r3, #67	; 0x43
 8001cfa:	480a      	ldr	r0, [pc, #40]	; (8001d24 <send_DHCP_DECLINE+0xd0>)
 8001cfc:	9300      	str	r3, [sp, #0]
 8001cfe:	f44f 7209 	mov.w	r2, #548	; 0x224
 8001d02:	ab03      	add	r3, sp, #12
 8001d04:	7800      	ldrb	r0, [r0, #0]
 8001d06:	f002 fabf 	bl	8004288 <sendto>
 8001d0a:	b005      	add	sp, #20
 8001d0c:	f85d fb04 	ldr.w	pc, [sp], #4
 8001d10:	20000e0c 	.word	0x20000e0c
 8001d14:	3d040135 	.word	0x3d040135
 8001d18:	20000df8 	.word	0x20000df8
 8001d1c:	2000046c 	.word	0x2000046c
 8001d20:	20000e08 	.word	0x20000e08
 8001d24:	20000e10 	.word	0x20000e10

08001d28 <parseDHCPMSG>:
 8001d28:	e92d 4ff0 	stmdb	sp!, {r4, r5, r6, r7, r8, r9, sl, fp, lr}
 8001d2c:	4da1      	ldr	r5, [pc, #644]	; (8001fb4 <parseDHCPMSG+0x28c>)
 8001d2e:	b08b      	sub	sp, #44	; 0x2c
 8001d30:	7828      	ldrb	r0, [r5, #0]
 8001d32:	f003 fb94 	bl	800545e <getSn_RX_RSR>
 8001d36:	4602      	mov	r2, r0
 8001d38:	b918      	cbnz	r0, 8001d42 <parseDHCPMSG+0x1a>
 8001d3a:	2000      	movs	r0, #0
 8001d3c:	b00b      	add	sp, #44	; 0x2c
 8001d3e:	e8bd 8ff0 	ldmia.w	sp!, {r4, r5, r6, r7, r8, r9, sl, fp, pc}
 8001d42:	f10d 031e 	add.w	r3, sp, #30
 8001d46:	4c9c      	ldr	r4, [pc, #624]	; (8001fb8 <parseDHCPMSG+0x290>)
 8001d48:	9300      	str	r3, [sp, #0]
 8001d4a:	6821      	ldr	r1, [r4, #0]
 8001d4c:	ab08      	add	r3, sp, #32
 8001d4e:	7828      	ldrb	r0, [r5, #0]
 8001d50:	f002 fb4a 	bl	80043e8 <recvfrom>
 8001d54:	f8bd 301e 	ldrh.w	r3, [sp, #30]
 8001d58:	2b43      	cmp	r3, #67	; 0x43
 8001d5a:	f040 8128 	bne.w	8001fae <parseDHCPMSG+0x286>
 8001d5e:	6821      	ldr	r1, [r4, #0]
 8001d60:	4b96      	ldr	r3, [pc, #600]	; (8001fbc <parseDHCPMSG+0x294>)
 8001d62:	7f0c      	ldrb	r4, [r1, #28]
 8001d64:	781a      	ldrb	r2, [r3, #0]
 8001d66:	4294      	cmp	r4, r2
 8001d68:	d1e7      	bne.n	8001d3a <parseDHCPMSG+0x12>
 8001d6a:	7f4c      	ldrb	r4, [r1, #29]
 8001d6c:	785a      	ldrb	r2, [r3, #1]
 8001d6e:	4294      	cmp	r4, r2
 8001d70:	d1e3      	bne.n	8001d3a <parseDHCPMSG+0x12>
 8001d72:	7f8c      	ldrb	r4, [r1, #30]
 8001d74:	789a      	ldrb	r2, [r3, #2]
 8001d76:	4294      	cmp	r4, r2
 8001d78:	d1df      	bne.n	8001d3a <parseDHCPMSG+0x12>
 8001d7a:	7fcc      	ldrb	r4, [r1, #31]
 8001d7c:	78da      	ldrb	r2, [r3, #3]
 8001d7e:	4294      	cmp	r4, r2
 8001d80:	d1db      	bne.n	8001d3a <parseDHCPMSG+0x12>
 8001d82:	f891 4020 	ldrb.w	r4, [r1, #32]
 8001d86:	791a      	ldrb	r2, [r3, #4]
 8001d88:	4294      	cmp	r4, r2
 8001d8a:	d1d6      	bne.n	8001d3a <parseDHCPMSG+0x12>
 8001d8c:	f891 2021 	ldrb.w	r2, [r1, #33]	; 0x21
 8001d90:	795b      	ldrb	r3, [r3, #5]
 8001d92:	429a      	cmp	r2, r3
 8001d94:	d1d1      	bne.n	8001d3a <parseDHCPMSG+0x12>
 8001d96:	4a8a      	ldr	r2, [pc, #552]	; (8001fc0 <parseDHCPMSG+0x298>)
 8001d98:	f89d 9020 	ldrb.w	r9, [sp, #32]
 8001d9c:	7817      	ldrb	r7, [r2, #0]
 8001d9e:	7856      	ldrb	r6, [r2, #1]
 8001da0:	7895      	ldrb	r5, [r2, #2]
 8001da2:	78d4      	ldrb	r4, [r2, #3]
 8001da4:	ea47 0306 	orr.w	r3, r7, r6
 8001da8:	432b      	orrs	r3, r5
 8001daa:	4323      	orrs	r3, r4
 8001dac:	9202      	str	r2, [sp, #8]
 8001dae:	d020      	beq.n	8001df2 <parseDHCPMSG+0xca>
 8001db0:	454f      	cmp	r7, r9
 8001db2:	d10b      	bne.n	8001dcc <parseDHCPMSG+0xa4>
 8001db4:	f89d 3021 	ldrb.w	r3, [sp, #33]	; 0x21
 8001db8:	42b3      	cmp	r3, r6
 8001dba:	d107      	bne.n	8001dcc <parseDHCPMSG+0xa4>
 8001dbc:	f89d 3022 	ldrb.w	r3, [sp, #34]	; 0x22
 8001dc0:	42ab      	cmp	r3, r5
 8001dc2:	d103      	bne.n	8001dcc <parseDHCPMSG+0xa4>
 8001dc4:	f89d 3023 	ldrb.w	r3, [sp, #35]	; 0x23
 8001dc8:	42a3      	cmp	r3, r4
 8001dca:	d012      	beq.n	8001df2 <parseDHCPMSG+0xca>
 8001dcc:	4b7d      	ldr	r3, [pc, #500]	; (8001fc4 <parseDHCPMSG+0x29c>)
 8001dce:	781c      	ldrb	r4, [r3, #0]
 8001dd0:	454c      	cmp	r4, r9
 8001dd2:	d1b2      	bne.n	8001d3a <parseDHCPMSG+0x12>
 8001dd4:	f89d 5021 	ldrb.w	r5, [sp, #33]	; 0x21
 8001dd8:	785c      	ldrb	r4, [r3, #1]
 8001dda:	42a5      	cmp	r5, r4
 8001ddc:	d1ad      	bne.n	8001d3a <parseDHCPMSG+0x12>
 8001dde:	f89d 5022 	ldrb.w	r5, [sp, #34]	; 0x22
 8001de2:	789c      	ldrb	r4, [r3, #2]
 8001de4:	42a5      	cmp	r5, r4
 8001de6:	d1a8      	bne.n	8001d3a <parseDHCPMSG+0x12>
 8001de8:	f89d 4023 	ldrb.w	r4, [sp, #35]	; 0x23
 8001dec:	78db      	ldrb	r3, [r3, #3]
 8001dee:	429c      	cmp	r4, r3
 8001df0:	d1a3      	bne.n	8001d3a <parseDHCPMSG+0x12>
 8001df2:	b280      	uxth	r0, r0
 8001df4:	eb01 0a00 	add.w	sl, r1, r0
 8001df8:	2000      	movs	r0, #0
 8001dfa:	f89d 2021 	ldrb.w	r2, [sp, #33]	; 0x21
 8001dfe:	f101 03f0 	add.w	r3, r1, #240	; 0xf0
 8001e02:	9203      	str	r2, [sp, #12]
 8001e04:	f89d 2022 	ldrb.w	r2, [sp, #34]	; 0x22
 8001e08:	496e      	ldr	r1, [pc, #440]	; (8001fc4 <parseDHCPMSG+0x29c>)
 8001e0a:	9204      	str	r2, [sp, #16]
 8001e0c:	f89d 2023 	ldrb.w	r2, [sp, #35]	; 0x23
 8001e10:	4c6d      	ldr	r4, [pc, #436]	; (8001fc8 <parseDHCPMSG+0x2a0>)
 8001e12:	4d6e      	ldr	r5, [pc, #440]	; (8001fcc <parseDHCPMSG+0x2a4>)
 8001e14:	4e6e      	ldr	r6, [pc, #440]	; (8001fd0 <parseDHCPMSG+0x2a8>)
 8001e16:	4f6f      	ldr	r7, [pc, #444]	; (8001fd4 <parseDHCPMSG+0x2ac>)
 8001e18:	9205      	str	r2, [sp, #20]
 8001e1a:	4553      	cmp	r3, sl
 8001e1c:	d301      	bcc.n	8001e22 <parseDHCPMSG+0xfa>
 8001e1e:	b240      	sxtb	r0, r0
 8001e20:	e78c      	b.n	8001d3c <parseDHCPMSG+0x14>
 8001e22:	f893 c000 	ldrb.w	ip, [r3]
 8001e26:	f1bc 0f35 	cmp.w	ip, #53	; 0x35
 8001e2a:	d039      	beq.n	8001ea0 <parseDHCPMSG+0x178>
 8001e2c:	d813      	bhi.n	8001e56 <parseDHCPMSG+0x12e>
 8001e2e:	f1bc 0f06 	cmp.w	ip, #6
 8001e32:	d808      	bhi.n	8001e46 <parseDHCPMSG+0x11e>
 8001e34:	f1bc 0f06 	cmp.w	ip, #6
 8001e38:	d808      	bhi.n	8001e4c <parseDHCPMSG+0x124>
 8001e3a:	e8df f00c 	tbb	[pc, ip]
 8001e3e:	342f      	.short	0x342f
 8001e40:	07074607 	.word	0x07074607
 8001e44:	5b          	.byte	0x5b
 8001e45:	00          	.byte	0x00
 8001e46:	f1bc 0f33 	cmp.w	ip, #51	; 0x33
 8001e4a:	d066      	beq.n	8001f1a <parseDHCPMSG+0x1f2>
 8001e4c:	f103 0c02 	add.w	ip, r3, #2
 8001e50:	785b      	ldrb	r3, [r3, #1]
 8001e52:	4463      	add	r3, ip
 8001e54:	e7e1      	b.n	8001e1a <parseDHCPMSG+0xf2>
 8001e56:	f1bc 0fe1 	cmp.w	ip, #225	; 0xe1
 8001e5a:	f000 808c 	beq.w	8001f76 <parseDHCPMSG+0x24e>
 8001e5e:	d818      	bhi.n	8001e92 <parseDHCPMSG+0x16a>
 8001e60:	f1bc 0f36 	cmp.w	ip, #54	; 0x36
 8001e64:	d06d      	beq.n	8001f42 <parseDHCPMSG+0x21a>
 8001e66:	f1bc 0fe0 	cmp.w	ip, #224	; 0xe0
 8001e6a:	d1ef      	bne.n	8001e4c <parseDHCPMSG+0x124>
 8001e6c:	f893 e002 	ldrb.w	lr, [r3, #2]
 8001e70:	f893 c001 	ldrb.w	ip, [r3, #1]
 8001e74:	f884 e000 	strb.w	lr, [r4]
 8001e78:	f893 e003 	ldrb.w	lr, [r3, #3]
 8001e7c:	f884 e001 	strb.w	lr, [r4, #1]
 8001e80:	f893 e004 	ldrb.w	lr, [r3, #4]
 8001e84:	f884 e002 	strb.w	lr, [r4, #2]
 8001e88:	f893 e005 	ldrb.w	lr, [r3, #5]
 8001e8c:	f884 e003 	strb.w	lr, [r4, #3]
 8001e90:	e02d      	b.n	8001eee <parseDHCPMSG+0x1c6>
 8001e92:	f1bc 0fff 	cmp.w	ip, #255	; 0xff
 8001e96:	d1d9      	bne.n	8001e4c <parseDHCPMSG+0x124>
 8001e98:	4653      	mov	r3, sl
 8001e9a:	e7be      	b.n	8001e1a <parseDHCPMSG+0xf2>
 8001e9c:	3301      	adds	r3, #1
 8001e9e:	e7bc      	b.n	8001e1a <parseDHCPMSG+0xf2>
 8001ea0:	7898      	ldrb	r0, [r3, #2]
 8001ea2:	3303      	adds	r3, #3
 8001ea4:	e7b9      	b.n	8001e1a <parseDHCPMSG+0xf2>
 8001ea6:	f893 c002 	ldrb.w	ip, [r3, #2]
 8001eaa:	f887 c000 	strb.w	ip, [r7]
 8001eae:	f893 c003 	ldrb.w	ip, [r3, #3]
 8001eb2:	f887 c001 	strb.w	ip, [r7, #1]
 8001eb6:	f893 c004 	ldrb.w	ip, [r3, #4]
 8001eba:	f887 c002 	strb.w	ip, [r7, #2]
 8001ebe:	f893 c005 	ldrb.w	ip, [r3, #5]
 8001ec2:	f887 c003 	strb.w	ip, [r7, #3]
 8001ec6:	3306      	adds	r3, #6
 8001ec8:	e7a7      	b.n	8001e1a <parseDHCPMSG+0xf2>
 8001eca:	f893 e002 	ldrb.w	lr, [r3, #2]
 8001ece:	f893 c001 	ldrb.w	ip, [r3, #1]
 8001ed2:	f886 e000 	strb.w	lr, [r6]
 8001ed6:	f893 e003 	ldrb.w	lr, [r3, #3]
 8001eda:	f886 e001 	strb.w	lr, [r6, #1]
 8001ede:	f893 e004 	ldrb.w	lr, [r3, #4]
 8001ee2:	f886 e002 	strb.w	lr, [r6, #2]
 8001ee6:	f893 e005 	ldrb.w	lr, [r3, #5]
 8001eea:	f886 e003 	strb.w	lr, [r6, #3]
 8001eee:	4463      	add	r3, ip
 8001ef0:	3302      	adds	r3, #2
 8001ef2:	e792      	b.n	8001e1a <parseDHCPMSG+0xf2>
 8001ef4:	f893 e002 	ldrb.w	lr, [r3, #2]
 8001ef8:	f893 c001 	ldrb.w	ip, [r3, #1]
 8001efc:	f885 e000 	strb.w	lr, [r5]
 8001f00:	f893 e003 	ldrb.w	lr, [r3, #3]
 8001f04:	f885 e001 	strb.w	lr, [r5, #1]
 8001f08:	f893 e004 	ldrb.w	lr, [r3, #4]
 8001f0c:	f885 e002 	strb.w	lr, [r5, #2]
 8001f10:	f893 e005 	ldrb.w	lr, [r3, #5]
 8001f14:	f885 e003 	strb.w	lr, [r5, #3]
 8001f18:	e7e9      	b.n	8001eee <parseDHCPMSG+0x1c6>
 8001f1a:	f893 c002 	ldrb.w	ip, [r3, #2]
 8001f1e:	4a2e      	ldr	r2, [pc, #184]	; (8001fd8 <parseDHCPMSG+0x2b0>)
 8001f20:	f8c2 c000 	str.w	ip, [r2]
 8001f24:	f893 e003 	ldrb.w	lr, [r3, #3]
 8001f28:	eb0e 2c0c 	add.w	ip, lr, ip, lsl #8
 8001f2c:	f893 e004 	ldrb.w	lr, [r3, #4]
 8001f30:	eb0e 2e0c 	add.w	lr, lr, ip, lsl #8
 8001f34:	f893 c005 	ldrb.w	ip, [r3, #5]
 8001f38:	eb0c 2c0e 	add.w	ip, ip, lr, lsl #8
 8001f3c:	f8c2 c000 	str.w	ip, [r2]
 8001f40:	e7c1      	b.n	8001ec6 <parseDHCPMSG+0x19e>
 8001f42:	f893 c002 	ldrb.w	ip, [r3, #2]
 8001f46:	9a02      	ldr	r2, [sp, #8]
 8001f48:	f882 c000 	strb.w	ip, [r2]
 8001f4c:	f893 c003 	ldrb.w	ip, [r3, #3]
 8001f50:	f881 9000 	strb.w	r9, [r1]
 8001f54:	f882 c001 	strb.w	ip, [r2, #1]
 8001f58:	f893 c004 	ldrb.w	ip, [r3, #4]
 8001f5c:	f882 c002 	strb.w	ip, [r2, #2]
 8001f60:	f893 c005 	ldrb.w	ip, [r3, #5]
 8001f64:	f882 c003 	strb.w	ip, [r2, #3]
 8001f68:	9a03      	ldr	r2, [sp, #12]
 8001f6a:	704a      	strb	r2, [r1, #1]
 8001f6c:	9a04      	ldr	r2, [sp, #16]
 8001f6e:	708a      	strb	r2, [r1, #2]
 8001f70:	9a05      	ldr	r2, [sp, #20]
 8001f72:	70ca      	strb	r2, [r1, #3]
 8001f74:	e7a7      	b.n	8001ec6 <parseDHCPMSG+0x19e>
 8001f76:	1c9a      	adds	r2, r3, #2
 8001f78:	4696      	mov	lr, r2
 8001f7a:	f893 c001 	ldrb.w	ip, [r3, #1]
 8001f7e:	f1c3 23ff 	rsb	r3, r3, #4278255360	; 0xff00ff00
 8001f82:	f503 037f 	add.w	r3, r3, #16711680	; 0xff0000
 8001f86:	f8df 8054 	ldr.w	r8, [pc, #84]	; 8001fdc <parseDHCPMSG+0x2b4>
 8001f8a:	33fe      	adds	r3, #254	; 0xfe
 8001f8c:	eb0e 0b03 	add.w	fp, lr, r3
 8001f90:	45dc      	cmp	ip, fp
 8001f92:	dc07      	bgt.n	8001fa4 <parseDHCPMSG+0x27c>
 8001f94:	4613      	mov	r3, r2
 8001f96:	f04f 0e00 	mov.w	lr, #0
 8001f9a:	4a10      	ldr	r2, [pc, #64]	; (8001fdc <parseDHCPMSG+0x2b4>)
 8001f9c:	4463      	add	r3, ip
 8001f9e:	f802 e00c 	strb.w	lr, [r2, ip]
 8001fa2:	e73a      	b.n	8001e1a <parseDHCPMSG+0xf2>
 8001fa4:	f81e bb01 	ldrb.w	fp, [lr], #1
 8001fa8:	f808 bb01 	strb.w	fp, [r8], #1
 8001fac:	e7ee      	b.n	8001f8c <parseDHCPMSG+0x264>
 8001fae:	2000      	movs	r0, #0
 8001fb0:	e735      	b.n	8001e1e <parseDHCPMSG+0xf6>
 8001fb2:	bf00      	nop
 8001fb4:	20000e10 	.word	0x20000e10
 8001fb8:	20000e0c 	.word	0x20000e0c
 8001fbc:	20000df8 	.word	0x20000df8
 8001fc0:	20000e08 	.word	0x20000e08
 8001fc4:	20000e04 	.word	0x20000e04
 8001fc8:	20000474 	.word	0x20000474
 8001fcc:	20000364 	.word	0x20000364
 8001fd0:	20000368 	.word	0x20000368
 8001fd4:	20000470 	.word	0x20000470
 8001fd8:	20000014 	.word	0x20000014
 8001fdc:	2000036c 	.word	0x2000036c

08001fe0 <check_DHCP_leasedIP>:
 8001fe0:	b537      	push	{r0, r1, r2, r4, r5, lr}
 8001fe2:	f44f 50d8 	mov.w	r0, #6912	; 0x1b00
 8001fe6:	f003 f945 	bl	8005274 <WIZCHIP_READ>
 8001fea:	2103      	movs	r1, #3
 8001fec:	4605      	mov	r5, r0
 8001fee:	f44f 50d8 	mov.w	r0, #6912	; 0x1b00
 8001ff2:	f003 f96d 	bl	80052d0 <WIZCHIP_WRITE>
 8001ff6:	f241 3388 	movw	r3, #5000	; 0x1388
 8001ffa:	480e      	ldr	r0, [pc, #56]	; (8002034 <check_DHCP_leasedIP+0x54>)
 8001ffc:	9300      	str	r3, [sp, #0]
 8001ffe:	2211      	movs	r2, #17
 8002000:	4b0d      	ldr	r3, [pc, #52]	; (8002038 <check_DHCP_leasedIP+0x58>)
 8002002:	490e      	ldr	r1, [pc, #56]	; (800203c <check_DHCP_leasedIP+0x5c>)
 8002004:	7800      	ldrb	r0, [r0, #0]
 8002006:	f002 f93f 	bl	8004288 <sendto>
 800200a:	4604      	mov	r4, r0
 800200c:	4629      	mov	r1, r5
 800200e:	f44f 50d8 	mov.w	r0, #6912	; 0x1b00
 8002012:	f003 f95d 	bl	80052d0 <WIZCHIP_WRITE>
 8002016:	340d      	adds	r4, #13
 8002018:	d00a      	beq.n	8002030 <check_DHCP_leasedIP+0x50>
 800201a:	f7ff fe1b 	bl	8001c54 <send_DHCP_DECLINE>
 800201e:	4b08      	ldr	r3, [pc, #32]	; (8002040 <check_DHCP_leasedIP+0x60>)
 8002020:	6819      	ldr	r1, [r3, #0]
 8002022:	681a      	ldr	r2, [r3, #0]
 8002024:	1a52      	subs	r2, r2, r1
 8002026:	2a01      	cmp	r2, #1
 8002028:	d9fb      	bls.n	8002022 <check_DHCP_leasedIP+0x42>
 800202a:	2000      	movs	r0, #0
 800202c:	b003      	add	sp, #12
 800202e:	bd30      	pop	{r4, r5, pc}
 8002030:	2001      	movs	r0, #1
 8002032:	e7fb      	b.n	800202c <check_DHCP_leasedIP+0x4c>
 8002034:	20000e10 	.word	0x20000e10
 8002038:	2000046c 	.word	0x2000046c
 800203c:	0800b670 	.word	0x0800b670
 8002040:	20000480 	.word	0x20000480

08002044 <reset_DHCP_timeout>:
 8002044:	2300      	movs	r3, #0
 8002046:	210a      	movs	r1, #10
 8002048:	4a03      	ldr	r2, [pc, #12]	; (8002058 <reset_DHCP_timeout+0x14>)
 800204a:	6013      	str	r3, [r2, #0]
 800204c:	4a03      	ldr	r2, [pc, #12]	; (800205c <reset_DHCP_timeout+0x18>)
 800204e:	6011      	str	r1, [r2, #0]
 8002050:	4a03      	ldr	r2, [pc, #12]	; (8002060 <reset_DHCP_timeout+0x1c>)
 8002052:	7013      	strb	r3, [r2, #0]
 8002054:	4770      	bx	lr
 8002056:	bf00      	nop
 8002058:	20000480 	.word	0x20000480
 800205c:	20000018 	.word	0x20000018
 8002060:	2000047c 	.word	0x2000047c

08002064 <DHCP_init>:
 8002064:	2300      	movs	r3, #0
 8002066:	b573      	push	{r0, r1, r4, r5, r6, lr}
 8002068:	4c24      	ldr	r4, [pc, #144]	; (80020fc <DHCP_init+0x98>)
 800206a:	2206      	movs	r2, #6
 800206c:	4606      	mov	r6, r0
 800206e:	460d      	mov	r5, r1
 8002070:	f44f 6010 	mov.w	r0, #2304	; 0x900
 8002074:	4621      	mov	r1, r4
 8002076:	9301      	str	r3, [sp, #4]
 8002078:	f003 f95c 	bl	8005334 <WIZCHIP_READ_BUF>
 800207c:	7862      	ldrb	r2, [r4, #1]
 800207e:	7823      	ldrb	r3, [r4, #0]
 8002080:	4313      	orrs	r3, r2
 8002082:	78a2      	ldrb	r2, [r4, #2]
 8002084:	4313      	orrs	r3, r2
 8002086:	78e2      	ldrb	r2, [r4, #3]
 8002088:	4313      	orrs	r3, r2
 800208a:	7922      	ldrb	r2, [r4, #4]
 800208c:	4313      	orrs	r3, r2
 800208e:	7962      	ldrb	r2, [r4, #5]
 8002090:	4313      	orrs	r3, r2
 8002092:	d10d      	bne.n	80020b0 <DHCP_init+0x4c>
 8002094:	2208      	movs	r2, #8
 8002096:	7062      	strb	r2, [r4, #1]
 8002098:	22dc      	movs	r2, #220	; 0xdc
 800209a:	4621      	mov	r1, r4
 800209c:	70a2      	strb	r2, [r4, #2]
 800209e:	f44f 6010 	mov.w	r0, #2304	; 0x900
 80020a2:	2206      	movs	r2, #6
 80020a4:	7023      	strb	r3, [r4, #0]
 80020a6:	70e3      	strb	r3, [r4, #3]
 80020a8:	7123      	strb	r3, [r4, #4]
 80020aa:	7163      	strb	r3, [r4, #5]
 80020ac:	f003 f97c 	bl	80053a8 <WIZCHIP_WRITE_BUF>
 80020b0:	4b13      	ldr	r3, [pc, #76]	; (8002100 <DHCP_init+0x9c>)
 80020b2:	7920      	ldrb	r0, [r4, #4]
 80020b4:	701e      	strb	r6, [r3, #0]
 80020b6:	4b13      	ldr	r3, [pc, #76]	; (8002104 <DHCP_init+0xa0>)
 80020b8:	78e1      	ldrb	r1, [r4, #3]
 80020ba:	601d      	str	r5, [r3, #0]
 80020bc:	4b12      	ldr	r3, [pc, #72]	; (8002108 <DHCP_init+0xa4>)
 80020be:	7962      	ldrb	r2, [r4, #5]
 80020c0:	180c      	adds	r4, r1, r0
 80020c2:	4423      	add	r3, r4
 80020c4:	4041      	eors	r1, r0
 80020c6:	4413      	add	r3, r2
 80020c8:	404a      	eors	r2, r1
 80020ca:	4413      	add	r3, r2
 80020cc:	4a0f      	ldr	r2, [pc, #60]	; (800210c <DHCP_init+0xa8>)
 80020ce:	f44f 6070 	mov.w	r0, #3840	; 0xf00
 80020d2:	6013      	str	r3, [r2, #0]
 80020d4:	2204      	movs	r2, #4
 80020d6:	eb0d 0102 	add.w	r1, sp, r2
 80020da:	f003 f965 	bl	80053a8 <WIZCHIP_WRITE_BUF>
 80020de:	2204      	movs	r2, #4
 80020e0:	f44f 7080 	mov.w	r0, #256	; 0x100
 80020e4:	eb0d 0102 	add.w	r1, sp, r2
 80020e8:	f003 f95e 	bl	80053a8 <WIZCHIP_WRITE_BUF>
 80020ec:	f7ff ffaa 	bl	8002044 <reset_DHCP_timeout>
 80020f0:	2200      	movs	r2, #0
 80020f2:	4b07      	ldr	r3, [pc, #28]	; (8002110 <DHCP_init+0xac>)
 80020f4:	701a      	strb	r2, [r3, #0]
 80020f6:	b002      	add	sp, #8
 80020f8:	bd70      	pop	{r4, r5, r6, pc}
 80020fa:	bf00      	nop
 80020fc:	20000df8 	.word	0x20000df8
 8002100:	20000e10 	.word	0x20000e10
 8002104:	20000e0c 	.word	0x20000e0c
 8002108:	12345678 	.word	0x12345678
 800210c:	20000e00 	.word	0x20000e00
 8002110:	2000047d 	.word	0x2000047d

08002114 <DHCP_time_handler>:
 8002114:	4a02      	ldr	r2, [pc, #8]	; (8002120 <DHCP_time_handler+0xc>)
 8002116:	6813      	ldr	r3, [r2, #0]
 8002118:	3301      	adds	r3, #1
 800211a:	6013      	str	r3, [r2, #0]
 800211c:	4770      	bx	lr
 800211e:	bf00      	nop
 8002120:	20000480 	.word	0x20000480

08002124 <getIPfromDHCP>:
 8002124:	4b04      	ldr	r3, [pc, #16]	; (8002138 <getIPfromDHCP+0x14>)
 8002126:	781a      	ldrb	r2, [r3, #0]
 8002128:	7002      	strb	r2, [r0, #0]
 800212a:	785a      	ldrb	r2, [r3, #1]
 800212c:	7042      	strb	r2, [r0, #1]
 800212e:	789a      	ldrb	r2, [r3, #2]
 8002130:	7082      	strb	r2, [r0, #2]
 8002132:	78db      	ldrb	r3, [r3, #3]
 8002134:	70c3      	strb	r3, [r0, #3]
 8002136:	4770      	bx	lr
 8002138:	2000046c 	.word	0x2000046c

0800213c <getGWfromDHCP>:
 800213c:	4b04      	ldr	r3, [pc, #16]	; (8002150 <getGWfromDHCP+0x14>)
 800213e:	781a      	ldrb	r2, [r3, #0]
 8002140:	7002      	strb	r2, [r0, #0]
 8002142:	785a      	ldrb	r2, [r3, #1]
 8002144:	7042      	strb	r2, [r0, #1]
 8002146:	789a      	ldrb	r2, [r3, #2]
 8002148:	7082      	strb	r2, [r0, #2]
 800214a:	78db      	ldrb	r3, [r3, #3]
 800214c:	70c3      	strb	r3, [r0, #3]
 800214e:	4770      	bx	lr
 8002150:	20000368 	.word	0x20000368

08002154 <getZABBIXfromDHCP>:
 8002154:	4b04      	ldr	r3, [pc, #16]	; (8002168 <getZABBIXfromDHCP+0x14>)
 8002156:	781a      	ldrb	r2, [r3, #0]
 8002158:	7002      	strb	r2, [r0, #0]
 800215a:	785a      	ldrb	r2, [r3, #1]
 800215c:	7042      	strb	r2, [r0, #1]
 800215e:	789a      	ldrb	r2, [r3, #2]
 8002160:	7082      	strb	r2, [r0, #2]
 8002162:	78db      	ldrb	r3, [r3, #3]
 8002164:	70c3      	strb	r3, [r0, #3]
 8002166:	4770      	bx	lr
 8002168:	20000474 	.word	0x20000474

0800216c <getHostNamefromDHCP>:
 800216c:	4a05      	ldr	r2, [pc, #20]	; (8002184 <getHostNamefromDHCP+0x18>)
 800216e:	1e43      	subs	r3, r0, #1
 8002170:	30fe      	adds	r0, #254	; 0xfe
 8002172:	7811      	ldrb	r1, [r2, #0]
 8002174:	f803 1f01 	strb.w	r1, [r3, #1]!
 8002178:	f812 1b01 	ldrb.w	r1, [r2], #1
 800217c:	b109      	cbz	r1, 8002182 <getHostNamefromDHCP+0x16>
 800217e:	4283      	cmp	r3, r0
 8002180:	d1f7      	bne.n	8002172 <getHostNamefromDHCP+0x6>
 8002182:	4770      	bx	lr
 8002184:	2000036c 	.word	0x2000036c

08002188 <getSNfromDHCP>:
 8002188:	4b04      	ldr	r3, [pc, #16]	; (800219c <getSNfromDHCP+0x14>)
 800218a:	781a      	ldrb	r2, [r3, #0]
 800218c:	7002      	strb	r2, [r0, #0]
 800218e:	785a      	ldrb	r2, [r3, #1]
 8002190:	7042      	strb	r2, [r0, #1]
 8002192:	789a      	ldrb	r2, [r3, #2]
 8002194:	7082      	strb	r2, [r0, #2]
 8002196:	78db      	ldrb	r3, [r3, #3]
 8002198:	70c3      	strb	r3, [r0, #3]
 800219a:	4770      	bx	lr
 800219c:	20000470 	.word	0x20000470

080021a0 <NibbleToHex>:
 80021a0:	f000 000f 	and.w	r0, r0, #15
 80021a4:	2809      	cmp	r0, #9
 80021a6:	bf94      	ite	ls
 80021a8:	3030      	addls	r0, #48	; 0x30
 80021aa:	3037      	addhi	r0, #55	; 0x37
 80021ac:	4770      	bx	lr
	...

080021b0 <send_DHCP_DISCOVER>:
 80021b0:	e92d 43f0 	stmdb	sp!, {r4, r5, r6, r7, r8, r9, lr}
 80021b4:	b085      	sub	sp, #20
 80021b6:	f7ff fcfb 	bl	8001bb0 <makeDHCPMSG>
 80021ba:	2300      	movs	r3, #0
 80021bc:	4a69      	ldr	r2, [pc, #420]	; (8002364 <send_DHCP_DISCOVER+0x1b4>)
 80021be:	486a      	ldr	r0, [pc, #424]	; (8002368 <send_DHCP_DISCOVER+0x1b8>)
 80021c0:	7013      	strb	r3, [r2, #0]
 80021c2:	7053      	strb	r3, [r2, #1]
 80021c4:	7093      	strb	r3, [r2, #2]
 80021c6:	70d3      	strb	r3, [r2, #3]
 80021c8:	4a68      	ldr	r2, [pc, #416]	; (800236c <send_DHCP_DISCOVER+0x1bc>)
 80021ca:	7013      	strb	r3, [r2, #0]
 80021cc:	7053      	strb	r3, [r2, #1]
 80021ce:	7093      	strb	r3, [r2, #2]
 80021d0:	70d3      	strb	r3, [r2, #3]
 80021d2:	4b67      	ldr	r3, [pc, #412]	; (8002370 <send_DHCP_DISCOVER+0x1c0>)
 80021d4:	6819      	ldr	r1, [r3, #0]
 80021d6:	4b67      	ldr	r3, [pc, #412]	; (8002374 <send_DHCP_DISCOVER+0x1c4>)
 80021d8:	f8c1 30f0 	str.w	r3, [r1, #240]	; 0xf0
 80021dc:	f240 1307 	movw	r3, #263	; 0x107
 80021e0:	f8a1 30f4 	strh.w	r3, [r1, #244]	; 0xf4
 80021e4:	4b64      	ldr	r3, [pc, #400]	; (8002378 <send_DHCP_DISCOVER+0x1c8>)
 80021e6:	781a      	ldrb	r2, [r3, #0]
 80021e8:	f893 8003 	ldrb.w	r8, [r3, #3]
 80021ec:	f881 20f6 	strb.w	r2, [r1, #246]	; 0xf6
 80021f0:	785a      	ldrb	r2, [r3, #1]
 80021f2:	791f      	ldrb	r7, [r3, #4]
 80021f4:	795e      	ldrb	r6, [r3, #5]
 80021f6:	f881 20f7 	strb.w	r2, [r1, #247]	; 0xf7
 80021fa:	789a      	ldrb	r2, [r3, #2]
 80021fc:	230c      	movs	r3, #12
 80021fe:	f8a1 30fc 	strh.w	r3, [r1, #252]	; 0xfc
 8002202:	2312      	movs	r3, #18
 8002204:	f881 20f8 	strb.w	r2, [r1, #248]	; 0xf8
 8002208:	f881 80f9 	strb.w	r8, [r1, #249]	; 0xf9
 800220c:	f881 70fa 	strb.w	r7, [r1, #250]	; 0xfa
 8002210:	f881 60fb 	strb.w	r6, [r1, #251]	; 0xfb
 8002214:	f1a3 0212 	sub.w	r2, r3, #18
 8002218:	b292      	uxth	r2, r2
 800221a:	5c84      	ldrb	r4, [r0, r2]
 800221c:	1c5d      	adds	r5, r3, #1
 800221e:	b2ad      	uxth	r5, r5
 8002220:	eb01 0903 	add.w	r9, r1, r3
 8002224:	2c00      	cmp	r4, #0
 8002226:	f040 8093 	bne.w	8002350 <send_DHCP_DISCOVER+0x1a0>
 800222a:	ea4f 1018 	mov.w	r0, r8, lsr #4
 800222e:	f7ff ffb7 	bl	80021a0 <NibbleToHex>
 8002232:	f889 00ec 	strb.w	r0, [r9, #236]	; 0xec
 8002236:	4640      	mov	r0, r8
 8002238:	f7ff ffb2 	bl	80021a0 <NibbleToHex>
 800223c:	440d      	add	r5, r1
 800223e:	f885 00ec 	strb.w	r0, [r5, #236]	; 0xec
 8002242:	0938      	lsrs	r0, r7, #4
 8002244:	f7ff ffac 	bl	80021a0 <NibbleToHex>
 8002248:	1c9d      	adds	r5, r3, #2
 800224a:	b2ad      	uxth	r5, r5
 800224c:	440d      	add	r5, r1
 800224e:	f885 00ec 	strb.w	r0, [r5, #236]	; 0xec
 8002252:	4638      	mov	r0, r7
 8002254:	f7ff ffa4 	bl	80021a0 <NibbleToHex>
 8002258:	1cdd      	adds	r5, r3, #3
 800225a:	b2ad      	uxth	r5, r5
 800225c:	440d      	add	r5, r1
 800225e:	f885 00ec 	strb.w	r0, [r5, #236]	; 0xec
 8002262:	0930      	lsrs	r0, r6, #4
 8002264:	f7ff ff9c 	bl	80021a0 <NibbleToHex>
 8002268:	1d1d      	adds	r5, r3, #4
 800226a:	b2ad      	uxth	r5, r5
 800226c:	440d      	add	r5, r1
 800226e:	f885 00ec 	strb.w	r0, [r5, #236]	; 0xec
 8002272:	4630      	mov	r0, r6
 8002274:	f7ff ff94 	bl	80021a0 <NibbleToHex>
 8002278:	1d5d      	adds	r5, r3, #5
 800227a:	b2ad      	uxth	r5, r5
 800227c:	440d      	add	r5, r1
 800227e:	f885 00ec 	strb.w	r0, [r5, #236]	; 0xec
 8002282:	1d98      	adds	r0, r3, #6
 8002284:	b280      	uxth	r0, r0
 8002286:	1dd5      	adds	r5, r2, #7
 8002288:	1b45      	subs	r5, r0, r5
 800228a:	3206      	adds	r2, #6
 800228c:	440d      	add	r5, r1
 800228e:	f885 20ec 	strb.w	r2, [r5, #236]	; 0xec
 8002292:	2237      	movs	r2, #55	; 0x37
 8002294:	4408      	add	r0, r1
 8002296:	f880 20ec 	strb.w	r2, [r0, #236]	; 0xec
 800229a:	2008      	movs	r0, #8
 800229c:	1dda      	adds	r2, r3, #7
 800229e:	b292      	uxth	r2, r2
 80022a0:	440a      	add	r2, r1
 80022a2:	f882 00ec 	strb.w	r0, [r2, #236]	; 0xec
 80022a6:	181a      	adds	r2, r3, r0
 80022a8:	2001      	movs	r0, #1
 80022aa:	b292      	uxth	r2, r2
 80022ac:	440a      	add	r2, r1
 80022ae:	f882 00ec 	strb.w	r0, [r2, #236]	; 0xec
 80022b2:	2003      	movs	r0, #3
 80022b4:	f103 0209 	add.w	r2, r3, #9
 80022b8:	b292      	uxth	r2, r2
 80022ba:	440a      	add	r2, r1
 80022bc:	f882 00ec 	strb.w	r0, [r2, #236]	; 0xec
 80022c0:	2006      	movs	r0, #6
 80022c2:	f103 020a 	add.w	r2, r3, #10
 80022c6:	b292      	uxth	r2, r2
 80022c8:	440a      	add	r2, r1
 80022ca:	f882 00ec 	strb.w	r0, [r2, #236]	; 0xec
 80022ce:	200f      	movs	r0, #15
 80022d0:	f103 020b 	add.w	r2, r3, #11
 80022d4:	b292      	uxth	r2, r2
 80022d6:	440a      	add	r2, r1
 80022d8:	f882 00ec 	strb.w	r0, [r2, #236]	; 0xec
 80022dc:	203a      	movs	r0, #58	; 0x3a
 80022de:	f103 020c 	add.w	r2, r3, #12
 80022e2:	b292      	uxth	r2, r2
 80022e4:	440a      	add	r2, r1
 80022e6:	f882 00ec 	strb.w	r0, [r2, #236]	; 0xec
 80022ea:	203b      	movs	r0, #59	; 0x3b
 80022ec:	f103 020d 	add.w	r2, r3, #13
 80022f0:	b292      	uxth	r2, r2
 80022f2:	440a      	add	r2, r1
 80022f4:	f882 00ec 	strb.w	r0, [r2, #236]	; 0xec
 80022f8:	20e0      	movs	r0, #224	; 0xe0
 80022fa:	f103 020e 	add.w	r2, r3, #14
 80022fe:	b292      	uxth	r2, r2
 8002300:	440a      	add	r2, r1
 8002302:	f882 00ec 	strb.w	r0, [r2, #236]	; 0xec
 8002306:	20e1      	movs	r0, #225	; 0xe1
 8002308:	f103 020f 	add.w	r2, r3, #15
 800230c:	b292      	uxth	r2, r2
 800230e:	440a      	add	r2, r1
 8002310:	f882 00ec 	strb.w	r0, [r2, #236]	; 0xec
 8002314:	20ff      	movs	r0, #255	; 0xff
 8002316:	f103 0211 	add.w	r2, r3, #17
 800231a:	3310      	adds	r3, #16
 800231c:	b29b      	uxth	r3, r3
 800231e:	440b      	add	r3, r1
 8002320:	b292      	uxth	r2, r2
 8002322:	f883 00ec 	strb.w	r0, [r3, #236]	; 0xec
 8002326:	f102 03ec 	add.w	r3, r2, #236	; 0xec
 800232a:	440b      	add	r3, r1
 800232c:	f5b2 7f9c 	cmp.w	r2, #312	; 0x138
 8002330:	d312      	bcc.n	8002358 <send_DHCP_DISCOVER+0x1a8>
 8002332:	f04f 33ff 	mov.w	r3, #4294967295	; 0xffffffff
 8002336:	9303      	str	r3, [sp, #12]
 8002338:	2343      	movs	r3, #67	; 0x43
 800233a:	4810      	ldr	r0, [pc, #64]	; (800237c <send_DHCP_DISCOVER+0x1cc>)
 800233c:	9300      	str	r3, [sp, #0]
 800233e:	f44f 7209 	mov.w	r2, #548	; 0x224
 8002342:	ab03      	add	r3, sp, #12
 8002344:	7800      	ldrb	r0, [r0, #0]
 8002346:	f001 ff9f 	bl	8004288 <sendto>
 800234a:	b005      	add	sp, #20
 800234c:	e8bd 83f0 	ldmia.w	sp!, {r4, r5, r6, r7, r8, r9, pc}
 8002350:	462b      	mov	r3, r5
 8002352:	f889 40ec 	strb.w	r4, [r9, #236]	; 0xec
 8002356:	e75d      	b.n	8002214 <send_DHCP_DISCOVER+0x64>
 8002358:	3201      	adds	r2, #1
 800235a:	f803 4b01 	strb.w	r4, [r3], #1
 800235e:	b292      	uxth	r2, r2
 8002360:	e7e4      	b.n	800232c <send_DHCP_DISCOVER+0x17c>
 8002362:	bf00      	nop
 8002364:	20000e08 	.word	0x20000e08
 8002368:	20000000 	.word	0x20000000
 800236c:	20000e04 	.word	0x20000e04
 8002370:	20000e0c 	.word	0x20000e0c
 8002374:	3d010135 	.word	0x3d010135
 8002378:	20000df8 	.word	0x20000df8
 800237c:	20000e10 	.word	0x20000e10

08002380 <send_DHCP_REQUEST>:
 8002380:	e92d 43f0 	stmdb	sp!, {r4, r5, r6, r7, r8, r9, lr}
 8002384:	b085      	sub	sp, #20
 8002386:	f7ff fc13 	bl	8001bb0 <makeDHCPMSG>
 800238a:	4b92      	ldr	r3, [pc, #584]	; (80025d4 <send_DHCP_REQUEST+0x254>)
 800238c:	4992      	ldr	r1, [pc, #584]	; (80025d8 <send_DHCP_REQUEST+0x258>)
 800238e:	781b      	ldrb	r3, [r3, #0]
 8002390:	3b03      	subs	r3, #3
 8002392:	2b01      	cmp	r3, #1
 8002394:	f200 8110 	bhi.w	80025b8 <send_DHCP_REQUEST+0x238>
 8002398:	2200      	movs	r2, #0
 800239a:	680b      	ldr	r3, [r1, #0]
 800239c:	729a      	strb	r2, [r3, #10]
 800239e:	72da      	strb	r2, [r3, #11]
 80023a0:	4a8e      	ldr	r2, [pc, #568]	; (80025dc <send_DHCP_REQUEST+0x25c>)
 80023a2:	7810      	ldrb	r0, [r2, #0]
 80023a4:	7318      	strb	r0, [r3, #12]
 80023a6:	7850      	ldrb	r0, [r2, #1]
 80023a8:	7358      	strb	r0, [r3, #13]
 80023aa:	7890      	ldrb	r0, [r2, #2]
 80023ac:	78d2      	ldrb	r2, [r2, #3]
 80023ae:	7398      	strb	r0, [r3, #14]
 80023b0:	73da      	strb	r2, [r3, #15]
 80023b2:	4b8b      	ldr	r3, [pc, #556]	; (80025e0 <send_DHCP_REQUEST+0x260>)
 80023b4:	781a      	ldrb	r2, [r3, #0]
 80023b6:	f88d 200c 	strb.w	r2, [sp, #12]
 80023ba:	785a      	ldrb	r2, [r3, #1]
 80023bc:	f88d 200d 	strb.w	r2, [sp, #13]
 80023c0:	789a      	ldrb	r2, [r3, #2]
 80023c2:	78db      	ldrb	r3, [r3, #3]
 80023c4:	f88d 200e 	strb.w	r2, [sp, #14]
 80023c8:	f88d 300f 	strb.w	r3, [sp, #15]
 80023cc:	6809      	ldr	r1, [r1, #0]
 80023ce:	4b85      	ldr	r3, [pc, #532]	; (80025e4 <send_DHCP_REQUEST+0x264>)
 80023d0:	f8c1 30f0 	str.w	r3, [r1, #240]	; 0xf0
 80023d4:	f240 1307 	movw	r3, #263	; 0x107
 80023d8:	f8a1 30f4 	strh.w	r3, [r1, #244]	; 0xf4
 80023dc:	4b82      	ldr	r3, [pc, #520]	; (80025e8 <send_DHCP_REQUEST+0x268>)
 80023de:	781a      	ldrb	r2, [r3, #0]
 80023e0:	78df      	ldrb	r7, [r3, #3]
 80023e2:	f881 20f6 	strb.w	r2, [r1, #246]	; 0xf6
 80023e6:	785a      	ldrb	r2, [r3, #1]
 80023e8:	791e      	ldrb	r6, [r3, #4]
 80023ea:	f893 8005 	ldrb.w	r8, [r3, #5]
 80023ee:	f881 20f7 	strb.w	r2, [r1, #247]	; 0xf7
 80023f2:	789a      	ldrb	r2, [r3, #2]
 80023f4:	f89d 300f 	ldrb.w	r3, [sp, #15]
 80023f8:	f881 20f8 	strb.w	r2, [r1, #248]	; 0xf8
 80023fc:	2bff      	cmp	r3, #255	; 0xff
 80023fe:	f881 70f9 	strb.w	r7, [r1, #249]	; 0xf9
 8002402:	f881 60fa 	strb.w	r6, [r1, #250]	; 0xfa
 8002406:	f881 80fb 	strb.w	r8, [r1, #251]	; 0xfb
 800240a:	f040 80d9 	bne.w	80025c0 <send_DHCP_REQUEST+0x240>
 800240e:	f240 4332 	movw	r3, #1074	; 0x432
 8002412:	f8a1 30fc 	strh.w	r3, [r1, #252]	; 0xfc
 8002416:	4b71      	ldr	r3, [pc, #452]	; (80025dc <send_DHCP_REQUEST+0x25c>)
 8002418:	781a      	ldrb	r2, [r3, #0]
 800241a:	f881 20fe 	strb.w	r2, [r1, #254]	; 0xfe
 800241e:	785a      	ldrb	r2, [r3, #1]
 8002420:	f881 20ff 	strb.w	r2, [r1, #255]	; 0xff
 8002424:	789a      	ldrb	r2, [r3, #2]
 8002426:	78db      	ldrb	r3, [r3, #3]
 8002428:	f881 2100 	strb.w	r2, [r1, #256]	; 0x100
 800242c:	f881 3101 	strb.w	r3, [r1, #257]	; 0x101
 8002430:	f240 4336 	movw	r3, #1078	; 0x436
 8002434:	f8a1 3102 	strh.w	r3, [r1, #258]	; 0x102
 8002438:	4b69      	ldr	r3, [pc, #420]	; (80025e0 <send_DHCP_REQUEST+0x260>)
 800243a:	781a      	ldrb	r2, [r3, #0]
 800243c:	f881 2104 	strb.w	r2, [r1, #260]	; 0x104
 8002440:	785a      	ldrb	r2, [r3, #1]
 8002442:	f881 2105 	strb.w	r2, [r1, #261]	; 0x105
 8002446:	789a      	ldrb	r2, [r3, #2]
 8002448:	78db      	ldrb	r3, [r3, #3]
 800244a:	f881 2106 	strb.w	r2, [r1, #262]	; 0x106
 800244e:	221c      	movs	r2, #28
 8002450:	f881 3107 	strb.w	r3, [r1, #263]	; 0x107
 8002454:	200c      	movs	r0, #12
 8002456:	188b      	adds	r3, r1, r2
 8002458:	f883 00ec 	strb.w	r0, [r3, #236]	; 0xec
 800245c:	1c93      	adds	r3, r2, #2
 800245e:	3201      	adds	r2, #1
 8002460:	1888      	adds	r0, r1, r2
 8002462:	2200      	movs	r2, #0
 8002464:	f880 20ec 	strb.w	r2, [r0, #236]	; 0xec
 8002468:	4860      	ldr	r0, [pc, #384]	; (80025ec <send_DHCP_REQUEST+0x26c>)
 800246a:	f810 5b01 	ldrb.w	r5, [r0], #1
 800246e:	1c5c      	adds	r4, r3, #1
 8002470:	b2a4      	uxth	r4, r4
 8002472:	eb01 0903 	add.w	r9, r1, r3
 8002476:	2d00      	cmp	r5, #0
 8002478:	f040 80a4 	bne.w	80025c4 <send_DHCP_REQUEST+0x244>
 800247c:	0938      	lsrs	r0, r7, #4
 800247e:	f7ff fe8f 	bl	80021a0 <NibbleToHex>
 8002482:	f889 00ec 	strb.w	r0, [r9, #236]	; 0xec
 8002486:	4638      	mov	r0, r7
 8002488:	f7ff fe8a 	bl	80021a0 <NibbleToHex>
 800248c:	440c      	add	r4, r1
 800248e:	f884 00ec 	strb.w	r0, [r4, #236]	; 0xec
 8002492:	0930      	lsrs	r0, r6, #4
 8002494:	f7ff fe84 	bl	80021a0 <NibbleToHex>
 8002498:	1c9c      	adds	r4, r3, #2
 800249a:	b2a4      	uxth	r4, r4
 800249c:	440c      	add	r4, r1
 800249e:	f884 00ec 	strb.w	r0, [r4, #236]	; 0xec
 80024a2:	4630      	mov	r0, r6
 80024a4:	f7ff fe7c 	bl	80021a0 <NibbleToHex>
 80024a8:	1cdc      	adds	r4, r3, #3
 80024aa:	b2a4      	uxth	r4, r4
 80024ac:	440c      	add	r4, r1
 80024ae:	f884 00ec 	strb.w	r0, [r4, #236]	; 0xec
 80024b2:	ea4f 1018 	mov.w	r0, r8, lsr #4
 80024b6:	f7ff fe73 	bl	80021a0 <NibbleToHex>
 80024ba:	1d1c      	adds	r4, r3, #4
 80024bc:	b2a4      	uxth	r4, r4
 80024be:	440c      	add	r4, r1
 80024c0:	f884 00ec 	strb.w	r0, [r4, #236]	; 0xec
 80024c4:	4640      	mov	r0, r8
 80024c6:	f7ff fe6b 	bl	80021a0 <NibbleToHex>
 80024ca:	1d5c      	adds	r4, r3, #5
 80024cc:	b2a4      	uxth	r4, r4
 80024ce:	440c      	add	r4, r1
 80024d0:	f884 00ec 	strb.w	r0, [r4, #236]	; 0xec
 80024d4:	1d98      	adds	r0, r3, #6
 80024d6:	b280      	uxth	r0, r0
 80024d8:	1dd4      	adds	r4, r2, #7
 80024da:	1b04      	subs	r4, r0, r4
 80024dc:	3206      	adds	r2, #6
 80024de:	440c      	add	r4, r1
 80024e0:	f884 20ec 	strb.w	r2, [r4, #236]	; 0xec
 80024e4:	2237      	movs	r2, #55	; 0x37
 80024e6:	4408      	add	r0, r1
 80024e8:	f880 20ec 	strb.w	r2, [r0, #236]	; 0xec
 80024ec:	200a      	movs	r0, #10
 80024ee:	1dda      	adds	r2, r3, #7
 80024f0:	b292      	uxth	r2, r2
 80024f2:	440a      	add	r2, r1
 80024f4:	f882 00ec 	strb.w	r0, [r2, #236]	; 0xec
 80024f8:	2001      	movs	r0, #1
 80024fa:	f103 0208 	add.w	r2, r3, #8
 80024fe:	b292      	uxth	r2, r2
 8002500:	440a      	add	r2, r1
 8002502:	f882 00ec 	strb.w	r0, [r2, #236]	; 0xec
 8002506:	2003      	movs	r0, #3
 8002508:	f103 0209 	add.w	r2, r3, #9
 800250c:	b292      	uxth	r2, r2
 800250e:	440a      	add	r2, r1
 8002510:	f882 00ec 	strb.w	r0, [r2, #236]	; 0xec
 8002514:	2006      	movs	r0, #6
 8002516:	f103 020a 	add.w	r2, r3, #10
 800251a:	b292      	uxth	r2, r2
 800251c:	440a      	add	r2, r1
 800251e:	f882 00ec 	strb.w	r0, [r2, #236]	; 0xec
 8002522:	200f      	movs	r0, #15
 8002524:	f103 020b 	add.w	r2, r3, #11
 8002528:	b292      	uxth	r2, r2
 800252a:	440a      	add	r2, r1
 800252c:	f882 00ec 	strb.w	r0, [r2, #236]	; 0xec
 8002530:	203a      	movs	r0, #58	; 0x3a
 8002532:	f103 020c 	add.w	r2, r3, #12
 8002536:	b292      	uxth	r2, r2
 8002538:	440a      	add	r2, r1
 800253a:	f882 00ec 	strb.w	r0, [r2, #236]	; 0xec
 800253e:	203b      	movs	r0, #59	; 0x3b
 8002540:	f103 020d 	add.w	r2, r3, #13
 8002544:	b292      	uxth	r2, r2
 8002546:	440a      	add	r2, r1
 8002548:	f882 00ec 	strb.w	r0, [r2, #236]	; 0xec
 800254c:	201f      	movs	r0, #31
 800254e:	f103 020e 	add.w	r2, r3, #14
 8002552:	b292      	uxth	r2, r2
 8002554:	440a      	add	r2, r1
 8002556:	f882 00ec 	strb.w	r0, [r2, #236]	; 0xec
 800255a:	2021      	movs	r0, #33	; 0x21
 800255c:	f103 020f 	add.w	r2, r3, #15
 8002560:	b292      	uxth	r2, r2
 8002562:	440a      	add	r2, r1
 8002564:	f882 00ec 	strb.w	r0, [r2, #236]	; 0xec
 8002568:	20e0      	movs	r0, #224	; 0xe0
 800256a:	f103 0210 	add.w	r2, r3, #16
 800256e:	b292      	uxth	r2, r2
 8002570:	440a      	add	r2, r1
 8002572:	f882 00ec 	strb.w	r0, [r2, #236]	; 0xec
 8002576:	20e1      	movs	r0, #225	; 0xe1
 8002578:	f103 0211 	add.w	r2, r3, #17
 800257c:	b292      	uxth	r2, r2
 800257e:	440a      	add	r2, r1
 8002580:	f882 00ec 	strb.w	r0, [r2, #236]	; 0xec
 8002584:	20ff      	movs	r0, #255	; 0xff
 8002586:	f103 0212 	add.w	r2, r3, #18
 800258a:	b292      	uxth	r2, r2
 800258c:	440a      	add	r2, r1
 800258e:	3313      	adds	r3, #19
 8002590:	f882 00ec 	strb.w	r0, [r2, #236]	; 0xec
 8002594:	b29b      	uxth	r3, r3
 8002596:	f101 02ec 	add.w	r2, r1, #236	; 0xec
 800259a:	f5b3 7f9c 	cmp.w	r3, #312	; 0x138
 800259e:	db16      	blt.n	80025ce <send_DHCP_REQUEST+0x24e>
 80025a0:	2343      	movs	r3, #67	; 0x43
 80025a2:	4813      	ldr	r0, [pc, #76]	; (80025f0 <send_DHCP_REQUEST+0x270>)
 80025a4:	9300      	str	r3, [sp, #0]
 80025a6:	f44f 7209 	mov.w	r2, #548	; 0x224
 80025aa:	ab03      	add	r3, sp, #12
 80025ac:	7800      	ldrb	r0, [r0, #0]
 80025ae:	f001 fe6b 	bl	8004288 <sendto>
 80025b2:	b005      	add	sp, #20
 80025b4:	e8bd 83f0 	ldmia.w	sp!, {r4, r5, r6, r7, r8, r9, pc}
 80025b8:	f04f 33ff 	mov.w	r3, #4294967295	; 0xffffffff
 80025bc:	9303      	str	r3, [sp, #12]
 80025be:	e705      	b.n	80023cc <send_DHCP_REQUEST+0x4c>
 80025c0:	2210      	movs	r2, #16
 80025c2:	e747      	b.n	8002454 <send_DHCP_REQUEST+0xd4>
 80025c4:	4623      	mov	r3, r4
 80025c6:	f889 50ec 	strb.w	r5, [r9, #236]	; 0xec
 80025ca:	3201      	adds	r2, #1
 80025cc:	e74d      	b.n	800246a <send_DHCP_REQUEST+0xea>
 80025ce:	54d5      	strb	r5, [r2, r3]
 80025d0:	3301      	adds	r3, #1
 80025d2:	e7e2      	b.n	800259a <send_DHCP_REQUEST+0x21a>
 80025d4:	2000047d 	.word	0x2000047d
 80025d8:	20000e0c 	.word	0x20000e0c
 80025dc:	2000046c 	.word	0x2000046c
 80025e0:	20000e08 	.word	0x20000e08
 80025e4:	3d030135 	.word	0x3d030135
 80025e8:	20000df8 	.word	0x20000df8
 80025ec:	20000000 	.word	0x20000000
 80025f0:	20000e10 	.word	0x20000e10

080025f4 <check_DHCP_timeout>:
 80025f4:	b570      	push	{r4, r5, r6, lr}
 80025f6:	4c1c      	ldr	r4, [pc, #112]	; (8002668 <check_DHCP_timeout+0x74>)
 80025f8:	f994 3000 	ldrsb.w	r3, [r4]
 80025fc:	2b01      	cmp	r3, #1
 80025fe:	dc1d      	bgt.n	800263c <check_DHCP_timeout+0x48>
 8002600:	4d1a      	ldr	r5, [pc, #104]	; (800266c <check_DHCP_timeout+0x78>)
 8002602:	4e1b      	ldr	r6, [pc, #108]	; (8002670 <check_DHCP_timeout+0x7c>)
 8002604:	682a      	ldr	r2, [r5, #0]
 8002606:	6831      	ldr	r1, [r6, #0]
 8002608:	4291      	cmp	r1, r2
 800260a:	d212      	bcs.n	8002632 <check_DHCP_timeout+0x3e>
 800260c:	4b19      	ldr	r3, [pc, #100]	; (8002674 <check_DHCP_timeout+0x80>)
 800260e:	f993 3000 	ldrsb.w	r3, [r3]
 8002612:	2b02      	cmp	r3, #2
 8002614:	d00f      	beq.n	8002636 <check_DHCP_timeout+0x42>
 8002616:	2b04      	cmp	r3, #4
 8002618:	d00d      	beq.n	8002636 <check_DHCP_timeout+0x42>
 800261a:	2b01      	cmp	r3, #1
 800261c:	d101      	bne.n	8002622 <check_DHCP_timeout+0x2e>
 800261e:	f7ff fdc7 	bl	80021b0 <send_DHCP_DISCOVER>
 8002622:	2300      	movs	r3, #0
 8002624:	602b      	str	r3, [r5, #0]
 8002626:	682b      	ldr	r3, [r5, #0]
 8002628:	330a      	adds	r3, #10
 800262a:	6033      	str	r3, [r6, #0]
 800262c:	7823      	ldrb	r3, [r4, #0]
 800262e:	3301      	adds	r3, #1
 8002630:	7023      	strb	r3, [r4, #0]
 8002632:	2001      	movs	r0, #1
 8002634:	e010      	b.n	8002658 <check_DHCP_timeout+0x64>
 8002636:	f7ff fea3 	bl	8002380 <send_DHCP_REQUEST>
 800263a:	e7f2      	b.n	8002622 <check_DHCP_timeout+0x2e>
 800263c:	4b0d      	ldr	r3, [pc, #52]	; (8002674 <check_DHCP_timeout+0x80>)
 800263e:	f993 2000 	ldrsb.w	r2, [r3]
 8002642:	461c      	mov	r4, r3
 8002644:	2a02      	cmp	r2, #2
 8002646:	d008      	beq.n	800265a <check_DHCP_timeout+0x66>
 8002648:	2a04      	cmp	r2, #4
 800264a:	d006      	beq.n	800265a <check_DHCP_timeout+0x66>
 800264c:	2a01      	cmp	r2, #1
 800264e:	d109      	bne.n	8002664 <check_DHCP_timeout+0x70>
 8002650:	2000      	movs	r0, #0
 8002652:	7018      	strb	r0, [r3, #0]
 8002654:	f7ff fcf6 	bl	8002044 <reset_DHCP_timeout>
 8002658:	bd70      	pop	{r4, r5, r6, pc}
 800265a:	f7ff fda9 	bl	80021b0 <send_DHCP_DISCOVER>
 800265e:	2001      	movs	r0, #1
 8002660:	7020      	strb	r0, [r4, #0]
 8002662:	e7f7      	b.n	8002654 <check_DHCP_timeout+0x60>
 8002664:	2001      	movs	r0, #1
 8002666:	e7f5      	b.n	8002654 <check_DHCP_timeout+0x60>
 8002668:	2000047c 	.word	0x2000047c
 800266c:	20000480 	.word	0x20000480
 8002670:	20000018 	.word	0x20000018
 8002674:	2000047d 	.word	0x2000047d

08002678 <DHCP_run>:
 8002678:	b538      	push	{r3, r4, r5, lr}
 800267a:	4c52      	ldr	r4, [pc, #328]	; (80027c4 <DHCP_run+0x14c>)
 800267c:	f994 3000 	ldrsb.w	r3, [r4]
 8002680:	2b06      	cmp	r3, #6
 8002682:	f000 809c 	beq.w	80027be <DHCP_run+0x146>
 8002686:	4d50      	ldr	r5, [pc, #320]	; (80027c8 <DHCP_run+0x150>)
 8002688:	7828      	ldrb	r0, [r5, #0]
 800268a:	0140      	lsls	r0, r0, #5
 800268c:	f500 7042 	add.w	r0, r0, #776	; 0x308
 8002690:	f002 fdf0 	bl	8005274 <WIZCHIP_READ>
 8002694:	2822      	cmp	r0, #34	; 0x22
 8002696:	d005      	beq.n	80026a4 <DHCP_run+0x2c>
 8002698:	2300      	movs	r3, #0
 800269a:	2244      	movs	r2, #68	; 0x44
 800269c:	2102      	movs	r1, #2
 800269e:	7828      	ldrb	r0, [r5, #0]
 80026a0:	f001 fc60 	bl	8003f64 <socket>
 80026a4:	f7ff fb40 	bl	8001d28 <parseDHCPMSG>
 80026a8:	f994 3000 	ldrsb.w	r3, [r4]
 80026ac:	b2c5      	uxtb	r5, r0
 80026ae:	2b04      	cmp	r3, #4
 80026b0:	d831      	bhi.n	8002716 <DHCP_run+0x9e>
 80026b2:	e8df f003 	tbb	[pc, r3]
 80026b6:	0e03      	.short	0x0e03
 80026b8:	3d23      	.short	0x3d23
 80026ba:	5a          	.byte	0x5a
 80026bb:	00          	.byte	0x00
 80026bc:	2200      	movs	r2, #0
 80026be:	4b43      	ldr	r3, [pc, #268]	; (80027cc <DHCP_run+0x154>)
 80026c0:	701a      	strb	r2, [r3, #0]
 80026c2:	705a      	strb	r2, [r3, #1]
 80026c4:	709a      	strb	r2, [r3, #2]
 80026c6:	70da      	strb	r2, [r3, #3]
 80026c8:	f7ff fd72 	bl	80021b0 <send_DHCP_DISCOVER>
 80026cc:	2001      	movs	r0, #1
 80026ce:	7020      	strb	r0, [r4, #0]
 80026d0:	bd38      	pop	{r3, r4, r5, pc}
 80026d2:	2d02      	cmp	r5, #2
 80026d4:	d10e      	bne.n	80026f4 <DHCP_run+0x7c>
 80026d6:	4b3e      	ldr	r3, [pc, #248]	; (80027d0 <DHCP_run+0x158>)
 80026d8:	681a      	ldr	r2, [r3, #0]
 80026da:	4b3c      	ldr	r3, [pc, #240]	; (80027cc <DHCP_run+0x154>)
 80026dc:	7c11      	ldrb	r1, [r2, #16]
 80026de:	7019      	strb	r1, [r3, #0]
 80026e0:	7c51      	ldrb	r1, [r2, #17]
 80026e2:	7059      	strb	r1, [r3, #1]
 80026e4:	7c91      	ldrb	r1, [r2, #18]
 80026e6:	7cd2      	ldrb	r2, [r2, #19]
 80026e8:	7099      	strb	r1, [r3, #2]
 80026ea:	70da      	strb	r2, [r3, #3]
 80026ec:	f7ff fe48 	bl	8002380 <send_DHCP_REQUEST>
 80026f0:	7025      	strb	r5, [r4, #0]
 80026f2:	e010      	b.n	8002716 <DHCP_run+0x9e>
 80026f4:	e8bd 4038 	ldmia.w	sp!, {r3, r4, r5, lr}
 80026f8:	f7ff bf7c 	b.w	80025f4 <check_DHCP_timeout>
 80026fc:	2d05      	cmp	r5, #5
 80026fe:	d112      	bne.n	8002726 <DHCP_run+0xae>
 8002700:	f7ff fc6e 	bl	8001fe0 <check_DHCP_leasedIP>
 8002704:	4605      	mov	r5, r0
 8002706:	b140      	cbz	r0, 800271a <DHCP_run+0xa2>
 8002708:	4b32      	ldr	r3, [pc, #200]	; (80027d4 <DHCP_run+0x15c>)
 800270a:	681b      	ldr	r3, [r3, #0]
 800270c:	4798      	blx	r3
 800270e:	f7ff fc99 	bl	8002044 <reset_DHCP_timeout>
 8002712:	2303      	movs	r3, #3
 8002714:	7023      	strb	r3, [r4, #0]
 8002716:	2001      	movs	r0, #1
 8002718:	e7da      	b.n	80026d0 <DHCP_run+0x58>
 800271a:	f7ff fc93 	bl	8002044 <reset_DHCP_timeout>
 800271e:	4b2e      	ldr	r3, [pc, #184]	; (80027d8 <DHCP_run+0x160>)
 8002720:	681b      	ldr	r3, [r3, #0]
 8002722:	4798      	blx	r3
 8002724:	e7e4      	b.n	80026f0 <DHCP_run+0x78>
 8002726:	2d06      	cmp	r5, #6
 8002728:	d1e4      	bne.n	80026f4 <DHCP_run+0x7c>
 800272a:	f7ff fc8b 	bl	8002044 <reset_DHCP_timeout>
 800272e:	e7cd      	b.n	80026cc <DHCP_run+0x54>
 8002730:	4b2a      	ldr	r3, [pc, #168]	; (80027dc <DHCP_run+0x164>)
 8002732:	681b      	ldr	r3, [r3, #0]
 8002734:	1c5a      	adds	r2, r3, #1
 8002736:	d040      	beq.n	80027ba <DHCP_run+0x142>
 8002738:	4a29      	ldr	r2, [pc, #164]	; (80027e0 <DHCP_run+0x168>)
 800273a:	6812      	ldr	r2, [r2, #0]
 800273c:	ebb2 0f53 	cmp.w	r2, r3, lsr #1
 8002740:	d93b      	bls.n	80027ba <DHCP_run+0x142>
 8002742:	4a22      	ldr	r2, [pc, #136]	; (80027cc <DHCP_run+0x154>)
 8002744:	4b27      	ldr	r3, [pc, #156]	; (80027e4 <DHCP_run+0x16c>)
 8002746:	7811      	ldrb	r1, [r2, #0]
 8002748:	7019      	strb	r1, [r3, #0]
 800274a:	7851      	ldrb	r1, [r2, #1]
 800274c:	7059      	strb	r1, [r3, #1]
 800274e:	7891      	ldrb	r1, [r2, #2]
 8002750:	78d2      	ldrb	r2, [r2, #3]
 8002752:	7099      	strb	r1, [r3, #2]
 8002754:	70da      	strb	r2, [r3, #3]
 8002756:	4a24      	ldr	r2, [pc, #144]	; (80027e8 <DHCP_run+0x170>)
 8002758:	6813      	ldr	r3, [r2, #0]
 800275a:	3301      	adds	r3, #1
 800275c:	6013      	str	r3, [r2, #0]
 800275e:	f7ff fe0f 	bl	8002380 <send_DHCP_REQUEST>
 8002762:	f7ff fc6f 	bl	8002044 <reset_DHCP_timeout>
 8002766:	2004      	movs	r0, #4
 8002768:	e7b1      	b.n	80026ce <DHCP_run+0x56>
 800276a:	2d05      	cmp	r5, #5
 800276c:	d11f      	bne.n	80027ae <DHCP_run+0x136>
 800276e:	2200      	movs	r2, #0
 8002770:	4b1e      	ldr	r3, [pc, #120]	; (80027ec <DHCP_run+0x174>)
 8002772:	701a      	strb	r2, [r3, #0]
 8002774:	4a1b      	ldr	r2, [pc, #108]	; (80027e4 <DHCP_run+0x16c>)
 8002776:	4b15      	ldr	r3, [pc, #84]	; (80027cc <DHCP_run+0x154>)
 8002778:	7810      	ldrb	r0, [r2, #0]
 800277a:	7819      	ldrb	r1, [r3, #0]
 800277c:	4288      	cmp	r0, r1
 800277e:	d10b      	bne.n	8002798 <DHCP_run+0x120>
 8002780:	7850      	ldrb	r0, [r2, #1]
 8002782:	7859      	ldrb	r1, [r3, #1]
 8002784:	4288      	cmp	r0, r1
 8002786:	d107      	bne.n	8002798 <DHCP_run+0x120>
 8002788:	7890      	ldrb	r0, [r2, #2]
 800278a:	7899      	ldrb	r1, [r3, #2]
 800278c:	4288      	cmp	r0, r1
 800278e:	d103      	bne.n	8002798 <DHCP_run+0x120>
 8002790:	78d2      	ldrb	r2, [r2, #3]
 8002792:	78db      	ldrb	r3, [r3, #3]
 8002794:	429a      	cmp	r2, r3
 8002796:	d008      	beq.n	80027aa <DHCP_run+0x132>
 8002798:	4b15      	ldr	r3, [pc, #84]	; (80027f0 <DHCP_run+0x178>)
 800279a:	681b      	ldr	r3, [r3, #0]
 800279c:	4798      	blx	r3
 800279e:	2003      	movs	r0, #3
 80027a0:	f7ff fc50 	bl	8002044 <reset_DHCP_timeout>
 80027a4:	2303      	movs	r3, #3
 80027a6:	7023      	strb	r3, [r4, #0]
 80027a8:	e792      	b.n	80026d0 <DHCP_run+0x58>
 80027aa:	2004      	movs	r0, #4
 80027ac:	e7f8      	b.n	80027a0 <DHCP_run+0x128>
 80027ae:	2d06      	cmp	r5, #6
 80027b0:	d1a0      	bne.n	80026f4 <DHCP_run+0x7c>
 80027b2:	f7ff fc47 	bl	8002044 <reset_DHCP_timeout>
 80027b6:	2301      	movs	r3, #1
 80027b8:	7023      	strb	r3, [r4, #0]
 80027ba:	2004      	movs	r0, #4
 80027bc:	e788      	b.n	80026d0 <DHCP_run+0x58>
 80027be:	2005      	movs	r0, #5
 80027c0:	e786      	b.n	80026d0 <DHCP_run+0x58>
 80027c2:	bf00      	nop
 80027c4:	2000047d 	.word	0x2000047d
 80027c8:	20000e10 	.word	0x20000e10
 80027cc:	2000046c 	.word	0x2000046c
 80027d0:	20000e0c 	.word	0x20000e0c
 80027d4:	20000008 	.word	0x20000008
 80027d8:	2000000c 	.word	0x2000000c
 80027dc:	20000014 	.word	0x20000014
 80027e0:	20000480 	.word	0x20000480
 80027e4:	20000478 	.word	0x20000478
 80027e8:	20000e00 	.word	0x20000e00
 80027ec:	2000047c 	.word	0x2000047c
 80027f0:	20000010 	.word	0x20000010

080027f4 <Callback_IPAssigned>:
 80027f4:	2201      	movs	r2, #1
 80027f6:	4b01      	ldr	r3, [pc, #4]	; (80027fc <Callback_IPAssigned+0x8>)
 80027f8:	701a      	strb	r2, [r3, #0]
 80027fa:	4770      	bx	lr
 80027fc:	2000054c 	.word	0x2000054c

08002800 <Callback_IPConflict>:
 8002800:	4770      	bx	lr
	...

08002804 <W5500_Select>:
 8002804:	2200      	movs	r2, #0
 8002806:	f44f 5180 	mov.w	r1, #4096	; 0x1000
 800280a:	4801      	ldr	r0, [pc, #4]	; (8002810 <W5500_Select+0xc>)
 800280c:	f003 bb2c 	b.w	8005e68 <HAL_GPIO_WritePin>
 8002810:	40010c00 	.word	0x40010c00

08002814 <W5500_Unselect>:
 8002814:	2201      	movs	r2, #1
 8002816:	f44f 5180 	mov.w	r1, #4096	; 0x1000
 800281a:	4801      	ldr	r0, [pc, #4]	; (8002820 <W5500_Unselect+0xc>)
 800281c:	f003 bb24 	b.w	8005e68 <HAL_GPIO_WritePin>
 8002820:	40010c00 	.word	0x40010c00

08002824 <W5500_ReadBuff>:
 8002824:	460a      	mov	r2, r1
 8002826:	f04f 33ff 	mov.w	r3, #4294967295	; 0xffffffff
 800282a:	4601      	mov	r1, r0
 800282c:	4801      	ldr	r0, [pc, #4]	; (8002834 <W5500_ReadBuff+0x10>)
 800282e:	f004 bce2 	b.w	80071f6 <HAL_SPI_Receive>
 8002832:	bf00      	nop
 8002834:	20001214 	.word	0x20001214

08002838 <W5500_ReadByte>:
 8002838:	b507      	push	{r0, r1, r2, lr}
 800283a:	2101      	movs	r1, #1
 800283c:	f10d 0007 	add.w	r0, sp, #7
 8002840:	f7ff fff0 	bl	8002824 <W5500_ReadBuff>
 8002844:	f89d 0007 	ldrb.w	r0, [sp, #7]
 8002848:	b003      	add	sp, #12
 800284a:	f85d fb04 	ldr.w	pc, [sp], #4
	...

08002850 <W5500_WriteBuff>:
 8002850:	460a      	mov	r2, r1
 8002852:	f04f 33ff 	mov.w	r3, #4294967295	; 0xffffffff
 8002856:	4601      	mov	r1, r0
 8002858:	4801      	ldr	r0, [pc, #4]	; (8002860 <W5500_WriteBuff+0x10>)
 800285a:	f004 bb30 	b.w	8006ebe <HAL_SPI_Transmit>
 800285e:	bf00      	nop
 8002860:	20001214 	.word	0x20001214

08002864 <W5500_WriteByte>:
 8002864:	b507      	push	{r0, r1, r2, lr}
 8002866:	2101      	movs	r1, #1
 8002868:	f88d 0007 	strb.w	r0, [sp, #7]
 800286c:	f10d 0007 	add.w	r0, sp, #7
 8002870:	f7ff ffee 	bl	8002850 <W5500_WriteBuff>
 8002874:	b003      	add	sp, #12
 8002876:	f85d fb04 	ldr.w	pc, [sp], #4
	...

0800287c <MX_I2C1_Init>:
 800287c:	b508      	push	{r3, lr}
 800287e:	480a      	ldr	r0, [pc, #40]	; (80028a8 <MX_I2C1_Init+0x2c>)
 8002880:	4a0a      	ldr	r2, [pc, #40]	; (80028ac <MX_I2C1_Init+0x30>)
 8002882:	4b0b      	ldr	r3, [pc, #44]	; (80028b0 <MX_I2C1_Init+0x34>)
 8002884:	e9c0 2300 	strd	r2, r3, [r0]
 8002888:	2300      	movs	r3, #0
 800288a:	f44f 4280 	mov.w	r2, #16384	; 0x4000
 800288e:	e9c0 3302 	strd	r3, r3, [r0, #8]
 8002892:	e9c0 2304 	strd	r2, r3, [r0, #16]
 8002896:	e9c0 3306 	strd	r3, r3, [r0, #24]
 800289a:	6203      	str	r3, [r0, #32]
 800289c:	f003 fcc4 	bl	8006228 <HAL_I2C_Init>
 80028a0:	b108      	cbz	r0, 80028a6 <MX_I2C1_Init+0x2a>
 80028a2:	b672      	cpsid	i
 80028a4:	e7fe      	b.n	80028a4 <MX_I2C1_Init+0x28>
 80028a6:	bd08      	pop	{r3, pc}
 80028a8:	200012b4 	.word	0x200012b4
 80028ac:	40005400 	.word	0x40005400
 80028b0:	000186a0 	.word	0x000186a0
 80028b4:	00000000 	.word	0x00000000

080028b8 <rwFlash>:
 80028b8:	4b81      	ldr	r3, [pc, #516]	; (8002ac0 <rwFlash+0x208>)
 80028ba:	b5f0      	push	{r4, r5, r6, r7, lr}
 80028bc:	681a      	ldr	r2, [r3, #0]
 80028be:	f103 6323 	add.w	r3, r3, #170917888	; 0xa300000
 80028c2:	f503 3367 	add.w	r3, r3, #236544	; 0x39c00
 80028c6:	3376      	adds	r3, #118	; 0x76
 80028c8:	429a      	cmp	r2, r3
 80028ca:	b089      	sub	sp, #36	; 0x24
 80028cc:	d172      	bne.n	80029b4 <rwFlash+0xfc>
 80028ce:	2801      	cmp	r0, #1
 80028d0:	f000 8084 	beq.w	80029dc <rwFlash+0x124>
 80028d4:	4b7b      	ldr	r3, [pc, #492]	; (8002ac4 <rwFlash+0x20c>)
 80028d6:	22c8      	movs	r2, #200	; 0xc8
 80028d8:	881c      	ldrh	r4, [r3, #0]
 80028da:	4b7b      	ldr	r3, [pc, #492]	; (8002ac8 <rwFlash+0x210>)
 80028dc:	b2a4      	uxth	r4, r4
 80028de:	801c      	strh	r4, [r3, #0]
 80028e0:	4b7a      	ldr	r3, [pc, #488]	; (8002acc <rwFlash+0x214>)
 80028e2:	2100      	movs	r1, #0
 80028e4:	881d      	ldrh	r5, [r3, #0]
 80028e6:	4b7a      	ldr	r3, [pc, #488]	; (8002ad0 <rwFlash+0x218>)
 80028e8:	b2ad      	uxth	r5, r5
 80028ea:	801d      	strh	r5, [r3, #0]
 80028ec:	4b79      	ldr	r3, [pc, #484]	; (8002ad4 <rwFlash+0x21c>)
 80028ee:	487a      	ldr	r0, [pc, #488]	; (8002ad8 <rwFlash+0x220>)
 80028f0:	881e      	ldrh	r6, [r3, #0]
 80028f2:	4b7a      	ldr	r3, [pc, #488]	; (8002adc <rwFlash+0x224>)
 80028f4:	b2b6      	uxth	r6, r6
 80028f6:	801e      	strh	r6, [r3, #0]
 80028f8:	4b79      	ldr	r3, [pc, #484]	; (8002ae0 <rwFlash+0x228>)
 80028fa:	881f      	ldrh	r7, [r3, #0]
 80028fc:	4b79      	ldr	r3, [pc, #484]	; (8002ae4 <rwFlash+0x22c>)
 80028fe:	b2bf      	uxth	r7, r7
 8002900:	801f      	strh	r7, [r3, #0]
 8002902:	4b79      	ldr	r3, [pc, #484]	; (8002ae8 <rwFlash+0x230>)
 8002904:	801c      	strh	r4, [r3, #0]
 8002906:	4b79      	ldr	r3, [pc, #484]	; (8002aec <rwFlash+0x234>)
 8002908:	801d      	strh	r5, [r3, #0]
 800290a:	f005 fc9d 	bl	8008248 <memset>
 800290e:	462b      	mov	r3, r5
 8002910:	4622      	mov	r2, r4
 8002912:	e9cd 6700 	strd	r6, r7, [sp]
 8002916:	4976      	ldr	r1, [pc, #472]	; (8002af0 <rwFlash+0x238>)
 8002918:	486f      	ldr	r0, [pc, #444]	; (8002ad8 <rwFlash+0x220>)
 800291a:	f006 f8fd 	bl	8008b18 <siprintf>
 800291e:	f44f 737a 	mov.w	r3, #1000	; 0x3e8
 8002922:	22c8      	movs	r2, #200	; 0xc8
 8002924:	496c      	ldr	r1, [pc, #432]	; (8002ad8 <rwFlash+0x220>)
 8002926:	4873      	ldr	r0, [pc, #460]	; (8002af4 <rwFlash+0x23c>)
 8002928:	f005 fbb0 	bl	800808c <HAL_UART_Transmit>
 800292c:	4b72      	ldr	r3, [pc, #456]	; (8002af8 <rwFlash+0x240>)
 800292e:	22c8      	movs	r2, #200	; 0xc8
 8002930:	681c      	ldr	r4, [r3, #0]
 8002932:	4b72      	ldr	r3, [pc, #456]	; (8002afc <rwFlash+0x244>)
 8002934:	2100      	movs	r1, #0
 8002936:	601c      	str	r4, [r3, #0]
 8002938:	4b71      	ldr	r3, [pc, #452]	; (8002b00 <rwFlash+0x248>)
 800293a:	4867      	ldr	r0, [pc, #412]	; (8002ad8 <rwFlash+0x220>)
 800293c:	681e      	ldr	r6, [r3, #0]
 800293e:	4b71      	ldr	r3, [pc, #452]	; (8002b04 <rwFlash+0x24c>)
 8002940:	601e      	str	r6, [r3, #0]
 8002942:	f005 fc81 	bl	8008248 <memset>
 8002946:	4620      	mov	r0, r4
 8002948:	f7fd fd6e 	bl	8000428 <__aeabi_f2d>
 800294c:	4604      	mov	r4, r0
 800294e:	4630      	mov	r0, r6
 8002950:	460d      	mov	r5, r1
 8002952:	f7fd fd69 	bl	8000428 <__aeabi_f2d>
 8002956:	4622      	mov	r2, r4
 8002958:	e9cd 0100 	strd	r0, r1, [sp]
 800295c:	462b      	mov	r3, r5
 800295e:	496a      	ldr	r1, [pc, #424]	; (8002b08 <rwFlash+0x250>)
 8002960:	485d      	ldr	r0, [pc, #372]	; (8002ad8 <rwFlash+0x220>)
 8002962:	f006 f8d9 	bl	8008b18 <siprintf>
 8002966:	f44f 737a 	mov.w	r3, #1000	; 0x3e8
 800296a:	22c8      	movs	r2, #200	; 0xc8
 800296c:	495a      	ldr	r1, [pc, #360]	; (8002ad8 <rwFlash+0x220>)
 800296e:	4861      	ldr	r0, [pc, #388]	; (8002af4 <rwFlash+0x23c>)
 8002970:	f005 fb8c 	bl	800808c <HAL_UART_Transmit>
 8002974:	4b65      	ldr	r3, [pc, #404]	; (8002b0c <rwFlash+0x254>)
 8002976:	4c66      	ldr	r4, [pc, #408]	; (8002b10 <rwFlash+0x258>)
 8002978:	681b      	ldr	r3, [r3, #0]
 800297a:	2100      	movs	r1, #0
 800297c:	1c5a      	adds	r2, r3, #1
 800297e:	bf08      	it	eq
 8002980:	4b64      	ldreq	r3, [pc, #400]	; (8002b14 <rwFlash+0x25c>)
 8002982:	f04f 02c8 	mov.w	r2, #200	; 0xc8
 8002986:	4854      	ldr	r0, [pc, #336]	; (8002ad8 <rwFlash+0x220>)
 8002988:	bf14      	ite	ne
 800298a:	6023      	strne	r3, [r4, #0]
 800298c:	6023      	streq	r3, [r4, #0]
 800298e:	f005 fc5b 	bl	8008248 <memset>
 8002992:	6820      	ldr	r0, [r4, #0]
 8002994:	f7fd fd48 	bl	8000428 <__aeabi_f2d>
 8002998:	4602      	mov	r2, r0
 800299a:	460b      	mov	r3, r1
 800299c:	484e      	ldr	r0, [pc, #312]	; (8002ad8 <rwFlash+0x220>)
 800299e:	495e      	ldr	r1, [pc, #376]	; (8002b18 <rwFlash+0x260>)
 80029a0:	f006 f8ba 	bl	8008b18 <siprintf>
 80029a4:	f44f 737a 	mov.w	r3, #1000	; 0x3e8
 80029a8:	22c8      	movs	r2, #200	; 0xc8
 80029aa:	494b      	ldr	r1, [pc, #300]	; (8002ad8 <rwFlash+0x220>)
 80029ac:	4851      	ldr	r0, [pc, #324]	; (8002af4 <rwFlash+0x23c>)
 80029ae:	f005 fb6d 	bl	800808c <HAL_UART_Transmit>
 80029b2:	e02d      	b.n	8002a10 <rwFlash+0x158>
 80029b4:	b990      	cbnz	r0, 80029dc <rwFlash+0x124>
 80029b6:	f649 4340 	movw	r3, #40000	; 0x9c40
 80029ba:	4a43      	ldr	r2, [pc, #268]	; (8002ac8 <rwFlash+0x210>)
 80029bc:	8013      	strh	r3, [r2, #0]
 80029be:	4a47      	ldr	r2, [pc, #284]	; (8002adc <rwFlash+0x224>)
 80029c0:	8013      	strh	r3, [r2, #0]
 80029c2:	4a43      	ldr	r2, [pc, #268]	; (8002ad0 <rwFlash+0x218>)
 80029c4:	8013      	strh	r3, [r2, #0]
 80029c6:	4a47      	ldr	r2, [pc, #284]	; (8002ae4 <rwFlash+0x22c>)
 80029c8:	8013      	strh	r3, [r2, #0]
 80029ca:	4b51      	ldr	r3, [pc, #324]	; (8002b10 <rwFlash+0x258>)
 80029cc:	4a51      	ldr	r2, [pc, #324]	; (8002b14 <rwFlash+0x25c>)
 80029ce:	601a      	str	r2, [r3, #0]
 80029d0:	f04f 537e 	mov.w	r3, #1065353216	; 0x3f800000
 80029d4:	4a49      	ldr	r2, [pc, #292]	; (8002afc <rwFlash+0x244>)
 80029d6:	6013      	str	r3, [r2, #0]
 80029d8:	4a4a      	ldr	r2, [pc, #296]	; (8002b04 <rwFlash+0x24c>)
 80029da:	6013      	str	r3, [r2, #0]
 80029dc:	2300      	movs	r3, #0
 80029de:	e9cd 3303 	strd	r3, r3, [sp, #12]
 80029e2:	2301      	movs	r3, #1
 80029e4:	4936      	ldr	r1, [pc, #216]	; (8002ac0 <rwFlash+0x208>)
 80029e6:	4c4d      	ldr	r4, [pc, #308]	; (8002b1c <rwFlash+0x264>)
 80029e8:	e9cd 1306 	strd	r1, r3, [sp, #24]
 80029ec:	7023      	strb	r3, [r4, #0]
 80029ee:	f002 ffe9 	bl	80059c4 <HAL_FLASH_Unlock>
 80029f2:	7020      	strb	r0, [r4, #0]
 80029f4:	2800      	cmp	r0, #0
 80029f6:	d1fa      	bne.n	80029ee <rwFlash+0x136>
 80029f8:	a903      	add	r1, sp, #12
 80029fa:	a804      	add	r0, sp, #16
 80029fc:	f003 f89e 	bl	8005b3c <HAL_FLASHEx_Erase>
 8002a00:	b140      	cbz	r0, 8002a14 <rwFlash+0x15c>
 8002a02:	2301      	movs	r3, #1
 8002a04:	7023      	strb	r3, [r4, #0]
 8002a06:	f002 ffef 	bl	80059e8 <HAL_FLASH_Lock>
 8002a0a:	7020      	strb	r0, [r4, #0]
 8002a0c:	2800      	cmp	r0, #0
 8002a0e:	d1fa      	bne.n	8002a06 <rwFlash+0x14e>
 8002a10:	b009      	add	sp, #36	; 0x24
 8002a12:	bdf0      	pop	{r4, r5, r6, r7, pc}
 8002a14:	2301      	movs	r3, #1
 8002a16:	a728      	add	r7, pc, #160	; (adr r7, 8002ab8 <rwFlash+0x200>)
 8002a18:	e9d7 6700 	ldrd	r6, r7, [r7]
 8002a1c:	4d28      	ldr	r5, [pc, #160]	; (8002ac0 <rwFlash+0x208>)
 8002a1e:	7023      	strb	r3, [r4, #0]
 8002a20:	4632      	mov	r2, r6
 8002a22:	463b      	mov	r3, r7
 8002a24:	4629      	mov	r1, r5
 8002a26:	2003      	movs	r0, #3
 8002a28:	f003 f812 	bl	8005a50 <HAL_FLASH_Program>
 8002a2c:	7020      	strb	r0, [r4, #0]
 8002a2e:	2800      	cmp	r0, #0
 8002a30:	d1f6      	bne.n	8002a20 <rwFlash+0x168>
 8002a32:	4b27      	ldr	r3, [pc, #156]	; (8002ad0 <rwFlash+0x218>)
 8002a34:	4f23      	ldr	r7, [pc, #140]	; (8002ac4 <rwFlash+0x20c>)
 8002a36:	8819      	ldrh	r1, [r3, #0]
 8002a38:	4b28      	ldr	r3, [pc, #160]	; (8002adc <rwFlash+0x224>)
 8002a3a:	881d      	ldrh	r5, [r3, #0]
 8002a3c:	4b22      	ldr	r3, [pc, #136]	; (8002ac8 <rwFlash+0x210>)
 8002a3e:	881e      	ldrh	r6, [r3, #0]
 8002a40:	4b28      	ldr	r3, [pc, #160]	; (8002ae4 <rwFlash+0x22c>)
 8002a42:	ea46 4601 	orr.w	r6, r6, r1, lsl #16
 8002a46:	881a      	ldrh	r2, [r3, #0]
 8002a48:	2301      	movs	r3, #1
 8002a4a:	ea45 4502 	orr.w	r5, r5, r2, lsl #16
 8002a4e:	7023      	strb	r3, [r4, #0]
 8002a50:	4632      	mov	r2, r6
 8002a52:	462b      	mov	r3, r5
 8002a54:	4639      	mov	r1, r7
 8002a56:	2003      	movs	r0, #3
 8002a58:	f002 fffa 	bl	8005a50 <HAL_FLASH_Program>
 8002a5c:	7020      	strb	r0, [r4, #0]
 8002a5e:	2800      	cmp	r0, #0
 8002a60:	d1f6      	bne.n	8002a50 <rwFlash+0x198>
 8002a62:	2301      	movs	r3, #1
 8002a64:	4e25      	ldr	r6, [pc, #148]	; (8002afc <rwFlash+0x244>)
 8002a66:	4d24      	ldr	r5, [pc, #144]	; (8002af8 <rwFlash+0x240>)
 8002a68:	7023      	strb	r3, [r4, #0]
 8002a6a:	2300      	movs	r3, #0
 8002a6c:	4629      	mov	r1, r5
 8002a6e:	2002      	movs	r0, #2
 8002a70:	6832      	ldr	r2, [r6, #0]
 8002a72:	f002 ffed 	bl	8005a50 <HAL_FLASH_Program>
 8002a76:	7020      	strb	r0, [r4, #0]
 8002a78:	2800      	cmp	r0, #0
 8002a7a:	d1f6      	bne.n	8002a6a <rwFlash+0x1b2>
 8002a7c:	2301      	movs	r3, #1
 8002a7e:	4e21      	ldr	r6, [pc, #132]	; (8002b04 <rwFlash+0x24c>)
 8002a80:	4d1f      	ldr	r5, [pc, #124]	; (8002b00 <rwFlash+0x248>)
 8002a82:	7023      	strb	r3, [r4, #0]
 8002a84:	2300      	movs	r3, #0
 8002a86:	4629      	mov	r1, r5
 8002a88:	2002      	movs	r0, #2
 8002a8a:	6832      	ldr	r2, [r6, #0]
 8002a8c:	f002 ffe0 	bl	8005a50 <HAL_FLASH_Program>
 8002a90:	7020      	strb	r0, [r4, #0]
 8002a92:	2800      	cmp	r0, #0
 8002a94:	d1f6      	bne.n	8002a84 <rwFlash+0x1cc>
 8002a96:	2301      	movs	r3, #1
 8002a98:	4e1d      	ldr	r6, [pc, #116]	; (8002b10 <rwFlash+0x258>)
 8002a9a:	4d1c      	ldr	r5, [pc, #112]	; (8002b0c <rwFlash+0x254>)
 8002a9c:	7023      	strb	r3, [r4, #0]
 8002a9e:	2300      	movs	r3, #0
 8002aa0:	4629      	mov	r1, r5
 8002aa2:	2002      	movs	r0, #2
 8002aa4:	6832      	ldr	r2, [r6, #0]
 8002aa6:	f002 ffd3 	bl	8005a50 <HAL_FLASH_Program>
 8002aaa:	7020      	strb	r0, [r4, #0]
 8002aac:	2800      	cmp	r0, #0
 8002aae:	d1f6      	bne.n	8002a9e <rwFlash+0x1e6>
 8002ab0:	e7a7      	b.n	8002a02 <rwFlash+0x14a>
 8002ab2:	bf00      	nop
 8002ab4:	f3af 8000 	nop.w
 8002ab8:	12349876 	.word	0x12349876
 8002abc:	00000000 	.word	0x00000000
 8002ac0:	0800fc00 	.word	0x0800fc00
 8002ac4:	0800fc10 	.word	0x0800fc10
 8002ac8:	200005ec 	.word	0x200005ec
 8002acc:	0800fc12 	.word	0x0800fc12
 8002ad0:	200005b4 	.word	0x200005b4
 8002ad4:	0800fc14 	.word	0x0800fc14
 8002ad8:	20000484 	.word	0x20000484
 8002adc:	2000098c 	.word	0x2000098c
 8002ae0:	0800fc16 	.word	0x0800fc16
 8002ae4:	200005b8 	.word	0x200005b8
 8002ae8:	2000064e 	.word	0x2000064e
 8002aec:	20000dee 	.word	0x20000dee
 8002af0:	0800b682 	.word	0x0800b682
 8002af4:	20001364 	.word	0x20001364
 8002af8:	0800fc18 	.word	0x0800fc18
 8002afc:	20000590 	.word	0x20000590
 8002b00:	0800fc20 	.word	0x0800fc20
 8002b04:	200005a0 	.word	0x200005a0
 8002b08:	0800b6ad 	.word	0x0800b6ad
 8002b0c:	0800fc24 	.word	0x0800fc24
 8002b10:	20000b34 	.word	0x20000b34
 8002b14:	41a00000 	.word	0x41a00000
 8002b18:	0800b6c7 	.word	0x0800b6c7
 8002b1c:	20001440 	.word	0x20001440

08002b20 <sendToZabbix>:
 8002b20:	e92d 41f0 	stmdb	sp!, {r4, r5, r6, r7, r8, lr}
 8002b24:	4604      	mov	r4, r0
 8002b26:	460e      	mov	r6, r1
 8002b28:	4617      	mov	r7, r2
 8002b2a:	4698      	mov	r8, r3
 8002b2c:	f642 2288 	movw	r2, #10888	; 0x2a88
 8002b30:	2300      	movs	r3, #0
 8002b32:	2101      	movs	r1, #1
 8002b34:	2002      	movs	r0, #2
 8002b36:	b0c0      	sub	sp, #256	; 0x100
 8002b38:	f001 fa14 	bl	8003f64 <socket>
 8002b3c:	2802      	cmp	r0, #2
 8002b3e:	4605      	mov	r5, r0
 8002b40:	d145      	bne.n	8002bce <sendToZabbix+0xae>
 8002b42:	4621      	mov	r1, r4
 8002b44:	f242 7243 	movw	r2, #10051	; 0x2743
 8002b48:	f001 fa9e 	bl	8004088 <connect>
 8002b4c:	2801      	cmp	r0, #1
 8002b4e:	4604      	mov	r4, r0
 8002b50:	d007      	beq.n	8002b62 <sendToZabbix+0x42>
 8002b52:	4628      	mov	r0, r5
 8002b54:	f001 f9c8 	bl	8003ee8 <close>
 8002b58:	24fe      	movs	r4, #254	; 0xfe
 8002b5a:	4620      	mov	r0, r4
 8002b5c:	b040      	add	sp, #256	; 0x100
 8002b5e:	e8bd 81f0 	ldmia.w	sp!, {r4, r5, r6, r7, r8, pc}
 8002b62:	4640      	mov	r0, r8
 8002b64:	f7fd fc60 	bl	8000428 <__aeabi_f2d>
 8002b68:	4632      	mov	r2, r6
 8002b6a:	e9cd 0100 	strd	r0, r1, [sp]
 8002b6e:	463b      	mov	r3, r7
 8002b70:	4918      	ldr	r1, [pc, #96]	; (8002bd4 <sendToZabbix+0xb4>)
 8002b72:	a803      	add	r0, sp, #12
 8002b74:	f005 ffd0 	bl	8008b18 <siprintf>
 8002b78:	4b17      	ldr	r3, [pc, #92]	; (8002bd8 <sendToZabbix+0xb8>)
 8002b7a:	a803      	add	r0, sp, #12
 8002b7c:	9320      	str	r3, [sp, #128]	; 0x80
 8002b7e:	f88d 4084 	strb.w	r4, [sp, #132]	; 0x84
 8002b82:	f7fd fae5 	bl	8000150 <strlen>
 8002b86:	2300      	movs	r3, #0
 8002b88:	b2c4      	uxtb	r4, r0
 8002b8a:	a903      	add	r1, sp, #12
 8002b8c:	f10d 008d 	add.w	r0, sp, #141	; 0x8d
 8002b90:	f88d 4085 	strb.w	r4, [sp, #133]	; 0x85
 8002b94:	f8ad 3086 	strh.w	r3, [sp, #134]	; 0x86
 8002b98:	9322      	str	r3, [sp, #136]	; 0x88
 8002b9a:	f88d 308c 	strb.w	r3, [sp, #140]	; 0x8c
 8002b9e:	f005 ffdb 	bl	8008b58 <strcpy>
 8002ba2:	340d      	adds	r4, #13
 8002ba4:	b2e4      	uxtb	r4, r4
 8002ba6:	4622      	mov	r2, r4
 8002ba8:	2002      	movs	r0, #2
 8002baa:	a920      	add	r1, sp, #128	; 0x80
 8002bac:	f001 fae2 	bl	8004174 <send>
 8002bb0:	2800      	cmp	r0, #0
 8002bb2:	dc04      	bgt.n	8002bbe <sendToZabbix+0x9e>
 8002bb4:	2002      	movs	r0, #2
 8002bb6:	f001 f997 	bl	8003ee8 <close>
 8002bba:	24fd      	movs	r4, #253	; 0xfd
 8002bbc:	e7cd      	b.n	8002b5a <sendToZabbix+0x3a>
 8002bbe:	1a24      	subs	r4, r4, r0
 8002bc0:	f014 04ff 	ands.w	r4, r4, #255	; 0xff
 8002bc4:	d1ef      	bne.n	8002ba6 <sendToZabbix+0x86>
 8002bc6:	2002      	movs	r0, #2
 8002bc8:	f001 f98e 	bl	8003ee8 <close>
 8002bcc:	e7c5      	b.n	8002b5a <sendToZabbix+0x3a>
 8002bce:	24ff      	movs	r4, #255	; 0xff
 8002bd0:	e7c3      	b.n	8002b5a <sendToZabbix+0x3a>
 8002bd2:	bf00      	nop
 8002bd4:	0800b6d4 	.word	0x0800b6d4
 8002bd8:	4458425a 	.word	0x4458425a

08002bdc <init_w5500>:
 8002bdc:	b5f7      	push	{r0, r1, r2, r4, r5, r6, r7, lr}
 8002bde:	4933      	ldr	r1, [pc, #204]	; (8002cac <init_w5500+0xd0>)
 8002be0:	4833      	ldr	r0, [pc, #204]	; (8002cb0 <init_w5500+0xd4>)
 8002be2:	f002 fce3 	bl	80055ac <reg_wizchip_cs_cbfunc>
 8002be6:	4933      	ldr	r1, [pc, #204]	; (8002cb4 <init_w5500+0xd8>)
 8002be8:	4833      	ldr	r0, [pc, #204]	; (8002cb8 <init_w5500+0xdc>)
 8002bea:	f002 fcf1 	bl	80055d0 <reg_wizchip_spi_cbfunc>
 8002bee:	4933      	ldr	r1, [pc, #204]	; (8002cbc <init_w5500+0xe0>)
 8002bf0:	4833      	ldr	r0, [pc, #204]	; (8002cc0 <init_w5500+0xe4>)
 8002bf2:	f002 fd05 	bl	8005600 <reg_wizchip_spiburst_cbfunc>
 8002bf6:	466b      	mov	r3, sp
 8002bf8:	4a32      	ldr	r2, [pc, #200]	; (8002cc4 <init_w5500+0xe8>)
 8002bfa:	4d33      	ldr	r5, [pc, #204]	; (8002cc8 <init_w5500+0xec>)
 8002bfc:	6810      	ldr	r0, [r2, #0]
 8002bfe:	6851      	ldr	r1, [r2, #4]
 8002c00:	f240 34e9 	movw	r4, #1001	; 0x3e9
 8002c04:	c303      	stmia	r3!, {r0, r1}
 8002c06:	4669      	mov	r1, sp
 8002c08:	4608      	mov	r0, r1
 8002c0a:	f002 fd4e 	bl	80056aa <wizchip_init>
 8002c0e:	2206      	movs	r2, #6
 8002c10:	f44f 6010 	mov.w	r0, #2304	; 0x900
 8002c14:	492d      	ldr	r1, [pc, #180]	; (8002ccc <init_w5500+0xf0>)
 8002c16:	f002 fbc7 	bl	80053a8 <WIZCHIP_WRITE_BUF>
 8002c1a:	2000      	movs	r0, #0
 8002c1c:	492c      	ldr	r1, [pc, #176]	; (8002cd0 <init_w5500+0xf4>)
 8002c1e:	f7ff fa21 	bl	8002064 <DHCP_init>
 8002c22:	492c      	ldr	r1, [pc, #176]	; (8002cd4 <init_w5500+0xf8>)
 8002c24:	4a2c      	ldr	r2, [pc, #176]	; (8002cd8 <init_w5500+0xfc>)
 8002c26:	4608      	mov	r0, r1
 8002c28:	f7fe ffa2 	bl	8001b70 <reg_dhcp_cbfunc>
 8002c2c:	462e      	mov	r6, r5
 8002c2e:	4f2b      	ldr	r7, [pc, #172]	; (8002cdc <init_w5500+0x100>)
 8002c30:	782b      	ldrb	r3, [r5, #0]
 8002c32:	b90b      	cbnz	r3, 8002c38 <init_w5500+0x5c>
 8002c34:	3c01      	subs	r4, #1
 8002c36:	d10e      	bne.n	8002c56 <init_w5500+0x7a>
 8002c38:	7833      	ldrb	r3, [r6, #0]
 8002c3a:	b9ab      	cbnz	r3, 8002c68 <init_w5500+0x8c>
 8002c3c:	f3bf 8f4f 	dsb	sy
 8002c40:	4927      	ldr	r1, [pc, #156]	; (8002ce0 <init_w5500+0x104>)
 8002c42:	4b28      	ldr	r3, [pc, #160]	; (8002ce4 <init_w5500+0x108>)
 8002c44:	68ca      	ldr	r2, [r1, #12]
 8002c46:	f402 62e0 	and.w	r2, r2, #1792	; 0x700
 8002c4a:	4313      	orrs	r3, r2
 8002c4c:	60cb      	str	r3, [r1, #12]
 8002c4e:	f3bf 8f4f 	dsb	sy
 8002c52:	bf00      	nop
 8002c54:	e7fd      	b.n	8002c52 <init_w5500+0x76>
 8002c56:	f7ff fd0f 	bl	8002678 <DHCP_run>
 8002c5a:	2064      	movs	r0, #100	; 0x64
 8002c5c:	f002 fdfe 	bl	800585c <HAL_Delay>
 8002c60:	4638      	mov	r0, r7
 8002c62:	f003 fd98 	bl	8006796 <HAL_IWDG_Refresh>
 8002c66:	e7e3      	b.n	8002c30 <init_w5500+0x54>
 8002c68:	4c18      	ldr	r4, [pc, #96]	; (8002ccc <init_w5500+0xf0>)
 8002c6a:	1da0      	adds	r0, r4, #6
 8002c6c:	f7ff fa5a 	bl	8002124 <getIPfromDHCP>
 8002c70:	f104 000e 	add.w	r0, r4, #14
 8002c74:	f7ff fa62 	bl	800213c <getGWfromDHCP>
 8002c78:	f104 000a 	add.w	r0, r4, #10
 8002c7c:	f7ff fa84 	bl	8002188 <getSNfromDHCP>
 8002c80:	f104 0016 	add.w	r0, r4, #22
 8002c84:	f7ff fa66 	bl	8002154 <getZABBIXfromDHCP>
 8002c88:	f104 001a 	add.w	r0, r4, #26
 8002c8c:	f7ff fa6e 	bl	800216c <getHostNamefromDHCP>
 8002c90:	7ea3      	ldrb	r3, [r4, #26]
 8002c92:	b943      	cbnz	r3, 8002ca6 <init_w5500+0xca>
 8002c94:	4914      	ldr	r1, [pc, #80]	; (8002ce8 <init_w5500+0x10c>)
 8002c96:	4815      	ldr	r0, [pc, #84]	; (8002cec <init_w5500+0x110>)
 8002c98:	f005 ff5e 	bl	8008b58 <strcpy>
 8002c9c:	480b      	ldr	r0, [pc, #44]	; (8002ccc <init_w5500+0xf0>)
 8002c9e:	f002 fd41 	bl	8005724 <wizchip_setnetinfo>
 8002ca2:	b003      	add	sp, #12
 8002ca4:	bdf0      	pop	{r4, r5, r6, r7, pc}
 8002ca6:	f104 011a 	add.w	r1, r4, #26
 8002caa:	e7f4      	b.n	8002c96 <init_w5500+0xba>
 8002cac:	08002815 	.word	0x08002815
 8002cb0:	08002805 	.word	0x08002805
 8002cb4:	08002865 	.word	0x08002865
 8002cb8:	08002839 	.word	0x08002839
 8002cbc:	08002851 	.word	0x08002851
 8002cc0:	08002825 	.word	0x08002825
 8002cc4:	0800b72b 	.word	0x0800b72b
 8002cc8:	2000054c 	.word	0x2000054c
 8002ccc:	2000001c 	.word	0x2000001c
 8002cd0:	20000e14 	.word	0x20000e14
 8002cd4:	080027f5 	.word	0x080027f5
 8002cd8:	08002801 	.word	0x08002801
 8002cdc:	20001308 	.word	0x20001308
 8002ce0:	e000ed00 	.word	0xe000ed00
 8002ce4:	05fa0004 	.word	0x05fa0004
 8002ce8:	0800b720 	.word	0x0800b720
 8002cec:	20000cd8 	.word	0x20000cd8

08002cf0 <SystemClock_Config>:
 8002cf0:	2100      	movs	r1, #0
 8002cf2:	b510      	push	{r4, lr}
 8002cf4:	b090      	sub	sp, #64	; 0x40
 8002cf6:	2214      	movs	r2, #20
 8002cf8:	a801      	add	r0, sp, #4
 8002cfa:	9109      	str	r1, [sp, #36]	; 0x24
 8002cfc:	910b      	str	r1, [sp, #44]	; 0x2c
 8002cfe:	f005 faa3 	bl	8008248 <memset>
 8002d02:	f44f 3380 	mov.w	r3, #65536	; 0x10000
 8002d06:	2209      	movs	r2, #9
 8002d08:	2402      	movs	r4, #2
 8002d0a:	e9cd 2306 	strd	r2, r3, [sp, #24]
 8002d0e:	f44f 3200 	mov.w	r2, #131072	; 0x20000
 8002d12:	e9cd 430d 	strd	r4, r3, [sp, #52]	; 0x34
 8002d16:	9208      	str	r2, [sp, #32]
 8002d18:	f44f 1360 	mov.w	r3, #3670016	; 0x380000
 8002d1c:	2201      	movs	r2, #1
 8002d1e:	a806      	add	r0, sp, #24
 8002d20:	920a      	str	r2, [sp, #40]	; 0x28
 8002d22:	920c      	str	r2, [sp, #48]	; 0x30
 8002d24:	930f      	str	r3, [sp, #60]	; 0x3c
 8002d26:	f003 fd3d 	bl	80067a4 <HAL_RCC_OscConfig>
 8002d2a:	b108      	cbz	r0, 8002d30 <SystemClock_Config+0x40>
 8002d2c:	b672      	cpsid	i
 8002d2e:	e7fe      	b.n	8002d2e <SystemClock_Config+0x3e>
 8002d30:	230f      	movs	r3, #15
 8002d32:	e9cd 3401 	strd	r3, r4, [sp, #4]
 8002d36:	f44f 6380 	mov.w	r3, #1024	; 0x400
 8002d3a:	9003      	str	r0, [sp, #12]
 8002d3c:	e9cd 3004 	strd	r3, r0, [sp, #16]
 8002d40:	4621      	mov	r1, r4
 8002d42:	a801      	add	r0, sp, #4
 8002d44:	f003 ff0a 	bl	8006b5c <HAL_RCC_ClockConfig>
 8002d48:	b108      	cbz	r0, 8002d4e <SystemClock_Config+0x5e>
 8002d4a:	b672      	cpsid	i
 8002d4c:	e7fe      	b.n	8002d4c <SystemClock_Config+0x5c>
 8002d4e:	f003 fec5 	bl	8006adc <HAL_RCC_EnableCSS>
 8002d52:	b010      	add	sp, #64	; 0x40
 8002d54:	bd10      	pop	{r4, pc}
	...

08002d58 <main>:
 8002d58:	e92d 4ff0 	stmdb	sp!, {r4, r5, r6, r7, r8, r9, sl, fp, lr}
 8002d5c:	4ca5      	ldr	r4, [pc, #660]	; (8002ff4 <main+0x29c>)
 8002d5e:	b0b9      	sub	sp, #228	; 0xe4
 8002d60:	f002 fd58 	bl	8005814 <HAL_Init>
 8002d64:	6a60      	ldr	r0, [r4, #36]	; 0x24
 8002d66:	6a63      	ldr	r3, [r4, #36]	; 0x24
 8002d68:	49a3      	ldr	r1, [pc, #652]	; (8002ff8 <main+0x2a0>)
 8002d6a:	6a65      	ldr	r5, [r4, #36]	; 0x24
 8002d6c:	4aa3      	ldr	r2, [pc, #652]	; (8002ffc <main+0x2a4>)
 8002d6e:	6a66      	ldr	r6, [r4, #36]	; 0x24
 8002d70:	f013 4f80 	tst.w	r3, #1073741824	; 0x40000000
 8002d74:	6a67      	ldr	r7, [r4, #36]	; 0x24
 8002d76:	bf14      	ite	ne
 8002d78:	4613      	movne	r3, r2
 8002d7a:	460b      	moveq	r3, r1
 8002d7c:	f015 5f00 	tst.w	r5, #536870912	; 0x20000000
 8002d80:	f8d4 c024 	ldr.w	ip, [r4, #36]	; 0x24
 8002d84:	bf14      	ite	ne
 8002d86:	4615      	movne	r5, r2
 8002d88:	460d      	moveq	r5, r1
 8002d8a:	f016 5f80 	tst.w	r6, #268435456	; 0x10000000
 8002d8e:	bf14      	ite	ne
 8002d90:	4616      	movne	r6, r2
 8002d92:	460e      	moveq	r6, r1
 8002d94:	f017 6f80 	tst.w	r7, #67108864	; 0x4000000
 8002d98:	bf14      	ite	ne
 8002d9a:	4617      	movne	r7, r2
 8002d9c:	460f      	moveq	r7, r1
 8002d9e:	f01c 6f00 	tst.w	ip, #134217728	; 0x8000000
 8002da2:	bf0c      	ite	eq
 8002da4:	468c      	moveq	ip, r1
 8002da6:	4694      	movne	ip, r2
 8002da8:	e9cd 7c02 	strd	r7, ip, [sp, #8]
 8002dac:	2710      	movs	r7, #16
 8002dae:	ea12 0220 	ands.w	r2, r2, r0, asr #32
 8002db2:	bf38      	it	cc
 8002db4:	460a      	movcc	r2, r1
 8002db6:	e9cd 5600 	strd	r5, r6, [sp]
 8002dba:	4991      	ldr	r1, [pc, #580]	; (8003000 <main+0x2a8>)
 8002dbc:	4891      	ldr	r0, [pc, #580]	; (8003004 <main+0x2ac>)
 8002dbe:	f005 feab 	bl	8008b18 <siprintf>
 8002dc2:	f7ff ff95 	bl	8002cf0 <SystemClock_Config>
 8002dc6:	463a      	mov	r2, r7
 8002dc8:	2100      	movs	r1, #0
 8002dca:	a830      	add	r0, sp, #192	; 0xc0
 8002dcc:	f005 fa3c 	bl	8008248 <memset>
 8002dd0:	69a3      	ldr	r3, [r4, #24]
 8002dd2:	2200      	movs	r2, #0
 8002dd4:	f043 0320 	orr.w	r3, r3, #32
 8002dd8:	61a3      	str	r3, [r4, #24]
 8002dda:	69a3      	ldr	r3, [r4, #24]
 8002ddc:	f241 0184 	movw	r1, #4228	; 0x1084
 8002de0:	f003 0320 	and.w	r3, r3, #32
 8002de4:	9320      	str	r3, [sp, #128]	; 0x80
 8002de6:	9b20      	ldr	r3, [sp, #128]	; 0x80
 8002de8:	69a3      	ldr	r3, [r4, #24]
 8002dea:	4887      	ldr	r0, [pc, #540]	; (8003008 <main+0x2b0>)
 8002dec:	f043 0304 	orr.w	r3, r3, #4
 8002df0:	61a3      	str	r3, [r4, #24]
 8002df2:	69a3      	ldr	r3, [r4, #24]
 8002df4:	2601      	movs	r6, #1
 8002df6:	f003 0304 	and.w	r3, r3, #4
 8002dfa:	9321      	str	r3, [sp, #132]	; 0x84
 8002dfc:	9b21      	ldr	r3, [sp, #132]	; 0x84
 8002dfe:	69a3      	ldr	r3, [r4, #24]
 8002e00:	2502      	movs	r5, #2
 8002e02:	f043 0308 	orr.w	r3, r3, #8
 8002e06:	61a3      	str	r3, [r4, #24]
 8002e08:	69a3      	ldr	r3, [r4, #24]
 8002e0a:	2400      	movs	r4, #0
 8002e0c:	f003 0308 	and.w	r3, r3, #8
 8002e10:	9322      	str	r3, [sp, #136]	; 0x88
 8002e12:	9b22      	ldr	r3, [sp, #136]	; 0x88
 8002e14:	f003 f828 	bl	8005e68 <HAL_GPIO_WritePin>
 8002e18:	2200      	movs	r2, #0
 8002e1a:	f241 011e 	movw	r1, #4126	; 0x101e
 8002e1e:	487b      	ldr	r0, [pc, #492]	; (800300c <main+0x2b4>)
 8002e20:	f003 f822 	bl	8005e68 <HAL_GPIO_WritePin>
 8002e24:	f241 0384 	movw	r3, #4228	; 0x1084
 8002e28:	4877      	ldr	r0, [pc, #476]	; (8003008 <main+0x2b0>)
 8002e2a:	a930      	add	r1, sp, #192	; 0xc0
 8002e2c:	e9cd 3630 	strd	r3, r6, [sp, #192]	; 0xc0
 8002e30:	e9cd 4532 	strd	r4, r5, [sp, #200]	; 0xc8
 8002e34:	f002 fece 	bl	8005bd4 <HAL_GPIO_Init>
 8002e38:	f241 031e 	movw	r3, #4126	; 0x101e
 8002e3c:	4873      	ldr	r0, [pc, #460]	; (800300c <main+0x2b4>)
 8002e3e:	a930      	add	r1, sp, #192	; 0xc0
 8002e40:	e9cd 3630 	strd	r3, r6, [sp, #192]	; 0xc0
 8002e44:	e9cd 4532 	strd	r4, r5, [sp, #200]	; 0xc8
 8002e48:	260c      	movs	r6, #12
 8002e4a:	f002 fec3 	bl	8005bd4 <HAL_GPIO_Init>
 8002e4e:	f44f 33e1 	mov.w	r3, #115200	; 0x1c200
 8002e52:	486f      	ldr	r0, [pc, #444]	; (8003010 <main+0x2b8>)
 8002e54:	4d6f      	ldr	r5, [pc, #444]	; (8003014 <main+0x2bc>)
 8002e56:	e9c0 4402 	strd	r4, r4, [r0, #8]
 8002e5a:	e9c0 5300 	strd	r5, r3, [r0]
 8002e5e:	e9c0 6405 	strd	r6, r4, [r0, #20]
 8002e62:	6104      	str	r4, [r0, #16]
 8002e64:	61c4      	str	r4, [r0, #28]
 8002e66:	f005 f8e3 	bl	8008030 <HAL_UART_Init>
 8002e6a:	4605      	mov	r5, r0
 8002e6c:	b108      	cbz	r0, 8002e72 <main+0x11a>
 8002e6e:	b672      	cpsid	i
 8002e70:	e7fe      	b.n	8002e70 <main+0x118>
 8002e72:	4601      	mov	r1, r0
 8002e74:	463a      	mov	r2, r7
 8002e76:	a825      	add	r0, sp, #148	; 0x94
 8002e78:	f005 f9e6 	bl	8008248 <memset>
 8002e7c:	221c      	movs	r2, #28
 8002e7e:	4629      	mov	r1, r5
 8002e80:	a829      	add	r0, sp, #164	; 0xa4
 8002e82:	e9cd 5523 	strd	r5, r5, [sp, #140]	; 0x8c
 8002e86:	f005 f9df 	bl	8008248 <memset>
 8002e8a:	2220      	movs	r2, #32
 8002e8c:	4629      	mov	r1, r5
 8002e8e:	a830      	add	r0, sp, #192	; 0xc0
 8002e90:	f005 f9da 	bl	8008248 <memset>
 8002e94:	4c60      	ldr	r4, [pc, #384]	; (8003018 <main+0x2c0>)
 8002e96:	4b61      	ldr	r3, [pc, #388]	; (800301c <main+0x2c4>)
 8002e98:	205b      	movs	r0, #91	; 0x5b
 8002e9a:	e9c4 3500 	strd	r3, r5, [r4]
 8002e9e:	f240 331f 	movw	r3, #799	; 0x31f
 8002ea2:	e9c4 3503 	strd	r3, r5, [r4, #12]
 8002ea6:	2380      	movs	r3, #128	; 0x80
 8002ea8:	e9c4 0305 	strd	r0, r3, [r4, #20]
 8002eac:	4620      	mov	r0, r4
 8002eae:	60a5      	str	r5, [r4, #8]
 8002eb0:	f004 fbea 	bl	8007688 <HAL_TIM_Base_Init>
 8002eb4:	b108      	cbz	r0, 8002eba <main+0x162>
 8002eb6:	b672      	cpsid	i
 8002eb8:	e7fe      	b.n	8002eb8 <main+0x160>
 8002eba:	f44f 5380 	mov.w	r3, #4096	; 0x1000
 8002ebe:	4620      	mov	r0, r4
 8002ec0:	a925      	add	r1, sp, #148	; 0x94
 8002ec2:	9325      	str	r3, [sp, #148]	; 0x94
 8002ec4:	f004 fd9e 	bl	8007a04 <HAL_TIM_ConfigClockSource>
 8002ec8:	b108      	cbz	r0, 8002ece <main+0x176>
 8002eca:	b672      	cpsid	i
 8002ecc:	e7fe      	b.n	8002ecc <main+0x174>
 8002ece:	4620      	mov	r0, r4
 8002ed0:	f004 fc06 	bl	80076e0 <HAL_TIM_OC_Init>
 8002ed4:	b108      	cbz	r0, 8002eda <main+0x182>
 8002ed6:	b672      	cpsid	i
 8002ed8:	e7fe      	b.n	8002ed8 <main+0x180>
 8002eda:	2108      	movs	r1, #8
 8002edc:	4620      	mov	r0, r4
 8002ede:	f004 fc57 	bl	8007790 <HAL_TIM_OnePulse_Init>
 8002ee2:	b108      	cbz	r0, 8002ee8 <main+0x190>
 8002ee4:	b672      	cpsid	i
 8002ee6:	e7fe      	b.n	8002ee6 <main+0x18e>
 8002ee8:	e9cd 7023 	strd	r7, r0, [sp, #140]	; 0x8c
 8002eec:	a923      	add	r1, sp, #140	; 0x8c
 8002eee:	4620      	mov	r0, r4
 8002ef0:	f004 ffe6 	bl	8007ec0 <HAL_TIMEx_MasterConfigSynchronization>
 8002ef4:	4602      	mov	r2, r0
 8002ef6:	b108      	cbz	r0, 8002efc <main+0x1a4>
 8002ef8:	b672      	cpsid	i
 8002efa:	e7fe      	b.n	8002efa <main+0x1a2>
 8002efc:	2330      	movs	r3, #48	; 0x30
 8002efe:	e9cd 002b 	strd	r0, r0, [sp, #172]	; 0xac
 8002f02:	e9cd 3029 	strd	r3, r0, [sp, #164]	; 0xa4
 8002f06:	e9cd 002d 	strd	r0, r0, [sp, #180]	; 0xb4
 8002f0a:	902f      	str	r0, [sp, #188]	; 0xbc
 8002f0c:	a929      	add	r1, sp, #164	; 0xa4
 8002f0e:	4620      	mov	r0, r4
 8002f10:	f004 fc98 	bl	8007844 <HAL_TIM_OC_ConfigChannel>
 8002f14:	b108      	cbz	r0, 8002f1a <main+0x1c2>
 8002f16:	b672      	cpsid	i
 8002f18:	e7fe      	b.n	8002f18 <main+0x1c0>
 8002f1a:	6822      	ldr	r2, [r4, #0]
 8002f1c:	4620      	mov	r0, r4
 8002f1e:	6993      	ldr	r3, [r2, #24]
 8002f20:	a929      	add	r1, sp, #164	; 0xa4
 8002f22:	f043 0308 	orr.w	r3, r3, #8
 8002f26:	6193      	str	r3, [r2, #24]
 8002f28:	2204      	movs	r2, #4
 8002f2a:	f004 fc8b 	bl	8007844 <HAL_TIM_OC_ConfigChannel>
 8002f2e:	b108      	cbz	r0, 8002f34 <main+0x1dc>
 8002f30:	b672      	cpsid	i
 8002f32:	e7fe      	b.n	8002f32 <main+0x1da>
 8002f34:	6822      	ldr	r2, [r4, #0]
 8002f36:	4620      	mov	r0, r4
 8002f38:	6993      	ldr	r3, [r2, #24]
 8002f3a:	a929      	add	r1, sp, #164	; 0xa4
 8002f3c:	f443 6300 	orr.w	r3, r3, #2048	; 0x800
 8002f40:	6193      	str	r3, [r2, #24]
 8002f42:	2208      	movs	r2, #8
 8002f44:	f004 fc7e 	bl	8007844 <HAL_TIM_OC_ConfigChannel>
 8002f48:	b108      	cbz	r0, 8002f4e <main+0x1f6>
 8002f4a:	b672      	cpsid	i
 8002f4c:	e7fe      	b.n	8002f4c <main+0x1f4>
 8002f4e:	4632      	mov	r2, r6
 8002f50:	4620      	mov	r0, r4
 8002f52:	a929      	add	r1, sp, #164	; 0xa4
 8002f54:	f004 fc76 	bl	8007844 <HAL_TIM_OC_ConfigChannel>
 8002f58:	b108      	cbz	r0, 8002f5e <main+0x206>
 8002f5a:	b672      	cpsid	i
 8002f5c:	e7fe      	b.n	8002f5c <main+0x204>
 8002f5e:	6822      	ldr	r2, [r4, #0]
 8002f60:	482d      	ldr	r0, [pc, #180]	; (8003018 <main+0x2c0>)
 8002f62:	69d3      	ldr	r3, [r2, #28]
 8002f64:	a930      	add	r1, sp, #192	; 0xc0
 8002f66:	f443 6300 	orr.w	r3, r3, #2048	; 0x800
 8002f6a:	61d3      	str	r3, [r2, #28]
 8002f6c:	2300      	movs	r3, #0
 8002f6e:	f44f 5200 	mov.w	r2, #8192	; 0x2000
 8002f72:	e9cd 3330 	strd	r3, r3, [sp, #192]	; 0xc0
 8002f76:	e9cd 3332 	strd	r3, r3, [sp, #200]	; 0xc8
 8002f7a:	9334      	str	r3, [sp, #208]	; 0xd0
 8002f7c:	9235      	str	r2, [sp, #212]	; 0xd4
 8002f7e:	9337      	str	r3, [sp, #220]	; 0xdc
 8002f80:	f004 ffcc 	bl	8007f1c <HAL_TIMEx_ConfigBreakDeadTime>
 8002f84:	4605      	mov	r5, r0
 8002f86:	b108      	cbz	r0, 8002f8c <main+0x234>
 8002f88:	b672      	cpsid	i
 8002f8a:	e7fe      	b.n	8002f8a <main+0x232>
 8002f8c:	2606      	movs	r6, #6
 8002f8e:	4822      	ldr	r0, [pc, #136]	; (8003018 <main+0x2c0>)
 8002f90:	f001 fc5a 	bl	8004848 <HAL_TIM_MspPostInit>
 8002f94:	2210      	movs	r2, #16
 8002f96:	4629      	mov	r1, r5
 8002f98:	a830      	add	r0, sp, #192	; 0xc0
 8002f9a:	f005 f955 	bl	8008248 <memset>
 8002f9e:	4c20      	ldr	r4, [pc, #128]	; (8003020 <main+0x2c8>)
 8002fa0:	4b20      	ldr	r3, [pc, #128]	; (8003024 <main+0x2cc>)
 8002fa2:	f04f 0880 	mov.w	r8, #128	; 0x80
 8002fa6:	e9c4 3600 	strd	r3, r6, [r4]
 8002faa:	f64f 73ff 	movw	r3, #65535	; 0xffff
 8002fae:	4620      	mov	r0, r4
 8002fb0:	e9cd 5529 	strd	r5, r5, [sp, #164]	; 0xa4
 8002fb4:	e9c4 3503 	strd	r3, r5, [r4, #12]
 8002fb8:	60a5      	str	r5, [r4, #8]
 8002fba:	f8c4 8018 	str.w	r8, [r4, #24]
 8002fbe:	f004 fb63 	bl	8007688 <HAL_TIM_Base_Init>
 8002fc2:	b108      	cbz	r0, 8002fc8 <main+0x270>
 8002fc4:	b672      	cpsid	i
 8002fc6:	e7fe      	b.n	8002fc6 <main+0x26e>
 8002fc8:	f44f 5780 	mov.w	r7, #4096	; 0x1000
 8002fcc:	4620      	mov	r0, r4
 8002fce:	a930      	add	r1, sp, #192	; 0xc0
 8002fd0:	9730      	str	r7, [sp, #192]	; 0xc0
 8002fd2:	f004 fd17 	bl	8007a04 <HAL_TIM_ConfigClockSource>
 8002fd6:	b108      	cbz	r0, 8002fdc <main+0x284>
 8002fd8:	b672      	cpsid	i
 8002fda:	e7fe      	b.n	8002fda <main+0x282>
 8002fdc:	2320      	movs	r3, #32
 8002fde:	a929      	add	r1, sp, #164	; 0xa4
 8002fe0:	e9cd 3029 	strd	r3, r0, [sp, #164]	; 0xa4
 8002fe4:	4620      	mov	r0, r4
 8002fe6:	f004 ff6b 	bl	8007ec0 <HAL_TIMEx_MasterConfigSynchronization>
 8002fea:	4605      	mov	r5, r0
 8002fec:	b1e0      	cbz	r0, 8003028 <main+0x2d0>
 8002fee:	b672      	cpsid	i
 8002ff0:	e7fe      	b.n	8002ff0 <main+0x298>
 8002ff2:	bf00      	nop
 8002ff4:	40021000 	.word	0x40021000
 8002ff8:	0800b738 	.word	0x0800b738
 8002ffc:	0800b734 	.word	0x0800b734
 8003000:	0800b73b 	.word	0x0800b73b
 8003004:	20000484 	.word	0x20000484
 8003008:	40010800 	.word	0x40010800
 800300c:	40010c00 	.word	0x40010c00
 8003010:	20001364 	.word	0x20001364
 8003014:	40013800 	.word	0x40013800
 8003018:	200013ac 	.word	0x200013ac
 800301c:	40012c00 	.word	0x40012c00
 8003020:	2000126c 	.word	0x2000126c
 8003024:	40000800 	.word	0x40000800
 8003028:	4601      	mov	r1, r0
 800302a:	2210      	movs	r2, #16
 800302c:	a825      	add	r0, sp, #148	; 0x94
 800302e:	f005 f90b 	bl	8008248 <memset>
 8003032:	2214      	movs	r2, #20
 8003034:	4629      	mov	r1, r5
 8003036:	a829      	add	r0, sp, #164	; 0xa4
 8003038:	f005 f906 	bl	8008248 <memset>
 800303c:	221c      	movs	r2, #28
 800303e:	4629      	mov	r1, r5
 8003040:	a830      	add	r0, sp, #192	; 0xc0
 8003042:	4c69      	ldr	r4, [pc, #420]	; (80031e8 <main+0x490>)
 8003044:	e9cd 5523 	strd	r5, r5, [sp, #140]	; 0x8c
 8003048:	f005 f8fe 	bl	8008248 <memset>
 800304c:	4b67      	ldr	r3, [pc, #412]	; (80031ec <main+0x494>)
 800304e:	4620      	mov	r0, r4
 8003050:	e9c4 3500 	strd	r3, r5, [r4]
 8003054:	f649 4340 	movw	r3, #40000	; 0x9c40
 8003058:	60a5      	str	r5, [r4, #8]
 800305a:	e9c4 3503 	strd	r3, r5, [r4, #12]
 800305e:	f8c4 8018 	str.w	r8, [r4, #24]
 8003062:	f004 fb11 	bl	8007688 <HAL_TIM_Base_Init>
 8003066:	b108      	cbz	r0, 800306c <main+0x314>
 8003068:	b672      	cpsid	i
 800306a:	e7fe      	b.n	800306a <main+0x312>
 800306c:	4620      	mov	r0, r4
 800306e:	a925      	add	r1, sp, #148	; 0x94
 8003070:	9725      	str	r7, [sp, #148]	; 0x94
 8003072:	f004 fcc7 	bl	8007a04 <HAL_TIM_ConfigClockSource>
 8003076:	b108      	cbz	r0, 800307c <main+0x324>
 8003078:	b672      	cpsid	i
 800307a:	e7fe      	b.n	800307a <main+0x322>
 800307c:	4620      	mov	r0, r4
 800307e:	f004 fb2f 	bl	80076e0 <HAL_TIM_OC_Init>
 8003082:	b108      	cbz	r0, 8003088 <main+0x330>
 8003084:	b672      	cpsid	i
 8003086:	e7fe      	b.n	8003086 <main+0x32e>
 8003088:	2108      	movs	r1, #8
 800308a:	4620      	mov	r0, r4
 800308c:	f004 fb80 	bl	8007790 <HAL_TIM_OnePulse_Init>
 8003090:	b108      	cbz	r0, 8003096 <main+0x33e>
 8003092:	b672      	cpsid	i
 8003094:	e7fe      	b.n	8003094 <main+0x33c>
 8003096:	e9cd 6029 	strd	r6, r0, [sp, #164]	; 0xa4
 800309a:	a929      	add	r1, sp, #164	; 0xa4
 800309c:	4620      	mov	r0, r4
 800309e:	f004 fd97 	bl	8007bd0 <HAL_TIM_SlaveConfigSynchro>
 80030a2:	b108      	cbz	r0, 80030a8 <main+0x350>
 80030a4:	b672      	cpsid	i
 80030a6:	e7fe      	b.n	80030a6 <main+0x34e>
 80030a8:	2330      	movs	r3, #48	; 0x30
 80030aa:	a923      	add	r1, sp, #140	; 0x8c
 80030ac:	e9cd 3023 	strd	r3, r0, [sp, #140]	; 0x8c
 80030b0:	4620      	mov	r0, r4
 80030b2:	f004 ff05 	bl	8007ec0 <HAL_TIMEx_MasterConfigSynchronization>
 80030b6:	b108      	cbz	r0, 80030bc <main+0x364>
 80030b8:	b672      	cpsid	i
 80030ba:	e7fe      	b.n	80030ba <main+0x362>
 80030bc:	2200      	movs	r2, #0
 80030be:	2410      	movs	r4, #16
 80030c0:	4849      	ldr	r0, [pc, #292]	; (80031e8 <main+0x490>)
 80030c2:	a930      	add	r1, sp, #192	; 0xc0
 80030c4:	e9cd 4230 	strd	r4, r2, [sp, #192]	; 0xc0
 80030c8:	9232      	str	r2, [sp, #200]	; 0xc8
 80030ca:	9234      	str	r2, [sp, #208]	; 0xd0
 80030cc:	f004 fbba 	bl	8007844 <HAL_TIM_OC_ConfigChannel>
 80030d0:	4605      	mov	r5, r0
 80030d2:	b108      	cbz	r0, 80030d8 <main+0x380>
 80030d4:	b672      	cpsid	i
 80030d6:	e7fe      	b.n	80030d6 <main+0x37e>
 80030d8:	4622      	mov	r2, r4
 80030da:	4601      	mov	r1, r0
 80030dc:	a825      	add	r0, sp, #148	; 0x94
 80030de:	f005 f8b3 	bl	8008248 <memset>
 80030e2:	2214      	movs	r2, #20
 80030e4:	4629      	mov	r1, r5
 80030e6:	a830      	add	r0, sp, #192	; 0xc0
 80030e8:	f005 f8ae 	bl	8008248 <memset>
 80030ec:	4622      	mov	r2, r4
 80030ee:	4629      	mov	r1, r5
 80030f0:	a829      	add	r0, sp, #164	; 0xa4
 80030f2:	e9cd 5523 	strd	r5, r5, [sp, #140]	; 0x8c
 80030f6:	f005 f8a7 	bl	8008248 <memset>
 80030fa:	f04f 4380 	mov.w	r3, #1073741824	; 0x40000000
 80030fe:	4c3c      	ldr	r4, [pc, #240]	; (80031f0 <main+0x498>)
 8003100:	e9c4 3500 	strd	r3, r5, [r4]
 8003104:	f64f 73ff 	movw	r3, #65535	; 0xffff
 8003108:	e9c4 3503 	strd	r3, r5, [r4, #12]
 800310c:	2380      	movs	r3, #128	; 0x80
 800310e:	4620      	mov	r0, r4
 8003110:	60a5      	str	r5, [r4, #8]
 8003112:	61a3      	str	r3, [r4, #24]
 8003114:	f004 fab8 	bl	8007688 <HAL_TIM_Base_Init>
 8003118:	b108      	cbz	r0, 800311e <main+0x3c6>
 800311a:	b672      	cpsid	i
 800311c:	e7fe      	b.n	800311c <main+0x3c4>
 800311e:	f44f 5380 	mov.w	r3, #4096	; 0x1000
 8003122:	4620      	mov	r0, r4
 8003124:	a925      	add	r1, sp, #148	; 0x94
 8003126:	9325      	str	r3, [sp, #148]	; 0x94
 8003128:	f004 fc6c 	bl	8007a04 <HAL_TIM_ConfigClockSource>
 800312c:	b108      	cbz	r0, 8003132 <main+0x3da>
 800312e:	b672      	cpsid	i
 8003130:	e7fe      	b.n	8003130 <main+0x3d8>
 8003132:	4620      	mov	r0, r4
 8003134:	f004 fb00 	bl	8007738 <HAL_TIM_IC_Init>
 8003138:	b108      	cbz	r0, 800313e <main+0x3e6>
 800313a:	b672      	cpsid	i
 800313c:	e7fe      	b.n	800313c <main+0x3e4>
 800313e:	2504      	movs	r5, #4
 8003140:	2320      	movs	r3, #32
 8003142:	4620      	mov	r0, r4
 8003144:	a930      	add	r1, sp, #192	; 0xc0
 8003146:	e9cd 5330 	strd	r5, r3, [sp, #192]	; 0xc0
 800314a:	f004 fd41 	bl	8007bd0 <HAL_TIM_SlaveConfigSynchro>
 800314e:	b108      	cbz	r0, 8003154 <main+0x3fc>
 8003150:	b672      	cpsid	i
 8003152:	e7fe      	b.n	8003152 <main+0x3fa>
 8003154:	e9cd 0023 	strd	r0, r0, [sp, #140]	; 0x8c
 8003158:	a923      	add	r1, sp, #140	; 0x8c
 800315a:	4620      	mov	r0, r4
 800315c:	f004 feb0 	bl	8007ec0 <HAL_TIMEx_MasterConfigSynchronization>
 8003160:	4602      	mov	r2, r0
 8003162:	b108      	cbz	r0, 8003168 <main+0x410>
 8003164:	b672      	cpsid	i
 8003166:	e7fe      	b.n	8003166 <main+0x40e>
 8003168:	2301      	movs	r3, #1
 800316a:	9029      	str	r0, [sp, #164]	; 0xa4
 800316c:	e9cd 302a 	strd	r3, r0, [sp, #168]	; 0xa8
 8003170:	902c      	str	r0, [sp, #176]	; 0xb0
 8003172:	a929      	add	r1, sp, #164	; 0xa4
 8003174:	4620      	mov	r0, r4
 8003176:	f004 fbb7 	bl	80078e8 <HAL_TIM_IC_ConfigChannel>
 800317a:	b108      	cbz	r0, 8003180 <main+0x428>
 800317c:	b672      	cpsid	i
 800317e:	e7fe      	b.n	800317e <main+0x426>
 8003180:	2302      	movs	r3, #2
 8003182:	4620      	mov	r0, r4
 8003184:	462a      	mov	r2, r5
 8003186:	a929      	add	r1, sp, #164	; 0xa4
 8003188:	e9cd 3329 	strd	r3, r3, [sp, #164]	; 0xa4
 800318c:	f004 fbac 	bl	80078e8 <HAL_TIM_IC_ConfigChannel>
 8003190:	4604      	mov	r4, r0
 8003192:	b108      	cbz	r0, 8003198 <main+0x440>
 8003194:	b672      	cpsid	i
 8003196:	e7fe      	b.n	8003196 <main+0x43e>
 8003198:	f7ff fb70 	bl	800287c <MX_I2C1_Init>
 800319c:	f44f 7382 	mov.w	r3, #260	; 0x104
 80031a0:	4814      	ldr	r0, [pc, #80]	; (80031f4 <main+0x49c>)
 80031a2:	4915      	ldr	r1, [pc, #84]	; (80031f8 <main+0x4a0>)
 80031a4:	e9c0 4402 	strd	r4, r4, [r0, #8]
 80031a8:	e9c0 1300 	strd	r1, r3, [r0]
 80031ac:	f44f 7300 	mov.w	r3, #512	; 0x200
 80031b0:	e9c0 3406 	strd	r3, r4, [r0, #24]
 80031b4:	230a      	movs	r3, #10
 80031b6:	e9c0 4404 	strd	r4, r4, [r0, #16]
 80031ba:	e9c0 4408 	strd	r4, r4, [r0, #32]
 80031be:	6284      	str	r4, [r0, #40]	; 0x28
 80031c0:	62c3      	str	r3, [r0, #44]	; 0x2c
 80031c2:	f003 fe24 	bl	8006e0e <HAL_SPI_Init>
 80031c6:	b108      	cbz	r0, 80031cc <main+0x474>
 80031c8:	b672      	cpsid	i
 80031ca:	e7fe      	b.n	80031ca <main+0x472>
 80031cc:	2306      	movs	r3, #6
 80031ce:	480b      	ldr	r0, [pc, #44]	; (80031fc <main+0x4a4>)
 80031d0:	4a0b      	ldr	r2, [pc, #44]	; (8003200 <main+0x4a8>)
 80031d2:	e9c0 2300 	strd	r2, r3, [r0]
 80031d6:	f640 73ff 	movw	r3, #4095	; 0xfff
 80031da:	6083      	str	r3, [r0, #8]
 80031dc:	f003 fab4 	bl	8006748 <HAL_IWDG_Init>
 80031e0:	b180      	cbz	r0, 8003204 <main+0x4ac>
 80031e2:	b672      	cpsid	i
 80031e4:	e7fe      	b.n	80031e4 <main+0x48c>
 80031e6:	bf00      	nop
 80031e8:	2000131c 	.word	0x2000131c
 80031ec:	40000400 	.word	0x40000400
 80031f0:	200013f4 	.word	0x200013f4
 80031f4:	20001214 	.word	0x20001214
 80031f8:	40003800 	.word	0x40003800
 80031fc:	20001308 	.word	0x20001308
 8003200:	40003000 	.word	0x40003000
 8003204:	2501      	movs	r5, #1
 8003206:	2201      	movs	r2, #1
 8003208:	2180      	movs	r1, #128	; 0x80
 800320a:	48aa      	ldr	r0, [pc, #680]	; (80034b4 <main+0x75c>)
 800320c:	4eaa      	ldr	r6, [pc, #680]	; (80034b8 <main+0x760>)
 800320e:	f002 fe2b 	bl	8005e68 <HAL_GPIO_WritePin>
 8003212:	f04f 33ff 	mov.w	r3, #4294967295	; 0xffffffff
 8003216:	22c8      	movs	r2, #200	; 0xc8
 8003218:	49a8      	ldr	r1, [pc, #672]	; (80034bc <main+0x764>)
 800321a:	48a9      	ldr	r0, [pc, #676]	; (80034c0 <main+0x768>)
 800321c:	7035      	strb	r5, [r6, #0]
 800321e:	f004 ff35 	bl	800808c <HAL_UART_Transmit>
 8003222:	f04f 33ff 	mov.w	r3, #4294967295	; 0xffffffff
 8003226:	2212      	movs	r2, #18
 8003228:	49a6      	ldr	r1, [pc, #664]	; (80034c4 <main+0x76c>)
 800322a:	48a5      	ldr	r0, [pc, #660]	; (80034c0 <main+0x768>)
 800322c:	f004 ff2e 	bl	800808c <HAL_UART_Transmit>
 8003230:	4ca5      	ldr	r4, [pc, #660]	; (80034c8 <main+0x770>)
 8003232:	2200      	movs	r2, #0
 8003234:	f44f 5180 	mov.w	r1, #4096	; 0x1000
 8003238:	489e      	ldr	r0, [pc, #632]	; (80034b4 <main+0x75c>)
 800323a:	f002 fe15 	bl	8005e68 <HAL_GPIO_WritePin>
 800323e:	462a      	mov	r2, r5
 8003240:	f44f 5180 	mov.w	r1, #4096	; 0x1000
 8003244:	489b      	ldr	r0, [pc, #620]	; (80034b4 <main+0x75c>)
 8003246:	f002 fe0f 	bl	8005e68 <HAL_GPIO_WritePin>
 800324a:	4620      	mov	r0, r4
 800324c:	462a      	mov	r2, r5
 800324e:	f44f 5180 	mov.w	r1, #4096	; 0x1000
 8003252:	f002 fe09 	bl	8005e68 <HAL_GPIO_WritePin>
 8003256:	f04f 33ff 	mov.w	r3, #4294967295	; 0xffffffff
 800325a:	220c      	movs	r2, #12
 800325c:	499b      	ldr	r1, [pc, #620]	; (80034cc <main+0x774>)
 800325e:	4898      	ldr	r0, [pc, #608]	; (80034c0 <main+0x768>)
 8003260:	f004 ff14 	bl	800808c <HAL_UART_Transmit>
 8003264:	f44f 60fa 	mov.w	r0, #2000	; 0x7d0
 8003268:	f002 faf8 	bl	800585c <HAL_Delay>
 800326c:	f7ff fcb6 	bl	8002bdc <init_w5500>
 8003270:	f04f 33ff 	mov.w	r3, #4294967295	; 0xffffffff
 8003274:	2206      	movs	r2, #6
 8003276:	4996      	ldr	r1, [pc, #600]	; (80034d0 <main+0x778>)
 8003278:	4891      	ldr	r0, [pc, #580]	; (80034c0 <main+0x768>)
 800327a:	f004 ff07 	bl	800808c <HAL_UART_Transmit>
 800327e:	2000      	movs	r0, #0
 8003280:	f7ff fb1a 	bl	80028b8 <rwFlash>
 8003284:	68e3      	ldr	r3, [r4, #12]
 8003286:	f043 031e 	orr.w	r3, r3, #30
 800328a:	60e3      	str	r3, [r4, #12]
 800328c:	4c91      	ldr	r4, [pc, #580]	; (80034d4 <main+0x77c>)
 800328e:	961d      	str	r6, [sp, #116]	; 0x74
 8003290:	8823      	ldrh	r3, [r4, #0]
 8003292:	b913      	cbnz	r3, 800329a <main+0x542>
 8003294:	f649 4340 	movw	r3, #40000	; 0x9c40
 8003298:	8023      	strh	r3, [r4, #0]
 800329a:	4b8f      	ldr	r3, [pc, #572]	; (80034d8 <main+0x780>)
 800329c:	881a      	ldrh	r2, [r3, #0]
 800329e:	b912      	cbnz	r2, 80032a6 <main+0x54e>
 80032a0:	f649 4240 	movw	r2, #40000	; 0x9c40
 80032a4:	801a      	strh	r2, [r3, #0]
 80032a6:	4b8d      	ldr	r3, [pc, #564]	; (80034dc <main+0x784>)
 80032a8:	881a      	ldrh	r2, [r3, #0]
 80032aa:	b912      	cbnz	r2, 80032b2 <main+0x55a>
 80032ac:	f649 4240 	movw	r2, #40000	; 0x9c40
 80032b0:	801a      	strh	r2, [r3, #0]
 80032b2:	4a8b      	ldr	r2, [pc, #556]	; (80034e0 <main+0x788>)
 80032b4:	8811      	ldrh	r1, [r2, #0]
 80032b6:	b911      	cbnz	r1, 80032be <main+0x566>
 80032b8:	f649 4140 	movw	r1, #40000	; 0x9c40
 80032bc:	8011      	strh	r1, [r2, #0]
 80032be:	2500      	movs	r5, #0
 80032c0:	881a      	ldrh	r2, [r3, #0]
 80032c2:	4b88      	ldr	r3, [pc, #544]	; (80034e4 <main+0x78c>)
 80032c4:	2600      	movs	r6, #0
 80032c6:	2700      	movs	r7, #0
 80032c8:	4987      	ldr	r1, [pc, #540]	; (80034e8 <main+0x790>)
 80032ca:	62da      	str	r2, [r3, #44]	; 0x2c
 80032cc:	487c      	ldr	r0, [pc, #496]	; (80034c0 <main+0x768>)
 80032ce:	f04f 33ff 	mov.w	r3, #4294967295	; 0xffffffff
 80032d2:	220d      	movs	r2, #13
 80032d4:	f004 feda 	bl	800808c <HAL_UART_Transmit>
 80032d8:	f7fe fb4c 	bl	8001974 <BME280_Init>
 80032dc:	f04f 33ff 	mov.w	r3, #4294967295	; 0xffffffff
 80032e0:	2206      	movs	r2, #6
 80032e2:	497b      	ldr	r1, [pc, #492]	; (80034d0 <main+0x778>)
 80032e4:	4876      	ldr	r0, [pc, #472]	; (80034c0 <main+0x768>)
 80032e6:	f004 fed1 	bl	800808c <HAL_UART_Transmit>
 80032ea:	2201      	movs	r2, #1
 80032ec:	4b7f      	ldr	r3, [pc, #508]	; (80034ec <main+0x794>)
 80032ee:	f8df 9270 	ldr.w	r9, [pc, #624]	; 8003560 <main+0x808>
 80032f2:	801d      	strh	r5, [r3, #0]
 80032f4:	4b7e      	ldr	r3, [pc, #504]	; (80034f0 <main+0x798>)
 80032f6:	f8df 826c 	ldr.w	r8, [pc, #620]	; 8003564 <main+0x80c>
 80032fa:	701d      	strb	r5, [r3, #0]
 80032fc:	4b7d      	ldr	r3, [pc, #500]	; (80034f4 <main+0x79c>)
 80032fe:	4629      	mov	r1, r5
 8003300:	e9c3 6700 	strd	r6, r7, [r3]
 8003304:	4b7c      	ldr	r3, [pc, #496]	; (80034f8 <main+0x7a0>)
 8003306:	487d      	ldr	r0, [pc, #500]	; (80034fc <main+0x7a4>)
 8003308:	701a      	strb	r2, [r3, #0]
 800330a:	4b7d      	ldr	r3, [pc, #500]	; (8003500 <main+0x7a8>)
 800330c:	e9c9 6700 	strd	r6, r7, [r9]
 8003310:	801d      	strh	r5, [r3, #0]
 8003312:	e9c8 6700 	strd	r6, r7, [r8]
 8003316:	f004 fd89 	bl	8007e2c <HAL_TIM_IC_Stop_IT>
 800331a:	2104      	movs	r1, #4
 800331c:	4877      	ldr	r0, [pc, #476]	; (80034fc <main+0x7a4>)
 800331e:	f004 fd85 	bl	8007e2c <HAL_TIM_IC_Stop_IT>
 8003322:	f44f 7248 	mov.w	r2, #800	; 0x320
 8003326:	4b77      	ldr	r3, [pc, #476]	; (8003504 <main+0x7ac>)
 8003328:	f04f 0c00 	mov.w	ip, #0
 800332c:	62da      	str	r2, [r3, #44]	; 0x2c
 800332e:	4b76      	ldr	r3, [pc, #472]	; (8003508 <main+0x7b0>)
 8003330:	4876      	ldr	r0, [pc, #472]	; (800350c <main+0x7b4>)
 8003332:	801d      	strh	r5, [r3, #0]
 8003334:	2564      	movs	r5, #100	; 0x64
 8003336:	4976      	ldr	r1, [pc, #472]	; (8003510 <main+0x7b8>)
 8003338:	4a76      	ldr	r2, [pc, #472]	; (8003514 <main+0x7bc>)
 800333a:	4b77      	ldr	r3, [pc, #476]	; (8003518 <main+0x7c0>)
 800333c:	3d01      	subs	r5, #1
 800333e:	f840 cb04 	str.w	ip, [r0], #4
 8003342:	f841 cb04 	str.w	ip, [r1], #4
 8003346:	f842 cb04 	str.w	ip, [r2], #4
 800334a:	f843 cb04 	str.w	ip, [r3], #4
 800334e:	d1f5      	bne.n	800333c <main+0x5e4>
 8003350:	4b72      	ldr	r3, [pc, #456]	; (800351c <main+0x7c4>)
 8003352:	2213      	movs	r2, #19
 8003354:	701d      	strb	r5, [r3, #0]
 8003356:	4b72      	ldr	r3, [pc, #456]	; (8003520 <main+0x7c8>)
 8003358:	4972      	ldr	r1, [pc, #456]	; (8003524 <main+0x7cc>)
 800335a:	701d      	strb	r5, [r3, #0]
 800335c:	4b72      	ldr	r3, [pc, #456]	; (8003528 <main+0x7d0>)
 800335e:	4858      	ldr	r0, [pc, #352]	; (80034c0 <main+0x768>)
 8003360:	701d      	strb	r5, [r3, #0]
 8003362:	4b72      	ldr	r3, [pc, #456]	; (800352c <main+0x7d4>)
 8003364:	701d      	strb	r5, [r3, #0]
 8003366:	f04f 33ff 	mov.w	r3, #4294967295	; 0xffffffff
 800336a:	f004 fe8f 	bl	800808c <HAL_UART_Transmit>
 800336e:	4870      	ldr	r0, [pc, #448]	; (8003530 <main+0x7d8>)
 8003370:	f004 f850 	bl	8007414 <HAL_TIM_Base_Start_IT>
 8003374:	486f      	ldr	r0, [pc, #444]	; (8003534 <main+0x7dc>)
 8003376:	f004 f84d 	bl	8007414 <HAL_TIM_Base_Start_IT>
 800337a:	4b6f      	ldr	r3, [pc, #444]	; (8003538 <main+0x7e0>)
 800337c:	462a      	mov	r2, r5
 800337e:	e9c3 6700 	strd	r6, r7, [r3]
 8003382:	4b6e      	ldr	r3, [pc, #440]	; (800353c <main+0x7e4>)
 8003384:	2180      	movs	r1, #128	; 0x80
 8003386:	e9c3 6700 	strd	r6, r7, [r3]
 800338a:	4b6d      	ldr	r3, [pc, #436]	; (8003540 <main+0x7e8>)
 800338c:	4849      	ldr	r0, [pc, #292]	; (80034b4 <main+0x75c>)
 800338e:	e9c3 6700 	strd	r6, r7, [r3]
 8003392:	4b6c      	ldr	r3, [pc, #432]	; (8003544 <main+0x7ec>)
 8003394:	e9c9 6700 	strd	r6, r7, [r9]
 8003398:	e9c8 6700 	strd	r6, r7, [r8]
 800339c:	e9c3 6700 	strd	r6, r7, [r3]
 80033a0:	f002 fd62 	bl	8005e68 <HAL_GPIO_WritePin>
 80033a4:	9b1d      	ldr	r3, [sp, #116]	; 0x74
 80033a6:	781b      	ldrb	r3, [r3, #0]
 80033a8:	2b00      	cmp	r3, #0
 80033aa:	f000 8170 	beq.w	800368e <main+0x936>
 80033ae:	4a66      	ldr	r2, [pc, #408]	; (8003548 <main+0x7f0>)
 80033b0:	4866      	ldr	r0, [pc, #408]	; (800354c <main+0x7f4>)
 80033b2:	6813      	ldr	r3, [r2, #0]
 80033b4:	f8df a134 	ldr.w	sl, [pc, #308]	; 80034ec <main+0x794>
 80033b8:	f043 0301 	orr.w	r3, r3, #1
 80033bc:	6013      	str	r3, [r2, #0]
 80033be:	f003 f9ea 	bl	8006796 <HAL_IWDG_Refresh>
 80033c2:	2300      	movs	r3, #0
 80033c4:	9a1d      	ldr	r2, [sp, #116]	; 0x74
 80033c6:	7013      	strb	r3, [r2, #0]
 80033c8:	f8ba 3000 	ldrh.w	r3, [sl]
 80033cc:	2b00      	cmp	r3, #0
 80033ce:	f000 8319 	beq.w	8003a04 <main+0xcac>
 80033d2:	4d52      	ldr	r5, [pc, #328]	; (800351c <main+0x7c4>)
 80033d4:	4e5e      	ldr	r6, [pc, #376]	; (8003550 <main+0x7f8>)
 80033d6:	782a      	ldrb	r2, [r5, #0]
 80033d8:	8833      	ldrh	r3, [r6, #0]
 80033da:	b952      	cbnz	r2, 80033f2 <main+0x69a>
 80033dc:	4a50      	ldr	r2, [pc, #320]	; (8003520 <main+0x7c8>)
 80033de:	7812      	ldrb	r2, [r2, #0]
 80033e0:	b93a      	cbnz	r2, 80033f2 <main+0x69a>
 80033e2:	4a51      	ldr	r2, [pc, #324]	; (8003528 <main+0x7d0>)
 80033e4:	7812      	ldrb	r2, [r2, #0]
 80033e6:	b922      	cbnz	r2, 80033f2 <main+0x69a>
 80033e8:	4a50      	ldr	r2, [pc, #320]	; (800352c <main+0x7d4>)
 80033ea:	7812      	ldrb	r2, [r2, #0]
 80033ec:	2a00      	cmp	r2, #0
 80033ee:	f000 8215 	beq.w	800381c <main+0xac4>
 80033f2:	f5b3 6fc8 	cmp.w	r3, #1600	; 0x640
 80033f6:	f080 8214 	bcs.w	8003822 <main+0xaca>
 80033fa:	22c8      	movs	r2, #200	; 0xc8
 80033fc:	2100      	movs	r1, #0
 80033fe:	482f      	ldr	r0, [pc, #188]	; (80034bc <main+0x764>)
 8003400:	f004 ff22 	bl	8008248 <memset>
 8003404:	4b42      	ldr	r3, [pc, #264]	; (8003510 <main+0x7b8>)
 8003406:	f8df a0e8 	ldr.w	sl, [pc, #232]	; 80034f0 <main+0x798>
 800340a:	f8d3 8000 	ldr.w	r8, [r3]
 800340e:	4b42      	ldr	r3, [pc, #264]	; (8003518 <main+0x7c0>)
 8003410:	f89a 2000 	ldrb.w	r2, [sl]
 8003414:	681f      	ldr	r7, [r3, #0]
 8003416:	4b3d      	ldr	r3, [pc, #244]	; (800350c <main+0x7b4>)
 8003418:	4640      	mov	r0, r8
 800341a:	f8d3 b000 	ldr.w	fp, [r3]
 800341e:	4b3d      	ldr	r3, [pc, #244]	; (8003514 <main+0x7bc>)
 8003420:	f8d3 9000 	ldr.w	r9, [r3]
 8003424:	2a00      	cmp	r2, #0
 8003426:	f000 818b 	beq.w	8003740 <main+0x9e8>
 800342a:	f7fc fffd 	bl	8000428 <__aeabi_f2d>
 800342e:	4a49      	ldr	r2, [pc, #292]	; (8003554 <main+0x7fc>)
 8003430:	e9cd 011e 	strd	r0, r1, [sp, #120]	; 0x78
 8003434:	6811      	ldr	r1, [r2, #0]
 8003436:	4648      	mov	r0, r9
 8003438:	f7fd fc84 	bl	8000d44 <__aeabi_fmul>
 800343c:	4601      	mov	r1, r0
 800343e:	4658      	mov	r0, fp
 8003440:	f7fd fb76 	bl	8000b30 <__aeabi_fsub>
 8003444:	f7fc fff0 	bl	8000428 <__aeabi_f2d>
 8003448:	e9cd 0108 	strd	r0, r1, [sp, #32]
 800344c:	4648      	mov	r0, r9
 800344e:	f7fc ffeb 	bl	8000428 <__aeabi_f2d>
 8003452:	e9cd 0106 	strd	r0, r1, [sp, #24]
 8003456:	4658      	mov	r0, fp
 8003458:	f7fc ffe6 	bl	8000428 <__aeabi_f2d>
 800345c:	e9cd 0104 	strd	r0, r1, [sp, #16]
 8003460:	4b3d      	ldr	r3, [pc, #244]	; (8003558 <main+0x800>)
 8003462:	4638      	mov	r0, r7
 8003464:	6819      	ldr	r1, [r3, #0]
 8003466:	f7fd fc6d 	bl	8000d44 <__aeabi_fmul>
 800346a:	4601      	mov	r1, r0
 800346c:	4640      	mov	r0, r8
 800346e:	f7fd fb5f 	bl	8000b30 <__aeabi_fsub>
 8003472:	f7fc ffd9 	bl	8000428 <__aeabi_f2d>
 8003476:	e9cd 0102 	strd	r0, r1, [sp, #8]
 800347a:	4638      	mov	r0, r7
 800347c:	f7fc ffd4 	bl	8000428 <__aeabi_f2d>
 8003480:	e9dd 231e 	ldrd	r2, r3, [sp, #120]	; 0x78
 8003484:	e9cd 0100 	strd	r0, r1, [sp]
 8003488:	4934      	ldr	r1, [pc, #208]	; (800355c <main+0x804>)
 800348a:	480c      	ldr	r0, [pc, #48]	; (80034bc <main+0x764>)
 800348c:	f005 fb44 	bl	8008b18 <siprintf>
 8003490:	f44f 737a 	mov.w	r3, #1000	; 0x3e8
 8003494:	22c8      	movs	r2, #200	; 0xc8
 8003496:	4909      	ldr	r1, [pc, #36]	; (80034bc <main+0x764>)
 8003498:	4809      	ldr	r0, [pc, #36]	; (80034c0 <main+0x768>)
 800349a:	f004 fdf7 	bl	800808c <HAL_UART_Transmit>
 800349e:	f89a 3000 	ldrb.w	r3, [sl]
 80034a2:	2b00      	cmp	r3, #0
 80034a4:	f040 80f0 	bne.w	8003688 <main+0x930>
 80034a8:	782b      	ldrb	r3, [r5, #0]
 80034aa:	2b00      	cmp	r3, #0
 80034ac:	f000 8166 	beq.w	800377c <main+0xa24>
 80034b0:	e05a      	b.n	8003568 <main+0x810>
 80034b2:	bf00      	nop
 80034b4:	40010800 	.word	0x40010800
 80034b8:	20000594 	.word	0x20000594
 80034bc:	20000484 	.word	0x20000484
 80034c0:	20001364 	.word	0x20001364
 80034c4:	0800b77d 	.word	0x0800b77d
 80034c8:	40010c00 	.word	0x40010c00
 80034cc:	0800b78f 	.word	0x0800b78f
 80034d0:	0800b79b 	.word	0x0800b79b
 80034d4:	200005ec 	.word	0x200005ec
 80034d8:	200005b4 	.word	0x200005b4
 80034dc:	2000098c 	.word	0x2000098c
 80034e0:	200005b8 	.word	0x200005b8
 80034e4:	40000400 	.word	0x40000400
 80034e8:	0800b7a1 	.word	0x0800b7a1
 80034ec:	20000b30 	.word	0x20000b30
 80034f0:	20000658 	.word	0x20000658
 80034f4:	200005c0 	.word	0x200005c0
 80034f8:	20000dec 	.word	0x20000dec
 80034fc:	200013f4 	.word	0x200013f4
 8003500:	2000098e 	.word	0x2000098e
 8003504:	40012c00 	.word	0x40012c00
 8003508:	200005c8 	.word	0x200005c8
 800350c:	200007fc 	.word	0x200007fc
 8003510:	2000065c 	.word	0x2000065c
 8003514:	20000998 	.word	0x20000998
 8003518:	20000b48 	.word	0x20000b48
 800351c:	200005fc 	.word	0x200005fc
 8003520:	20000630 	.word	0x20000630
 8003524:	0800b7ae 	.word	0x0800b7ae
 8003528:	20000dd7 	.word	0x20000dd7
 800352c:	200005b6 	.word	0x200005b6
 8003530:	2000131c 	.word	0x2000131c
 8003534:	2000126c 	.word	0x2000126c
 8003538:	20000640 	.word	0x20000640
 800353c:	200005a8 	.word	0x200005a8
 8003540:	20000b40 	.word	0x20000b40
 8003544:	200007f0 	.word	0x200007f0
 8003548:	e000e010 	.word	0xe000e010
 800354c:	20001308 	.word	0x20001308
 8003550:	20000b38 	.word	0x20000b38
 8003554:	20000590 	.word	0x20000590
 8003558:	200005a0 	.word	0x200005a0
 800355c:	0800b7c1 	.word	0x0800b7c1
 8003560:	20000650 	.word	0x20000650
 8003564:	20000598 	.word	0x20000598
 8003568:	4b8d      	ldr	r3, [pc, #564]	; (80037a0 <main+0xa48>)
 800356a:	498e      	ldr	r1, [pc, #568]	; (80037a4 <main+0xa4c>)
 800356c:	f8d3 8000 	ldr.w	r8, [r3]
 8003570:	4640      	mov	r0, r8
 8003572:	f7fd fadd 	bl	8000b30 <__aeabi_fsub>
 8003576:	f7fd fdab 	bl	80010d0 <__aeabi_f2iz>
 800357a:	2800      	cmp	r0, #0
 800357c:	bfb8      	it	lt
 800357e:	4240      	neglt	r0, r0
 8003580:	f7fd fb8c 	bl	8000c9c <__aeabi_i2f>
 8003584:	f04f 517e 	mov.w	r1, #1065353216	; 0x3f800000
 8003588:	f7fd fd98 	bl	80010bc <__aeabi_fcmpgt>
 800358c:	2800      	cmp	r0, #0
 800358e:	f000 80f5 	beq.w	800377c <main+0xa24>
 8003592:	4f85      	ldr	r7, [pc, #532]	; (80037a8 <main+0xa50>)
 8003594:	4640      	mov	r0, r8
 8003596:	4983      	ldr	r1, [pc, #524]	; (80037a4 <main+0xa4c>)
 8003598:	883d      	ldrh	r5, [r7, #0]
 800359a:	f7fd fd8f 	bl	80010bc <__aeabi_fcmpgt>
 800359e:	2800      	cmp	r0, #0
 80035a0:	f000 80ea 	beq.w	8003778 <main+0xa20>
 80035a4:	3501      	adds	r5, #1
 80035a6:	803d      	strh	r5, [r7, #0]
 80035a8:	4d80      	ldr	r5, [pc, #512]	; (80037ac <main+0xa54>)
 80035aa:	782b      	ldrb	r3, [r5, #0]
 80035ac:	2b00      	cmp	r3, #0
 80035ae:	f000 80ea 	beq.w	8003786 <main+0xa2e>
 80035b2:	4b7f      	ldr	r3, [pc, #508]	; (80037b0 <main+0xa58>)
 80035b4:	497b      	ldr	r1, [pc, #492]	; (80037a4 <main+0xa4c>)
 80035b6:	681f      	ldr	r7, [r3, #0]
 80035b8:	4638      	mov	r0, r7
 80035ba:	f7fd fab9 	bl	8000b30 <__aeabi_fsub>
 80035be:	f7fd fd87 	bl	80010d0 <__aeabi_f2iz>
 80035c2:	2800      	cmp	r0, #0
 80035c4:	bfb8      	it	lt
 80035c6:	4240      	neglt	r0, r0
 80035c8:	f7fd fb68 	bl	8000c9c <__aeabi_i2f>
 80035cc:	f04f 517e 	mov.w	r1, #1065353216	; 0x3f800000
 80035d0:	f7fd fd74 	bl	80010bc <__aeabi_fcmpgt>
 80035d4:	2800      	cmp	r0, #0
 80035d6:	f000 80d6 	beq.w	8003786 <main+0xa2e>
 80035da:	4638      	mov	r0, r7
 80035dc:	4971      	ldr	r1, [pc, #452]	; (80037a4 <main+0xa4c>)
 80035de:	8825      	ldrh	r5, [r4, #0]
 80035e0:	f7fd fd6c 	bl	80010bc <__aeabi_fcmpgt>
 80035e4:	2800      	cmp	r0, #0
 80035e6:	f000 80cc 	beq.w	8003782 <main+0xa2a>
 80035ea:	3501      	adds	r5, #1
 80035ec:	8025      	strh	r5, [r4, #0]
 80035ee:	4d71      	ldr	r5, [pc, #452]	; (80037b4 <main+0xa5c>)
 80035f0:	782b      	ldrb	r3, [r5, #0]
 80035f2:	2b00      	cmp	r3, #0
 80035f4:	f000 80cc 	beq.w	8003790 <main+0xa38>
 80035f8:	4b6f      	ldr	r3, [pc, #444]	; (80037b8 <main+0xa60>)
 80035fa:	496a      	ldr	r1, [pc, #424]	; (80037a4 <main+0xa4c>)
 80035fc:	f8d3 8000 	ldr.w	r8, [r3]
 8003600:	4640      	mov	r0, r8
 8003602:	f7fd fa95 	bl	8000b30 <__aeabi_fsub>
 8003606:	f7fd fd63 	bl	80010d0 <__aeabi_f2iz>
 800360a:	2800      	cmp	r0, #0
 800360c:	bfb8      	it	lt
 800360e:	4240      	neglt	r0, r0
 8003610:	f7fd fb44 	bl	8000c9c <__aeabi_i2f>
 8003614:	f04f 517e 	mov.w	r1, #1065353216	; 0x3f800000
 8003618:	f7fd fd50 	bl	80010bc <__aeabi_fcmpgt>
 800361c:	2800      	cmp	r0, #0
 800361e:	f000 80b7 	beq.w	8003790 <main+0xa38>
 8003622:	4f66      	ldr	r7, [pc, #408]	; (80037bc <main+0xa64>)
 8003624:	4640      	mov	r0, r8
 8003626:	495f      	ldr	r1, [pc, #380]	; (80037a4 <main+0xa4c>)
 8003628:	883d      	ldrh	r5, [r7, #0]
 800362a:	f7fd fd47 	bl	80010bc <__aeabi_fcmpgt>
 800362e:	2800      	cmp	r0, #0
 8003630:	f000 80ac 	beq.w	800378c <main+0xa34>
 8003634:	3501      	adds	r5, #1
 8003636:	803d      	strh	r5, [r7, #0]
 8003638:	4d61      	ldr	r5, [pc, #388]	; (80037c0 <main+0xa68>)
 800363a:	782b      	ldrb	r3, [r5, #0]
 800363c:	2b00      	cmp	r3, #0
 800363e:	f000 80ac 	beq.w	800379a <main+0xa42>
 8003642:	4b60      	ldr	r3, [pc, #384]	; (80037c4 <main+0xa6c>)
 8003644:	4957      	ldr	r1, [pc, #348]	; (80037a4 <main+0xa4c>)
 8003646:	f8d3 8000 	ldr.w	r8, [r3]
 800364a:	4640      	mov	r0, r8
 800364c:	f7fd fa70 	bl	8000b30 <__aeabi_fsub>
 8003650:	f7fd fd3e 	bl	80010d0 <__aeabi_f2iz>
 8003654:	2800      	cmp	r0, #0
 8003656:	bfb8      	it	lt
 8003658:	4240      	neglt	r0, r0
 800365a:	f7fd fb1f 	bl	8000c9c <__aeabi_i2f>
 800365e:	f04f 517e 	mov.w	r1, #1065353216	; 0x3f800000
 8003662:	f7fd fd2b 	bl	80010bc <__aeabi_fcmpgt>
 8003666:	2800      	cmp	r0, #0
 8003668:	f000 8097 	beq.w	800379a <main+0xa42>
 800366c:	4f56      	ldr	r7, [pc, #344]	; (80037c8 <main+0xa70>)
 800366e:	4640      	mov	r0, r8
 8003670:	494c      	ldr	r1, [pc, #304]	; (80037a4 <main+0xa4c>)
 8003672:	883d      	ldrh	r5, [r7, #0]
 8003674:	f7fd fd22 	bl	80010bc <__aeabi_fcmpgt>
 8003678:	2800      	cmp	r0, #0
 800367a:	f000 808c 	beq.w	8003796 <main+0xa3e>
 800367e:	3501      	adds	r5, #1
 8003680:	803d      	strh	r5, [r7, #0]
 8003682:	8833      	ldrh	r3, [r6, #0]
 8003684:	3301      	adds	r3, #1
 8003686:	8033      	strh	r3, [r6, #0]
 8003688:	4850      	ldr	r0, [pc, #320]	; (80037cc <main+0xa74>)
 800368a:	f003 fec3 	bl	8007414 <HAL_TIM_Base_Start_IT>
 800368e:	4d50      	ldr	r5, [pc, #320]	; (80037d0 <main+0xa78>)
 8003690:	230a      	movs	r3, #10
 8003692:	2201      	movs	r2, #1
 8003694:	4629      	mov	r1, r5
 8003696:	484f      	ldr	r0, [pc, #316]	; (80037d4 <main+0xa7c>)
 8003698:	f004 fd4d 	bl	8008136 <HAL_UART_Receive>
 800369c:	2800      	cmp	r0, #0
 800369e:	f43f ae81 	beq.w	80033a4 <main+0x64c>
 80036a2:	782b      	ldrb	r3, [r5, #0]
 80036a4:	2b63      	cmp	r3, #99	; 0x63
 80036a6:	f040 82cc 	bne.w	8003c42 <main+0xeea>
 80036aa:	f44f 737a 	mov.w	r3, #1000	; 0x3e8
 80036ae:	2216      	movs	r2, #22
 80036b0:	4949      	ldr	r1, [pc, #292]	; (80037d8 <main+0xa80>)
 80036b2:	4848      	ldr	r0, [pc, #288]	; (80037d4 <main+0xa7c>)
 80036b4:	f004 fcea 	bl	800808c <HAL_UART_Transmit>
 80036b8:	4844      	ldr	r0, [pc, #272]	; (80037cc <main+0xa74>)
 80036ba:	f003 fed5 	bl	8007468 <HAL_TIM_Base_Stop_IT>
 80036be:	2100      	movs	r1, #0
 80036c0:	4846      	ldr	r0, [pc, #280]	; (80037dc <main+0xa84>)
 80036c2:	f004 fbb3 	bl	8007e2c <HAL_TIM_IC_Stop_IT>
 80036c6:	2104      	movs	r1, #4
 80036c8:	4844      	ldr	r0, [pc, #272]	; (80037dc <main+0xa84>)
 80036ca:	f004 fbaf 	bl	8007e2c <HAL_TIM_IC_Stop_IT>
 80036ce:	22c8      	movs	r2, #200	; 0xc8
 80036d0:	2100      	movs	r1, #0
 80036d2:	4843      	ldr	r0, [pc, #268]	; (80037e0 <main+0xa88>)
 80036d4:	f004 fdb8 	bl	8008248 <memset>
 80036d8:	2301      	movs	r3, #1
 80036da:	4a42      	ldr	r2, [pc, #264]	; (80037e4 <main+0xa8c>)
 80036dc:	4932      	ldr	r1, [pc, #200]	; (80037a8 <main+0xa50>)
 80036de:	7013      	strb	r3, [r2, #0]
 80036e0:	4a32      	ldr	r2, [pc, #200]	; (80037ac <main+0xa54>)
 80036e2:	7013      	strb	r3, [r2, #0]
 80036e4:	4a33      	ldr	r2, [pc, #204]	; (80037b4 <main+0xa5c>)
 80036e6:	7013      	strb	r3, [r2, #0]
 80036e8:	4a35      	ldr	r2, [pc, #212]	; (80037c0 <main+0xa68>)
 80036ea:	7013      	strb	r3, [r2, #0]
 80036ec:	2200      	movs	r2, #0
 80036ee:	4b3e      	ldr	r3, [pc, #248]	; (80037e8 <main+0xa90>)
 80036f0:	701a      	strb	r2, [r3, #0]
 80036f2:	4b3e      	ldr	r3, [pc, #248]	; (80037ec <main+0xa94>)
 80036f4:	801a      	strh	r2, [r3, #0]
 80036f6:	f649 4340 	movw	r3, #40000	; 0x9c40
 80036fa:	800b      	strh	r3, [r1, #0]
 80036fc:	4932      	ldr	r1, [pc, #200]	; (80037c8 <main+0xa70>)
 80036fe:	8023      	strh	r3, [r4, #0]
 8003700:	800b      	strh	r3, [r1, #0]
 8003702:	492e      	ldr	r1, [pc, #184]	; (80037bc <main+0xa64>)
 8003704:	800b      	strh	r3, [r1, #0]
 8003706:	2100      	movs	r1, #0
 8003708:	4b39      	ldr	r3, [pc, #228]	; (80037f0 <main+0xa98>)
 800370a:	6019      	str	r1, [r3, #0]
 800370c:	4b39      	ldr	r3, [pc, #228]	; (80037f4 <main+0xa9c>)
 800370e:	6019      	str	r1, [r3, #0]
 8003710:	4b39      	ldr	r3, [pc, #228]	; (80037f8 <main+0xaa0>)
 8003712:	6019      	str	r1, [r3, #0]
 8003714:	4b39      	ldr	r3, [pc, #228]	; (80037fc <main+0xaa4>)
 8003716:	6019      	str	r1, [r3, #0]
 8003718:	4b39      	ldr	r3, [pc, #228]	; (8003800 <main+0xaa8>)
 800371a:	6019      	str	r1, [r3, #0]
 800371c:	4b39      	ldr	r3, [pc, #228]	; (8003804 <main+0xaac>)
 800371e:	6019      	str	r1, [r3, #0]
 8003720:	f44f 71fa 	mov.w	r1, #500	; 0x1f4
 8003724:	4b38      	ldr	r3, [pc, #224]	; (8003808 <main+0xab0>)
 8003726:	801a      	strh	r2, [r3, #0]
 8003728:	4b38      	ldr	r3, [pc, #224]	; (800380c <main+0xab4>)
 800372a:	8019      	strh	r1, [r3, #0]
 800372c:	4b38      	ldr	r3, [pc, #224]	; (8003810 <main+0xab8>)
 800372e:	801a      	strh	r2, [r3, #0]
 8003730:	4b38      	ldr	r3, [pc, #224]	; (8003814 <main+0xabc>)
 8003732:	801a      	strh	r2, [r3, #0]
 8003734:	4825      	ldr	r0, [pc, #148]	; (80037cc <main+0xa74>)
 8003736:	f003 fe6d 	bl	8007414 <HAL_TIM_Base_Start_IT>
 800373a:	2300      	movs	r3, #0
 800373c:	702b      	strb	r3, [r5, #0]
 800373e:	e631      	b.n	80033a4 <main+0x64c>
 8003740:	f7fc fe72 	bl	8000428 <__aeabi_f2d>
 8003744:	4602      	mov	r2, r0
 8003746:	460b      	mov	r3, r1
 8003748:	4648      	mov	r0, r9
 800374a:	e9cd 231e 	strd	r2, r3, [sp, #120]	; 0x78
 800374e:	f7fc fe6b 	bl	8000428 <__aeabi_f2d>
 8003752:	e9cd 0104 	strd	r0, r1, [sp, #16]
 8003756:	4658      	mov	r0, fp
 8003758:	f7fc fe66 	bl	8000428 <__aeabi_f2d>
 800375c:	e9cd 0102 	strd	r0, r1, [sp, #8]
 8003760:	4638      	mov	r0, r7
 8003762:	f7fc fe61 	bl	8000428 <__aeabi_f2d>
 8003766:	e9dd 231e 	ldrd	r2, r3, [sp, #120]	; 0x78
 800376a:	e9cd 0100 	strd	r0, r1, [sp]
 800376e:	492a      	ldr	r1, [pc, #168]	; (8003818 <main+0xac0>)
 8003770:	481b      	ldr	r0, [pc, #108]	; (80037e0 <main+0xa88>)
 8003772:	f005 f9d1 	bl	8008b18 <siprintf>
 8003776:	e68b      	b.n	8003490 <main+0x738>
 8003778:	3d01      	subs	r5, #1
 800377a:	e714      	b.n	80035a6 <main+0x84e>
 800377c:	2300      	movs	r3, #0
 800377e:	702b      	strb	r3, [r5, #0]
 8003780:	e712      	b.n	80035a8 <main+0x850>
 8003782:	3d01      	subs	r5, #1
 8003784:	e732      	b.n	80035ec <main+0x894>
 8003786:	2300      	movs	r3, #0
 8003788:	702b      	strb	r3, [r5, #0]
 800378a:	e730      	b.n	80035ee <main+0x896>
 800378c:	3d01      	subs	r5, #1
 800378e:	e752      	b.n	8003636 <main+0x8de>
 8003790:	2300      	movs	r3, #0
 8003792:	702b      	strb	r3, [r5, #0]
 8003794:	e750      	b.n	8003638 <main+0x8e0>
 8003796:	3d01      	subs	r5, #1
 8003798:	e772      	b.n	8003680 <main+0x928>
 800379a:	2300      	movs	r3, #0
 800379c:	702b      	strb	r3, [r5, #0]
 800379e:	e770      	b.n	8003682 <main+0x92a>
 80037a0:	2000065c 	.word	0x2000065c
 80037a4:	44480000 	.word	0x44480000
 80037a8:	2000098c 	.word	0x2000098c
 80037ac:	20000630 	.word	0x20000630
 80037b0:	20000b48 	.word	0x20000b48
 80037b4:	20000dd7 	.word	0x20000dd7
 80037b8:	200007fc 	.word	0x200007fc
 80037bc:	200005b8 	.word	0x200005b8
 80037c0:	200005b6 	.word	0x200005b6
 80037c4:	20000998 	.word	0x20000998
 80037c8:	200005b4 	.word	0x200005b4
 80037cc:	2000126c 	.word	0x2000126c
 80037d0:	2000054d 	.word	0x2000054d
 80037d4:	20001364 	.word	0x20001364
 80037d8:	0800b9df 	.word	0x0800b9df
 80037dc:	200013f4 	.word	0x200013f4
 80037e0:	20000484 	.word	0x20000484
 80037e4:	200005fc 	.word	0x200005fc
 80037e8:	20000658 	.word	0x20000658
 80037ec:	20000b38 	.word	0x20000b38
 80037f0:	200005e8 	.word	0x200005e8
 80037f4:	200007f8 	.word	0x200007f8
 80037f8:	20000b28 	.word	0x20000b28
 80037fc:	20000dd8 	.word	0x20000dd8
 8003800:	20000590 	.word	0x20000590
 8003804:	200005a0 	.word	0x200005a0
 8003808:	20000de0 	.word	0x20000de0
 800380c:	20000b30 	.word	0x20000b30
 8003810:	2000098e 	.word	0x2000098e
 8003814:	200005c8 	.word	0x200005c8
 8003818:	0800b7fe 	.word	0x0800b7fe
 800381c:	f5b3 6fc8 	cmp.w	r3, #1600	; 0x640
 8003820:	d308      	bcc.n	8003834 <main+0xadc>
 8003822:	f44f 737a 	mov.w	r3, #1000	; 0x3e8
 8003826:	221f      	movs	r2, #31
 8003828:	495d      	ldr	r1, [pc, #372]	; (80039a0 <main+0xc48>)
 800382a:	485e      	ldr	r0, [pc, #376]	; (80039a4 <main+0xc4c>)
 800382c:	f004 fc2e 	bl	800808c <HAL_UART_Transmit>
 8003830:	f002 f878 	bl	8005924 <HAL_NVIC_SystemReset>
 8003834:	f8ba 5000 	ldrh.w	r5, [sl]
 8003838:	2d00      	cmp	r5, #0
 800383a:	f43f af25 	beq.w	8003688 <main+0x930>
 800383e:	4f5a      	ldr	r7, [pc, #360]	; (80039a8 <main+0xc50>)
 8003840:	4b5a      	ldr	r3, [pc, #360]	; (80039ac <main+0xc54>)
 8003842:	6839      	ldr	r1, [r7, #0]
 8003844:	6818      	ldr	r0, [r3, #0]
 8003846:	f7fd f975 	bl	8000b34 <__addsf3>
 800384a:	4b59      	ldr	r3, [pc, #356]	; (80039b0 <main+0xc58>)
 800384c:	6038      	str	r0, [r7, #0]
 800384e:	4f59      	ldr	r7, [pc, #356]	; (80039b4 <main+0xc5c>)
 8003850:	4681      	mov	r9, r0
 8003852:	6839      	ldr	r1, [r7, #0]
 8003854:	6818      	ldr	r0, [r3, #0]
 8003856:	f7fd f96d 	bl	8000b34 <__addsf3>
 800385a:	f8df 819c 	ldr.w	r8, [pc, #412]	; 80039f8 <main+0xca0>
 800385e:	4b56      	ldr	r3, [pc, #344]	; (80039b8 <main+0xc60>)
 8003860:	f8d8 1000 	ldr.w	r1, [r8]
 8003864:	6038      	str	r0, [r7, #0]
 8003866:	4683      	mov	fp, r0
 8003868:	6818      	ldr	r0, [r3, #0]
 800386a:	f7fd f963 	bl	8000b34 <__addsf3>
 800386e:	4b53      	ldr	r3, [pc, #332]	; (80039bc <main+0xc64>)
 8003870:	4a53      	ldr	r2, [pc, #332]	; (80039c0 <main+0xc68>)
 8003872:	6819      	ldr	r1, [r3, #0]
 8003874:	f8c8 0000 	str.w	r0, [r8]
 8003878:	4607      	mov	r7, r0
 800387a:	6810      	ldr	r0, [r2, #0]
 800387c:	f7fd f95a 	bl	8000b34 <__addsf3>
 8003880:	3d01      	subs	r5, #1
 8003882:	4b4e      	ldr	r3, [pc, #312]	; (80039bc <main+0xc64>)
 8003884:	b2ad      	uxth	r5, r5
 8003886:	4680      	mov	r8, r0
 8003888:	6018      	str	r0, [r3, #0]
 800388a:	f8aa 5000 	strh.w	r5, [sl]
 800388e:	2d00      	cmp	r5, #0
 8003890:	f47f aefa 	bne.w	8003688 <main+0x930>
 8003894:	4659      	mov	r1, fp
 8003896:	4648      	mov	r0, r9
 8003898:	f7fd fb08 	bl	8000eac <__aeabi_fdiv>
 800389c:	f8df 915c 	ldr.w	r9, [pc, #348]	; 80039fc <main+0xca4>
 80038a0:	4641      	mov	r1, r8
 80038a2:	4682      	mov	sl, r0
 80038a4:	f8c9 0000 	str.w	r0, [r9]
 80038a8:	4638      	mov	r0, r7
 80038aa:	f7fd faff 	bl	8000eac <__aeabi_fdiv>
 80038ae:	f8df 8150 	ldr.w	r8, [pc, #336]	; 8003a00 <main+0xca8>
 80038b2:	4607      	mov	r7, r0
 80038b4:	f8c8 0000 	str.w	r0, [r8]
 80038b8:	4650      	mov	r0, sl
 80038ba:	f7fd fc09 	bl	80010d0 <__aeabi_f2iz>
 80038be:	3001      	adds	r0, #1
 80038c0:	2802      	cmp	r0, #2
 80038c2:	d867      	bhi.n	8003994 <main+0xc3c>
 80038c4:	4638      	mov	r0, r7
 80038c6:	f7fd fc03 	bl	80010d0 <__aeabi_f2iz>
 80038ca:	3001      	adds	r0, #1
 80038cc:	2802      	cmp	r0, #2
 80038ce:	d861      	bhi.n	8003994 <main+0xc3c>
 80038d0:	4b3c      	ldr	r3, [pc, #240]	; (80039c4 <main+0xc6c>)
 80038d2:	4f3d      	ldr	r7, [pc, #244]	; (80039c8 <main+0xc70>)
 80038d4:	681b      	ldr	r3, [r3, #0]
 80038d6:	2001      	movs	r0, #1
 80038d8:	603b      	str	r3, [r7, #0]
 80038da:	f7fe ffed 	bl	80028b8 <rwFlash>
 80038de:	f8b4 a000 	ldrh.w	sl, [r4]
 80038e2:	4b3a      	ldr	r3, [pc, #232]	; (80039cc <main+0xc74>)
 80038e4:	22c8      	movs	r2, #200	; 0xc8
 80038e6:	f8a3 a000 	strh.w	sl, [r3]
 80038ea:	4b39      	ldr	r3, [pc, #228]	; (80039d0 <main+0xc78>)
 80038ec:	4629      	mov	r1, r5
 80038ee:	f8b3 b000 	ldrh.w	fp, [r3]
 80038f2:	4b38      	ldr	r3, [pc, #224]	; (80039d4 <main+0xc7c>)
 80038f4:	4838      	ldr	r0, [pc, #224]	; (80039d8 <main+0xc80>)
 80038f6:	f8a3 b000 	strh.w	fp, [r3]
 80038fa:	f004 fca5 	bl	8008248 <memset>
 80038fe:	4b37      	ldr	r3, [pc, #220]	; (80039dc <main+0xc84>)
 8003900:	4652      	mov	r2, sl
 8003902:	881b      	ldrh	r3, [r3, #0]
 8003904:	4936      	ldr	r1, [pc, #216]	; (80039e0 <main+0xc88>)
 8003906:	e9cd b300 	strd	fp, r3, [sp]
 800390a:	4b36      	ldr	r3, [pc, #216]	; (80039e4 <main+0xc8c>)
 800390c:	4832      	ldr	r0, [pc, #200]	; (80039d8 <main+0xc80>)
 800390e:	881b      	ldrh	r3, [r3, #0]
 8003910:	f005 f902 	bl	8008b18 <siprintf>
 8003914:	f44f 737a 	mov.w	r3, #1000	; 0x3e8
 8003918:	22c8      	movs	r2, #200	; 0xc8
 800391a:	492f      	ldr	r1, [pc, #188]	; (80039d8 <main+0xc80>)
 800391c:	4821      	ldr	r0, [pc, #132]	; (80039a4 <main+0xc4c>)
 800391e:	f004 fbb5 	bl	800808c <HAL_UART_Transmit>
 8003922:	22c8      	movs	r2, #200	; 0xc8
 8003924:	4629      	mov	r1, r5
 8003926:	482c      	ldr	r0, [pc, #176]	; (80039d8 <main+0xc80>)
 8003928:	f004 fc8e 	bl	8008248 <memset>
 800392c:	f8d8 0000 	ldr.w	r0, [r8]
 8003930:	f7fc fd7a 	bl	8000428 <__aeabi_f2d>
 8003934:	4682      	mov	sl, r0
 8003936:	f8d9 0000 	ldr.w	r0, [r9]
 800393a:	468b      	mov	fp, r1
 800393c:	f7fc fd74 	bl	8000428 <__aeabi_f2d>
 8003940:	4652      	mov	r2, sl
 8003942:	e9cd 0100 	strd	r0, r1, [sp]
 8003946:	465b      	mov	r3, fp
 8003948:	4927      	ldr	r1, [pc, #156]	; (80039e8 <main+0xc90>)
 800394a:	4823      	ldr	r0, [pc, #140]	; (80039d8 <main+0xc80>)
 800394c:	f005 f8e4 	bl	8008b18 <siprintf>
 8003950:	f44f 737a 	mov.w	r3, #1000	; 0x3e8
 8003954:	22c8      	movs	r2, #200	; 0xc8
 8003956:	4920      	ldr	r1, [pc, #128]	; (80039d8 <main+0xc80>)
 8003958:	4812      	ldr	r0, [pc, #72]	; (80039a4 <main+0xc4c>)
 800395a:	f004 fb97 	bl	800808c <HAL_UART_Transmit>
 800395e:	22c8      	movs	r2, #200	; 0xc8
 8003960:	4629      	mov	r1, r5
 8003962:	481d      	ldr	r0, [pc, #116]	; (80039d8 <main+0xc80>)
 8003964:	f004 fc70 	bl	8008248 <memset>
 8003968:	6838      	ldr	r0, [r7, #0]
 800396a:	f7fc fd5d 	bl	8000428 <__aeabi_f2d>
 800396e:	4602      	mov	r2, r0
 8003970:	460b      	mov	r3, r1
 8003972:	4819      	ldr	r0, [pc, #100]	; (80039d8 <main+0xc80>)
 8003974:	491d      	ldr	r1, [pc, #116]	; (80039ec <main+0xc94>)
 8003976:	f005 f8cf 	bl	8008b18 <siprintf>
 800397a:	f44f 737a 	mov.w	r3, #1000	; 0x3e8
 800397e:	22c8      	movs	r2, #200	; 0xc8
 8003980:	4915      	ldr	r1, [pc, #84]	; (80039d8 <main+0xc80>)
 8003982:	4808      	ldr	r0, [pc, #32]	; (80039a4 <main+0xc4c>)
 8003984:	f004 fb82 	bl	800808c <HAL_UART_Transmit>
 8003988:	2300      	movs	r3, #0
 800398a:	2201      	movs	r2, #1
 800398c:	8033      	strh	r3, [r6, #0]
 800398e:	4b18      	ldr	r3, [pc, #96]	; (80039f0 <main+0xc98>)
 8003990:	701a      	strb	r2, [r3, #0]
 8003992:	e679      	b.n	8003688 <main+0x930>
 8003994:	f44f 737a 	mov.w	r3, #1000	; 0x3e8
 8003998:	222a      	movs	r2, #42	; 0x2a
 800399a:	4916      	ldr	r1, [pc, #88]	; (80039f4 <main+0xc9c>)
 800399c:	e7f1      	b.n	8003982 <main+0xc2a>
 800399e:	bf00      	nop
 80039a0:	0800b82d 	.word	0x0800b82d
 80039a4:	20001364 	.word	0x20001364
 80039a8:	200005e8 	.word	0x200005e8
 80039ac:	200007fc 	.word	0x200007fc
 80039b0:	20000998 	.word	0x20000998
 80039b4:	200007f8 	.word	0x200007f8
 80039b8:	2000065c 	.word	0x2000065c
 80039bc:	20000dd8 	.word	0x20000dd8
 80039c0:	20000b48 	.word	0x20000b48
 80039c4:	200005f8 	.word	0x200005f8
 80039c8:	20000b34 	.word	0x20000b34
 80039cc:	2000064e 	.word	0x2000064e
 80039d0:	200005b4 	.word	0x200005b4
 80039d4:	20000dee 	.word	0x20000dee
 80039d8:	20000484 	.word	0x20000484
 80039dc:	200005b8 	.word	0x200005b8
 80039e0:	0800b84c 	.word	0x0800b84c
 80039e4:	2000098c 	.word	0x2000098c
 80039e8:	0800b888 	.word	0x0800b888
 80039ec:	0800b89f 	.word	0x0800b89f
 80039f0:	20000dec 	.word	0x20000dec
 80039f4:	0800b8ad 	.word	0x0800b8ad
 80039f8:	20000b28 	.word	0x20000b28
 80039fc:	20000590 	.word	0x20000590
 8003a00:	200005a0 	.word	0x200005a0
 8003a04:	f7fd fde8 	bl	80015d8 <BME280_ReadTemperature>
 8003a08:	4fa1      	ldr	r7, [pc, #644]	; (8003c90 <main+0xf38>)
 8003a0a:	4ea2      	ldr	r6, [pc, #648]	; (8003c94 <main+0xf3c>)
 8003a0c:	6038      	str	r0, [r7, #0]
 8003a0e:	f7fd fe2d 	bl	800166c <BME280_ReadPressure>
 8003a12:	49a1      	ldr	r1, [pc, #644]	; (8003c98 <main+0xf40>)
 8003a14:	f7fd f996 	bl	8000d44 <__aeabi_fmul>
 8003a18:	6030      	str	r0, [r6, #0]
 8003a1a:	f7fd ff43 	bl	80018a4 <BME280_ReadHumidity>
 8003a1e:	4d9f      	ldr	r5, [pc, #636]	; (8003c9c <main+0xf44>)
 8003a20:	683f      	ldr	r7, [r7, #0]
 8003a22:	6028      	str	r0, [r5, #0]
 8003a24:	499e      	ldr	r1, [pc, #632]	; (8003ca0 <main+0xf48>)
 8003a26:	4638      	mov	r0, r7
 8003a28:	f7fd fb2a 	bl	8001080 <__aeabi_fcmplt>
 8003a2c:	2800      	cmp	r0, #0
 8003a2e:	f000 80f6 	beq.w	8003c1e <main+0xec6>
 8003a32:	4638      	mov	r0, r7
 8003a34:	499b      	ldr	r1, [pc, #620]	; (8003ca4 <main+0xf4c>)
 8003a36:	f7fd fb41 	bl	80010bc <__aeabi_fcmpgt>
 8003a3a:	2800      	cmp	r0, #0
 8003a3c:	f000 80ef 	beq.w	8003c1e <main+0xec6>
 8003a40:	463b      	mov	r3, r7
 8003a42:	4a99      	ldr	r2, [pc, #612]	; (8003ca8 <main+0xf50>)
 8003a44:	4999      	ldr	r1, [pc, #612]	; (8003cac <main+0xf54>)
 8003a46:	489a      	ldr	r0, [pc, #616]	; (8003cb0 <main+0xf58>)
 8003a48:	f7ff f86a 	bl	8002b20 <sendToZabbix>
 8003a4c:	6833      	ldr	r3, [r6, #0]
 8003a4e:	4a99      	ldr	r2, [pc, #612]	; (8003cb4 <main+0xf5c>)
 8003a50:	4996      	ldr	r1, [pc, #600]	; (8003cac <main+0xf54>)
 8003a52:	4897      	ldr	r0, [pc, #604]	; (8003cb0 <main+0xf58>)
 8003a54:	f7ff f864 	bl	8002b20 <sendToZabbix>
 8003a58:	682b      	ldr	r3, [r5, #0]
 8003a5a:	4a97      	ldr	r2, [pc, #604]	; (8003cb8 <main+0xf60>)
 8003a5c:	4993      	ldr	r1, [pc, #588]	; (8003cac <main+0xf54>)
 8003a5e:	4894      	ldr	r0, [pc, #592]	; (8003cb0 <main+0xf58>)
 8003a60:	f7ff f85e 	bl	8002b20 <sendToZabbix>
 8003a64:	4b95      	ldr	r3, [pc, #596]	; (8003cbc <main+0xf64>)
 8003a66:	781b      	ldrb	r3, [r3, #0]
 8003a68:	2b00      	cmp	r3, #0
 8003a6a:	f040 80d5 	bne.w	8003c18 <main+0xec0>
 8003a6e:	4b94      	ldr	r3, [pc, #592]	; (8003cc0 <main+0xf68>)
 8003a70:	2200      	movs	r2, #0
 8003a72:	e9d3 6700 	ldrd	r6, r7, [r3]
 8003a76:	2300      	movs	r3, #0
 8003a78:	4630      	mov	r0, r6
 8003a7a:	4639      	mov	r1, r7
 8003a7c:	f7fc ff94 	bl	80009a8 <__aeabi_dcmpeq>
 8003a80:	4d90      	ldr	r5, [pc, #576]	; (8003cc4 <main+0xf6c>)
 8003a82:	2200      	movs	r2, #0
 8003a84:	4b90      	ldr	r3, [pc, #576]	; (8003cc8 <main+0xf70>)
 8003a86:	2800      	cmp	r0, #0
 8003a88:	f040 80d1 	bne.w	8003c2e <main+0xed6>
 8003a8c:	4630      	mov	r0, r6
 8003a8e:	4639      	mov	r1, r7
 8003a90:	f7fc ff94 	bl	80009bc <__aeabi_dcmplt>
 8003a94:	b328      	cbz	r0, 8003ae2 <main+0xd8a>
 8003a96:	e9d5 0100 	ldrd	r0, r1, [r5]
 8003a9a:	2200      	movs	r2, #0
 8003a9c:	4b8a      	ldr	r3, [pc, #552]	; (8003cc8 <main+0xf70>)
 8003a9e:	f7fc ff8d 	bl	80009bc <__aeabi_dcmplt>
 8003aa2:	b1f0      	cbz	r0, 8003ae2 <main+0xd8a>
 8003aa4:	4639      	mov	r1, r7
 8003aa6:	4630      	mov	r0, r6
 8003aa8:	f7fc ffee 	bl	8000a88 <__aeabi_d2f>
 8003aac:	4a87      	ldr	r2, [pc, #540]	; (8003ccc <main+0xf74>)
 8003aae:	4603      	mov	r3, r0
 8003ab0:	497e      	ldr	r1, [pc, #504]	; (8003cac <main+0xf54>)
 8003ab2:	487f      	ldr	r0, [pc, #508]	; (8003cb0 <main+0xf58>)
 8003ab4:	f7ff f834 	bl	8002b20 <sendToZabbix>
 8003ab8:	4b85      	ldr	r3, [pc, #532]	; (8003cd0 <main+0xf78>)
 8003aba:	e9d3 0100 	ldrd	r0, r1, [r3]
 8003abe:	f7fc ffe3 	bl	8000a88 <__aeabi_d2f>
 8003ac2:	4603      	mov	r3, r0
 8003ac4:	4a83      	ldr	r2, [pc, #524]	; (8003cd4 <main+0xf7c>)
 8003ac6:	4979      	ldr	r1, [pc, #484]	; (8003cac <main+0xf54>)
 8003ac8:	4879      	ldr	r0, [pc, #484]	; (8003cb0 <main+0xf58>)
 8003aca:	f7ff f829 	bl	8002b20 <sendToZabbix>
 8003ace:	e9d5 0100 	ldrd	r0, r1, [r5]
 8003ad2:	f7fc ffd9 	bl	8000a88 <__aeabi_d2f>
 8003ad6:	4a80      	ldr	r2, [pc, #512]	; (8003cd8 <main+0xf80>)
 8003ad8:	4603      	mov	r3, r0
 8003ada:	4974      	ldr	r1, [pc, #464]	; (8003cac <main+0xf54>)
 8003adc:	4874      	ldr	r0, [pc, #464]	; (8003cb0 <main+0xf58>)
 8003ade:	f7ff f81f 	bl	8002b20 <sendToZabbix>
 8003ae2:	4d7e      	ldr	r5, [pc, #504]	; (8003cdc <main+0xf84>)
 8003ae4:	4e7e      	ldr	r6, [pc, #504]	; (8003ce0 <main+0xf88>)
 8003ae6:	682b      	ldr	r3, [r5, #0]
 8003ae8:	4a7e      	ldr	r2, [pc, #504]	; (8003ce4 <main+0xf8c>)
 8003aea:	4970      	ldr	r1, [pc, #448]	; (8003cac <main+0xf54>)
 8003aec:	4f7e      	ldr	r7, [pc, #504]	; (8003ce8 <main+0xf90>)
 8003aee:	4870      	ldr	r0, [pc, #448]	; (8003cb0 <main+0xf58>)
 8003af0:	f7ff f816 	bl	8002b20 <sendToZabbix>
 8003af4:	f8df 8250 	ldr.w	r8, [pc, #592]	; 8003d48 <main+0xff0>
 8003af8:	6833      	ldr	r3, [r6, #0]
 8003afa:	4a7c      	ldr	r2, [pc, #496]	; (8003cec <main+0xf94>)
 8003afc:	496b      	ldr	r1, [pc, #428]	; (8003cac <main+0xf54>)
 8003afe:	486c      	ldr	r0, [pc, #432]	; (8003cb0 <main+0xf58>)
 8003b00:	f7ff f80e 	bl	8002b20 <sendToZabbix>
 8003b04:	f8df a244 	ldr.w	sl, [pc, #580]	; 8003d4c <main+0xff4>
 8003b08:	683b      	ldr	r3, [r7, #0]
 8003b0a:	4a79      	ldr	r2, [pc, #484]	; (8003cf0 <main+0xf98>)
 8003b0c:	4967      	ldr	r1, [pc, #412]	; (8003cac <main+0xf54>)
 8003b0e:	f8df 9240 	ldr.w	r9, [pc, #576]	; 8003d50 <main+0xff8>
 8003b12:	4867      	ldr	r0, [pc, #412]	; (8003cb0 <main+0xf58>)
 8003b14:	f7ff f804 	bl	8002b20 <sendToZabbix>
 8003b18:	4a76      	ldr	r2, [pc, #472]	; (8003cf4 <main+0xf9c>)
 8003b1a:	4964      	ldr	r1, [pc, #400]	; (8003cac <main+0xf54>)
 8003b1c:	f8d8 3000 	ldr.w	r3, [r8]
 8003b20:	4863      	ldr	r0, [pc, #396]	; (8003cb0 <main+0xf58>)
 8003b22:	f7fe fffd 	bl	8002b20 <sendToZabbix>
 8003b26:	f8b9 3000 	ldrh.w	r3, [r9]
 8003b2a:	f8ba 0000 	ldrh.w	r0, [sl]
 8003b2e:	f8df b224 	ldr.w	fp, [pc, #548]	; 8003d54 <main+0xffc>
 8003b32:	1ac0      	subs	r0, r0, r3
 8003b34:	f7fd f8b2 	bl	8000c9c <__aeabi_i2f>
 8003b38:	4a6f      	ldr	r2, [pc, #444]	; (8003cf8 <main+0xfa0>)
 8003b3a:	4603      	mov	r3, r0
 8003b3c:	495b      	ldr	r1, [pc, #364]	; (8003cac <main+0xf54>)
 8003b3e:	485c      	ldr	r0, [pc, #368]	; (8003cb0 <main+0xf58>)
 8003b40:	f7fe ffee 	bl	8002b20 <sendToZabbix>
 8003b44:	f8bb 3000 	ldrh.w	r3, [fp]
 8003b48:	8820      	ldrh	r0, [r4, #0]
 8003b4a:	1ac0      	subs	r0, r0, r3
 8003b4c:	f7fd f8a6 	bl	8000c9c <__aeabi_i2f>
 8003b50:	4a6a      	ldr	r2, [pc, #424]	; (8003cfc <main+0xfa4>)
 8003b52:	4603      	mov	r3, r0
 8003b54:	4955      	ldr	r1, [pc, #340]	; (8003cac <main+0xf54>)
 8003b56:	4856      	ldr	r0, [pc, #344]	; (8003cb0 <main+0xf58>)
 8003b58:	f7fe ffe2 	bl	8002b20 <sendToZabbix>
 8003b5c:	f8bb 2000 	ldrh.w	r2, [fp]
 8003b60:	8823      	ldrh	r3, [r4, #0]
 8003b62:	1a9b      	subs	r3, r3, r2
 8003b64:	931b      	str	r3, [sp, #108]	; 0x6c
 8003b66:	f8b9 2000 	ldrh.w	r2, [r9]
 8003b6a:	f8ba 3000 	ldrh.w	r3, [sl]
 8003b6e:	1a9b      	subs	r3, r3, r2
 8003b70:	931a      	str	r3, [sp, #104]	; 0x68
 8003b72:	f8d8 0000 	ldr.w	r0, [r8]
 8003b76:	f7fc fc57 	bl	8000428 <__aeabi_f2d>
 8003b7a:	e9cd 0118 	strd	r0, r1, [sp, #96]	; 0x60
 8003b7e:	6838      	ldr	r0, [r7, #0]
 8003b80:	f7fc fc52 	bl	8000428 <__aeabi_f2d>
 8003b84:	e9cd 0116 	strd	r0, r1, [sp, #88]	; 0x58
 8003b88:	6830      	ldr	r0, [r6, #0]
 8003b8a:	f7fc fc4d 	bl	8000428 <__aeabi_f2d>
 8003b8e:	e9cd 0114 	strd	r0, r1, [sp, #80]	; 0x50
 8003b92:	6828      	ldr	r0, [r5, #0]
 8003b94:	f7fc fc48 	bl	8000428 <__aeabi_f2d>
 8003b98:	e9cd 0112 	strd	r0, r1, [sp, #72]	; 0x48
 8003b9c:	4b3f      	ldr	r3, [pc, #252]	; (8003c9c <main+0xf44>)
 8003b9e:	6818      	ldr	r0, [r3, #0]
 8003ba0:	f7fc fc42 	bl	8000428 <__aeabi_f2d>
 8003ba4:	e9cd 0110 	strd	r0, r1, [sp, #64]	; 0x40
 8003ba8:	4b3a      	ldr	r3, [pc, #232]	; (8003c94 <main+0xf3c>)
 8003baa:	6818      	ldr	r0, [r3, #0]
 8003bac:	f7fc fc3c 	bl	8000428 <__aeabi_f2d>
 8003bb0:	e9cd 010e 	strd	r0, r1, [sp, #56]	; 0x38
 8003bb4:	4b36      	ldr	r3, [pc, #216]	; (8003c90 <main+0xf38>)
 8003bb6:	6818      	ldr	r0, [r3, #0]
 8003bb8:	f7fc fc36 	bl	8000428 <__aeabi_f2d>
 8003bbc:	e9cd 010c 	strd	r0, r1, [sp, #48]	; 0x30
 8003bc0:	4b43      	ldr	r3, [pc, #268]	; (8003cd0 <main+0xf78>)
 8003bc2:	494f      	ldr	r1, [pc, #316]	; (8003d00 <main+0xfa8>)
 8003bc4:	e9d3 2300 	ldrd	r2, r3, [r3]
 8003bc8:	e9cd 230a 	strd	r2, r3, [sp, #40]	; 0x28
 8003bcc:	4b4d      	ldr	r3, [pc, #308]	; (8003d04 <main+0xfac>)
 8003bce:	484e      	ldr	r0, [pc, #312]	; (8003d08 <main+0xfb0>)
 8003bd0:	e9d3 2300 	ldrd	r2, r3, [r3]
 8003bd4:	e9cd 2308 	strd	r2, r3, [sp, #32]
 8003bd8:	4b4c      	ldr	r3, [pc, #304]	; (8003d0c <main+0xfb4>)
 8003bda:	e9d3 2300 	ldrd	r2, r3, [r3]
 8003bde:	e9cd 2306 	strd	r2, r3, [sp, #24]
 8003be2:	4b38      	ldr	r3, [pc, #224]	; (8003cc4 <main+0xf6c>)
 8003be4:	e9d3 2300 	ldrd	r2, r3, [r3]
 8003be8:	e9cd 2304 	strd	r2, r3, [sp, #16]
 8003bec:	4b48      	ldr	r3, [pc, #288]	; (8003d10 <main+0xfb8>)
 8003bee:	e9d3 2300 	ldrd	r2, r3, [r3]
 8003bf2:	e9cd 2302 	strd	r2, r3, [sp, #8]
 8003bf6:	4b47      	ldr	r3, [pc, #284]	; (8003d14 <main+0xfbc>)
 8003bf8:	e9d3 2300 	ldrd	r2, r3, [r3]
 8003bfc:	e9cd 2300 	strd	r2, r3, [sp]
 8003c00:	4b2f      	ldr	r3, [pc, #188]	; (8003cc0 <main+0xf68>)
 8003c02:	e9d3 2300 	ldrd	r2, r3, [r3]
 8003c06:	f004 ff87 	bl	8008b18 <siprintf>
 8003c0a:	f44f 737a 	mov.w	r3, #1000	; 0x3e8
 8003c0e:	22c8      	movs	r2, #200	; 0xc8
 8003c10:	493d      	ldr	r1, [pc, #244]	; (8003d08 <main+0xfb0>)
 8003c12:	4841      	ldr	r0, [pc, #260]	; (8003d18 <main+0xfc0>)
 8003c14:	f004 fa3a 	bl	800808c <HAL_UART_Transmit>
 8003c18:	2200      	movs	r2, #0
 8003c1a:	4b28      	ldr	r3, [pc, #160]	; (8003cbc <main+0xf64>)
 8003c1c:	e6b8      	b.n	8003990 <main+0xc38>
 8003c1e:	483f      	ldr	r0, [pc, #252]	; (8003d1c <main+0xfc4>)
 8003c20:	f002 fbaa 	bl	8006378 <HAL_I2C_DeInit>
 8003c24:	f7fe fe2a 	bl	800287c <MX_I2C1_Init>
 8003c28:	f7fd fea4 	bl	8001974 <BME280_Init>
 8003c2c:	e71a      	b.n	8003a64 <main+0xd0c>
 8003c2e:	e9d5 0100 	ldrd	r0, r1, [r5]
 8003c32:	f7fc fec3 	bl	80009bc <__aeabi_dcmplt>
 8003c36:	2800      	cmp	r0, #0
 8003c38:	f43f af53 	beq.w	8003ae2 <main+0xd8a>
 8003c3c:	2300      	movs	r3, #0
 8003c3e:	4a23      	ldr	r2, [pc, #140]	; (8003ccc <main+0xf74>)
 8003c40:	e741      	b.n	8003ac6 <main+0xd6e>
 8003c42:	2b74      	cmp	r3, #116	; 0x74
 8003c44:	f040 8088 	bne.w	8003d58 <main+0x1000>
 8003c48:	4835      	ldr	r0, [pc, #212]	; (8003d20 <main+0xfc8>)
 8003c4a:	f003 fc0d 	bl	8007468 <HAL_TIM_Base_Stop_IT>
 8003c4e:	2100      	movs	r1, #0
 8003c50:	4834      	ldr	r0, [pc, #208]	; (8003d24 <main+0xfcc>)
 8003c52:	f004 f8eb 	bl	8007e2c <HAL_TIM_IC_Stop_IT>
 8003c56:	2104      	movs	r1, #4
 8003c58:	4832      	ldr	r0, [pc, #200]	; (8003d24 <main+0xfcc>)
 8003c5a:	f004 f8e7 	bl	8007e2c <HAL_TIM_IC_Stop_IT>
 8003c5e:	f44f 737a 	mov.w	r3, #1000	; 0x3e8
 8003c62:	2210      	movs	r2, #16
 8003c64:	4930      	ldr	r1, [pc, #192]	; (8003d28 <main+0xfd0>)
 8003c66:	482c      	ldr	r0, [pc, #176]	; (8003d18 <main+0xfc0>)
 8003c68:	f004 fa10 	bl	800808c <HAL_UART_Transmit>
 8003c6c:	2301      	movs	r3, #1
 8003c6e:	4a2f      	ldr	r2, [pc, #188]	; (8003d2c <main+0xfd4>)
 8003c70:	492f      	ldr	r1, [pc, #188]	; (8003d30 <main+0xfd8>)
 8003c72:	8013      	strh	r3, [r2, #0]
 8003c74:	2200      	movs	r2, #0
 8003c76:	800a      	strh	r2, [r1, #0]
 8003c78:	492e      	ldr	r1, [pc, #184]	; (8003d34 <main+0xfdc>)
 8003c7a:	700b      	strb	r3, [r1, #0]
 8003c7c:	492e      	ldr	r1, [pc, #184]	; (8003d38 <main+0xfe0>)
 8003c7e:	700b      	strb	r3, [r1, #0]
 8003c80:	492e      	ldr	r1, [pc, #184]	; (8003d3c <main+0xfe4>)
 8003c82:	700b      	strb	r3, [r1, #0]
 8003c84:	492e      	ldr	r1, [pc, #184]	; (8003d40 <main+0xfe8>)
 8003c86:	700b      	strb	r3, [r1, #0]
 8003c88:	492e      	ldr	r1, [pc, #184]	; (8003d44 <main+0xfec>)
 8003c8a:	700b      	strb	r3, [r1, #0]
 8003c8c:	e550      	b.n	8003730 <main+0x9d8>
 8003c8e:	bf00      	nop
 8003c90:	200005f8 	.word	0x200005f8
 8003c94:	20000608 	.word	0x20000608
 8003c98:	3bf5c7e8 	.word	0x3bf5c7e8
 8003c9c:	20000638 	.word	0x20000638
 8003ca0:	42700000 	.word	0x42700000
 8003ca4:	c2200000 	.word	0xc2200000
 8003ca8:	0800b8d7 	.word	0x0800b8d7
 8003cac:	20000cd8 	.word	0x20000cd8
 8003cb0:	20000032 	.word	0x20000032
 8003cb4:	0800b8e9 	.word	0x0800b8e9
 8003cb8:	0800b8f8 	.word	0x0800b8f8
 8003cbc:	20000dec 	.word	0x20000dec
 8003cc0:	20000640 	.word	0x20000640
 8003cc4:	200005a8 	.word	0x200005a8
 8003cc8:	40440000 	.word	0x40440000
 8003ccc:	0800b907 	.word	0x0800b907
 8003cd0:	200005d0 	.word	0x200005d0
 8003cd4:	0800b913 	.word	0x0800b913
 8003cd8:	0800b920 	.word	0x0800b920
 8003cdc:	20000ddc 	.word	0x20000ddc
 8003ce0:	200007ec 	.word	0x200007ec
 8003ce4:	0800b92f 	.word	0x0800b92f
 8003ce8:	20000b2c 	.word	0x20000b2c
 8003cec:	0800b932 	.word	0x0800b932
 8003cf0:	0800b935 	.word	0x0800b935
 8003cf4:	0800b938 	.word	0x0800b938
 8003cf8:	0800b93b 	.word	0x0800b93b
 8003cfc:	0800b93e 	.word	0x0800b93e
 8003d00:	0800b941 	.word	0x0800b941
 8003d04:	200007f0 	.word	0x200007f0
 8003d08:	20000484 	.word	0x20000484
 8003d0c:	20000b40 	.word	0x20000b40
 8003d10:	20000598 	.word	0x20000598
 8003d14:	20000650 	.word	0x20000650
 8003d18:	20001364 	.word	0x20001364
 8003d1c:	200012b4 	.word	0x200012b4
 8003d20:	2000126c 	.word	0x2000126c
 8003d24:	200013f4 	.word	0x200013f4
 8003d28:	0800b9f5 	.word	0x0800b9f5
 8003d2c:	20000b30 	.word	0x20000b30
 8003d30:	20000b38 	.word	0x20000b38
 8003d34:	20000658 	.word	0x20000658
 8003d38:	200005fc 	.word	0x200005fc
 8003d3c:	20000630 	.word	0x20000630
 8003d40:	20000dd7 	.word	0x20000dd7
 8003d44:	200005b6 	.word	0x200005b6
 8003d48:	20000de8 	.word	0x20000de8
 8003d4c:	200005b4 	.word	0x200005b4
 8003d50:	20000dee 	.word	0x20000dee
 8003d54:	2000064e 	.word	0x2000064e
 8003d58:	2b72      	cmp	r3, #114	; 0x72
 8003d5a:	f47f acee 	bne.w	800373a <main+0x9e2>
 8003d5e:	4813      	ldr	r0, [pc, #76]	; (8003dac <main+0x1054>)
 8003d60:	f003 fb82 	bl	8007468 <HAL_TIM_Base_Stop_IT>
 8003d64:	2100      	movs	r1, #0
 8003d66:	4812      	ldr	r0, [pc, #72]	; (8003db0 <main+0x1058>)
 8003d68:	f004 f860 	bl	8007e2c <HAL_TIM_IC_Stop_IT>
 8003d6c:	2104      	movs	r1, #4
 8003d6e:	4810      	ldr	r0, [pc, #64]	; (8003db0 <main+0x1058>)
 8003d70:	f004 f85c 	bl	8007e2c <HAL_TIM_IC_Stop_IT>
 8003d74:	f44f 737a 	mov.w	r3, #1000	; 0x3e8
 8003d78:	2221      	movs	r2, #33	; 0x21
 8003d7a:	490e      	ldr	r1, [pc, #56]	; (8003db4 <main+0x105c>)
 8003d7c:	480e      	ldr	r0, [pc, #56]	; (8003db8 <main+0x1060>)
 8003d7e:	f004 f985 	bl	800808c <HAL_UART_Transmit>
 8003d82:	2000      	movs	r0, #0
 8003d84:	4b0d      	ldr	r3, [pc, #52]	; (8003dbc <main+0x1064>)
 8003d86:	4a0e      	ldr	r2, [pc, #56]	; (8003dc0 <main+0x1068>)
 8003d88:	7018      	strb	r0, [r3, #0]
 8003d8a:	2301      	movs	r3, #1
 8003d8c:	7013      	strb	r3, [r2, #0]
 8003d8e:	4a0d      	ldr	r2, [pc, #52]	; (8003dc4 <main+0x106c>)
 8003d90:	7013      	strb	r3, [r2, #0]
 8003d92:	4a0d      	ldr	r2, [pc, #52]	; (8003dc8 <main+0x1070>)
 8003d94:	7013      	strb	r3, [r2, #0]
 8003d96:	4a0d      	ldr	r2, [pc, #52]	; (8003dcc <main+0x1074>)
 8003d98:	7013      	strb	r3, [r2, #0]
 8003d9a:	4b0d      	ldr	r3, [pc, #52]	; (8003dd0 <main+0x1078>)
 8003d9c:	8018      	strh	r0, [r3, #0]
 8003d9e:	4b0d      	ldr	r3, [pc, #52]	; (8003dd4 <main+0x107c>)
 8003da0:	8018      	strh	r0, [r3, #0]
 8003da2:	4b0d      	ldr	r3, [pc, #52]	; (8003dd8 <main+0x1080>)
 8003da4:	8018      	strh	r0, [r3, #0]
 8003da6:	f7fe fd87 	bl	80028b8 <rwFlash>
 8003daa:	e4c3      	b.n	8003734 <main+0x9dc>
 8003dac:	2000126c 	.word	0x2000126c
 8003db0:	200013f4 	.word	0x200013f4
 8003db4:	0800ba05 	.word	0x0800ba05
 8003db8:	20001364 	.word	0x20001364
 8003dbc:	20000658 	.word	0x20000658
 8003dc0:	200005fc 	.word	0x200005fc
 8003dc4:	20000630 	.word	0x20000630
 8003dc8:	20000dd7 	.word	0x20000dd7
 8003dcc:	200005b6 	.word	0x200005b6
 8003dd0:	20000b30 	.word	0x20000b30
 8003dd4:	20000b38 	.word	0x20000b38
 8003dd8:	200005c8 	.word	0x200005c8

08003ddc <HAL_TIM_IC_CaptureCallback>:
 8003ddc:	b538      	push	{r3, r4, r5, lr}
 8003dde:	4d37      	ldr	r5, [pc, #220]	; (8003ebc <HAL_TIM_IC_CaptureCallback+0xe0>)
 8003de0:	682a      	ldr	r2, [r5, #0]
 8003de2:	2a00      	cmp	r2, #0
 8003de4:	d053      	beq.n	8003e8e <HAL_TIM_IC_CaptureCallback+0xb2>
 8003de6:	6803      	ldr	r3, [r0, #0]
 8003de8:	f1b3 4f80 	cmp.w	r3, #1073741824	; 0x40000000
 8003dec:	d14f      	bne.n	8003e8e <HAL_TIM_IC_CaptureCallback+0xb2>
 8003dee:	7f03      	ldrb	r3, [r0, #28]
 8003df0:	1e59      	subs	r1, r3, #1
 8003df2:	2901      	cmp	r1, #1
 8003df4:	d84b      	bhi.n	8003e8e <HAL_TIM_IC_CaptureCallback+0xb2>
 8003df6:	2a1b      	cmp	r2, #27
 8003df8:	d93d      	bls.n	8003e76 <HAL_TIM_IC_CaptureCallback+0x9a>
 8003dfa:	2b01      	cmp	r3, #1
 8003dfc:	d147      	bne.n	8003e8e <HAL_TIM_IC_CaptureCallback+0xb2>
 8003dfe:	2100      	movs	r1, #0
 8003e00:	482f      	ldr	r0, [pc, #188]	; (8003ec0 <HAL_TIM_IC_CaptureCallback+0xe4>)
 8003e02:	f003 fb4c 	bl	800749e <HAL_TIM_ReadCapturedValue>
 8003e06:	4b2f      	ldr	r3, [pc, #188]	; (8003ec4 <HAL_TIM_IC_CaptureCallback+0xe8>)
 8003e08:	682c      	ldr	r4, [r5, #0]
 8003e0a:	681a      	ldr	r2, [r3, #0]
 8003e0c:	b280      	uxth	r0, r0
 8003e0e:	4410      	add	r0, r2
 8003e10:	3c01      	subs	r4, #1
 8003e12:	6018      	str	r0, [r3, #0]
 8003e14:	602c      	str	r4, [r5, #0]
 8003e16:	2c00      	cmp	r4, #0
 8003e18:	d139      	bne.n	8003e8e <HAL_TIM_IC_CaptureCallback+0xb2>
 8003e1a:	2201      	movs	r2, #1
 8003e1c:	2180      	movs	r1, #128	; 0x80
 8003e1e:	482a      	ldr	r0, [pc, #168]	; (8003ec8 <HAL_TIM_IC_CaptureCallback+0xec>)
 8003e20:	f002 f822 	bl	8005e68 <HAL_GPIO_WritePin>
 8003e24:	4622      	mov	r2, r4
 8003e26:	2180      	movs	r1, #128	; 0x80
 8003e28:	4827      	ldr	r0, [pc, #156]	; (8003ec8 <HAL_TIM_IC_CaptureCallback+0xec>)
 8003e2a:	f002 f81d 	bl	8005e68 <HAL_GPIO_WritePin>
 8003e2e:	4621      	mov	r1, r4
 8003e30:	4823      	ldr	r0, [pc, #140]	; (8003ec0 <HAL_TIM_IC_CaptureCallback+0xe4>)
 8003e32:	f003 fffb 	bl	8007e2c <HAL_TIM_IC_Stop_IT>
 8003e36:	2104      	movs	r1, #4
 8003e38:	4821      	ldr	r0, [pc, #132]	; (8003ec0 <HAL_TIM_IC_CaptureCallback+0xe4>)
 8003e3a:	f003 fff7 	bl	8007e2c <HAL_TIM_IC_Stop_IT>
 8003e3e:	211c      	movs	r1, #28
 8003e40:	4b20      	ldr	r3, [pc, #128]	; (8003ec4 <HAL_TIM_IC_CaptureCallback+0xe8>)
 8003e42:	681a      	ldr	r2, [r3, #0]
 8003e44:	fbb2 f2f1 	udiv	r2, r2, r1
 8003e48:	f5a2 5228 	sub.w	r2, r2, #10752	; 0x2a00
 8003e4c:	3a30      	subs	r2, #48	; 0x30
 8003e4e:	f5b2 6fc8 	cmp.w	r2, #1600	; 0x640
 8003e52:	bf88      	it	hi
 8003e54:	f44f 62c8 	movhi.w	r2, #1600	; 0x640
 8003e58:	491c      	ldr	r1, [pc, #112]	; (8003ecc <HAL_TIM_IC_CaptureCallback+0xf0>)
 8003e5a:	601a      	str	r2, [r3, #0]
 8003e5c:	68ca      	ldr	r2, [r1, #12]
 8003e5e:	f042 021e 	orr.w	r2, r2, #30
 8003e62:	60ca      	str	r2, [r1, #12]
 8003e64:	4a1a      	ldr	r2, [pc, #104]	; (8003ed0 <HAL_TIM_IC_CaptureCallback+0xf4>)
 8003e66:	8812      	ldrh	r2, [r2, #0]
 8003e68:	3a01      	subs	r2, #1
 8003e6a:	2a03      	cmp	r2, #3
 8003e6c:	d80f      	bhi.n	8003e8e <HAL_TIM_IC_CaptureCallback+0xb2>
 8003e6e:	e8df f002 	tbb	[pc, r2]
 8003e72:	0f06      	.short	0x0f06
 8003e74:	1d16      	.short	0x1d16
 8003e76:	2b01      	cmp	r3, #1
 8003e78:	d0c1      	beq.n	8003dfe <HAL_TIM_IC_CaptureCallback+0x22>
 8003e7a:	2104      	movs	r1, #4
 8003e7c:	e7c0      	b.n	8003e00 <HAL_TIM_IC_CaptureCallback+0x24>
 8003e7e:	4a15      	ldr	r2, [pc, #84]	; (8003ed4 <HAL_TIM_IC_CaptureCallback+0xf8>)
 8003e80:	6818      	ldr	r0, [r3, #0]
 8003e82:	8814      	ldrh	r4, [r2, #0]
 8003e84:	f7fc ff06 	bl	8000c94 <__aeabi_ui2f>
 8003e88:	4b13      	ldr	r3, [pc, #76]	; (8003ed8 <HAL_TIM_IC_CaptureCallback+0xfc>)
 8003e8a:	f843 0024 	str.w	r0, [r3, r4, lsl #2]
 8003e8e:	bd38      	pop	{r3, r4, r5, pc}
 8003e90:	4a10      	ldr	r2, [pc, #64]	; (8003ed4 <HAL_TIM_IC_CaptureCallback+0xf8>)
 8003e92:	6818      	ldr	r0, [r3, #0]
 8003e94:	8814      	ldrh	r4, [r2, #0]
 8003e96:	f7fc fefd 	bl	8000c94 <__aeabi_ui2f>
 8003e9a:	4b10      	ldr	r3, [pc, #64]	; (8003edc <HAL_TIM_IC_CaptureCallback+0x100>)
 8003e9c:	e7f5      	b.n	8003e8a <HAL_TIM_IC_CaptureCallback+0xae>
 8003e9e:	4a0d      	ldr	r2, [pc, #52]	; (8003ed4 <HAL_TIM_IC_CaptureCallback+0xf8>)
 8003ea0:	6818      	ldr	r0, [r3, #0]
 8003ea2:	8814      	ldrh	r4, [r2, #0]
 8003ea4:	f7fc fef6 	bl	8000c94 <__aeabi_ui2f>
 8003ea8:	4b0d      	ldr	r3, [pc, #52]	; (8003ee0 <HAL_TIM_IC_CaptureCallback+0x104>)
 8003eaa:	e7ee      	b.n	8003e8a <HAL_TIM_IC_CaptureCallback+0xae>
 8003eac:	4a09      	ldr	r2, [pc, #36]	; (8003ed4 <HAL_TIM_IC_CaptureCallback+0xf8>)
 8003eae:	6818      	ldr	r0, [r3, #0]
 8003eb0:	8814      	ldrh	r4, [r2, #0]
 8003eb2:	f7fc feef 	bl	8000c94 <__aeabi_ui2f>
 8003eb6:	4b0b      	ldr	r3, [pc, #44]	; (8003ee4 <HAL_TIM_IC_CaptureCallback+0x108>)
 8003eb8:	e7e7      	b.n	8003e8a <HAL_TIM_IC_CaptureCallback+0xae>
 8003eba:	bf00      	nop
 8003ebc:	20000648 	.word	0x20000648
 8003ec0:	200013f4 	.word	0x200013f4
 8003ec4:	20000634 	.word	0x20000634
 8003ec8:	40010800 	.word	0x40010800
 8003ecc:	40010c00 	.word	0x40010c00
 8003ed0:	2000098e 	.word	0x2000098e
 8003ed4:	200005c8 	.word	0x200005c8
 8003ed8:	2000065c 	.word	0x2000065c
 8003edc:	20000b48 	.word	0x20000b48
 8003ee0:	200007fc 	.word	0x200007fc
 8003ee4:	20000998 	.word	0x20000998

08003ee8 <close>:
 8003ee8:	2808      	cmp	r0, #8
 8003eea:	b5f8      	push	{r3, r4, r5, r6, r7, lr}
 8003eec:	4604      	mov	r4, r0
 8003eee:	d82d      	bhi.n	8003f4c <close+0x64>
 8003ef0:	0147      	lsls	r7, r0, #5
 8003ef2:	f107 0608 	add.w	r6, r7, #8
 8003ef6:	f507 7784 	add.w	r7, r7, #264	; 0x108
 8003efa:	2110      	movs	r1, #16
 8003efc:	4638      	mov	r0, r7
 8003efe:	f001 f9e7 	bl	80052d0 <WIZCHIP_WRITE>
 8003f02:	4638      	mov	r0, r7
 8003f04:	f001 f9b6 	bl	8005274 <WIZCHIP_READ>
 8003f08:	4605      	mov	r5, r0
 8003f0a:	2800      	cmp	r0, #0
 8003f0c:	d1f9      	bne.n	8003f02 <close+0x1a>
 8003f0e:	211f      	movs	r1, #31
 8003f10:	f506 7000 	add.w	r0, r6, #512	; 0x200
 8003f14:	f001 f9dc 	bl	80052d0 <WIZCHIP_WRITE>
 8003f18:	2301      	movs	r3, #1
 8003f1a:	40a3      	lsls	r3, r4
 8003f1c:	43db      	mvns	r3, r3
 8003f1e:	490d      	ldr	r1, [pc, #52]	; (8003f54 <close+0x6c>)
 8003f20:	b21b      	sxth	r3, r3
 8003f22:	880a      	ldrh	r2, [r1, #0]
 8003f24:	f506 7640 	add.w	r6, r6, #768	; 0x300
 8003f28:	401a      	ands	r2, r3
 8003f2a:	800a      	strh	r2, [r1, #0]
 8003f2c:	4a0a      	ldr	r2, [pc, #40]	; (8003f58 <close+0x70>)
 8003f2e:	8811      	ldrh	r1, [r2, #0]
 8003f30:	400b      	ands	r3, r1
 8003f32:	8013      	strh	r3, [r2, #0]
 8003f34:	4b09      	ldr	r3, [pc, #36]	; (8003f5c <close+0x74>)
 8003f36:	f823 5014 	strh.w	r5, [r3, r4, lsl #1]
 8003f3a:	4b09      	ldr	r3, [pc, #36]	; (8003f60 <close+0x78>)
 8003f3c:	551d      	strb	r5, [r3, r4]
 8003f3e:	4630      	mov	r0, r6
 8003f40:	f001 f998 	bl	8005274 <WIZCHIP_READ>
 8003f44:	2800      	cmp	r0, #0
 8003f46:	d1fa      	bne.n	8003f3e <close+0x56>
 8003f48:	2001      	movs	r0, #1
 8003f4a:	bdf8      	pop	{r3, r4, r5, r6, r7, pc}
 8003f4c:	f04f 30ff 	mov.w	r0, #4294967295	; 0xffffffff
 8003f50:	e7fb      	b.n	8003f4a <close+0x62>
 8003f52:	bf00      	nop
 8003f54:	20000558 	.word	0x20000558
 8003f58:	2000055a 	.word	0x2000055a
 8003f5c:	20000564 	.word	0x20000564
 8003f60:	2000055c 	.word	0x2000055c

08003f64 <socket>:
 8003f64:	2808      	cmp	r0, #8
 8003f66:	e92d 41f3 	stmdb	sp!, {r0, r1, r4, r5, r6, r7, r8, lr}
 8003f6a:	4604      	mov	r4, r0
 8003f6c:	4688      	mov	r8, r1
 8003f6e:	4617      	mov	r7, r2
 8003f70:	461d      	mov	r5, r3
 8003f72:	d87c      	bhi.n	800406e <socket+0x10a>
 8003f74:	2901      	cmp	r1, #1
 8003f76:	d005      	beq.n	8003f84 <socket+0x20>
 8003f78:	1e8b      	subs	r3, r1, #2
 8003f7a:	2b02      	cmp	r3, #2
 8003f7c:	d910      	bls.n	8003fa0 <socket+0x3c>
 8003f7e:	f06f 0004 	mvn.w	r0, #4
 8003f82:	e00a      	b.n	8003f9a <socket+0x36>
 8003f84:	2204      	movs	r2, #4
 8003f86:	f44f 6070 	mov.w	r0, #3840	; 0xf00
 8003f8a:	eb0d 0102 	add.w	r1, sp, r2
 8003f8e:	f001 f9d1 	bl	8005334 <WIZCHIP_READ_BUF>
 8003f92:	9b01      	ldr	r3, [sp, #4]
 8003f94:	b923      	cbnz	r3, 8003fa0 <socket+0x3c>
 8003f96:	f06f 0002 	mvn.w	r0, #2
 8003f9a:	b002      	add	sp, #8
 8003f9c:	e8bd 81f0 	ldmia.w	sp!, {r4, r5, r6, r7, r8, pc}
 8003fa0:	0768      	lsls	r0, r5, #29
 8003fa2:	d457      	bmi.n	8004054 <socket+0xf0>
 8003fa4:	b12d      	cbz	r5, 8003fb2 <socket+0x4e>
 8003fa6:	f1b8 0f01 	cmp.w	r8, #1
 8003faa:	d050      	beq.n	800404e <socket+0xea>
 8003fac:	f1b8 0f02 	cmp.w	r8, #2
 8003fb0:	d053      	beq.n	800405a <socket+0xf6>
 8003fb2:	4620      	mov	r0, r4
 8003fb4:	0166      	lsls	r6, r4, #5
 8003fb6:	f7ff ff97 	bl	8003ee8 <close>
 8003fba:	3608      	adds	r6, #8
 8003fbc:	f025 010f 	bic.w	r1, r5, #15
 8003fc0:	4630      	mov	r0, r6
 8003fc2:	ea41 0108 	orr.w	r1, r1, r8
 8003fc6:	f001 f983 	bl	80052d0 <WIZCHIP_WRITE>
 8003fca:	b96f      	cbnz	r7, 8003fe8 <socket+0x84>
 8003fcc:	f64f 71f0 	movw	r1, #65520	; 0xfff0
 8003fd0:	4a28      	ldr	r2, [pc, #160]	; (8004074 <socket+0x110>)
 8003fd2:	8817      	ldrh	r7, [r2, #0]
 8003fd4:	1c7b      	adds	r3, r7, #1
 8003fd6:	b29b      	uxth	r3, r3
 8003fd8:	428b      	cmp	r3, r1
 8003fda:	bf05      	ittet	eq
 8003fdc:	f44f 4340 	moveq.w	r3, #49152	; 0xc000
 8003fe0:	f64f 77ef 	movweq	r7, #65519	; 0xffef
 8003fe4:	8013      	strhne	r3, [r2, #0]
 8003fe6:	8013      	strheq	r3, [r2, #0]
 8003fe8:	0a39      	lsrs	r1, r7, #8
 8003fea:	f506 6080 	add.w	r0, r6, #1024	; 0x400
 8003fee:	f001 f96f 	bl	80052d0 <WIZCHIP_WRITE>
 8003ff2:	b2f9      	uxtb	r1, r7
 8003ff4:	f506 60a0 	add.w	r0, r6, #1280	; 0x500
 8003ff8:	f506 7780 	add.w	r7, r6, #256	; 0x100
 8003ffc:	f001 f968 	bl	80052d0 <WIZCHIP_WRITE>
 8004000:	2101      	movs	r1, #1
 8004002:	4638      	mov	r0, r7
 8004004:	f001 f964 	bl	80052d0 <WIZCHIP_WRITE>
 8004008:	4638      	mov	r0, r7
 800400a:	f001 f933 	bl	8005274 <WIZCHIP_READ>
 800400e:	2800      	cmp	r0, #0
 8004010:	d1fa      	bne.n	8004008 <socket+0xa4>
 8004012:	2301      	movs	r3, #1
 8004014:	40a3      	lsls	r3, r4
 8004016:	43db      	mvns	r3, r3
 8004018:	4917      	ldr	r1, [pc, #92]	; (8004078 <socket+0x114>)
 800401a:	b21b      	sxth	r3, r3
 800401c:	880a      	ldrh	r2, [r1, #0]
 800401e:	f005 0501 	and.w	r5, r5, #1
 8004022:	401a      	ands	r2, r3
 8004024:	40a5      	lsls	r5, r4
 8004026:	4315      	orrs	r5, r2
 8004028:	4a14      	ldr	r2, [pc, #80]	; (800407c <socket+0x118>)
 800402a:	800d      	strh	r5, [r1, #0]
 800402c:	8811      	ldrh	r1, [r2, #0]
 800402e:	f506 7640 	add.w	r6, r6, #768	; 0x300
 8004032:	400b      	ands	r3, r1
 8004034:	8013      	strh	r3, [r2, #0]
 8004036:	4b12      	ldr	r3, [pc, #72]	; (8004080 <socket+0x11c>)
 8004038:	f823 0014 	strh.w	r0, [r3, r4, lsl #1]
 800403c:	4b11      	ldr	r3, [pc, #68]	; (8004084 <socket+0x120>)
 800403e:	5518      	strb	r0, [r3, r4]
 8004040:	4630      	mov	r0, r6
 8004042:	f001 f917 	bl	8005274 <WIZCHIP_READ>
 8004046:	2800      	cmp	r0, #0
 8004048:	d0fa      	beq.n	8004040 <socket+0xdc>
 800404a:	b260      	sxtb	r0, r4
 800404c:	e7a5      	b.n	8003f9a <socket+0x36>
 800404e:	f015 0f21 	tst.w	r5, #33	; 0x21
 8004052:	d1ae      	bne.n	8003fb2 <socket+0x4e>
 8004054:	f06f 0005 	mvn.w	r0, #5
 8004058:	e79f      	b.n	8003f9a <socket+0x36>
 800405a:	06a9      	lsls	r1, r5, #26
 800405c:	b26b      	sxtb	r3, r5
 800405e:	d501      	bpl.n	8004064 <socket+0x100>
 8004060:	2b00      	cmp	r3, #0
 8004062:	daf7      	bge.n	8004054 <socket+0xf0>
 8004064:	06ea      	lsls	r2, r5, #27
 8004066:	d5a4      	bpl.n	8003fb2 <socket+0x4e>
 8004068:	2b00      	cmp	r3, #0
 800406a:	dba2      	blt.n	8003fb2 <socket+0x4e>
 800406c:	e7f2      	b.n	8004054 <socket+0xf0>
 800406e:	f04f 30ff 	mov.w	r0, #4294967295	; 0xffffffff
 8004072:	e792      	b.n	8003f9a <socket+0x36>
 8004074:	20000136 	.word	0x20000136
 8004078:	20000558 	.word	0x20000558
 800407c:	2000055a 	.word	0x2000055a
 8004080:	20000564 	.word	0x20000564
 8004084:	2000055c 	.word	0x2000055c

08004088 <connect>:
 8004088:	2808      	cmp	r0, #8
 800408a:	e92d 41f0 	stmdb	sp!, {r4, r5, r6, r7, r8, lr}
 800408e:	4606      	mov	r6, r0
 8004090:	460d      	mov	r5, r1
 8004092:	4617      	mov	r7, r2
 8004094:	d85d      	bhi.n	8004152 <connect+0xca>
 8004096:	0144      	lsls	r4, r0, #5
 8004098:	3408      	adds	r4, #8
 800409a:	4620      	mov	r0, r4
 800409c:	f001 f8ea 	bl	8005274 <WIZCHIP_READ>
 80040a0:	f000 000f 	and.w	r0, r0, #15
 80040a4:	2801      	cmp	r0, #1
 80040a6:	d157      	bne.n	8004158 <connect+0xd0>
 80040a8:	f504 7840 	add.w	r8, r4, #768	; 0x300
 80040ac:	4640      	mov	r0, r8
 80040ae:	f001 f8e1 	bl	8005274 <WIZCHIP_READ>
 80040b2:	2813      	cmp	r0, #19
 80040b4:	d153      	bne.n	800415e <connect+0xd6>
 80040b6:	782b      	ldrb	r3, [r5, #0]
 80040b8:	786a      	ldrb	r2, [r5, #1]
 80040ba:	eb02 2203 	add.w	r2, r2, r3, lsl #8
 80040be:	78ab      	ldrb	r3, [r5, #2]
 80040c0:	eb03 2202 	add.w	r2, r3, r2, lsl #8
 80040c4:	78eb      	ldrb	r3, [r5, #3]
 80040c6:	3b01      	subs	r3, #1
 80040c8:	eb03 2302 	add.w	r3, r3, r2, lsl #8
 80040cc:	3303      	adds	r3, #3
 80040ce:	d849      	bhi.n	8004164 <connect+0xdc>
 80040d0:	2f00      	cmp	r7, #0
 80040d2:	d04a      	beq.n	800416a <connect+0xe2>
 80040d4:	2204      	movs	r2, #4
 80040d6:	4629      	mov	r1, r5
 80040d8:	f504 6040 	add.w	r0, r4, #3072	; 0xc00
 80040dc:	f001 f964 	bl	80053a8 <WIZCHIP_WRITE_BUF>
 80040e0:	0a39      	lsrs	r1, r7, #8
 80040e2:	f504 5080 	add.w	r0, r4, #4096	; 0x1000
 80040e6:	f001 f8f3 	bl	80052d0 <WIZCHIP_WRITE>
 80040ea:	f504 7580 	add.w	r5, r4, #256	; 0x100
 80040ee:	b2f9      	uxtb	r1, r7
 80040f0:	f504 5088 	add.w	r0, r4, #4352	; 0x1100
 80040f4:	f001 f8ec 	bl	80052d0 <WIZCHIP_WRITE>
 80040f8:	2104      	movs	r1, #4
 80040fa:	4628      	mov	r0, r5
 80040fc:	f001 f8e8 	bl	80052d0 <WIZCHIP_WRITE>
 8004100:	4628      	mov	r0, r5
 8004102:	f001 f8b7 	bl	8005274 <WIZCHIP_READ>
 8004106:	2800      	cmp	r0, #0
 8004108:	d1fa      	bne.n	8004100 <connect+0x78>
 800410a:	4b19      	ldr	r3, [pc, #100]	; (8004170 <connect+0xe8>)
 800410c:	881b      	ldrh	r3, [r3, #0]
 800410e:	fa43 f606 	asr.w	r6, r3, r6
 8004112:	07f2      	lsls	r2, r6, #31
 8004114:	d413      	bmi.n	800413e <connect+0xb6>
 8004116:	f504 7400 	add.w	r4, r4, #512	; 0x200
 800411a:	4640      	mov	r0, r8
 800411c:	f001 f8aa 	bl	8005274 <WIZCHIP_READ>
 8004120:	2817      	cmp	r0, #23
 8004122:	d101      	bne.n	8004128 <connect+0xa0>
 8004124:	2001      	movs	r0, #1
 8004126:	e00a      	b.n	800413e <connect+0xb6>
 8004128:	4620      	mov	r0, r4
 800412a:	f001 f8a3 	bl	8005274 <WIZCHIP_READ>
 800412e:	0703      	lsls	r3, r0, #28
 8004130:	d507      	bpl.n	8004142 <connect+0xba>
 8004132:	4620      	mov	r0, r4
 8004134:	2108      	movs	r1, #8
 8004136:	f001 f8cb 	bl	80052d0 <WIZCHIP_WRITE>
 800413a:	f06f 000c 	mvn.w	r0, #12
 800413e:	e8bd 81f0 	ldmia.w	sp!, {r4, r5, r6, r7, r8, pc}
 8004142:	4640      	mov	r0, r8
 8004144:	f001 f896 	bl	8005274 <WIZCHIP_READ>
 8004148:	2800      	cmp	r0, #0
 800414a:	d1e6      	bne.n	800411a <connect+0x92>
 800414c:	f06f 0003 	mvn.w	r0, #3
 8004150:	e7f5      	b.n	800413e <connect+0xb6>
 8004152:	f04f 30ff 	mov.w	r0, #4294967295	; 0xffffffff
 8004156:	e7f2      	b.n	800413e <connect+0xb6>
 8004158:	f06f 0004 	mvn.w	r0, #4
 800415c:	e7ef      	b.n	800413e <connect+0xb6>
 800415e:	f06f 0002 	mvn.w	r0, #2
 8004162:	e7ec      	b.n	800413e <connect+0xb6>
 8004164:	f06f 000b 	mvn.w	r0, #11
 8004168:	e7e9      	b.n	800413e <connect+0xb6>
 800416a:	f06f 000a 	mvn.w	r0, #10
 800416e:	e7e6      	b.n	800413e <connect+0xb6>
 8004170:	20000558 	.word	0x20000558

08004174 <send>:
 8004174:	2808      	cmp	r0, #8
 8004176:	e92d 4ff8 	stmdb	sp!, {r3, r4, r5, r6, r7, r8, r9, sl, fp, lr}
 800417a:	4606      	mov	r6, r0
 800417c:	4688      	mov	r8, r1
 800417e:	4614      	mov	r4, r2
 8004180:	d874      	bhi.n	800426c <send+0xf8>
 8004182:	0145      	lsls	r5, r0, #5
 8004184:	3508      	adds	r5, #8
 8004186:	4628      	mov	r0, r5
 8004188:	f001 f874 	bl	8005274 <WIZCHIP_READ>
 800418c:	f000 000f 	and.w	r0, r0, #15
 8004190:	2801      	cmp	r0, #1
 8004192:	d16e      	bne.n	8004272 <send+0xfe>
 8004194:	2c00      	cmp	r4, #0
 8004196:	d06f      	beq.n	8004278 <send+0x104>
 8004198:	f505 7940 	add.w	r9, r5, #768	; 0x300
 800419c:	4648      	mov	r0, r9
 800419e:	f001 f869 	bl	8005274 <WIZCHIP_READ>
 80041a2:	2817      	cmp	r0, #23
 80041a4:	d001      	beq.n	80041aa <send+0x36>
 80041a6:	281c      	cmp	r0, #28
 80041a8:	d132      	bne.n	8004210 <send+0x9c>
 80041aa:	4f35      	ldr	r7, [pc, #212]	; (8004280 <send+0x10c>)
 80041ac:	883b      	ldrh	r3, [r7, #0]
 80041ae:	4133      	asrs	r3, r6
 80041b0:	07d9      	lsls	r1, r3, #31
 80041b2:	d511      	bpl.n	80041d8 <send+0x64>
 80041b4:	f505 7a00 	add.w	sl, r5, #512	; 0x200
 80041b8:	4650      	mov	r0, sl
 80041ba:	f001 f85b 	bl	8005274 <WIZCHIP_READ>
 80041be:	06c2      	lsls	r2, r0, #27
 80041c0:	d529      	bpl.n	8004216 <send+0xa2>
 80041c2:	2110      	movs	r1, #16
 80041c4:	4650      	mov	r0, sl
 80041c6:	f001 f883 	bl	80052d0 <WIZCHIP_WRITE>
 80041ca:	2301      	movs	r3, #1
 80041cc:	fa03 f206 	lsl.w	r2, r3, r6
 80041d0:	883b      	ldrh	r3, [r7, #0]
 80041d2:	ea23 0302 	bic.w	r3, r3, r2
 80041d6:	803b      	strh	r3, [r7, #0]
 80041d8:	f505 50f8 	add.w	r0, r5, #7936	; 0x1f00
 80041dc:	f001 f84a 	bl	8005274 <WIZCHIP_READ>
 80041e0:	0283      	lsls	r3, r0, #10
 80041e2:	b298      	uxth	r0, r3
 80041e4:	f04f 0a01 	mov.w	sl, #1
 80041e8:	4284      	cmp	r4, r0
 80041ea:	bf28      	it	cs
 80041ec:	4604      	movcs	r4, r0
 80041ee:	fa0a fa06 	lsl.w	sl, sl, r6
 80041f2:	4630      	mov	r0, r6
 80041f4:	f001 f912 	bl	800541c <getSn_TX_FSR>
 80041f8:	4683      	mov	fp, r0
 80041fa:	4648      	mov	r0, r9
 80041fc:	f001 f83a 	bl	8005274 <WIZCHIP_READ>
 8004200:	2817      	cmp	r0, #23
 8004202:	4b20      	ldr	r3, [pc, #128]	; (8004284 <send+0x110>)
 8004204:	d012      	beq.n	800422c <send+0xb8>
 8004206:	281c      	cmp	r0, #28
 8004208:	d010      	beq.n	800422c <send+0xb8>
 800420a:	4630      	mov	r0, r6
 800420c:	f7ff fe6c 	bl	8003ee8 <close>
 8004210:	f06f 0006 	mvn.w	r0, #6
 8004214:	e002      	b.n	800421c <send+0xa8>
 8004216:	0703      	lsls	r3, r0, #28
 8004218:	d402      	bmi.n	8004220 <send+0xac>
 800421a:	2000      	movs	r0, #0
 800421c:	e8bd 8ff8 	ldmia.w	sp!, {r3, r4, r5, r6, r7, r8, r9, sl, fp, pc}
 8004220:	4630      	mov	r0, r6
 8004222:	f7ff fe61 	bl	8003ee8 <close>
 8004226:	f06f 000c 	mvn.w	r0, #12
 800422a:	e7f7      	b.n	800421c <send+0xa8>
 800422c:	881a      	ldrh	r2, [r3, #0]
 800422e:	ea12 0f0a 	tst.w	r2, sl
 8004232:	d018      	beq.n	8004266 <send+0xf2>
 8004234:	455c      	cmp	r4, fp
 8004236:	d8f0      	bhi.n	800421a <send+0xa6>
 8004238:	4641      	mov	r1, r8
 800423a:	4630      	mov	r0, r6
 800423c:	4622      	mov	r2, r4
 800423e:	f505 7580 	add.w	r5, r5, #256	; 0x100
 8004242:	f001 f92d 	bl	80054a0 <wiz_send_data>
 8004246:	2120      	movs	r1, #32
 8004248:	4628      	mov	r0, r5
 800424a:	f001 f841 	bl	80052d0 <WIZCHIP_WRITE>
 800424e:	4628      	mov	r0, r5
 8004250:	f001 f810 	bl	8005274 <WIZCHIP_READ>
 8004254:	2800      	cmp	r0, #0
 8004256:	d1fa      	bne.n	800424e <send+0xda>
 8004258:	883b      	ldrh	r3, [r7, #0]
 800425a:	4620      	mov	r0, r4
 800425c:	ea4a 0a03 	orr.w	sl, sl, r3
 8004260:	f8a7 a000 	strh.w	sl, [r7]
 8004264:	e7da      	b.n	800421c <send+0xa8>
 8004266:	455c      	cmp	r4, fp
 8004268:	d8c3      	bhi.n	80041f2 <send+0x7e>
 800426a:	e7e5      	b.n	8004238 <send+0xc4>
 800426c:	f04f 30ff 	mov.w	r0, #4294967295	; 0xffffffff
 8004270:	e7d4      	b.n	800421c <send+0xa8>
 8004272:	f06f 0004 	mvn.w	r0, #4
 8004276:	e7d1      	b.n	800421c <send+0xa8>
 8004278:	f06f 000d 	mvn.w	r0, #13
 800427c:	e7ce      	b.n	800421c <send+0xa8>
 800427e:	bf00      	nop
 8004280:	2000055a 	.word	0x2000055a
 8004284:	20000558 	.word	0x20000558

08004288 <sendto>:
 8004288:	e92d 4ff8 	stmdb	sp!, {r3, r4, r5, r6, r7, r8, r9, sl, fp, lr}
 800428c:	2808      	cmp	r0, #8
 800428e:	4606      	mov	r6, r0
 8004290:	4688      	mov	r8, r1
 8004292:	4614      	mov	r4, r2
 8004294:	461f      	mov	r7, r3
 8004296:	f8bd a028 	ldrh.w	sl, [sp, #40]	; 0x28
 800429a:	f200 8097 	bhi.w	80043cc <sendto+0x144>
 800429e:	0145      	lsls	r5, r0, #5
 80042a0:	3508      	adds	r5, #8
 80042a2:	4628      	mov	r0, r5
 80042a4:	f000 ffe6 	bl	8005274 <WIZCHIP_READ>
 80042a8:	f000 000f 	and.w	r0, r0, #15
 80042ac:	3802      	subs	r0, #2
 80042ae:	2802      	cmp	r0, #2
 80042b0:	f200 808f 	bhi.w	80043d2 <sendto+0x14a>
 80042b4:	2c00      	cmp	r4, #0
 80042b6:	f000 808f 	beq.w	80043d8 <sendto+0x150>
 80042ba:	783b      	ldrb	r3, [r7, #0]
 80042bc:	787a      	ldrb	r2, [r7, #1]
 80042be:	eb02 2203 	add.w	r2, r2, r3, lsl #8
 80042c2:	78bb      	ldrb	r3, [r7, #2]
 80042c4:	eb03 2202 	add.w	r2, r3, r2, lsl #8
 80042c8:	78fb      	ldrb	r3, [r7, #3]
 80042ca:	eb03 2302 	add.w	r3, r3, r2, lsl #8
 80042ce:	2b00      	cmp	r3, #0
 80042d0:	d03c      	beq.n	800434c <sendto+0xc4>
 80042d2:	f1ba 0f00 	cmp.w	sl, #0
 80042d6:	d041      	beq.n	800435c <sendto+0xd4>
 80042d8:	f505 7940 	add.w	r9, r5, #768	; 0x300
 80042dc:	4648      	mov	r0, r9
 80042de:	f000 ffc9 	bl	8005274 <WIZCHIP_READ>
 80042e2:	2842      	cmp	r0, #66	; 0x42
 80042e4:	d142      	bne.n	800436c <sendto+0xe4>
 80042e6:	2204      	movs	r2, #4
 80042e8:	4639      	mov	r1, r7
 80042ea:	f505 6040 	add.w	r0, r5, #3072	; 0xc00
 80042ee:	f001 f85b 	bl	80053a8 <WIZCHIP_WRITE_BUF>
 80042f2:	ea4f 211a 	mov.w	r1, sl, lsr #8
 80042f6:	f505 5080 	add.w	r0, r5, #4096	; 0x1000
 80042fa:	f000 ffe9 	bl	80052d0 <WIZCHIP_WRITE>
 80042fe:	fa5f f18a 	uxtb.w	r1, sl
 8004302:	f505 5088 	add.w	r0, r5, #4352	; 0x1100
 8004306:	f000 ffe3 	bl	80052d0 <WIZCHIP_WRITE>
 800430a:	f505 50f8 	add.w	r0, r5, #7936	; 0x1f00
 800430e:	f000 ffb1 	bl	8005274 <WIZCHIP_READ>
 8004312:	0280      	lsls	r0, r0, #10
 8004314:	b280      	uxth	r0, r0
 8004316:	f04f 0a01 	mov.w	sl, #1
 800431a:	4284      	cmp	r4, r0
 800431c:	bf28      	it	cs
 800431e:	4604      	movcs	r4, r0
 8004320:	f8df b0c0 	ldr.w	fp, [pc, #192]	; 80043e4 <sendto+0x15c>
 8004324:	fa0a fa06 	lsl.w	sl, sl, r6
 8004328:	4630      	mov	r0, r6
 800432a:	f001 f877 	bl	800541c <getSn_TX_FSR>
 800432e:	4607      	mov	r7, r0
 8004330:	4648      	mov	r0, r9
 8004332:	f000 ff9f 	bl	8005274 <WIZCHIP_READ>
 8004336:	2800      	cmp	r0, #0
 8004338:	d051      	beq.n	80043de <sendto+0x156>
 800433a:	f8bb 3000 	ldrh.w	r3, [fp]
 800433e:	ea13 0f0a 	tst.w	r3, sl
 8004342:	d01a      	beq.n	800437a <sendto+0xf2>
 8004344:	42bc      	cmp	r4, r7
 8004346:	d91a      	bls.n	800437e <sendto+0xf6>
 8004348:	2000      	movs	r0, #0
 800434a:	e034      	b.n	80043b6 <sendto+0x12e>
 800434c:	4628      	mov	r0, r5
 800434e:	f000 ff91 	bl	8005274 <WIZCHIP_READ>
 8004352:	0740      	lsls	r0, r0, #29
 8004354:	d4bd      	bmi.n	80042d2 <sendto+0x4a>
 8004356:	f06f 000b 	mvn.w	r0, #11
 800435a:	e02c      	b.n	80043b6 <sendto+0x12e>
 800435c:	4628      	mov	r0, r5
 800435e:	f000 ff89 	bl	8005274 <WIZCHIP_READ>
 8004362:	0741      	lsls	r1, r0, #29
 8004364:	d4b8      	bmi.n	80042d8 <sendto+0x50>
 8004366:	f06f 000a 	mvn.w	r0, #10
 800436a:	e024      	b.n	80043b6 <sendto+0x12e>
 800436c:	f000 00ef 	and.w	r0, r0, #239	; 0xef
 8004370:	2822      	cmp	r0, #34	; 0x22
 8004372:	d0b8      	beq.n	80042e6 <sendto+0x5e>
 8004374:	f06f 0006 	mvn.w	r0, #6
 8004378:	e01d      	b.n	80043b6 <sendto+0x12e>
 800437a:	42bc      	cmp	r4, r7
 800437c:	d8d4      	bhi.n	8004328 <sendto+0xa0>
 800437e:	4630      	mov	r0, r6
 8004380:	4641      	mov	r1, r8
 8004382:	4622      	mov	r2, r4
 8004384:	f505 7680 	add.w	r6, r5, #256	; 0x100
 8004388:	f001 f88a 	bl	80054a0 <wiz_send_data>
 800438c:	2120      	movs	r1, #32
 800438e:	4630      	mov	r0, r6
 8004390:	f000 ff9e 	bl	80052d0 <WIZCHIP_WRITE>
 8004394:	4630      	mov	r0, r6
 8004396:	f000 ff6d 	bl	8005274 <WIZCHIP_READ>
 800439a:	2800      	cmp	r0, #0
 800439c:	d1fa      	bne.n	8004394 <sendto+0x10c>
 800439e:	f505 7500 	add.w	r5, r5, #512	; 0x200
 80043a2:	4628      	mov	r0, r5
 80043a4:	f000 ff66 	bl	8005274 <WIZCHIP_READ>
 80043a8:	06c2      	lsls	r2, r0, #27
 80043aa:	d506      	bpl.n	80043ba <sendto+0x132>
 80043ac:	4628      	mov	r0, r5
 80043ae:	2110      	movs	r1, #16
 80043b0:	f000 ff8e 	bl	80052d0 <WIZCHIP_WRITE>
 80043b4:	4620      	mov	r0, r4
 80043b6:	e8bd 8ff8 	ldmia.w	sp!, {r3, r4, r5, r6, r7, r8, r9, sl, fp, pc}
 80043ba:	0703      	lsls	r3, r0, #28
 80043bc:	d5f1      	bpl.n	80043a2 <sendto+0x11a>
 80043be:	4628      	mov	r0, r5
 80043c0:	2108      	movs	r1, #8
 80043c2:	f000 ff85 	bl	80052d0 <WIZCHIP_WRITE>
 80043c6:	f06f 000c 	mvn.w	r0, #12
 80043ca:	e7f4      	b.n	80043b6 <sendto+0x12e>
 80043cc:	f04f 30ff 	mov.w	r0, #4294967295	; 0xffffffff
 80043d0:	e7f1      	b.n	80043b6 <sendto+0x12e>
 80043d2:	f06f 0004 	mvn.w	r0, #4
 80043d6:	e7ee      	b.n	80043b6 <sendto+0x12e>
 80043d8:	f06f 000d 	mvn.w	r0, #13
 80043dc:	e7eb      	b.n	80043b6 <sendto+0x12e>
 80043de:	f06f 0003 	mvn.w	r0, #3
 80043e2:	e7e8      	b.n	80043b6 <sendto+0x12e>
 80043e4:	20000558 	.word	0x20000558

080043e8 <recvfrom>:
 80043e8:	e92d 4ff0 	stmdb	sp!, {r4, r5, r6, r7, r8, r9, sl, fp, lr}
 80043ec:	2808      	cmp	r0, #8
 80043ee:	4604      	mov	r4, r0
 80043f0:	468a      	mov	sl, r1
 80043f2:	4691      	mov	r9, r2
 80043f4:	4698      	mov	r8, r3
 80043f6:	b085      	sub	sp, #20
 80043f8:	f200 80e8 	bhi.w	80045cc <recvfrom+0x1e4>
 80043fc:	0147      	lsls	r7, r0, #5
 80043fe:	3708      	adds	r7, #8
 8004400:	4638      	mov	r0, r7
 8004402:	f000 ff37 	bl	8005274 <WIZCHIP_READ>
 8004406:	f000 020f 	and.w	r2, r0, #15
 800440a:	3a02      	subs	r2, #2
 800440c:	2a02      	cmp	r2, #2
 800440e:	4683      	mov	fp, r0
 8004410:	f200 80df 	bhi.w	80045d2 <recvfrom+0x1ea>
 8004414:	f1b9 0f00 	cmp.w	r9, #0
 8004418:	f000 80de 	beq.w	80045d8 <recvfrom+0x1f0>
 800441c:	4e71      	ldr	r6, [pc, #452]	; (80045e4 <recvfrom+0x1fc>)
 800441e:	f836 2014 	ldrh.w	r2, [r6, r4, lsl #1]
 8004422:	2a00      	cmp	r2, #0
 8004424:	d17a      	bne.n	800451c <recvfrom+0x134>
 8004426:	2101      	movs	r1, #1
 8004428:	f507 7340 	add.w	r3, r7, #768	; 0x300
 800442c:	40a1      	lsls	r1, r4
 800442e:	9300      	str	r3, [sp, #0]
 8004430:	4620      	mov	r0, r4
 8004432:	9101      	str	r1, [sp, #4]
 8004434:	f001 f813 	bl	800545e <getSn_RX_RSR>
 8004438:	4605      	mov	r5, r0
 800443a:	9800      	ldr	r0, [sp, #0]
 800443c:	f000 ff1a 	bl	8005274 <WIZCHIP_READ>
 8004440:	2800      	cmp	r0, #0
 8004442:	f000 80cc 	beq.w	80045de <recvfrom+0x1f6>
 8004446:	4b68      	ldr	r3, [pc, #416]	; (80045e8 <recvfrom+0x200>)
 8004448:	9901      	ldr	r1, [sp, #4]
 800444a:	881a      	ldrh	r2, [r3, #0]
 800444c:	420a      	tst	r2, r1
 800444e:	d002      	beq.n	8004456 <recvfrom+0x6e>
 8004450:	b91d      	cbnz	r5, 800445a <recvfrom+0x72>
 8004452:	4628      	mov	r0, r5
 8004454:	e089      	b.n	800456a <recvfrom+0x182>
 8004456:	2d00      	cmp	r5, #0
 8004458:	d0ea      	beq.n	8004430 <recvfrom+0x48>
 800445a:	f00b 0007 	and.w	r0, fp, #7
 800445e:	2803      	cmp	r0, #3
 8004460:	f507 7780 	add.w	r7, r7, #256	; 0x100
 8004464:	f000 8084 	beq.w	8004570 <recvfrom+0x188>
 8004468:	2804      	cmp	r0, #4
 800446a:	d059      	beq.n	8004520 <recvfrom+0x138>
 800446c:	2802      	cmp	r0, #2
 800446e:	f040 80a6 	bne.w	80045be <recvfrom+0x1d6>
 8004472:	f836 3014 	ldrh.w	r3, [r6, r4, lsl #1]
 8004476:	bb8b      	cbnz	r3, 80044dc <recvfrom+0xf4>
 8004478:	2208      	movs	r2, #8
 800447a:	4620      	mov	r0, r4
 800447c:	eb0d 0102 	add.w	r1, sp, r2
 8004480:	f001 f83b 	bl	80054fa <wiz_recv_data>
 8004484:	2140      	movs	r1, #64	; 0x40
 8004486:	4638      	mov	r0, r7
 8004488:	f000 ff22 	bl	80052d0 <WIZCHIP_WRITE>
 800448c:	4638      	mov	r0, r7
 800448e:	f000 fef1 	bl	8005274 <WIZCHIP_READ>
 8004492:	2800      	cmp	r0, #0
 8004494:	d1fa      	bne.n	800448c <recvfrom+0xa4>
 8004496:	f89d 3008 	ldrb.w	r3, [sp, #8]
 800449a:	f89d 200c 	ldrb.w	r2, [sp, #12]
 800449e:	f888 3000 	strb.w	r3, [r8]
 80044a2:	f89d 3009 	ldrb.w	r3, [sp, #9]
 80044a6:	f888 3001 	strb.w	r3, [r8, #1]
 80044aa:	f89d 300a 	ldrb.w	r3, [sp, #10]
 80044ae:	f888 3002 	strb.w	r3, [r8, #2]
 80044b2:	f89d 300b 	ldrb.w	r3, [sp, #11]
 80044b6:	f888 3003 	strb.w	r3, [r8, #3]
 80044ba:	f89d 300d 	ldrb.w	r3, [sp, #13]
 80044be:	eb03 2302 	add.w	r3, r3, r2, lsl #8
 80044c2:	9a0e      	ldr	r2, [sp, #56]	; 0x38
 80044c4:	8013      	strh	r3, [r2, #0]
 80044c6:	f89d 200e 	ldrb.w	r2, [sp, #14]
 80044ca:	f89d 300f 	ldrb.w	r3, [sp, #15]
 80044ce:	eb03 2302 	add.w	r3, r3, r2, lsl #8
 80044d2:	f826 3014 	strh.w	r3, [r6, r4, lsl #1]
 80044d6:	2280      	movs	r2, #128	; 0x80
 80044d8:	4b44      	ldr	r3, [pc, #272]	; (80045ec <recvfrom+0x204>)
 80044da:	551a      	strb	r2, [r3, r4]
 80044dc:	f836 5014 	ldrh.w	r5, [r6, r4, lsl #1]
 80044e0:	4651      	mov	r1, sl
 80044e2:	454d      	cmp	r5, r9
 80044e4:	bf28      	it	cs
 80044e6:	464d      	movcs	r5, r9
 80044e8:	4620      	mov	r0, r4
 80044ea:	462a      	mov	r2, r5
 80044ec:	f001 f805 	bl	80054fa <wiz_recv_data>
 80044f0:	2140      	movs	r1, #64	; 0x40
 80044f2:	4638      	mov	r0, r7
 80044f4:	f000 feec 	bl	80052d0 <WIZCHIP_WRITE>
 80044f8:	4638      	mov	r0, r7
 80044fa:	f000 febb 	bl	8005274 <WIZCHIP_READ>
 80044fe:	2800      	cmp	r0, #0
 8004500:	d1fa      	bne.n	80044f8 <recvfrom+0x110>
 8004502:	f836 3014 	ldrh.w	r3, [r6, r4, lsl #1]
 8004506:	4a39      	ldr	r2, [pc, #228]	; (80045ec <recvfrom+0x204>)
 8004508:	1b5b      	subs	r3, r3, r5
 800450a:	b29b      	uxth	r3, r3
 800450c:	f826 3014 	strh.w	r3, [r6, r4, lsl #1]
 8004510:	b113      	cbz	r3, 8004518 <recvfrom+0x130>
 8004512:	5d10      	ldrb	r0, [r2, r4]
 8004514:	f040 0001 	orr.w	r0, r0, #1
 8004518:	5510      	strb	r0, [r2, r4]
 800451a:	e79a      	b.n	8004452 <recvfrom+0x6a>
 800451c:	2500      	movs	r5, #0
 800451e:	e79c      	b.n	800445a <recvfrom+0x72>
 8004520:	f836 3014 	ldrh.w	r3, [r6, r4, lsl #1]
 8004524:	2b00      	cmp	r3, #0
 8004526:	d1d9      	bne.n	80044dc <recvfrom+0xf4>
 8004528:	4620      	mov	r0, r4
 800452a:	a902      	add	r1, sp, #8
 800452c:	2202      	movs	r2, #2
 800452e:	f000 ffe4 	bl	80054fa <wiz_recv_data>
 8004532:	2140      	movs	r1, #64	; 0x40
 8004534:	4638      	mov	r0, r7
 8004536:	f000 fecb 	bl	80052d0 <WIZCHIP_WRITE>
 800453a:	4638      	mov	r0, r7
 800453c:	f000 fe9a 	bl	8005274 <WIZCHIP_READ>
 8004540:	2800      	cmp	r0, #0
 8004542:	d1fa      	bne.n	800453a <recvfrom+0x152>
 8004544:	f89d 3009 	ldrb.w	r3, [sp, #9]
 8004548:	f89d 2008 	ldrb.w	r2, [sp, #8]
 800454c:	3b02      	subs	r3, #2
 800454e:	eb03 2302 	add.w	r3, r3, r2, lsl #8
 8004552:	f240 52ea 	movw	r2, #1514	; 0x5ea
 8004556:	b29b      	uxth	r3, r3
 8004558:	4293      	cmp	r3, r2
 800455a:	f826 3014 	strh.w	r3, [r6, r4, lsl #1]
 800455e:	d9ba      	bls.n	80044d6 <recvfrom+0xee>
 8004560:	4620      	mov	r0, r4
 8004562:	f7ff fcc1 	bl	8003ee8 <close>
 8004566:	f46f 707a 	mvn.w	r0, #1000	; 0x3e8
 800456a:	b005      	add	sp, #20
 800456c:	e8bd 8ff0 	ldmia.w	sp!, {r4, r5, r6, r7, r8, r9, sl, fp, pc}
 8004570:	f836 3014 	ldrh.w	r3, [r6, r4, lsl #1]
 8004574:	2b00      	cmp	r3, #0
 8004576:	d1b1      	bne.n	80044dc <recvfrom+0xf4>
 8004578:	4620      	mov	r0, r4
 800457a:	a902      	add	r1, sp, #8
 800457c:	2206      	movs	r2, #6
 800457e:	f000 ffbc 	bl	80054fa <wiz_recv_data>
 8004582:	2140      	movs	r1, #64	; 0x40
 8004584:	4638      	mov	r0, r7
 8004586:	f000 fea3 	bl	80052d0 <WIZCHIP_WRITE>
 800458a:	4638      	mov	r0, r7
 800458c:	f000 fe72 	bl	8005274 <WIZCHIP_READ>
 8004590:	2800      	cmp	r0, #0
 8004592:	d1fa      	bne.n	800458a <recvfrom+0x1a2>
 8004594:	f89d 3008 	ldrb.w	r3, [sp, #8]
 8004598:	f89d 200c 	ldrb.w	r2, [sp, #12]
 800459c:	f888 3000 	strb.w	r3, [r8]
 80045a0:	f89d 3009 	ldrb.w	r3, [sp, #9]
 80045a4:	f888 3001 	strb.w	r3, [r8, #1]
 80045a8:	f89d 300a 	ldrb.w	r3, [sp, #10]
 80045ac:	f888 3002 	strb.w	r3, [r8, #2]
 80045b0:	f89d 300b 	ldrb.w	r3, [sp, #11]
 80045b4:	f888 3003 	strb.w	r3, [r8, #3]
 80045b8:	f89d 300d 	ldrb.w	r3, [sp, #13]
 80045bc:	e787      	b.n	80044ce <recvfrom+0xe6>
 80045be:	4629      	mov	r1, r5
 80045c0:	4620      	mov	r0, r4
 80045c2:	f000 ffc7 	bl	8005554 <wiz_recv_ignore>
 80045c6:	f826 5014 	strh.w	r5, [r6, r4, lsl #1]
 80045ca:	e791      	b.n	80044f0 <recvfrom+0x108>
 80045cc:	f04f 30ff 	mov.w	r0, #4294967295	; 0xffffffff
 80045d0:	e7cb      	b.n	800456a <recvfrom+0x182>
 80045d2:	f06f 0004 	mvn.w	r0, #4
 80045d6:	e7c8      	b.n	800456a <recvfrom+0x182>
 80045d8:	f06f 000d 	mvn.w	r0, #13
 80045dc:	e7c5      	b.n	800456a <recvfrom+0x182>
 80045de:	f06f 0003 	mvn.w	r0, #3
 80045e2:	e7c2      	b.n	800456a <recvfrom+0x182>
 80045e4:	20000564 	.word	0x20000564
 80045e8:	20000558 	.word	0x20000558
 80045ec:	2000055c 	.word	0x2000055c

080045f0 <HAL_MspInit>:
 80045f0:	4b0e      	ldr	r3, [pc, #56]	; (800462c <HAL_MspInit+0x3c>)
 80045f2:	b082      	sub	sp, #8
 80045f4:	699a      	ldr	r2, [r3, #24]
 80045f6:	f042 0201 	orr.w	r2, r2, #1
 80045fa:	619a      	str	r2, [r3, #24]
 80045fc:	699a      	ldr	r2, [r3, #24]
 80045fe:	f002 0201 	and.w	r2, r2, #1
 8004602:	9200      	str	r2, [sp, #0]
 8004604:	9a00      	ldr	r2, [sp, #0]
 8004606:	69da      	ldr	r2, [r3, #28]
 8004608:	f042 5280 	orr.w	r2, r2, #268435456	; 0x10000000
 800460c:	61da      	str	r2, [r3, #28]
 800460e:	69db      	ldr	r3, [r3, #28]
 8004610:	4a07      	ldr	r2, [pc, #28]	; (8004630 <HAL_MspInit+0x40>)
 8004612:	f003 5380 	and.w	r3, r3, #268435456	; 0x10000000
 8004616:	9301      	str	r3, [sp, #4]
 8004618:	9b01      	ldr	r3, [sp, #4]
 800461a:	6853      	ldr	r3, [r2, #4]
 800461c:	f023 63e0 	bic.w	r3, r3, #117440512	; 0x7000000
 8004620:	f043 6380 	orr.w	r3, r3, #67108864	; 0x4000000
 8004624:	6053      	str	r3, [r2, #4]
 8004626:	b002      	add	sp, #8
 8004628:	4770      	bx	lr
 800462a:	bf00      	nop
 800462c:	40021000 	.word	0x40021000
 8004630:	40010000 	.word	0x40010000

08004634 <HAL_I2C_MspInit>:
 8004634:	b510      	push	{r4, lr}
 8004636:	4604      	mov	r4, r0
 8004638:	b086      	sub	sp, #24
 800463a:	2210      	movs	r2, #16
 800463c:	2100      	movs	r1, #0
 800463e:	a802      	add	r0, sp, #8
 8004640:	f003 fe02 	bl	8008248 <memset>
 8004644:	6822      	ldr	r2, [r4, #0]
 8004646:	4b15      	ldr	r3, [pc, #84]	; (800469c <HAL_I2C_MspInit+0x68>)
 8004648:	429a      	cmp	r2, r3
 800464a:	d124      	bne.n	8004696 <HAL_I2C_MspInit+0x62>
 800464c:	4c14      	ldr	r4, [pc, #80]	; (80046a0 <HAL_I2C_MspInit+0x6c>)
 800464e:	f44f 7240 	mov.w	r2, #768	; 0x300
 8004652:	69a3      	ldr	r3, [r4, #24]
 8004654:	4813      	ldr	r0, [pc, #76]	; (80046a4 <HAL_I2C_MspInit+0x70>)
 8004656:	f043 0308 	orr.w	r3, r3, #8
 800465a:	61a3      	str	r3, [r4, #24]
 800465c:	69a3      	ldr	r3, [r4, #24]
 800465e:	a902      	add	r1, sp, #8
 8004660:	f003 0308 	and.w	r3, r3, #8
 8004664:	9300      	str	r3, [sp, #0]
 8004666:	9b00      	ldr	r3, [sp, #0]
 8004668:	2312      	movs	r3, #18
 800466a:	e9cd 2302 	strd	r2, r3, [sp, #8]
 800466e:	2303      	movs	r3, #3
 8004670:	9305      	str	r3, [sp, #20]
 8004672:	f001 faaf 	bl	8005bd4 <HAL_GPIO_Init>
 8004676:	4a0c      	ldr	r2, [pc, #48]	; (80046a8 <HAL_I2C_MspInit+0x74>)
 8004678:	6853      	ldr	r3, [r2, #4]
 800467a:	f043 63e0 	orr.w	r3, r3, #117440512	; 0x7000000
 800467e:	f043 0302 	orr.w	r3, r3, #2
 8004682:	6053      	str	r3, [r2, #4]
 8004684:	69e3      	ldr	r3, [r4, #28]
 8004686:	f443 1300 	orr.w	r3, r3, #2097152	; 0x200000
 800468a:	61e3      	str	r3, [r4, #28]
 800468c:	69e3      	ldr	r3, [r4, #28]
 800468e:	f403 1300 	and.w	r3, r3, #2097152	; 0x200000
 8004692:	9301      	str	r3, [sp, #4]
 8004694:	9b01      	ldr	r3, [sp, #4]
 8004696:	b006      	add	sp, #24
 8004698:	bd10      	pop	{r4, pc}
 800469a:	bf00      	nop
 800469c:	40005400 	.word	0x40005400
 80046a0:	40021000 	.word	0x40021000
 80046a4:	40010c00 	.word	0x40010c00
 80046a8:	40010000 	.word	0x40010000

080046ac <HAL_I2C_MspDeInit>:
 80046ac:	b508      	push	{r3, lr}
 80046ae:	6802      	ldr	r2, [r0, #0]
 80046b0:	4b0a      	ldr	r3, [pc, #40]	; (80046dc <HAL_I2C_MspDeInit+0x30>)
 80046b2:	429a      	cmp	r2, r3
 80046b4:	d110      	bne.n	80046d8 <HAL_I2C_MspDeInit+0x2c>
 80046b6:	4a0a      	ldr	r2, [pc, #40]	; (80046e0 <HAL_I2C_MspDeInit+0x34>)
 80046b8:	f44f 7180 	mov.w	r1, #256	; 0x100
 80046bc:	69d3      	ldr	r3, [r2, #28]
 80046be:	4809      	ldr	r0, [pc, #36]	; (80046e4 <HAL_I2C_MspDeInit+0x38>)
 80046c0:	f423 1300 	bic.w	r3, r3, #2097152	; 0x200000
 80046c4:	61d3      	str	r3, [r2, #28]
 80046c6:	f001 fb61 	bl	8005d8c <HAL_GPIO_DeInit>
 80046ca:	e8bd 4008 	ldmia.w	sp!, {r3, lr}
 80046ce:	f44f 7100 	mov.w	r1, #512	; 0x200
 80046d2:	4804      	ldr	r0, [pc, #16]	; (80046e4 <HAL_I2C_MspDeInit+0x38>)
 80046d4:	f001 bb5a 	b.w	8005d8c <HAL_GPIO_DeInit>
 80046d8:	bd08      	pop	{r3, pc}
 80046da:	bf00      	nop
 80046dc:	40005400 	.word	0x40005400
 80046e0:	40021000 	.word	0x40021000
 80046e4:	40010c00 	.word	0x40010c00

080046e8 <HAL_SPI_MspInit>:
 80046e8:	b510      	push	{r4, lr}
 80046ea:	4604      	mov	r4, r0
 80046ec:	b086      	sub	sp, #24
 80046ee:	2210      	movs	r2, #16
 80046f0:	2100      	movs	r1, #0
 80046f2:	a802      	add	r0, sp, #8
 80046f4:	f003 fda8 	bl	8008248 <memset>
 80046f8:	6822      	ldr	r2, [r4, #0]
 80046fa:	4b17      	ldr	r3, [pc, #92]	; (8004758 <HAL_SPI_MspInit+0x70>)
 80046fc:	429a      	cmp	r2, r3
 80046fe:	d128      	bne.n	8004752 <HAL_SPI_MspInit+0x6a>
 8004700:	f503 33ec 	add.w	r3, r3, #120832	; 0x1d800
 8004704:	69da      	ldr	r2, [r3, #28]
 8004706:	4815      	ldr	r0, [pc, #84]	; (800475c <HAL_SPI_MspInit+0x74>)
 8004708:	f442 4280 	orr.w	r2, r2, #16384	; 0x4000
 800470c:	61da      	str	r2, [r3, #28]
 800470e:	69da      	ldr	r2, [r3, #28]
 8004710:	a902      	add	r1, sp, #8
 8004712:	f402 4280 	and.w	r2, r2, #16384	; 0x4000
 8004716:	9200      	str	r2, [sp, #0]
 8004718:	9a00      	ldr	r2, [sp, #0]
 800471a:	699a      	ldr	r2, [r3, #24]
 800471c:	f042 0208 	orr.w	r2, r2, #8
 8004720:	619a      	str	r2, [r3, #24]
 8004722:	699b      	ldr	r3, [r3, #24]
 8004724:	f44f 4220 	mov.w	r2, #40960	; 0xa000
 8004728:	f003 0308 	and.w	r3, r3, #8
 800472c:	9301      	str	r3, [sp, #4]
 800472e:	9b01      	ldr	r3, [sp, #4]
 8004730:	2302      	movs	r3, #2
 8004732:	e9cd 2302 	strd	r2, r3, [sp, #8]
 8004736:	2303      	movs	r3, #3
 8004738:	9305      	str	r3, [sp, #20]
 800473a:	f001 fa4b 	bl	8005bd4 <HAL_GPIO_Init>
 800473e:	f44f 4180 	mov.w	r1, #16384	; 0x4000
 8004742:	2300      	movs	r3, #0
 8004744:	4805      	ldr	r0, [pc, #20]	; (800475c <HAL_SPI_MspInit+0x74>)
 8004746:	e9cd 1302 	strd	r1, r3, [sp, #8]
 800474a:	a902      	add	r1, sp, #8
 800474c:	9304      	str	r3, [sp, #16]
 800474e:	f001 fa41 	bl	8005bd4 <HAL_GPIO_Init>
 8004752:	b006      	add	sp, #24
 8004754:	bd10      	pop	{r4, pc}
 8004756:	bf00      	nop
 8004758:	40003800 	.word	0x40003800
 800475c:	40010c00 	.word	0x40010c00

08004760 <HAL_TIM_Base_MspInit>:
 8004760:	b510      	push	{r4, lr}
 8004762:	4604      	mov	r4, r0
 8004764:	b08a      	sub	sp, #40	; 0x28
 8004766:	2210      	movs	r2, #16
 8004768:	2100      	movs	r1, #0
 800476a:	a806      	add	r0, sp, #24
 800476c:	f003 fd6c 	bl	8008248 <memset>
 8004770:	6823      	ldr	r3, [r4, #0]
 8004772:	4a30      	ldr	r2, [pc, #192]	; (8004834 <HAL_TIM_Base_MspInit+0xd4>)
 8004774:	4293      	cmp	r3, r2
 8004776:	d10b      	bne.n	8004790 <HAL_TIM_Base_MspInit+0x30>
 8004778:	4b2f      	ldr	r3, [pc, #188]	; (8004838 <HAL_TIM_Base_MspInit+0xd8>)
 800477a:	699a      	ldr	r2, [r3, #24]
 800477c:	f442 6200 	orr.w	r2, r2, #2048	; 0x800
 8004780:	619a      	str	r2, [r3, #24]
 8004782:	699b      	ldr	r3, [r3, #24]
 8004784:	f403 6300 	and.w	r3, r3, #2048	; 0x800
 8004788:	9301      	str	r3, [sp, #4]
 800478a:	9b01      	ldr	r3, [sp, #4]
 800478c:	b00a      	add	sp, #40	; 0x28
 800478e:	bd10      	pop	{r4, pc}
 8004790:	f1b3 4f80 	cmp.w	r3, #1073741824	; 0x40000000
 8004794:	d125      	bne.n	80047e2 <HAL_TIM_Base_MspInit+0x82>
 8004796:	f503 3304 	add.w	r3, r3, #135168	; 0x21000
 800479a:	69da      	ldr	r2, [r3, #28]
 800479c:	2400      	movs	r4, #0
 800479e:	f042 0201 	orr.w	r2, r2, #1
 80047a2:	61da      	str	r2, [r3, #28]
 80047a4:	69da      	ldr	r2, [r3, #28]
 80047a6:	4825      	ldr	r0, [pc, #148]	; (800483c <HAL_TIM_Base_MspInit+0xdc>)
 80047a8:	f002 0201 	and.w	r2, r2, #1
 80047ac:	9202      	str	r2, [sp, #8]
 80047ae:	9a02      	ldr	r2, [sp, #8]
 80047b0:	699a      	ldr	r2, [r3, #24]
 80047b2:	a906      	add	r1, sp, #24
 80047b4:	f042 0204 	orr.w	r2, r2, #4
 80047b8:	619a      	str	r2, [r3, #24]
 80047ba:	699b      	ldr	r3, [r3, #24]
 80047bc:	9408      	str	r4, [sp, #32]
 80047be:	f003 0304 	and.w	r3, r3, #4
 80047c2:	9303      	str	r3, [sp, #12]
 80047c4:	9b03      	ldr	r3, [sp, #12]
 80047c6:	2301      	movs	r3, #1
 80047c8:	e9cd 3406 	strd	r3, r4, [sp, #24]
 80047cc:	f001 fa02 	bl	8005bd4 <HAL_GPIO_Init>
 80047d0:	201c      	movs	r0, #28
 80047d2:	4622      	mov	r2, r4
 80047d4:	4621      	mov	r1, r4
 80047d6:	f001 f865 	bl	80058a4 <HAL_NVIC_SetPriority>
 80047da:	201c      	movs	r0, #28
 80047dc:	f001 f894 	bl	8005908 <HAL_NVIC_EnableIRQ>
 80047e0:	e7d4      	b.n	800478c <HAL_TIM_Base_MspInit+0x2c>
 80047e2:	4a17      	ldr	r2, [pc, #92]	; (8004840 <HAL_TIM_Base_MspInit+0xe0>)
 80047e4:	4293      	cmp	r3, r2
 80047e6:	d110      	bne.n	800480a <HAL_TIM_Base_MspInit+0xaa>
 80047e8:	4b13      	ldr	r3, [pc, #76]	; (8004838 <HAL_TIM_Base_MspInit+0xd8>)
 80047ea:	201d      	movs	r0, #29
 80047ec:	69da      	ldr	r2, [r3, #28]
 80047ee:	f042 0202 	orr.w	r2, r2, #2
 80047f2:	61da      	str	r2, [r3, #28]
 80047f4:	2200      	movs	r2, #0
 80047f6:	69db      	ldr	r3, [r3, #28]
 80047f8:	4611      	mov	r1, r2
 80047fa:	f003 0302 	and.w	r3, r3, #2
 80047fe:	9304      	str	r3, [sp, #16]
 8004800:	9b04      	ldr	r3, [sp, #16]
 8004802:	f001 f84f 	bl	80058a4 <HAL_NVIC_SetPriority>
 8004806:	201d      	movs	r0, #29
 8004808:	e7e8      	b.n	80047dc <HAL_TIM_Base_MspInit+0x7c>
 800480a:	4a0e      	ldr	r2, [pc, #56]	; (8004844 <HAL_TIM_Base_MspInit+0xe4>)
 800480c:	4293      	cmp	r3, r2
 800480e:	d1bd      	bne.n	800478c <HAL_TIM_Base_MspInit+0x2c>
 8004810:	4b09      	ldr	r3, [pc, #36]	; (8004838 <HAL_TIM_Base_MspInit+0xd8>)
 8004812:	201e      	movs	r0, #30
 8004814:	69da      	ldr	r2, [r3, #28]
 8004816:	f042 0204 	orr.w	r2, r2, #4
 800481a:	61da      	str	r2, [r3, #28]
 800481c:	2200      	movs	r2, #0
 800481e:	69db      	ldr	r3, [r3, #28]
 8004820:	4611      	mov	r1, r2
 8004822:	f003 0304 	and.w	r3, r3, #4
 8004826:	9305      	str	r3, [sp, #20]
 8004828:	9b05      	ldr	r3, [sp, #20]
 800482a:	f001 f83b 	bl	80058a4 <HAL_NVIC_SetPriority>
 800482e:	201e      	movs	r0, #30
 8004830:	e7d4      	b.n	80047dc <HAL_TIM_Base_MspInit+0x7c>
 8004832:	bf00      	nop
 8004834:	40012c00 	.word	0x40012c00
 8004838:	40021000 	.word	0x40021000
 800483c:	40010800 	.word	0x40010800
 8004840:	40000400 	.word	0x40000400
 8004844:	40000800 	.word	0x40000800

08004848 <HAL_TIM_MspPostInit>:
 8004848:	b510      	push	{r4, lr}
 800484a:	4604      	mov	r4, r0
 800484c:	b086      	sub	sp, #24
 800484e:	2210      	movs	r2, #16
 8004850:	2100      	movs	r1, #0
 8004852:	a802      	add	r0, sp, #8
 8004854:	f003 fcf8 	bl	8008248 <memset>
 8004858:	6822      	ldr	r2, [r4, #0]
 800485a:	4b0d      	ldr	r3, [pc, #52]	; (8004890 <HAL_TIM_MspPostInit+0x48>)
 800485c:	429a      	cmp	r2, r3
 800485e:	d115      	bne.n	800488c <HAL_TIM_MspPostInit+0x44>
 8004860:	f503 4364 	add.w	r3, r3, #58368	; 0xe400
 8004864:	699a      	ldr	r2, [r3, #24]
 8004866:	480b      	ldr	r0, [pc, #44]	; (8004894 <HAL_TIM_MspPostInit+0x4c>)
 8004868:	f042 0204 	orr.w	r2, r2, #4
 800486c:	619a      	str	r2, [r3, #24]
 800486e:	699b      	ldr	r3, [r3, #24]
 8004870:	f44f 6270 	mov.w	r2, #3840	; 0xf00
 8004874:	f003 0304 	and.w	r3, r3, #4
 8004878:	9301      	str	r3, [sp, #4]
 800487a:	9b01      	ldr	r3, [sp, #4]
 800487c:	2302      	movs	r3, #2
 800487e:	e9cd 2302 	strd	r2, r3, [sp, #8]
 8004882:	2303      	movs	r3, #3
 8004884:	a902      	add	r1, sp, #8
 8004886:	9305      	str	r3, [sp, #20]
 8004888:	f001 f9a4 	bl	8005bd4 <HAL_GPIO_Init>
 800488c:	b006      	add	sp, #24
 800488e:	bd10      	pop	{r4, pc}
 8004890:	40012c00 	.word	0x40012c00
 8004894:	40010800 	.word	0x40010800

08004898 <HAL_UART_MspInit>:
 8004898:	b510      	push	{r4, lr}
 800489a:	4604      	mov	r4, r0
 800489c:	b086      	sub	sp, #24
 800489e:	2210      	movs	r2, #16
 80048a0:	2100      	movs	r1, #0
 80048a2:	a802      	add	r0, sp, #8
 80048a4:	f003 fcd0 	bl	8008248 <memset>
 80048a8:	6822      	ldr	r2, [r4, #0]
 80048aa:	4b19      	ldr	r3, [pc, #100]	; (8004910 <HAL_UART_MspInit+0x78>)
 80048ac:	429a      	cmp	r2, r3
 80048ae:	d12d      	bne.n	800490c <HAL_UART_MspInit+0x74>
 80048b0:	f503 4358 	add.w	r3, r3, #55296	; 0xd800
 80048b4:	699a      	ldr	r2, [r3, #24]
 80048b6:	4817      	ldr	r0, [pc, #92]	; (8004914 <HAL_UART_MspInit+0x7c>)
 80048b8:	f442 4280 	orr.w	r2, r2, #16384	; 0x4000
 80048bc:	619a      	str	r2, [r3, #24]
 80048be:	699a      	ldr	r2, [r3, #24]
 80048c0:	a902      	add	r1, sp, #8
 80048c2:	f402 4280 	and.w	r2, r2, #16384	; 0x4000
 80048c6:	9200      	str	r2, [sp, #0]
 80048c8:	9a00      	ldr	r2, [sp, #0]
 80048ca:	699a      	ldr	r2, [r3, #24]
 80048cc:	f042 0208 	orr.w	r2, r2, #8
 80048d0:	619a      	str	r2, [r3, #24]
 80048d2:	699b      	ldr	r3, [r3, #24]
 80048d4:	2240      	movs	r2, #64	; 0x40
 80048d6:	f003 0308 	and.w	r3, r3, #8
 80048da:	9301      	str	r3, [sp, #4]
 80048dc:	9b01      	ldr	r3, [sp, #4]
 80048de:	2302      	movs	r3, #2
 80048e0:	e9cd 2302 	strd	r2, r3, [sp, #8]
 80048e4:	2303      	movs	r3, #3
 80048e6:	9305      	str	r3, [sp, #20]
 80048e8:	f001 f974 	bl	8005bd4 <HAL_GPIO_Init>
 80048ec:	2300      	movs	r3, #0
 80048ee:	2180      	movs	r1, #128	; 0x80
 80048f0:	4808      	ldr	r0, [pc, #32]	; (8004914 <HAL_UART_MspInit+0x7c>)
 80048f2:	e9cd 1302 	strd	r1, r3, [sp, #8]
 80048f6:	a902      	add	r1, sp, #8
 80048f8:	9304      	str	r3, [sp, #16]
 80048fa:	f001 f96b 	bl	8005bd4 <HAL_GPIO_Init>
 80048fe:	4a06      	ldr	r2, [pc, #24]	; (8004918 <HAL_UART_MspInit+0x80>)
 8004900:	6853      	ldr	r3, [r2, #4]
 8004902:	f043 63e0 	orr.w	r3, r3, #117440512	; 0x7000000
 8004906:	f043 0304 	orr.w	r3, r3, #4
 800490a:	6053      	str	r3, [r2, #4]
 800490c:	b006      	add	sp, #24
 800490e:	bd10      	pop	{r4, pc}
 8004910:	40013800 	.word	0x40013800
 8004914:	40010c00 	.word	0x40010c00
 8004918:	40010000 	.word	0x40010000

0800491c <NMI_Handler>:
 800491c:	b508      	push	{r3, lr}
 800491e:	f002 f9db 	bl	8006cd8 <HAL_RCC_NMI_IRQHandler>
 8004922:	e7fe      	b.n	8004922 <NMI_Handler+0x6>

08004924 <HardFault_Handler>:
 8004924:	e7fe      	b.n	8004924 <HardFault_Handler>

08004926 <MemManage_Handler>:
 8004926:	e7fe      	b.n	8004926 <MemManage_Handler>

08004928 <BusFault_Handler>:
 8004928:	e7fe      	b.n	8004928 <BusFault_Handler>

0800492a <UsageFault_Handler>:
 800492a:	e7fe      	b.n	800492a <UsageFault_Handler>

0800492c <SVC_Handler>:
 800492c:	4770      	bx	lr

0800492e <DebugMon_Handler>:
 800492e:	4770      	bx	lr

08004930 <PendSV_Handler>:
 8004930:	4770      	bx	lr
	...

08004934 <SysTick_Handler>:
 8004934:	b510      	push	{r4, lr}
 8004936:	4c08      	ldr	r4, [pc, #32]	; (8004958 <SysTick_Handler+0x24>)
 8004938:	8823      	ldrh	r3, [r4, #0]
 800493a:	3301      	adds	r3, #1
 800493c:	b29b      	uxth	r3, r3
 800493e:	f5b3 7f7a 	cmp.w	r3, #1000	; 0x3e8
 8004942:	8023      	strh	r3, [r4, #0]
 8004944:	d303      	bcc.n	800494e <SysTick_Handler+0x1a>
 8004946:	f7fd fbe5 	bl	8002114 <DHCP_time_handler>
 800494a:	2300      	movs	r3, #0
 800494c:	8023      	strh	r3, [r4, #0]
 800494e:	e8bd 4010 	ldmia.w	sp!, {r4, lr}
 8004952:	f000 bf71 	b.w	8005838 <HAL_IncTick>
 8004956:	bf00      	nop
 8004958:	20000574 	.word	0x20000574

0800495c <TIM2_IRQHandler>:
 800495c:	4801      	ldr	r0, [pc, #4]	; (8004964 <TIM2_IRQHandler+0x8>)
 800495e:	f002 bdb8 	b.w	80074d2 <HAL_TIM_IRQHandler>
 8004962:	bf00      	nop
 8004964:	200013f4 	.word	0x200013f4

08004968 <TIM3_IRQHandler>:
 8004968:	221c      	movs	r2, #28
 800496a:	b510      	push	{r4, lr}
 800496c:	4b08      	ldr	r3, [pc, #32]	; (8004990 <TIM3_IRQHandler+0x28>)
 800496e:	4c09      	ldr	r4, [pc, #36]	; (8004994 <TIM3_IRQHandler+0x2c>)
 8004970:	601a      	str	r2, [r3, #0]
 8004972:	4620      	mov	r0, r4
 8004974:	2201      	movs	r2, #1
 8004976:	2180      	movs	r1, #128	; 0x80
 8004978:	f001 fa76 	bl	8005e68 <HAL_GPIO_WritePin>
 800497c:	4620      	mov	r0, r4
 800497e:	2200      	movs	r2, #0
 8004980:	2180      	movs	r1, #128	; 0x80
 8004982:	f001 fa71 	bl	8005e68 <HAL_GPIO_WritePin>
 8004986:	e8bd 4010 	ldmia.w	sp!, {r4, lr}
 800498a:	4803      	ldr	r0, [pc, #12]	; (8004998 <TIM3_IRQHandler+0x30>)
 800498c:	f002 bda1 	b.w	80074d2 <HAL_TIM_IRQHandler>
 8004990:	20000648 	.word	0x20000648
 8004994:	40010800 	.word	0x40010800
 8004998:	2000131c 	.word	0x2000131c
 800499c:	00000000 	.word	0x00000000

080049a0 <TIM4_IRQHandler>:
 80049a0:	e92d 4ff0 	stmdb	sp!, {r4, r5, r6, r7, r8, r9, sl, fp, lr}
 80049a4:	2500      	movs	r5, #0
 80049a6:	2600      	movs	r6, #0
 80049a8:	4ba5      	ldr	r3, [pc, #660]	; (8004c40 <TIM4_IRQHandler+0x2a0>)
 80049aa:	b097      	sub	sp, #92	; 0x5c
 80049ac:	601d      	str	r5, [r3, #0]
 80049ae:	4ba5      	ldr	r3, [pc, #660]	; (8004c44 <TIM4_IRQHandler+0x2a4>)
 80049b0:	4629      	mov	r1, r5
 80049b2:	601d      	str	r5, [r3, #0]
 80049b4:	4ba4      	ldr	r3, [pc, #656]	; (8004c48 <TIM4_IRQHandler+0x2a8>)
 80049b6:	48a5      	ldr	r0, [pc, #660]	; (8004c4c <TIM4_IRQHandler+0x2ac>)
 80049b8:	601e      	str	r6, [r3, #0]
 80049ba:	4ba5      	ldr	r3, [pc, #660]	; (8004c50 <TIM4_IRQHandler+0x2b0>)
 80049bc:	4ca5      	ldr	r4, [pc, #660]	; (8004c54 <TIM4_IRQHandler+0x2b4>)
 80049be:	601e      	str	r6, [r3, #0]
 80049c0:	4ba5      	ldr	r3, [pc, #660]	; (8004c58 <TIM4_IRQHandler+0x2b8>)
 80049c2:	601e      	str	r6, [r3, #0]
 80049c4:	4ba5      	ldr	r3, [pc, #660]	; (8004c5c <TIM4_IRQHandler+0x2bc>)
 80049c6:	601e      	str	r6, [r3, #0]
 80049c8:	f003 f986 	bl	8007cd8 <HAL_TIM_OC_Stop>
 80049cc:	2104      	movs	r1, #4
 80049ce:	489f      	ldr	r0, [pc, #636]	; (8004c4c <TIM4_IRQHandler+0x2ac>)
 80049d0:	f003 f982 	bl	8007cd8 <HAL_TIM_OC_Stop>
 80049d4:	2108      	movs	r1, #8
 80049d6:	489d      	ldr	r0, [pc, #628]	; (8004c4c <TIM4_IRQHandler+0x2ac>)
 80049d8:	f003 f97e 	bl	8007cd8 <HAL_TIM_OC_Stop>
 80049dc:	210c      	movs	r1, #12
 80049de:	489b      	ldr	r0, [pc, #620]	; (8004c4c <TIM4_IRQHandler+0x2ac>)
 80049e0:	f003 f97a 	bl	8007cd8 <HAL_TIM_OC_Stop>
 80049e4:	4a9e      	ldr	r2, [pc, #632]	; (8004c60 <TIM4_IRQHandler+0x2c0>)
 80049e6:	4629      	mov	r1, r5
 80049e8:	68d3      	ldr	r3, [r2, #12]
 80049ea:	489e      	ldr	r0, [pc, #632]	; (8004c64 <TIM4_IRQHandler+0x2c4>)
 80049ec:	f043 031e 	orr.w	r3, r3, #30
 80049f0:	60d3      	str	r3, [r2, #12]
 80049f2:	f003 fa1b 	bl	8007e2c <HAL_TIM_IC_Stop_IT>
 80049f6:	2104      	movs	r1, #4
 80049f8:	489a      	ldr	r0, [pc, #616]	; (8004c64 <TIM4_IRQHandler+0x2c4>)
 80049fa:	f003 fa17 	bl	8007e2c <HAL_TIM_IC_Stop_IT>
 80049fe:	6863      	ldr	r3, [r4, #4]
 8004a00:	f423 436e 	bic.w	r3, r3, #60928	; 0xee00
 8004a04:	f023 03ee 	bic.w	r3, r3, #238	; 0xee
 8004a08:	f443 432a 	orr.w	r3, r3, #43520	; 0xaa00
 8004a0c:	f043 03aa 	orr.w	r3, r3, #170	; 0xaa
 8004a10:	6063      	str	r3, [r4, #4]
 8004a12:	4b95      	ldr	r3, [pc, #596]	; (8004c68 <TIM4_IRQHandler+0x2c8>)
 8004a14:	9605      	str	r6, [sp, #20]
 8004a16:	881a      	ldrh	r2, [r3, #0]
 8004a18:	4e94      	ldr	r6, [pc, #592]	; (8004c6c <TIM4_IRQHandler+0x2cc>)
 8004a1a:	2a03      	cmp	r2, #3
 8004a1c:	bf81      	itttt	hi
 8004a1e:	8832      	ldrhhi	r2, [r6, #0]
 8004a20:	801d      	strhhi	r5, [r3, #0]
 8004a22:	3201      	addhi	r2, #1
 8004a24:	8032      	strhhi	r2, [r6, #0]
 8004a26:	8837      	ldrh	r7, [r6, #0]
 8004a28:	4a91      	ldr	r2, [pc, #580]	; (8004c70 <TIM4_IRQHandler+0x2d0>)
 8004a2a:	2f64      	cmp	r7, #100	; 0x64
 8004a2c:	8815      	ldrh	r5, [r2, #0]
 8004a2e:	f040 833b 	bne.w	80050a8 <TIM4_IRQHandler+0x708>
 8004a32:	2d00      	cmp	r5, #0
 8004a34:	f040 8343 	bne.w	80050be <TIM4_IRQHandler+0x71e>
 8004a38:	488e      	ldr	r0, [pc, #568]	; (8004c74 <TIM4_IRQHandler+0x2d4>)
 8004a3a:	f002 fd15 	bl	8007468 <HAL_TIM_Base_Stop_IT>
 8004a3e:	2200      	movs	r2, #0
 8004a40:	2300      	movs	r3, #0
 8004a42:	498d      	ldr	r1, [pc, #564]	; (8004c78 <TIM4_IRQHandler+0x2d8>)
 8004a44:	e9cd 230a 	strd	r2, r3, [sp, #40]	; 0x28
 8004a48:	e9c1 2300 	strd	r2, r3, [r1]
 8004a4c:	498b      	ldr	r1, [pc, #556]	; (8004c7c <TIM4_IRQHandler+0x2dc>)
 8004a4e:	e9cd 230c 	strd	r2, r3, [sp, #48]	; 0x30
 8004a52:	e9c1 2300 	strd	r2, r3, [r1]
 8004a56:	498a      	ldr	r1, [pc, #552]	; (8004c80 <TIM4_IRQHandler+0x2e0>)
 8004a58:	e9cd 230e 	strd	r2, r3, [sp, #56]	; 0x38
 8004a5c:	e9c1 2300 	strd	r2, r3, [r1]
 8004a60:	4988      	ldr	r1, [pc, #544]	; (8004c84 <TIM4_IRQHandler+0x2e4>)
 8004a62:	e9cd 2310 	strd	r2, r3, [sp, #64]	; 0x40
 8004a66:	e9c1 2300 	strd	r2, r3, [r1]
 8004a6a:	4987      	ldr	r1, [pc, #540]	; (8004c88 <TIM4_IRQHandler+0x2e8>)
 8004a6c:	e9cd 2312 	strd	r2, r3, [sp, #72]	; 0x48
 8004a70:	e9c1 2300 	strd	r2, r3, [r1]
 8004a74:	4985      	ldr	r1, [pc, #532]	; (8004c8c <TIM4_IRQHandler+0x2ec>)
 8004a76:	e9cd 2314 	strd	r2, r3, [sp, #80]	; 0x50
 8004a7a:	9101      	str	r1, [sp, #4]
 8004a7c:	4984      	ldr	r1, [pc, #528]	; (8004c90 <TIM4_IRQHandler+0x2f0>)
 8004a7e:	e9cd 2308 	strd	r2, r3, [sp, #32]
 8004a82:	9104      	str	r1, [sp, #16]
 8004a84:	4983      	ldr	r1, [pc, #524]	; (8004c94 <TIM4_IRQHandler+0x2f4>)
 8004a86:	9500      	str	r5, [sp, #0]
 8004a88:	9103      	str	r1, [sp, #12]
 8004a8a:	4983      	ldr	r1, [pc, #524]	; (8004c98 <TIM4_IRQHandler+0x2f8>)
 8004a8c:	9102      	str	r1, [sp, #8]
 8004a8e:	9b01      	ldr	r3, [sp, #4]
 8004a90:	f8dd 8000 	ldr.w	r8, [sp]
 8004a94:	f853 5b04 	ldr.w	r5, [r3], #4
 8004a98:	9301      	str	r3, [sp, #4]
 8004a9a:	ab16      	add	r3, sp, #88	; 0x58
 8004a9c:	eb03 04c8 	add.w	r4, r3, r8, lsl #3
 8004aa0:	4b7e      	ldr	r3, [pc, #504]	; (8004c9c <TIM4_IRQHandler+0x2fc>)
 8004aa2:	6819      	ldr	r1, [r3, #0]
 8004aa4:	9b04      	ldr	r3, [sp, #16]
 8004aa6:	f853 0b04 	ldr.w	r0, [r3], #4
 8004aaa:	9304      	str	r3, [sp, #16]
 8004aac:	f7fc f94a 	bl	8000d44 <__aeabi_fmul>
 8004ab0:	4601      	mov	r1, r0
 8004ab2:	4628      	mov	r0, r5
 8004ab4:	f7fc f83c 	bl	8000b30 <__aeabi_fsub>
 8004ab8:	f7fb fcb6 	bl	8000428 <__aeabi_f2d>
 8004abc:	f108 0301 	add.w	r3, r8, #1
 8004ac0:	b2db      	uxtb	r3, r3
 8004ac2:	2b03      	cmp	r3, #3
 8004ac4:	bf28      	it	cs
 8004ac6:	2300      	movcs	r3, #0
 8004ac8:	e944 010c 	strd	r0, r1, [r4, #-48]	; 0x30
 8004acc:	e9dd ab0a 	ldrd	sl, fp, [sp, #40]	; 0x28
 8004ad0:	e9dd 670c 	ldrd	r6, r7, [sp, #48]	; 0x30
 8004ad4:	9300      	str	r3, [sp, #0]
 8004ad6:	4632      	mov	r2, r6
 8004ad8:	e9dd 450e 	ldrd	r4, r5, [sp, #56]	; 0x38
 8004adc:	463b      	mov	r3, r7
 8004ade:	4650      	mov	r0, sl
 8004ae0:	4659      	mov	r1, fp
 8004ae2:	f7fb ff6b 	bl	80009bc <__aeabi_dcmplt>
 8004ae6:	4622      	mov	r2, r4
 8004ae8:	462b      	mov	r3, r5
 8004aea:	2800      	cmp	r0, #0
 8004aec:	f000 8236 	beq.w	8004f5c <TIM4_IRQHandler+0x5bc>
 8004af0:	4630      	mov	r0, r6
 8004af2:	4639      	mov	r1, r7
 8004af4:	f7fb ff62 	bl	80009bc <__aeabi_dcmplt>
 8004af8:	2800      	cmp	r0, #0
 8004afa:	f040 823f 	bne.w	8004f7c <TIM4_IRQHandler+0x5dc>
 8004afe:	4622      	mov	r2, r4
 8004b00:	462b      	mov	r3, r5
 8004b02:	4650      	mov	r0, sl
 8004b04:	4659      	mov	r1, fp
 8004b06:	f7fb ff77 	bl	80009f8 <__aeabi_dcmpgt>
 8004b0a:	b908      	cbnz	r0, 8004b10 <TIM4_IRQHandler+0x170>
 8004b0c:	46a2      	mov	sl, r4
 8004b0e:	46ab      	mov	fp, r5
 8004b10:	4c5c      	ldr	r4, [pc, #368]	; (8004c84 <TIM4_IRQHandler+0x2e4>)
 8004b12:	4652      	mov	r2, sl
 8004b14:	e9d4 0100 	ldrd	r0, r1, [r4]
 8004b18:	465b      	mov	r3, fp
 8004b1a:	f7fb fb27 	bl	800016c <__adddf3>
 8004b1e:	9b03      	ldr	r3, [sp, #12]
 8004b20:	e9c4 0100 	strd	r0, r1, [r4]
 8004b24:	9306      	str	r3, [sp, #24]
 8004b26:	9b02      	ldr	r3, [sp, #8]
 8004b28:	9307      	str	r3, [sp, #28]
 8004b2a:	ab16      	add	r3, sp, #88	; 0x58
 8004b2c:	eb03 08c8 	add.w	r8, r3, r8, lsl #3
 8004b30:	4b5b      	ldr	r3, [pc, #364]	; (8004ca0 <TIM4_IRQHandler+0x300>)
 8004b32:	6819      	ldr	r1, [r3, #0]
 8004b34:	9b02      	ldr	r3, [sp, #8]
 8004b36:	6818      	ldr	r0, [r3, #0]
 8004b38:	f7fc f904 	bl	8000d44 <__aeabi_fmul>
 8004b3c:	9b03      	ldr	r3, [sp, #12]
 8004b3e:	4601      	mov	r1, r0
 8004b40:	6818      	ldr	r0, [r3, #0]
 8004b42:	f7fb fff5 	bl	8000b30 <__aeabi_fsub>
 8004b46:	f7fb fc6f 	bl	8000428 <__aeabi_f2d>
 8004b4a:	e948 0106 	strd	r0, r1, [r8, #-24]
 8004b4e:	e9dd 4510 	ldrd	r4, r5, [sp, #64]	; 0x40
 8004b52:	e9dd 8912 	ldrd	r8, r9, [sp, #72]	; 0x48
 8004b56:	4620      	mov	r0, r4
 8004b58:	4642      	mov	r2, r8
 8004b5a:	464b      	mov	r3, r9
 8004b5c:	4629      	mov	r1, r5
 8004b5e:	f7fb ff2d 	bl	80009bc <__aeabi_dcmplt>
 8004b62:	e9dd 6714 	ldrd	r6, r7, [sp, #80]	; 0x50
 8004b66:	4632      	mov	r2, r6
 8004b68:	463b      	mov	r3, r7
 8004b6a:	2800      	cmp	r0, #0
 8004b6c:	f000 8209 	beq.w	8004f82 <TIM4_IRQHandler+0x5e2>
 8004b70:	4640      	mov	r0, r8
 8004b72:	4649      	mov	r1, r9
 8004b74:	f7fb ff22 	bl	80009bc <__aeabi_dcmplt>
 8004b78:	2800      	cmp	r0, #0
 8004b7a:	f040 8212 	bne.w	8004fa2 <TIM4_IRQHandler+0x602>
 8004b7e:	4632      	mov	r2, r6
 8004b80:	463b      	mov	r3, r7
 8004b82:	4620      	mov	r0, r4
 8004b84:	4629      	mov	r1, r5
 8004b86:	f7fb ff37 	bl	80009f8 <__aeabi_dcmpgt>
 8004b8a:	b908      	cbnz	r0, 8004b90 <TIM4_IRQHandler+0x1f0>
 8004b8c:	4634      	mov	r4, r6
 8004b8e:	463d      	mov	r5, r7
 8004b90:	4e3d      	ldr	r6, [pc, #244]	; (8004c88 <TIM4_IRQHandler+0x2e8>)
 8004b92:	4622      	mov	r2, r4
 8004b94:	e9d6 0100 	ldrd	r0, r1, [r6]
 8004b98:	462b      	mov	r3, r5
 8004b9a:	f7fb fae7 	bl	800016c <__adddf3>
 8004b9e:	4b41      	ldr	r3, [pc, #260]	; (8004ca4 <TIM4_IRQHandler+0x304>)
 8004ba0:	e9c6 0100 	strd	r0, r1, [r6]
 8004ba4:	e9c3 ab00 	strd	sl, fp, [r3]
 8004ba8:	4b3f      	ldr	r3, [pc, #252]	; (8004ca8 <TIM4_IRQHandler+0x308>)
 8004baa:	4622      	mov	r2, r4
 8004bac:	e9c3 4500 	strd	r4, r5, [r3]
 8004bb0:	4620      	mov	r0, r4
 8004bb2:	462b      	mov	r3, r5
 8004bb4:	4629      	mov	r1, r5
 8004bb6:	f7fb fc8f 	bl	80004d8 <__aeabi_dmul>
 8004bba:	4652      	mov	r2, sl
 8004bbc:	4604      	mov	r4, r0
 8004bbe:	460d      	mov	r5, r1
 8004bc0:	465b      	mov	r3, fp
 8004bc2:	4650      	mov	r0, sl
 8004bc4:	4659      	mov	r1, fp
 8004bc6:	f7fb fc87 	bl	80004d8 <__aeabi_dmul>
 8004bca:	4602      	mov	r2, r0
 8004bcc:	460b      	mov	r3, r1
 8004bce:	4620      	mov	r0, r4
 8004bd0:	4629      	mov	r1, r5
 8004bd2:	f7fb facb 	bl	800016c <__adddf3>
 8004bd6:	f006 fa0f 	bl	800aff8 <sqrt>
 8004bda:	4604      	mov	r4, r0
 8004bdc:	460d      	mov	r5, r1
 8004bde:	4b33      	ldr	r3, [pc, #204]	; (8004cac <TIM4_IRQHandler+0x30c>)
 8004be0:	4e25      	ldr	r6, [pc, #148]	; (8004c78 <TIM4_IRQHandler+0x2d8>)
 8004be2:	e9c3 4500 	strd	r4, r5, [r3]
 8004be6:	e9d6 2300 	ldrd	r2, r3, [r6]
 8004bea:	f7fb ff05 	bl	80009f8 <__aeabi_dcmpgt>
 8004bee:	b108      	cbz	r0, 8004bf4 <TIM4_IRQHandler+0x254>
 8004bf0:	e9c6 4500 	strd	r4, r5, [r6]
 8004bf4:	4b2b      	ldr	r3, [pc, #172]	; (8004ca4 <TIM4_IRQHandler+0x304>)
 8004bf6:	4e21      	ldr	r6, [pc, #132]	; (8004c7c <TIM4_IRQHandler+0x2dc>)
 8004bf8:	e9d3 0100 	ldrd	r0, r1, [r3]
 8004bfc:	f7fb ff1c 	bl	8000a38 <__aeabi_d2iz>
 8004c00:	2800      	cmp	r0, #0
 8004c02:	bfb8      	it	lt
 8004c04:	4240      	neglt	r0, r0
 8004c06:	f7fb fbfd 	bl	8000404 <__aeabi_i2d>
 8004c0a:	e9d6 2300 	ldrd	r2, r3, [r6]
 8004c0e:	4604      	mov	r4, r0
 8004c10:	460d      	mov	r5, r1
 8004c12:	f7fb fef1 	bl	80009f8 <__aeabi_dcmpgt>
 8004c16:	b108      	cbz	r0, 8004c1c <TIM4_IRQHandler+0x27c>
 8004c18:	e9c6 4500 	strd	r4, r5, [r6]
 8004c1c:	4b22      	ldr	r3, [pc, #136]	; (8004ca8 <TIM4_IRQHandler+0x308>)
 8004c1e:	4e18      	ldr	r6, [pc, #96]	; (8004c80 <TIM4_IRQHandler+0x2e0>)
 8004c20:	e9d3 0100 	ldrd	r0, r1, [r3]
 8004c24:	f7fb ff08 	bl	8000a38 <__aeabi_d2iz>
 8004c28:	2800      	cmp	r0, #0
 8004c2a:	bfb8      	it	lt
 8004c2c:	4240      	neglt	r0, r0
 8004c2e:	f7fb fbe9 	bl	8000404 <__aeabi_i2d>
 8004c32:	e9d6 2300 	ldrd	r2, r3, [r6]
 8004c36:	4604      	mov	r4, r0
 8004c38:	460d      	mov	r5, r1
 8004c3a:	f7fb fedd 	bl	80009f8 <__aeabi_dcmpgt>
 8004c3e:	e037      	b.n	8004cb0 <TIM4_IRQHandler+0x310>
 8004c40:	20000634 	.word	0x20000634
 8004c44:	20000648 	.word	0x20000648
 8004c48:	20000ddc 	.word	0x20000ddc
 8004c4c:	200013ac 	.word	0x200013ac
 8004c50:	200007ec 	.word	0x200007ec
 8004c54:	40010800 	.word	0x40010800
 8004c58:	20000b2c 	.word	0x20000b2c
 8004c5c:	20000de8 	.word	0x20000de8
 8004c60:	40010c00 	.word	0x40010c00
 8004c64:	200013f4 	.word	0x200013f4
 8004c68:	2000098e 	.word	0x2000098e
 8004c6c:	200005c8 	.word	0x200005c8
 8004c70:	20000b30 	.word	0x20000b30
 8004c74:	2000126c 	.word	0x2000126c
 8004c78:	200005c0 	.word	0x200005c0
 8004c7c:	200005d8 	.word	0x200005d8
 8004c80:	20000990 	.word	0x20000990
 8004c84:	200005e0 	.word	0x200005e0
 8004c88:	20000600 	.word	0x20000600
 8004c8c:	20000804 	.word	0x20000804
 8004c90:	200009a0 	.word	0x200009a0
 8004c94:	20000664 	.word	0x20000664
 8004c98:	20000b50 	.word	0x20000b50
 8004c9c:	20000590 	.word	0x20000590
 8004ca0:	200005a0 	.word	0x200005a0
 8004ca4:	20000df0 	.word	0x20000df0
 8004ca8:	200005f0 	.word	0x200005f0
 8004cac:	20000640 	.word	0x20000640
 8004cb0:	b108      	cbz	r0, 8004cb6 <TIM4_IRQHandler+0x316>
 8004cb2:	e9c6 4500 	strd	r4, r5, [r6]
 8004cb6:	9b01      	ldr	r3, [sp, #4]
 8004cb8:	f8df 9354 	ldr.w	r9, [pc, #852]	; 8005010 <TIM4_IRQHandler+0x670>
 8004cbc:	f853 0c04 	ldr.w	r0, [r3, #-4]
 8004cc0:	f8d9 1000 	ldr.w	r1, [r9]
 8004cc4:	f7fb ff36 	bl	8000b34 <__addsf3>
 8004cc8:	f8df 8348 	ldr.w	r8, [pc, #840]	; 8005014 <TIM4_IRQHandler+0x674>
 8004ccc:	9b04      	ldr	r3, [sp, #16]
 8004cce:	f8d8 1000 	ldr.w	r1, [r8]
 8004cd2:	f8c9 0000 	str.w	r0, [r9]
 8004cd6:	4683      	mov	fp, r0
 8004cd8:	f853 0c04 	ldr.w	r0, [r3, #-4]
 8004cdc:	f7fb ff2a 	bl	8000b34 <__addsf3>
 8004ce0:	4fb3      	ldr	r7, [pc, #716]	; (8004fb0 <TIM4_IRQHandler+0x610>)
 8004ce2:	9b06      	ldr	r3, [sp, #24]
 8004ce4:	6839      	ldr	r1, [r7, #0]
 8004ce6:	f8c8 0000 	str.w	r0, [r8]
 8004cea:	4606      	mov	r6, r0
 8004cec:	6818      	ldr	r0, [r3, #0]
 8004cee:	f7fb ff21 	bl	8000b34 <__addsf3>
 8004cf2:	f8df a324 	ldr.w	sl, [pc, #804]	; 8005018 <TIM4_IRQHandler+0x678>
 8004cf6:	9b07      	ldr	r3, [sp, #28]
 8004cf8:	f8da 1000 	ldr.w	r1, [sl]
 8004cfc:	6038      	str	r0, [r7, #0]
 8004cfe:	4605      	mov	r5, r0
 8004d00:	6818      	ldr	r0, [r3, #0]
 8004d02:	f7fb ff17 	bl	8000b34 <__addsf3>
 8004d06:	9a05      	ldr	r2, [sp, #20]
 8004d08:	9b01      	ldr	r3, [sp, #4]
 8004d0a:	4604      	mov	r4, r0
 8004d0c:	f843 2c04 	str.w	r2, [r3, #-4]
 8004d10:	9b04      	ldr	r3, [sp, #16]
 8004d12:	f8ca 0000 	str.w	r0, [sl]
 8004d16:	f843 2c04 	str.w	r2, [r3, #-4]
 8004d1a:	9b03      	ldr	r3, [sp, #12]
 8004d1c:	f843 2b04 	str.w	r2, [r3], #4
 8004d20:	9303      	str	r3, [sp, #12]
 8004d22:	9b02      	ldr	r3, [sp, #8]
 8004d24:	f843 2b04 	str.w	r2, [r3], #4
 8004d28:	9302      	str	r3, [sp, #8]
 8004d2a:	9a01      	ldr	r2, [sp, #4]
 8004d2c:	4ba1      	ldr	r3, [pc, #644]	; (8004fb4 <TIM4_IRQHandler+0x614>)
 8004d2e:	4293      	cmp	r3, r2
 8004d30:	f47f aead 	bne.w	8004a8e <TIM4_IRQHandler+0xee>
 8004d34:	4658      	mov	r0, fp
 8004d36:	49a0      	ldr	r1, [pc, #640]	; (8004fb8 <TIM4_IRQHandler+0x618>)
 8004d38:	f7fc f8b8 	bl	8000eac <__aeabi_fdiv>
 8004d3c:	499e      	ldr	r1, [pc, #632]	; (8004fb8 <TIM4_IRQHandler+0x618>)
 8004d3e:	f8c9 0000 	str.w	r0, [r9]
 8004d42:	4683      	mov	fp, r0
 8004d44:	4630      	mov	r0, r6
 8004d46:	f7fc f8b1 	bl	8000eac <__aeabi_fdiv>
 8004d4a:	4a9c      	ldr	r2, [pc, #624]	; (8004fbc <TIM4_IRQHandler+0x61c>)
 8004d4c:	6811      	ldr	r1, [r2, #0]
 8004d4e:	f7fb fff9 	bl	8000d44 <__aeabi_fmul>
 8004d52:	4999      	ldr	r1, [pc, #612]	; (8004fb8 <TIM4_IRQHandler+0x618>)
 8004d54:	4606      	mov	r6, r0
 8004d56:	f8c8 0000 	str.w	r0, [r8]
 8004d5a:	4628      	mov	r0, r5
 8004d5c:	f7fc f8a6 	bl	8000eac <__aeabi_fdiv>
 8004d60:	4995      	ldr	r1, [pc, #596]	; (8004fb8 <TIM4_IRQHandler+0x618>)
 8004d62:	6038      	str	r0, [r7, #0]
 8004d64:	4605      	mov	r5, r0
 8004d66:	4620      	mov	r0, r4
 8004d68:	f7fc f8a0 	bl	8000eac <__aeabi_fdiv>
 8004d6c:	4a94      	ldr	r2, [pc, #592]	; (8004fc0 <TIM4_IRQHandler+0x620>)
 8004d6e:	6811      	ldr	r1, [r2, #0]
 8004d70:	f7fb ffe8 	bl	8000d44 <__aeabi_fmul>
 8004d74:	4631      	mov	r1, r6
 8004d76:	f8ca 0000 	str.w	r0, [sl]
 8004d7a:	4604      	mov	r4, r0
 8004d7c:	4658      	mov	r0, fp
 8004d7e:	f7fb fed9 	bl	8000b34 <__addsf3>
 8004d82:	4990      	ldr	r1, [pc, #576]	; (8004fc4 <TIM4_IRQHandler+0x624>)
 8004d84:	4681      	mov	r9, r0
 8004d86:	f7fb fed3 	bl	8000b30 <__aeabi_fsub>
 8004d8a:	f7fc f9a1 	bl	80010d0 <__aeabi_f2iz>
 8004d8e:	ea80 76e0 	eor.w	r6, r0, r0, asr #31
 8004d92:	eba6 76e0 	sub.w	r6, r6, r0, asr #31
 8004d96:	4630      	mov	r0, r6
 8004d98:	f7fb ff80 	bl	8000c9c <__aeabi_i2f>
 8004d9c:	f04f 517e 	mov.w	r1, #1065353216	; 0x3f800000
 8004da0:	f7fc f98c 	bl	80010bc <__aeabi_fcmpgt>
 8004da4:	b340      	cbz	r0, 8004df8 <TIM4_IRQHandler+0x458>
 8004da6:	f8df 8274 	ldr.w	r8, [pc, #628]	; 800501c <TIM4_IRQHandler+0x67c>
 8004daa:	2e32      	cmp	r6, #50	; 0x32
 8004dac:	f8b8 0000 	ldrh.w	r0, [r8]
 8004db0:	bfd4      	ite	le
 8004db2:	f04f 5b7e 	movle.w	fp, #1065353216	; 0x3f800000
 8004db6:	f8df b218 	ldrgt.w	fp, [pc, #536]	; 8004fd0 <TIM4_IRQHandler+0x630>
 8004dba:	f7fb ff6f 	bl	8000c9c <__aeabi_i2f>
 8004dbe:	4f82      	ldr	r7, [pc, #520]	; (8004fc8 <TIM4_IRQHandler+0x628>)
 8004dc0:	9000      	str	r0, [sp, #0]
 8004dc2:	8838      	ldrh	r0, [r7, #0]
 8004dc4:	f7fb ff6a 	bl	8000c9c <__aeabi_i2f>
 8004dc8:	497e      	ldr	r1, [pc, #504]	; (8004fc4 <TIM4_IRQHandler+0x624>)
 8004dca:	4606      	mov	r6, r0
 8004dcc:	4648      	mov	r0, r9
 8004dce:	f7fc f975 	bl	80010bc <__aeabi_fcmpgt>
 8004dd2:	9b00      	ldr	r3, [sp, #0]
 8004dd4:	2800      	cmp	r0, #0
 8004dd6:	f000 8127 	beq.w	8005028 <TIM4_IRQHandler+0x688>
 8004dda:	4619      	mov	r1, r3
 8004ddc:	4658      	mov	r0, fp
 8004dde:	f7fb fea9 	bl	8000b34 <__addsf3>
 8004de2:	f7fc f99b 	bl	800111c <__aeabi_f2uiz>
 8004de6:	4631      	mov	r1, r6
 8004de8:	f8a8 0000 	strh.w	r0, [r8]
 8004dec:	4658      	mov	r0, fp
 8004dee:	f7fb fea1 	bl	8000b34 <__addsf3>
 8004df2:	f7fc f993 	bl	800111c <__aeabi_f2uiz>
 8004df6:	8038      	strh	r0, [r7, #0]
 8004df8:	4621      	mov	r1, r4
 8004dfa:	4628      	mov	r0, r5
 8004dfc:	f7fb fe9a 	bl	8000b34 <__addsf3>
 8004e00:	4970      	ldr	r1, [pc, #448]	; (8004fc4 <TIM4_IRQHandler+0x624>)
 8004e02:	4680      	mov	r8, r0
 8004e04:	f7fb fe94 	bl	8000b30 <__aeabi_fsub>
 8004e08:	f7fc f962 	bl	80010d0 <__aeabi_f2iz>
 8004e0c:	ea80 74e0 	eor.w	r4, r0, r0, asr #31
 8004e10:	eba4 74e0 	sub.w	r4, r4, r0, asr #31
 8004e14:	4620      	mov	r0, r4
 8004e16:	f7fb ff41 	bl	8000c9c <__aeabi_i2f>
 8004e1a:	f04f 517e 	mov.w	r1, #1065353216	; 0x3f800000
 8004e1e:	f7fc f94d 	bl	80010bc <__aeabi_fcmpgt>
 8004e22:	b318      	cbz	r0, 8004e6c <TIM4_IRQHandler+0x4cc>
 8004e24:	4f69      	ldr	r7, [pc, #420]	; (8004fcc <TIM4_IRQHandler+0x62c>)
 8004e26:	2c32      	cmp	r4, #50	; 0x32
 8004e28:	8838      	ldrh	r0, [r7, #0]
 8004e2a:	bfd4      	ite	le
 8004e2c:	f04f 547e 	movle.w	r4, #1065353216	; 0x3f800000
 8004e30:	4c67      	ldrgt	r4, [pc, #412]	; (8004fd0 <TIM4_IRQHandler+0x630>)
 8004e32:	f7fb ff33 	bl	8000c9c <__aeabi_i2f>
 8004e36:	4e67      	ldr	r6, [pc, #412]	; (8004fd4 <TIM4_IRQHandler+0x634>)
 8004e38:	4681      	mov	r9, r0
 8004e3a:	8830      	ldrh	r0, [r6, #0]
 8004e3c:	f7fb ff2e 	bl	8000c9c <__aeabi_i2f>
 8004e40:	4960      	ldr	r1, [pc, #384]	; (8004fc4 <TIM4_IRQHandler+0x624>)
 8004e42:	4605      	mov	r5, r0
 8004e44:	4640      	mov	r0, r8
 8004e46:	f7fc f939 	bl	80010bc <__aeabi_fcmpgt>
 8004e4a:	2800      	cmp	r0, #0
 8004e4c:	f000 80f9 	beq.w	8005042 <TIM4_IRQHandler+0x6a2>
 8004e50:	4649      	mov	r1, r9
 8004e52:	4620      	mov	r0, r4
 8004e54:	f7fb fe6e 	bl	8000b34 <__addsf3>
 8004e58:	f7fc f960 	bl	800111c <__aeabi_f2uiz>
 8004e5c:	4629      	mov	r1, r5
 8004e5e:	8038      	strh	r0, [r7, #0]
 8004e60:	4620      	mov	r0, r4
 8004e62:	f7fb fe67 	bl	8000b34 <__addsf3>
 8004e66:	f7fc f959 	bl	800111c <__aeabi_f2uiz>
 8004e6a:	8030      	strh	r0, [r6, #0]
 8004e6c:	495a      	ldr	r1, [pc, #360]	; (8004fd8 <TIM4_IRQHandler+0x638>)
 8004e6e:	2200      	movs	r2, #0
 8004e70:	e9d1 0100 	ldrd	r0, r1, [r1]
 8004e74:	4b59      	ldr	r3, [pc, #356]	; (8004fdc <TIM4_IRQHandler+0x63c>)
 8004e76:	f7fb fc59 	bl	800072c <__aeabi_ddiv>
 8004e7a:	a34b      	add	r3, pc, #300	; (adr r3, 8004fa8 <TIM4_IRQHandler+0x608>)
 8004e7c:	e9d3 2300 	ldrd	r2, r3, [r3]
 8004e80:	f7fb fc54 	bl	800072c <__aeabi_ddiv>
 8004e84:	4606      	mov	r6, r0
 8004e86:	460f      	mov	r7, r1
 8004e88:	f8df 8194 	ldr.w	r8, [pc, #404]	; 8005020 <TIM4_IRQHandler+0x680>
 8004e8c:	4954      	ldr	r1, [pc, #336]	; (8004fe0 <TIM4_IRQHandler+0x640>)
 8004e8e:	e9c8 6700 	strd	r6, r7, [r8]
 8004e92:	e9d1 0100 	ldrd	r0, r1, [r1]
 8004e96:	2200      	movs	r2, #0
 8004e98:	4b50      	ldr	r3, [pc, #320]	; (8004fdc <TIM4_IRQHandler+0x63c>)
 8004e9a:	f7fb fc47 	bl	800072c <__aeabi_ddiv>
 8004e9e:	a342      	add	r3, pc, #264	; (adr r3, 8004fa8 <TIM4_IRQHandler+0x608>)
 8004ea0:	e9d3 2300 	ldrd	r2, r3, [r3]
 8004ea4:	f7fb fc42 	bl	800072c <__aeabi_ddiv>
 8004ea8:	a33f      	add	r3, pc, #252	; (adr r3, 8004fa8 <TIM4_IRQHandler+0x608>)
 8004eaa:	e9d3 2300 	ldrd	r2, r3, [r3]
 8004eae:	4604      	mov	r4, r0
 8004eb0:	460d      	mov	r5, r1
 8004eb2:	f8df 9170 	ldr.w	r9, [pc, #368]	; 8005024 <TIM4_IRQHandler+0x684>
 8004eb6:	494b      	ldr	r1, [pc, #300]	; (8004fe4 <TIM4_IRQHandler+0x644>)
 8004eb8:	e9c9 4500 	strd	r4, r5, [r9]
 8004ebc:	e9d1 0100 	ldrd	r0, r1, [r1]
 8004ec0:	f7fb fc34 	bl	800072c <__aeabi_ddiv>
 8004ec4:	4b48      	ldr	r3, [pc, #288]	; (8004fe8 <TIM4_IRQHandler+0x648>)
 8004ec6:	e9c3 0100 	strd	r0, r1, [r3]
 8004eca:	a337      	add	r3, pc, #220	; (adr r3, 8004fa8 <TIM4_IRQHandler+0x608>)
 8004ecc:	e9d3 2300 	ldrd	r2, r3, [r3]
 8004ed0:	4946      	ldr	r1, [pc, #280]	; (8004fec <TIM4_IRQHandler+0x64c>)
 8004ed2:	e9d1 0100 	ldrd	r0, r1, [r1]
 8004ed6:	f7fb fc29 	bl	800072c <__aeabi_ddiv>
 8004eda:	4b45      	ldr	r3, [pc, #276]	; (8004ff0 <TIM4_IRQHandler+0x650>)
 8004edc:	e9c3 0100 	strd	r0, r1, [r3]
 8004ee0:	a331      	add	r3, pc, #196	; (adr r3, 8004fa8 <TIM4_IRQHandler+0x608>)
 8004ee2:	e9d3 2300 	ldrd	r2, r3, [r3]
 8004ee6:	4943      	ldr	r1, [pc, #268]	; (8004ff4 <TIM4_IRQHandler+0x654>)
 8004ee8:	e9d1 0100 	ldrd	r0, r1, [r1]
 8004eec:	f7fb fc1e 	bl	800072c <__aeabi_ddiv>
 8004ef0:	4b41      	ldr	r3, [pc, #260]	; (8004ff8 <TIM4_IRQHandler+0x658>)
 8004ef2:	4632      	mov	r2, r6
 8004ef4:	e9c3 0100 	strd	r0, r1, [r3]
 8004ef8:	463b      	mov	r3, r7
 8004efa:	4630      	mov	r0, r6
 8004efc:	4639      	mov	r1, r7
 8004efe:	f7fb faeb 	bl	80004d8 <__aeabi_dmul>
 8004f02:	4622      	mov	r2, r4
 8004f04:	4606      	mov	r6, r0
 8004f06:	462b      	mov	r3, r5
 8004f08:	460f      	mov	r7, r1
 8004f0a:	4620      	mov	r0, r4
 8004f0c:	4629      	mov	r1, r5
 8004f0e:	f7fb fae3 	bl	80004d8 <__aeabi_dmul>
 8004f12:	4602      	mov	r2, r0
 8004f14:	460b      	mov	r3, r1
 8004f16:	4630      	mov	r0, r6
 8004f18:	4639      	mov	r1, r7
 8004f1a:	f7fb f927 	bl	800016c <__adddf3>
 8004f1e:	f006 f86b 	bl	800aff8 <sqrt>
 8004f22:	4604      	mov	r4, r0
 8004f24:	460d      	mov	r5, r1
 8004f26:	4b35      	ldr	r3, [pc, #212]	; (8004ffc <TIM4_IRQHandler+0x65c>)
 8004f28:	2200      	movs	r2, #0
 8004f2a:	e9c3 4500 	strd	r4, r5, [r3]
 8004f2e:	2300      	movs	r3, #0
 8004f30:	f7fb fd3a 	bl	80009a8 <__aeabi_dcmpeq>
 8004f34:	4e32      	ldr	r6, [pc, #200]	; (8005000 <TIM4_IRQHandler+0x660>)
 8004f36:	2800      	cmp	r0, #0
 8004f38:	f000 808f 	beq.w	800505a <TIM4_IRQHandler+0x6ba>
 8004f3c:	e9dd 3408 	ldrd	r3, r4, [sp, #32]
 8004f40:	e9c6 3400 	strd	r3, r4, [r6]
 8004f44:	2200      	movs	r2, #0
 8004f46:	4b2f      	ldr	r3, [pc, #188]	; (8005004 <TIM4_IRQHandler+0x664>)
 8004f48:	801a      	strh	r2, [r3, #0]
 8004f4a:	2201      	movs	r2, #1
 8004f4c:	4b2e      	ldr	r3, [pc, #184]	; (8005008 <TIM4_IRQHandler+0x668>)
 8004f4e:	701a      	strb	r2, [r3, #0]
 8004f50:	482e      	ldr	r0, [pc, #184]	; (800500c <TIM4_IRQHandler+0x66c>)
 8004f52:	b017      	add	sp, #92	; 0x5c
 8004f54:	e8bd 4ff0 	ldmia.w	sp!, {r4, r5, r6, r7, r8, r9, sl, fp, lr}
 8004f58:	f002 babb 	b.w	80074d2 <HAL_TIM_IRQHandler>
 8004f5c:	4650      	mov	r0, sl
 8004f5e:	4659      	mov	r1, fp
 8004f60:	f7fb fd2c 	bl	80009bc <__aeabi_dcmplt>
 8004f64:	2800      	cmp	r0, #0
 8004f66:	f47f add3 	bne.w	8004b10 <TIM4_IRQHandler+0x170>
 8004f6a:	4622      	mov	r2, r4
 8004f6c:	462b      	mov	r3, r5
 8004f6e:	4630      	mov	r0, r6
 8004f70:	4639      	mov	r1, r7
 8004f72:	f7fb fd41 	bl	80009f8 <__aeabi_dcmpgt>
 8004f76:	2800      	cmp	r0, #0
 8004f78:	f43f adc8 	beq.w	8004b0c <TIM4_IRQHandler+0x16c>
 8004f7c:	46b2      	mov	sl, r6
 8004f7e:	46bb      	mov	fp, r7
 8004f80:	e5c6      	b.n	8004b10 <TIM4_IRQHandler+0x170>
 8004f82:	4620      	mov	r0, r4
 8004f84:	4629      	mov	r1, r5
 8004f86:	f7fb fd19 	bl	80009bc <__aeabi_dcmplt>
 8004f8a:	2800      	cmp	r0, #0
 8004f8c:	f47f ae00 	bne.w	8004b90 <TIM4_IRQHandler+0x1f0>
 8004f90:	4632      	mov	r2, r6
 8004f92:	463b      	mov	r3, r7
 8004f94:	4640      	mov	r0, r8
 8004f96:	4649      	mov	r1, r9
 8004f98:	f7fb fd2e 	bl	80009f8 <__aeabi_dcmpgt>
 8004f9c:	2800      	cmp	r0, #0
 8004f9e:	f43f adf5 	beq.w	8004b8c <TIM4_IRQHandler+0x1ec>
 8004fa2:	4644      	mov	r4, r8
 8004fa4:	464d      	mov	r5, r9
 8004fa6:	e5f3      	b.n	8004b90 <TIM4_IRQHandler+0x1f0>
 8004fa8:	20000000 	.word	0x20000000
 8004fac:	40476f5c 	.word	0x40476f5c
 8004fb0:	20000b2c 	.word	0x20000b2c
 8004fb4:	2000098c 	.word	0x2000098c
 8004fb8:	42c40000 	.word	0x42c40000
 8004fbc:	20000590 	.word	0x20000590
 8004fc0:	200005a0 	.word	0x200005a0
 8004fc4:	44c80000 	.word	0x44c80000
 8004fc8:	200005b8 	.word	0x200005b8
 8004fcc:	200005ec 	.word	0x200005ec
 8004fd0:	41f00000 	.word	0x41f00000
 8004fd4:	2000098c 	.word	0x2000098c
 8004fd8:	200005e0 	.word	0x200005e0
 8004fdc:	40588000 	.word	0x40588000
 8004fe0:	20000600 	.word	0x20000600
 8004fe4:	200005c0 	.word	0x200005c0
 8004fe8:	200005a8 	.word	0x200005a8
 8004fec:	200005d8 	.word	0x200005d8
 8004ff0:	20000b40 	.word	0x20000b40
 8004ff4:	20000990 	.word	0x20000990
 8004ff8:	200007f0 	.word	0x200007f0
 8004ffc:	20000640 	.word	0x20000640
 8005000:	200005d0 	.word	0x200005d0
 8005004:	200005c8 	.word	0x200005c8
 8005008:	20000594 	.word	0x20000594
 800500c:	2000126c 	.word	0x2000126c
 8005010:	20000ddc 	.word	0x20000ddc
 8005014:	200007ec 	.word	0x200007ec
 8005018:	20000de8 	.word	0x20000de8
 800501c:	200005b4 	.word	0x200005b4
 8005020:	20000650 	.word	0x20000650
 8005024:	20000598 	.word	0x20000598
 8005028:	4659      	mov	r1, fp
 800502a:	4618      	mov	r0, r3
 800502c:	f7fb fd80 	bl	8000b30 <__aeabi_fsub>
 8005030:	f7fc f874 	bl	800111c <__aeabi_f2uiz>
 8005034:	4659      	mov	r1, fp
 8005036:	f8a8 0000 	strh.w	r0, [r8]
 800503a:	4630      	mov	r0, r6
 800503c:	f7fb fd78 	bl	8000b30 <__aeabi_fsub>
 8005040:	e6d7      	b.n	8004df2 <TIM4_IRQHandler+0x452>
 8005042:	4621      	mov	r1, r4
 8005044:	4648      	mov	r0, r9
 8005046:	f7fb fd73 	bl	8000b30 <__aeabi_fsub>
 800504a:	f7fc f867 	bl	800111c <__aeabi_f2uiz>
 800504e:	4621      	mov	r1, r4
 8005050:	8038      	strh	r0, [r7, #0]
 8005052:	4628      	mov	r0, r5
 8005054:	f7fb fd6c 	bl	8000b30 <__aeabi_fsub>
 8005058:	e705      	b.n	8004e66 <TIM4_IRQHandler+0x4c6>
 800505a:	4622      	mov	r2, r4
 800505c:	e9d9 0100 	ldrd	r0, r1, [r9]
 8005060:	462b      	mov	r3, r5
 8005062:	f7fb fb63 	bl	800072c <__aeabi_ddiv>
 8005066:	f005 ff99 	bl	800af9c <acos>
 800506a:	2200      	movs	r2, #0
 800506c:	4b48      	ldr	r3, [pc, #288]	; (8005190 <TIM4_IRQHandler+0x7f0>)
 800506e:	f7fb fa33 	bl	80004d8 <__aeabi_dmul>
 8005072:	a345      	add	r3, pc, #276	; (adr r3, 8005188 <TIM4_IRQHandler+0x7e8>)
 8005074:	e9d3 2300 	ldrd	r2, r3, [r3]
 8005078:	f7fb fb58 	bl	800072c <__aeabi_ddiv>
 800507c:	4604      	mov	r4, r0
 800507e:	460d      	mov	r5, r1
 8005080:	e9d8 0100 	ldrd	r0, r1, [r8]
 8005084:	2200      	movs	r2, #0
 8005086:	2300      	movs	r3, #0
 8005088:	e9c6 4500 	strd	r4, r5, [r6]
 800508c:	f7fb fc96 	bl	80009bc <__aeabi_dcmplt>
 8005090:	2800      	cmp	r0, #0
 8005092:	f43f af57 	beq.w	8004f44 <TIM4_IRQHandler+0x5a4>
 8005096:	4622      	mov	r2, r4
 8005098:	462b      	mov	r3, r5
 800509a:	2000      	movs	r0, #0
 800509c:	493d      	ldr	r1, [pc, #244]	; (8005194 <TIM4_IRQHandler+0x7f4>)
 800509e:	f7fb f863 	bl	8000168 <__aeabi_dsub>
 80050a2:	e9c6 0100 	strd	r0, r1, [r6]
 80050a6:	e74d      	b.n	8004f44 <TIM4_IRQHandler+0x5a4>
 80050a8:	b14d      	cbz	r5, 80050be <TIM4_IRQHandler+0x71e>
 80050aa:	2f01      	cmp	r7, #1
 80050ac:	d107      	bne.n	80050be <TIM4_IRQHandler+0x71e>
 80050ae:	483a      	ldr	r0, [pc, #232]	; (8005198 <TIM4_IRQHandler+0x7f8>)
 80050b0:	f002 f9da 	bl	8007468 <HAL_TIM_Base_Stop_IT>
 80050b4:	2300      	movs	r3, #0
 80050b6:	8033      	strh	r3, [r6, #0]
 80050b8:	4b38      	ldr	r3, [pc, #224]	; (800519c <TIM4_IRQHandler+0x7fc>)
 80050ba:	701f      	strb	r7, [r3, #0]
 80050bc:	e748      	b.n	8004f50 <TIM4_IRQHandler+0x5b0>
 80050be:	881a      	ldrh	r2, [r3, #0]
 80050c0:	1c51      	adds	r1, r2, #1
 80050c2:	8019      	strh	r1, [r3, #0]
 80050c4:	2a03      	cmp	r2, #3
 80050c6:	d820      	bhi.n	800510a <TIM4_IRQHandler+0x76a>
 80050c8:	e8df f002 	tbb	[pc, r2]
 80050cc:	4a392802 	.word	0x4a392802
 80050d0:	2201      	movs	r2, #1
 80050d2:	2104      	movs	r1, #4
 80050d4:	4832      	ldr	r0, [pc, #200]	; (80051a0 <TIM4_IRQHandler+0x800>)
 80050d6:	f000 fec7 	bl	8005e68 <HAL_GPIO_WritePin>
 80050da:	2200      	movs	r2, #0
 80050dc:	2104      	movs	r1, #4
 80050de:	4830      	ldr	r0, [pc, #192]	; (80051a0 <TIM4_IRQHandler+0x800>)
 80050e0:	f000 fec2 	bl	8005e68 <HAL_GPIO_WritePin>
 80050e4:	2100      	movs	r1, #0
 80050e6:	4b2f      	ldr	r3, [pc, #188]	; (80051a4 <TIM4_IRQHandler+0x804>)
 80050e8:	881a      	ldrh	r2, [r3, #0]
 80050ea:	4b2f      	ldr	r3, [pc, #188]	; (80051a8 <TIM4_IRQHandler+0x808>)
 80050ec:	62da      	str	r2, [r3, #44]	; 0x2c
 80050ee:	4a2f      	ldr	r2, [pc, #188]	; (80051ac <TIM4_IRQHandler+0x80c>)
 80050f0:	68d3      	ldr	r3, [r2, #12]
 80050f2:	f023 0308 	bic.w	r3, r3, #8
 80050f6:	60d3      	str	r3, [r2, #12]
 80050f8:	6863      	ldr	r3, [r4, #4]
 80050fa:	f423 6370 	bic.w	r3, r3, #3840	; 0xf00
 80050fe:	f443 6380 	orr.w	r3, r3, #1024	; 0x400
 8005102:	6063      	str	r3, [r4, #4]
 8005104:	482a      	ldr	r0, [pc, #168]	; (80051b0 <TIM4_IRQHandler+0x810>)
 8005106:	f002 fd99 	bl	8007c3c <HAL_TIM_OC_Start>
 800510a:	2100      	movs	r1, #0
 800510c:	4829      	ldr	r0, [pc, #164]	; (80051b4 <TIM4_IRQHandler+0x814>)
 800510e:	f002 fe1f 	bl	8007d50 <HAL_TIM_IC_Start_IT>
 8005112:	2104      	movs	r1, #4
 8005114:	4827      	ldr	r0, [pc, #156]	; (80051b4 <TIM4_IRQHandler+0x814>)
 8005116:	f002 fe1b 	bl	8007d50 <HAL_TIM_IC_Start_IT>
 800511a:	e719      	b.n	8004f50 <TIM4_IRQHandler+0x5b0>
 800511c:	4b26      	ldr	r3, [pc, #152]	; (80051b8 <TIM4_IRQHandler+0x818>)
 800511e:	2108      	movs	r1, #8
 8005120:	881a      	ldrh	r2, [r3, #0]
 8005122:	4b21      	ldr	r3, [pc, #132]	; (80051a8 <TIM4_IRQHandler+0x808>)
 8005124:	62da      	str	r2, [r3, #44]	; 0x2c
 8005126:	4a21      	ldr	r2, [pc, #132]	; (80051ac <TIM4_IRQHandler+0x80c>)
 8005128:	68d3      	ldr	r3, [r2, #12]
 800512a:	f023 0302 	bic.w	r3, r3, #2
 800512e:	60d3      	str	r3, [r2, #12]
 8005130:	6863      	ldr	r3, [r4, #4]
 8005132:	f023 030f 	bic.w	r3, r3, #15
 8005136:	f043 0304 	orr.w	r3, r3, #4
 800513a:	6063      	str	r3, [r4, #4]
 800513c:	e7e2      	b.n	8005104 <TIM4_IRQHandler+0x764>
 800513e:	4b1f      	ldr	r3, [pc, #124]	; (80051bc <TIM4_IRQHandler+0x81c>)
 8005140:	2104      	movs	r1, #4
 8005142:	881a      	ldrh	r2, [r3, #0]
 8005144:	4b18      	ldr	r3, [pc, #96]	; (80051a8 <TIM4_IRQHandler+0x808>)
 8005146:	62da      	str	r2, [r3, #44]	; 0x2c
 8005148:	4a18      	ldr	r2, [pc, #96]	; (80051ac <TIM4_IRQHandler+0x80c>)
 800514a:	68d3      	ldr	r3, [r2, #12]
 800514c:	f023 0310 	bic.w	r3, r3, #16
 8005150:	60d3      	str	r3, [r2, #12]
 8005152:	6863      	ldr	r3, [r4, #4]
 8005154:	f423 4370 	bic.w	r3, r3, #61440	; 0xf000
 8005158:	f443 4380 	orr.w	r3, r3, #16384	; 0x4000
 800515c:	6063      	str	r3, [r4, #4]
 800515e:	e7d1      	b.n	8005104 <TIM4_IRQHandler+0x764>
 8005160:	4b17      	ldr	r3, [pc, #92]	; (80051c0 <TIM4_IRQHandler+0x820>)
 8005162:	210c      	movs	r1, #12
 8005164:	881a      	ldrh	r2, [r3, #0]
 8005166:	4b10      	ldr	r3, [pc, #64]	; (80051a8 <TIM4_IRQHandler+0x808>)
 8005168:	62da      	str	r2, [r3, #44]	; 0x2c
 800516a:	4a10      	ldr	r2, [pc, #64]	; (80051ac <TIM4_IRQHandler+0x80c>)
 800516c:	68d3      	ldr	r3, [r2, #12]
 800516e:	f023 0304 	bic.w	r3, r3, #4
 8005172:	60d3      	str	r3, [r2, #12]
 8005174:	6863      	ldr	r3, [r4, #4]
 8005176:	f023 03f0 	bic.w	r3, r3, #240	; 0xf0
 800517a:	f043 0340 	orr.w	r3, r3, #64	; 0x40
 800517e:	6063      	str	r3, [r4, #4]
 8005180:	e7c0      	b.n	8005104 <TIM4_IRQHandler+0x764>
 8005182:	bf00      	nop
 8005184:	f3af 8000 	nop.w
 8005188:	4d12d84a 	.word	0x4d12d84a
 800518c:	400921fb 	.word	0x400921fb
 8005190:	40668000 	.word	0x40668000
 8005194:	40768000 	.word	0x40768000
 8005198:	2000126c 	.word	0x2000126c
 800519c:	20000594 	.word	0x20000594
 80051a0:	40010800 	.word	0x40010800
 80051a4:	200005ec 	.word	0x200005ec
 80051a8:	40000400 	.word	0x40000400
 80051ac:	40010c00 	.word	0x40010c00
 80051b0:	200013ac 	.word	0x200013ac
 80051b4:	200013f4 	.word	0x200013f4
 80051b8:	200005b8 	.word	0x200005b8
 80051bc:	200005b4 	.word	0x200005b4
 80051c0:	2000098c 	.word	0x2000098c

080051c4 <_getpid>:
 80051c4:	2001      	movs	r0, #1
 80051c6:	4770      	bx	lr

080051c8 <_kill>:
 80051c8:	b508      	push	{r3, lr}
 80051ca:	f003 f813 	bl	80081f4 <__errno>
 80051ce:	2316      	movs	r3, #22
 80051d0:	6003      	str	r3, [r0, #0]
 80051d2:	f04f 30ff 	mov.w	r0, #4294967295	; 0xffffffff
 80051d6:	bd08      	pop	{r3, pc}

080051d8 <_exit>:
 80051d8:	b508      	push	{r3, lr}
 80051da:	f003 f80b 	bl	80081f4 <__errno>
 80051de:	2316      	movs	r3, #22
 80051e0:	6003      	str	r3, [r0, #0]
 80051e2:	e7fe      	b.n	80051e2 <_exit+0xa>

080051e4 <_read>:
 80051e4:	b570      	push	{r4, r5, r6, lr}
 80051e6:	460e      	mov	r6, r1
 80051e8:	4614      	mov	r4, r2
 80051ea:	2500      	movs	r5, #0
 80051ec:	42a5      	cmp	r5, r4
 80051ee:	db01      	blt.n	80051f4 <_read+0x10>
 80051f0:	4620      	mov	r0, r4
 80051f2:	bd70      	pop	{r4, r5, r6, pc}
 80051f4:	f3af 8000 	nop.w
 80051f8:	5570      	strb	r0, [r6, r5]
 80051fa:	3501      	adds	r5, #1
 80051fc:	e7f6      	b.n	80051ec <_read+0x8>

080051fe <_write>:
 80051fe:	b570      	push	{r4, r5, r6, lr}
 8005200:	460e      	mov	r6, r1
 8005202:	4614      	mov	r4, r2
 8005204:	2500      	movs	r5, #0
 8005206:	42a5      	cmp	r5, r4
 8005208:	db01      	blt.n	800520e <_write+0x10>
 800520a:	4620      	mov	r0, r4
 800520c:	bd70      	pop	{r4, r5, r6, pc}
 800520e:	5d70      	ldrb	r0, [r6, r5]
 8005210:	f3af 8000 	nop.w
 8005214:	3501      	adds	r5, #1
 8005216:	e7f6      	b.n	8005206 <_write+0x8>

08005218 <_close>:
 8005218:	f04f 30ff 	mov.w	r0, #4294967295	; 0xffffffff
 800521c:	4770      	bx	lr

0800521e <_fstat>:
 800521e:	f44f 5300 	mov.w	r3, #8192	; 0x2000
 8005222:	2000      	movs	r0, #0
 8005224:	604b      	str	r3, [r1, #4]
 8005226:	4770      	bx	lr

08005228 <_isatty>:
 8005228:	2001      	movs	r0, #1
 800522a:	4770      	bx	lr

0800522c <_lseek>:
 800522c:	2000      	movs	r0, #0
 800522e:	4770      	bx	lr

08005230 <_sbrk>:
 8005230:	4b0b      	ldr	r3, [pc, #44]	; (8005260 <_sbrk+0x30>)
 8005232:	4602      	mov	r2, r0
 8005234:	6819      	ldr	r1, [r3, #0]
 8005236:	b510      	push	{r4, lr}
 8005238:	b909      	cbnz	r1, 800523e <_sbrk+0xe>
 800523a:	490a      	ldr	r1, [pc, #40]	; (8005264 <_sbrk+0x34>)
 800523c:	6019      	str	r1, [r3, #0]
 800523e:	6818      	ldr	r0, [r3, #0]
 8005240:	4909      	ldr	r1, [pc, #36]	; (8005268 <_sbrk+0x38>)
 8005242:	4c0a      	ldr	r4, [pc, #40]	; (800526c <_sbrk+0x3c>)
 8005244:	4402      	add	r2, r0
 8005246:	1b09      	subs	r1, r1, r4
 8005248:	428a      	cmp	r2, r1
 800524a:	d906      	bls.n	800525a <_sbrk+0x2a>
 800524c:	f002 ffd2 	bl	80081f4 <__errno>
 8005250:	230c      	movs	r3, #12
 8005252:	6003      	str	r3, [r0, #0]
 8005254:	f04f 30ff 	mov.w	r0, #4294967295	; 0xffffffff
 8005258:	bd10      	pop	{r4, pc}
 800525a:	601a      	str	r2, [r3, #0]
 800525c:	e7fc      	b.n	8005258 <_sbrk+0x28>
 800525e:	bf00      	nop
 8005260:	20000578 	.word	0x20000578
 8005264:	20001478 	.word	0x20001478
 8005268:	20005000 	.word	0x20005000
 800526c:	00000400 	.word	0x00000400

08005270 <SystemInit>:
 8005270:	4770      	bx	lr
	...

08005274 <WIZCHIP_READ>:
 8005274:	b573      	push	{r0, r1, r4, r5, r6, lr}
 8005276:	4605      	mov	r5, r0
 8005278:	4c14      	ldr	r4, [pc, #80]	; (80052cc <WIZCHIP_READ+0x58>)
 800527a:	f3c5 2607 	ubfx	r6, r5, #8, #8
 800527e:	68e3      	ldr	r3, [r4, #12]
 8005280:	4798      	blx	r3
 8005282:	6963      	ldr	r3, [r4, #20]
 8005284:	4798      	blx	r3
 8005286:	6a63      	ldr	r3, [r4, #36]	; 0x24
 8005288:	f3c5 4007 	ubfx	r0, r5, #16, #8
 800528c:	b2ed      	uxtb	r5, r5
 800528e:	b10b      	cbz	r3, 8005294 <WIZCHIP_READ+0x20>
 8005290:	6aa3      	ldr	r3, [r4, #40]	; 0x28
 8005292:	b98b      	cbnz	r3, 80052b8 <WIZCHIP_READ+0x44>
 8005294:	6a23      	ldr	r3, [r4, #32]
 8005296:	4798      	blx	r3
 8005298:	4630      	mov	r0, r6
 800529a:	6a23      	ldr	r3, [r4, #32]
 800529c:	4798      	blx	r3
 800529e:	4628      	mov	r0, r5
 80052a0:	6a23      	ldr	r3, [r4, #32]
 80052a2:	4798      	blx	r3
 80052a4:	69e3      	ldr	r3, [r4, #28]
 80052a6:	4798      	blx	r3
 80052a8:	4605      	mov	r5, r0
 80052aa:	69a3      	ldr	r3, [r4, #24]
 80052ac:	4798      	blx	r3
 80052ae:	6923      	ldr	r3, [r4, #16]
 80052b0:	4798      	blx	r3
 80052b2:	4628      	mov	r0, r5
 80052b4:	b002      	add	sp, #8
 80052b6:	bd70      	pop	{r4, r5, r6, pc}
 80052b8:	f88d 0004 	strb.w	r0, [sp, #4]
 80052bc:	2103      	movs	r1, #3
 80052be:	f88d 6005 	strb.w	r6, [sp, #5]
 80052c2:	f88d 5006 	strb.w	r5, [sp, #6]
 80052c6:	a801      	add	r0, sp, #4
 80052c8:	4798      	blx	r3
 80052ca:	e7eb      	b.n	80052a4 <WIZCHIP_READ+0x30>
 80052cc:	2000013c 	.word	0x2000013c

080052d0 <WIZCHIP_WRITE>:
 80052d0:	b5f7      	push	{r0, r1, r2, r4, r5, r6, r7, lr}
 80052d2:	4605      	mov	r5, r0
 80052d4:	4c16      	ldr	r4, [pc, #88]	; (8005330 <WIZCHIP_WRITE+0x60>)
 80052d6:	460f      	mov	r7, r1
 80052d8:	68e3      	ldr	r3, [r4, #12]
 80052da:	4798      	blx	r3
 80052dc:	6963      	ldr	r3, [r4, #20]
 80052de:	4798      	blx	r3
 80052e0:	6aa3      	ldr	r3, [r4, #40]	; 0x28
 80052e2:	f045 0604 	orr.w	r6, r5, #4
 80052e6:	f3c5 4007 	ubfx	r0, r5, #16, #8
 80052ea:	b2f6      	uxtb	r6, r6
 80052ec:	f3c5 2507 	ubfx	r5, r5, #8, #8
 80052f0:	b983      	cbnz	r3, 8005314 <WIZCHIP_WRITE+0x44>
 80052f2:	6a23      	ldr	r3, [r4, #32]
 80052f4:	4798      	blx	r3
 80052f6:	4628      	mov	r0, r5
 80052f8:	6a23      	ldr	r3, [r4, #32]
 80052fa:	4798      	blx	r3
 80052fc:	4630      	mov	r0, r6
 80052fe:	6a23      	ldr	r3, [r4, #32]
 8005300:	4798      	blx	r3
 8005302:	4638      	mov	r0, r7
 8005304:	6a23      	ldr	r3, [r4, #32]
 8005306:	4798      	blx	r3
 8005308:	69a3      	ldr	r3, [r4, #24]
 800530a:	4798      	blx	r3
 800530c:	6923      	ldr	r3, [r4, #16]
 800530e:	4798      	blx	r3
 8005310:	b003      	add	sp, #12
 8005312:	bdf0      	pop	{r4, r5, r6, r7, pc}
 8005314:	2104      	movs	r1, #4
 8005316:	f88d 0004 	strb.w	r0, [sp, #4]
 800531a:	f88d 5005 	strb.w	r5, [sp, #5]
 800531e:	f88d 6006 	strb.w	r6, [sp, #6]
 8005322:	f88d 7007 	strb.w	r7, [sp, #7]
 8005326:	eb0d 0001 	add.w	r0, sp, r1
 800532a:	4798      	blx	r3
 800532c:	e7ec      	b.n	8005308 <WIZCHIP_WRITE+0x38>
 800532e:	bf00      	nop
 8005330:	2000013c 	.word	0x2000013c

08005334 <WIZCHIP_READ_BUF>:
 8005334:	e92d 41f3 	stmdb	sp!, {r0, r1, r4, r5, r6, r7, r8, lr}
 8005338:	4605      	mov	r5, r0
 800533a:	4c1a      	ldr	r4, [pc, #104]	; (80053a4 <WIZCHIP_READ_BUF+0x70>)
 800533c:	460e      	mov	r6, r1
 800533e:	68e3      	ldr	r3, [r4, #12]
 8005340:	4617      	mov	r7, r2
 8005342:	4798      	blx	r3
 8005344:	6963      	ldr	r3, [r4, #20]
 8005346:	4798      	blx	r3
 8005348:	6a63      	ldr	r3, [r4, #36]	; 0x24
 800534a:	f3c5 4007 	ubfx	r0, r5, #16, #8
 800534e:	f3c5 2807 	ubfx	r8, r5, #8, #8
 8005352:	b2ed      	uxtb	r5, r5
 8005354:	b10b      	cbz	r3, 800535a <WIZCHIP_READ_BUF+0x26>
 8005356:	6aa3      	ldr	r3, [r4, #40]	; 0x28
 8005358:	b9b3      	cbnz	r3, 8005388 <WIZCHIP_READ_BUF+0x54>
 800535a:	6a23      	ldr	r3, [r4, #32]
 800535c:	4798      	blx	r3
 800535e:	4640      	mov	r0, r8
 8005360:	6a23      	ldr	r3, [r4, #32]
 8005362:	4798      	blx	r3
 8005364:	4628      	mov	r0, r5
 8005366:	6a23      	ldr	r3, [r4, #32]
 8005368:	4798      	blx	r3
 800536a:	4437      	add	r7, r6
 800536c:	42b7      	cmp	r7, r6
 800536e:	d106      	bne.n	800537e <WIZCHIP_READ_BUF+0x4a>
 8005370:	69a3      	ldr	r3, [r4, #24]
 8005372:	4798      	blx	r3
 8005374:	6923      	ldr	r3, [r4, #16]
 8005376:	4798      	blx	r3
 8005378:	b002      	add	sp, #8
 800537a:	e8bd 81f0 	ldmia.w	sp!, {r4, r5, r6, r7, r8, pc}
 800537e:	69e3      	ldr	r3, [r4, #28]
 8005380:	4798      	blx	r3
 8005382:	f806 0b01 	strb.w	r0, [r6], #1
 8005386:	e7f1      	b.n	800536c <WIZCHIP_READ_BUF+0x38>
 8005388:	f88d 0004 	strb.w	r0, [sp, #4]
 800538c:	2103      	movs	r1, #3
 800538e:	a801      	add	r0, sp, #4
 8005390:	f88d 8005 	strb.w	r8, [sp, #5]
 8005394:	f88d 5006 	strb.w	r5, [sp, #6]
 8005398:	4798      	blx	r3
 800539a:	4639      	mov	r1, r7
 800539c:	4630      	mov	r0, r6
 800539e:	6a63      	ldr	r3, [r4, #36]	; 0x24
 80053a0:	4798      	blx	r3
 80053a2:	e7e5      	b.n	8005370 <WIZCHIP_READ_BUF+0x3c>
 80053a4:	2000013c 	.word	0x2000013c

080053a8 <WIZCHIP_WRITE_BUF>:
 80053a8:	e92d 41f3 	stmdb	sp!, {r0, r1, r4, r5, r6, r7, r8, lr}
 80053ac:	4605      	mov	r5, r0
 80053ae:	4c1a      	ldr	r4, [pc, #104]	; (8005418 <WIZCHIP_WRITE_BUF+0x70>)
 80053b0:	4688      	mov	r8, r1
 80053b2:	68e3      	ldr	r3, [r4, #12]
 80053b4:	4617      	mov	r7, r2
 80053b6:	4798      	blx	r3
 80053b8:	6963      	ldr	r3, [r4, #20]
 80053ba:	4798      	blx	r3
 80053bc:	6aa3      	ldr	r3, [r4, #40]	; 0x28
 80053be:	f045 0604 	orr.w	r6, r5, #4
 80053c2:	f3c5 4007 	ubfx	r0, r5, #16, #8
 80053c6:	b2f6      	uxtb	r6, r6
 80053c8:	f3c5 2507 	ubfx	r5, r5, #8, #8
 80053cc:	b9b3      	cbnz	r3, 80053fc <WIZCHIP_WRITE_BUF+0x54>
 80053ce:	6a23      	ldr	r3, [r4, #32]
 80053d0:	4798      	blx	r3
 80053d2:	4628      	mov	r0, r5
 80053d4:	6a23      	ldr	r3, [r4, #32]
 80053d6:	4798      	blx	r3
 80053d8:	4630      	mov	r0, r6
 80053da:	6a23      	ldr	r3, [r4, #32]
 80053dc:	4798      	blx	r3
 80053de:	4447      	add	r7, r8
 80053e0:	4547      	cmp	r7, r8
 80053e2:	d106      	bne.n	80053f2 <WIZCHIP_WRITE_BUF+0x4a>
 80053e4:	69a3      	ldr	r3, [r4, #24]
 80053e6:	4798      	blx	r3
 80053e8:	6923      	ldr	r3, [r4, #16]
 80053ea:	4798      	blx	r3
 80053ec:	b002      	add	sp, #8
 80053ee:	e8bd 81f0 	ldmia.w	sp!, {r4, r5, r6, r7, r8, pc}
 80053f2:	6a23      	ldr	r3, [r4, #32]
 80053f4:	f818 0b01 	ldrb.w	r0, [r8], #1
 80053f8:	4798      	blx	r3
 80053fa:	e7f1      	b.n	80053e0 <WIZCHIP_WRITE_BUF+0x38>
 80053fc:	f88d 0004 	strb.w	r0, [sp, #4]
 8005400:	2103      	movs	r1, #3
 8005402:	a801      	add	r0, sp, #4
 8005404:	f88d 5005 	strb.w	r5, [sp, #5]
 8005408:	f88d 6006 	strb.w	r6, [sp, #6]
 800540c:	4798      	blx	r3
 800540e:	4639      	mov	r1, r7
 8005410:	4640      	mov	r0, r8
 8005412:	6aa3      	ldr	r3, [r4, #40]	; 0x28
 8005414:	4798      	blx	r3
 8005416:	e7e5      	b.n	80053e4 <WIZCHIP_WRITE_BUF+0x3c>
 8005418:	2000013c 	.word	0x2000013c

0800541c <getSn_TX_FSR>:
 800541c:	b5f8      	push	{r3, r4, r5, r6, r7, lr}
 800541e:	2400      	movs	r4, #0
 8005420:	0146      	lsls	r6, r0, #5
 8005422:	3608      	adds	r6, #8
 8005424:	f506 5700 	add.w	r7, r6, #8192	; 0x2000
 8005428:	f506 5604 	add.w	r6, r6, #8448	; 0x2100
 800542c:	4638      	mov	r0, r7
 800542e:	f7ff ff21 	bl	8005274 <WIZCHIP_READ>
 8005432:	0205      	lsls	r5, r0, #8
 8005434:	4630      	mov	r0, r6
 8005436:	f7ff ff1d 	bl	8005274 <WIZCHIP_READ>
 800543a:	b2ad      	uxth	r5, r5
 800543c:	4405      	add	r5, r0
 800543e:	b2ad      	uxth	r5, r5
 8005440:	b14d      	cbz	r5, 8005456 <getSn_TX_FSR+0x3a>
 8005442:	4638      	mov	r0, r7
 8005444:	f7ff ff16 	bl	8005274 <WIZCHIP_READ>
 8005448:	0204      	lsls	r4, r0, #8
 800544a:	4630      	mov	r0, r6
 800544c:	f7ff ff12 	bl	8005274 <WIZCHIP_READ>
 8005450:	b2a4      	uxth	r4, r4
 8005452:	4404      	add	r4, r0
 8005454:	b2a4      	uxth	r4, r4
 8005456:	42ac      	cmp	r4, r5
 8005458:	d1e8      	bne.n	800542c <getSn_TX_FSR+0x10>
 800545a:	4620      	mov	r0, r4
 800545c:	bdf8      	pop	{r3, r4, r5, r6, r7, pc}

0800545e <getSn_RX_RSR>:
 800545e:	b5f8      	push	{r3, r4, r5, r6, r7, lr}
 8005460:	2400      	movs	r4, #0
 8005462:	0146      	lsls	r6, r0, #5
 8005464:	3608      	adds	r6, #8
 8005466:	f506 5718 	add.w	r7, r6, #9728	; 0x2600
 800546a:	f506 561c 	add.w	r6, r6, #9984	; 0x2700
 800546e:	4638      	mov	r0, r7
 8005470:	f7ff ff00 	bl	8005274 <WIZCHIP_READ>
 8005474:	0205      	lsls	r5, r0, #8
 8005476:	4630      	mov	r0, r6
 8005478:	f7ff fefc 	bl	8005274 <WIZCHIP_READ>
 800547c:	b2ad      	uxth	r5, r5
 800547e:	4405      	add	r5, r0
 8005480:	b2ad      	uxth	r5, r5
 8005482:	b14d      	cbz	r5, 8005498 <getSn_RX_RSR+0x3a>
 8005484:	4638      	mov	r0, r7
 8005486:	f7ff fef5 	bl	8005274 <WIZCHIP_READ>
 800548a:	0204      	lsls	r4, r0, #8
 800548c:	4630      	mov	r0, r6
 800548e:	f7ff fef1 	bl	8005274 <WIZCHIP_READ>
 8005492:	b2a4      	uxth	r4, r4
 8005494:	4404      	add	r4, r0
 8005496:	b2a4      	uxth	r4, r4
 8005498:	42ac      	cmp	r4, r5
 800549a:	d1e8      	bne.n	800546e <getSn_RX_RSR+0x10>
 800549c:	4620      	mov	r0, r4
 800549e:	bdf8      	pop	{r3, r4, r5, r6, r7, pc}

080054a0 <wiz_send_data>:
 80054a0:	e92d 43f8 	stmdb	sp!, {r3, r4, r5, r6, r7, r8, r9, lr}
 80054a4:	4689      	mov	r9, r1
 80054a6:	4614      	mov	r4, r2
 80054a8:	b32a      	cbz	r2, 80054f6 <wiz_send_data+0x56>
 80054aa:	0085      	lsls	r5, r0, #2
 80054ac:	1c6f      	adds	r7, r5, #1
 80054ae:	00ff      	lsls	r7, r7, #3
 80054b0:	f507 5810 	add.w	r8, r7, #9216	; 0x2400
 80054b4:	4640      	mov	r0, r8
 80054b6:	f7ff fedd 	bl	8005274 <WIZCHIP_READ>
 80054ba:	f507 5714 	add.w	r7, r7, #9472	; 0x2500
 80054be:	4606      	mov	r6, r0
 80054c0:	4638      	mov	r0, r7
 80054c2:	f7ff fed7 	bl	8005274 <WIZCHIP_READ>
 80054c6:	eb00 2006 	add.w	r0, r0, r6, lsl #8
 80054ca:	b286      	uxth	r6, r0
 80054cc:	3502      	adds	r5, #2
 80054ce:	0230      	lsls	r0, r6, #8
 80054d0:	4622      	mov	r2, r4
 80054d2:	4649      	mov	r1, r9
 80054d4:	eb00 00c5 	add.w	r0, r0, r5, lsl #3
 80054d8:	f7ff ff66 	bl	80053a8 <WIZCHIP_WRITE_BUF>
 80054dc:	19a1      	adds	r1, r4, r6
 80054de:	4640      	mov	r0, r8
 80054e0:	b28c      	uxth	r4, r1
 80054e2:	f3c1 2107 	ubfx	r1, r1, #8, #8
 80054e6:	f7ff fef3 	bl	80052d0 <WIZCHIP_WRITE>
 80054ea:	4638      	mov	r0, r7
 80054ec:	b2e1      	uxtb	r1, r4
 80054ee:	e8bd 43f8 	ldmia.w	sp!, {r3, r4, r5, r6, r7, r8, r9, lr}
 80054f2:	f7ff beed 	b.w	80052d0 <WIZCHIP_WRITE>
 80054f6:	e8bd 83f8 	ldmia.w	sp!, {r3, r4, r5, r6, r7, r8, r9, pc}

080054fa <wiz_recv_data>:
 80054fa:	e92d 43f8 	stmdb	sp!, {r3, r4, r5, r6, r7, r8, r9, lr}
 80054fe:	4689      	mov	r9, r1
 8005500:	4614      	mov	r4, r2
 8005502:	b32a      	cbz	r2, 8005550 <wiz_recv_data+0x56>
 8005504:	0085      	lsls	r5, r0, #2
 8005506:	1c6f      	adds	r7, r5, #1
 8005508:	00ff      	lsls	r7, r7, #3
 800550a:	f507 5820 	add.w	r8, r7, #10240	; 0x2800
 800550e:	4640      	mov	r0, r8
 8005510:	f7ff feb0 	bl	8005274 <WIZCHIP_READ>
 8005514:	f507 5724 	add.w	r7, r7, #10496	; 0x2900
 8005518:	4606      	mov	r6, r0
 800551a:	4638      	mov	r0, r7
 800551c:	f7ff feaa 	bl	8005274 <WIZCHIP_READ>
 8005520:	eb00 2006 	add.w	r0, r0, r6, lsl #8
 8005524:	b286      	uxth	r6, r0
 8005526:	3503      	adds	r5, #3
 8005528:	0230      	lsls	r0, r6, #8
 800552a:	4622      	mov	r2, r4
 800552c:	4649      	mov	r1, r9
 800552e:	eb00 00c5 	add.w	r0, r0, r5, lsl #3
 8005532:	f7ff feff 	bl	8005334 <WIZCHIP_READ_BUF>
 8005536:	19a1      	adds	r1, r4, r6
 8005538:	4640      	mov	r0, r8
 800553a:	b28c      	uxth	r4, r1
 800553c:	f3c1 2107 	ubfx	r1, r1, #8, #8
 8005540:	f7ff fec6 	bl	80052d0 <WIZCHIP_WRITE>
 8005544:	4638      	mov	r0, r7
 8005546:	b2e1      	uxtb	r1, r4
 8005548:	e8bd 43f8 	ldmia.w	sp!, {r3, r4, r5, r6, r7, r8, r9, lr}
 800554c:	f7ff bec0 	b.w	80052d0 <WIZCHIP_WRITE>
 8005550:	e8bd 83f8 	ldmia.w	sp!, {r3, r4, r5, r6, r7, r8, r9, pc}

08005554 <wiz_recv_ignore>:
 8005554:	b5f8      	push	{r3, r4, r5, r6, r7, lr}
 8005556:	0144      	lsls	r4, r0, #5
 8005558:	3408      	adds	r4, #8
 800555a:	f504 5720 	add.w	r7, r4, #10240	; 0x2800
 800555e:	4638      	mov	r0, r7
 8005560:	460d      	mov	r5, r1
 8005562:	f7ff fe87 	bl	8005274 <WIZCHIP_READ>
 8005566:	f504 5424 	add.w	r4, r4, #10496	; 0x2900
 800556a:	4606      	mov	r6, r0
 800556c:	4620      	mov	r0, r4
 800556e:	f7ff fe81 	bl	8005274 <WIZCHIP_READ>
 8005572:	1829      	adds	r1, r5, r0
 8005574:	eb01 2106 	add.w	r1, r1, r6, lsl #8
 8005578:	4638      	mov	r0, r7
 800557a:	b28d      	uxth	r5, r1
 800557c:	f3c1 2107 	ubfx	r1, r1, #8, #8
 8005580:	f7ff fea6 	bl	80052d0 <WIZCHIP_WRITE>
 8005584:	4620      	mov	r0, r4
 8005586:	b2e9      	uxtb	r1, r5
 8005588:	e8bd 40f8 	ldmia.w	sp!, {r3, r4, r5, r6, r7, lr}
 800558c:	f7ff bea0 	b.w	80052d0 <WIZCHIP_WRITE>

08005590 <wizchip_cris_enter>:
 8005590:	4770      	bx	lr

08005592 <wizchip_bus_readdata>:
 8005592:	7800      	ldrb	r0, [r0, #0]
 8005594:	4770      	bx	lr

08005596 <wizchip_bus_writedata>:
 8005596:	7001      	strb	r1, [r0, #0]
 8005598:	4770      	bx	lr

0800559a <wizchip_spi_readbyte>:
 800559a:	2000      	movs	r0, #0
 800559c:	4770      	bx	lr

0800559e <wizchip_spi_writebyte>:
 800559e:	4770      	bx	lr

080055a0 <wizchip_spi_readburst>:
 80055a0:	4770      	bx	lr

080055a2 <wizchip_spi_writeburst>:
 80055a2:	4770      	bx	lr

080055a4 <wizchip_cris_exit>:
 80055a4:	4770      	bx	lr

080055a6 <wizchip_cs_select>:
 80055a6:	4770      	bx	lr

080055a8 <wizchip_cs_deselect>:
 80055a8:	4770      	bx	lr
	...

080055ac <reg_wizchip_cs_cbfunc>:
 80055ac:	4b05      	ldr	r3, [pc, #20]	; (80055c4 <reg_wizchip_cs_cbfunc+0x18>)
 80055ae:	b100      	cbz	r0, 80055b2 <reg_wizchip_cs_cbfunc+0x6>
 80055b0:	b921      	cbnz	r1, 80055bc <reg_wizchip_cs_cbfunc+0x10>
 80055b2:	4a05      	ldr	r2, [pc, #20]	; (80055c8 <reg_wizchip_cs_cbfunc+0x1c>)
 80055b4:	615a      	str	r2, [r3, #20]
 80055b6:	4a05      	ldr	r2, [pc, #20]	; (80055cc <reg_wizchip_cs_cbfunc+0x20>)
 80055b8:	619a      	str	r2, [r3, #24]
 80055ba:	4770      	bx	lr
 80055bc:	e9c3 0105 	strd	r0, r1, [r3, #20]
 80055c0:	4770      	bx	lr
 80055c2:	bf00      	nop
 80055c4:	2000013c 	.word	0x2000013c
 80055c8:	080055a7 	.word	0x080055a7
 80055cc:	080055a9 	.word	0x080055a9

080055d0 <reg_wizchip_spi_cbfunc>:
 80055d0:	4b08      	ldr	r3, [pc, #32]	; (80055f4 <reg_wizchip_spi_cbfunc+0x24>)
 80055d2:	b510      	push	{r4, lr}
 80055d4:	881c      	ldrh	r4, [r3, #0]
 80055d6:	461a      	mov	r2, r3
 80055d8:	05a4      	lsls	r4, r4, #22
 80055da:	d400      	bmi.n	80055de <reg_wizchip_spi_cbfunc+0xe>
 80055dc:	e7fe      	b.n	80055dc <reg_wizchip_spi_cbfunc+0xc>
 80055de:	b100      	cbz	r0, 80055e2 <reg_wizchip_spi_cbfunc+0x12>
 80055e0:	b921      	cbnz	r1, 80055ec <reg_wizchip_spi_cbfunc+0x1c>
 80055e2:	4b05      	ldr	r3, [pc, #20]	; (80055f8 <reg_wizchip_spi_cbfunc+0x28>)
 80055e4:	61d3      	str	r3, [r2, #28]
 80055e6:	4b05      	ldr	r3, [pc, #20]	; (80055fc <reg_wizchip_spi_cbfunc+0x2c>)
 80055e8:	6213      	str	r3, [r2, #32]
 80055ea:	bd10      	pop	{r4, pc}
 80055ec:	e9c3 0107 	strd	r0, r1, [r3, #28]
 80055f0:	e7fb      	b.n	80055ea <reg_wizchip_spi_cbfunc+0x1a>
 80055f2:	bf00      	nop
 80055f4:	2000013c 	.word	0x2000013c
 80055f8:	0800559b 	.word	0x0800559b
 80055fc:	0800559f 	.word	0x0800559f

08005600 <reg_wizchip_spiburst_cbfunc>:
 8005600:	4b08      	ldr	r3, [pc, #32]	; (8005624 <reg_wizchip_spiburst_cbfunc+0x24>)
 8005602:	b510      	push	{r4, lr}
 8005604:	881c      	ldrh	r4, [r3, #0]
 8005606:	461a      	mov	r2, r3
 8005608:	05a4      	lsls	r4, r4, #22
 800560a:	d400      	bmi.n	800560e <reg_wizchip_spiburst_cbfunc+0xe>
 800560c:	e7fe      	b.n	800560c <reg_wizchip_spiburst_cbfunc+0xc>
 800560e:	b100      	cbz	r0, 8005612 <reg_wizchip_spiburst_cbfunc+0x12>
 8005610:	b921      	cbnz	r1, 800561c <reg_wizchip_spiburst_cbfunc+0x1c>
 8005612:	4b05      	ldr	r3, [pc, #20]	; (8005628 <reg_wizchip_spiburst_cbfunc+0x28>)
 8005614:	6253      	str	r3, [r2, #36]	; 0x24
 8005616:	4b05      	ldr	r3, [pc, #20]	; (800562c <reg_wizchip_spiburst_cbfunc+0x2c>)
 8005618:	6293      	str	r3, [r2, #40]	; 0x28
 800561a:	bd10      	pop	{r4, pc}
 800561c:	e9c3 0109 	strd	r0, r1, [r3, #36]	; 0x24
 8005620:	e7fb      	b.n	800561a <reg_wizchip_spiburst_cbfunc+0x1a>
 8005622:	bf00      	nop
 8005624:	2000013c 	.word	0x2000013c
 8005628:	080055a1 	.word	0x080055a1
 800562c:	080055a3 	.word	0x080055a3

08005630 <wizchip_sw_reset>:
 8005630:	b57f      	push	{r0, r1, r2, r3, r4, r5, r6, lr}
 8005632:	2206      	movs	r2, #6
 8005634:	a904      	add	r1, sp, #16
 8005636:	f44f 6010 	mov.w	r0, #2304	; 0x900
 800563a:	f7ff fe7b 	bl	8005334 <WIZCHIP_READ_BUF>
 800563e:	2204      	movs	r2, #4
 8005640:	f44f 7080 	mov.w	r0, #256	; 0x100
 8005644:	eb0d 0102 	add.w	r1, sp, r2
 8005648:	f7ff fe74 	bl	8005334 <WIZCHIP_READ_BUF>
 800564c:	a902      	add	r1, sp, #8
 800564e:	2204      	movs	r2, #4
 8005650:	f44f 60a0 	mov.w	r0, #1280	; 0x500
 8005654:	f7ff fe6e 	bl	8005334 <WIZCHIP_READ_BUF>
 8005658:	2204      	movs	r2, #4
 800565a:	a903      	add	r1, sp, #12
 800565c:	f44f 6070 	mov.w	r0, #3840	; 0xf00
 8005660:	f7ff fe68 	bl	8005334 <WIZCHIP_READ_BUF>
 8005664:	2180      	movs	r1, #128	; 0x80
 8005666:	2000      	movs	r0, #0
 8005668:	f7ff fe32 	bl	80052d0 <WIZCHIP_WRITE>
 800566c:	2000      	movs	r0, #0
 800566e:	f7ff fe01 	bl	8005274 <WIZCHIP_READ>
 8005672:	a904      	add	r1, sp, #16
 8005674:	2206      	movs	r2, #6
 8005676:	f44f 6010 	mov.w	r0, #2304	; 0x900
 800567a:	f7ff fe95 	bl	80053a8 <WIZCHIP_WRITE_BUF>
 800567e:	2204      	movs	r2, #4
 8005680:	f44f 7080 	mov.w	r0, #256	; 0x100
 8005684:	eb0d 0102 	add.w	r1, sp, r2
 8005688:	f7ff fe8e 	bl	80053a8 <WIZCHIP_WRITE_BUF>
 800568c:	a902      	add	r1, sp, #8
 800568e:	2204      	movs	r2, #4
 8005690:	f44f 60a0 	mov.w	r0, #1280	; 0x500
 8005694:	f7ff fe88 	bl	80053a8 <WIZCHIP_WRITE_BUF>
 8005698:	2204      	movs	r2, #4
 800569a:	f44f 6070 	mov.w	r0, #3840	; 0xf00
 800569e:	a903      	add	r1, sp, #12
 80056a0:	f7ff fe82 	bl	80053a8 <WIZCHIP_WRITE_BUF>
 80056a4:	b007      	add	sp, #28
 80056a6:	f85d fb04 	ldr.w	pc, [sp], #4

080056aa <wizchip_init>:
 80056aa:	b5f8      	push	{r3, r4, r5, r6, r7, lr}
 80056ac:	4605      	mov	r5, r0
 80056ae:	460c      	mov	r4, r1
 80056b0:	f7ff ffbe 	bl	8005630 <wizchip_sw_reset>
 80056b4:	b1bd      	cbz	r5, 80056e6 <wizchip_init+0x3c>
 80056b6:	1e6e      	subs	r6, r5, #1
 80056b8:	4632      	mov	r2, r6
 80056ba:	2300      	movs	r3, #0
 80056bc:	3507      	adds	r5, #7
 80056be:	f812 1f01 	ldrb.w	r1, [r2, #1]!
 80056c2:	440b      	add	r3, r1
 80056c4:	b25b      	sxtb	r3, r3
 80056c6:	2b10      	cmp	r3, #16
 80056c8:	dc29      	bgt.n	800571e <wizchip_init+0x74>
 80056ca:	42aa      	cmp	r2, r5
 80056cc:	d1f7      	bne.n	80056be <wizchip_init+0x14>
 80056ce:	f641 7508 	movw	r5, #7944	; 0x1f08
 80056d2:	f242 0708 	movw	r7, #8200	; 0x2008
 80056d6:	4628      	mov	r0, r5
 80056d8:	f816 1f01 	ldrb.w	r1, [r6, #1]!
 80056dc:	3520      	adds	r5, #32
 80056de:	f7ff fdf7 	bl	80052d0 <WIZCHIP_WRITE>
 80056e2:	42bd      	cmp	r5, r7
 80056e4:	d1f7      	bne.n	80056d6 <wizchip_init+0x2c>
 80056e6:	b90c      	cbnz	r4, 80056ec <wizchip_init+0x42>
 80056e8:	2000      	movs	r0, #0
 80056ea:	bdf8      	pop	{r3, r4, r5, r6, r7, pc}
 80056ec:	1e65      	subs	r5, r4, #1
 80056ee:	462a      	mov	r2, r5
 80056f0:	2300      	movs	r3, #0
 80056f2:	3407      	adds	r4, #7
 80056f4:	f812 1f01 	ldrb.w	r1, [r2, #1]!
 80056f8:	440b      	add	r3, r1
 80056fa:	b25b      	sxtb	r3, r3
 80056fc:	2b10      	cmp	r3, #16
 80056fe:	dc0e      	bgt.n	800571e <wizchip_init+0x74>
 8005700:	4294      	cmp	r4, r2
 8005702:	d1f7      	bne.n	80056f4 <wizchip_init+0x4a>
 8005704:	f641 6408 	movw	r4, #7688	; 0x1e08
 8005708:	f641 7608 	movw	r6, #7944	; 0x1f08
 800570c:	4620      	mov	r0, r4
 800570e:	f815 1f01 	ldrb.w	r1, [r5, #1]!
 8005712:	3420      	adds	r4, #32
 8005714:	f7ff fddc 	bl	80052d0 <WIZCHIP_WRITE>
 8005718:	42b4      	cmp	r4, r6
 800571a:	d1f7      	bne.n	800570c <wizchip_init+0x62>
 800571c:	e7e4      	b.n	80056e8 <wizchip_init+0x3e>
 800571e:	f04f 30ff 	mov.w	r0, #4294967295	; 0xffffffff
 8005722:	e7e2      	b.n	80056ea <wizchip_init+0x40>

08005724 <wizchip_setnetinfo>:
 8005724:	b510      	push	{r4, lr}
 8005726:	4604      	mov	r4, r0
 8005728:	4601      	mov	r1, r0
 800572a:	2206      	movs	r2, #6
 800572c:	f44f 6010 	mov.w	r0, #2304	; 0x900
 8005730:	f7ff fe3a 	bl	80053a8 <WIZCHIP_WRITE_BUF>
 8005734:	2204      	movs	r2, #4
 8005736:	f44f 7080 	mov.w	r0, #256	; 0x100
 800573a:	f104 010e 	add.w	r1, r4, #14
 800573e:	f7ff fe33 	bl	80053a8 <WIZCHIP_WRITE_BUF>
 8005742:	2204      	movs	r2, #4
 8005744:	f44f 60a0 	mov.w	r0, #1280	; 0x500
 8005748:	f104 010a 	add.w	r1, r4, #10
 800574c:	f7ff fe2c 	bl	80053a8 <WIZCHIP_WRITE_BUF>
 8005750:	2204      	movs	r2, #4
 8005752:	f44f 6070 	mov.w	r0, #3840	; 0xf00
 8005756:	1da1      	adds	r1, r4, #6
 8005758:	f7ff fe26 	bl	80053a8 <WIZCHIP_WRITE_BUF>
 800575c:	4b06      	ldr	r3, [pc, #24]	; (8005778 <wizchip_setnetinfo+0x54>)
 800575e:	7ca2      	ldrb	r2, [r4, #18]
 8005760:	701a      	strb	r2, [r3, #0]
 8005762:	7ce2      	ldrb	r2, [r4, #19]
 8005764:	705a      	strb	r2, [r3, #1]
 8005766:	7d22      	ldrb	r2, [r4, #20]
 8005768:	709a      	strb	r2, [r3, #2]
 800576a:	7d62      	ldrb	r2, [r4, #21]
 800576c:	70da      	strb	r2, [r3, #3]
 800576e:	f894 2119 	ldrb.w	r2, [r4, #281]	; 0x119
 8005772:	4b02      	ldr	r3, [pc, #8]	; (800577c <wizchip_setnetinfo+0x58>)
 8005774:	701a      	strb	r2, [r3, #0]
 8005776:	bd10      	pop	{r4, pc}
 8005778:	2000057d 	.word	0x2000057d
 800577c:	2000057c 	.word	0x2000057c

08005780 <Reset_Handler>:
 8005780:	480c      	ldr	r0, [pc, #48]	; (80057b4 <LoopFillZerobss+0x12>)
 8005782:	490d      	ldr	r1, [pc, #52]	; (80057b8 <LoopFillZerobss+0x16>)
 8005784:	4a0d      	ldr	r2, [pc, #52]	; (80057bc <LoopFillZerobss+0x1a>)
 8005786:	2300      	movs	r3, #0
 8005788:	e002      	b.n	8005790 <LoopCopyDataInit>

0800578a <CopyDataInit>:
 800578a:	58d4      	ldr	r4, [r2, r3]
 800578c:	50c4      	str	r4, [r0, r3]
 800578e:	3304      	adds	r3, #4

08005790 <LoopCopyDataInit>:
 8005790:	18c4      	adds	r4, r0, r3
 8005792:	428c      	cmp	r4, r1
 8005794:	d3f9      	bcc.n	800578a <CopyDataInit>
 8005796:	4a0a      	ldr	r2, [pc, #40]	; (80057c0 <LoopFillZerobss+0x1e>)
 8005798:	4c0a      	ldr	r4, [pc, #40]	; (80057c4 <LoopFillZerobss+0x22>)
 800579a:	2300      	movs	r3, #0
 800579c:	e001      	b.n	80057a2 <LoopFillZerobss>

0800579e <FillZerobss>:
 800579e:	6013      	str	r3, [r2, #0]
 80057a0:	3204      	adds	r2, #4

080057a2 <LoopFillZerobss>:
 80057a2:	42a2      	cmp	r2, r4
 80057a4:	d3fb      	bcc.n	800579e <FillZerobss>
 80057a6:	f7ff fd63 	bl	8005270 <SystemInit>
 80057aa:	f002 fd29 	bl	8008200 <__libc_init_array>
 80057ae:	f7fd fad3 	bl	8002d58 <main>
 80057b2:	4770      	bx	lr
 80057b4:	20000000 	.word	0x20000000
 80057b8:	20000344 	.word	0x20000344
 80057bc:	0800be44 	.word	0x0800be44
 80057c0:	20000348 	.word	0x20000348
 80057c4:	20001478 	.word	0x20001478

080057c8 <ADC1_2_IRQHandler>:
 80057c8:	e7fe      	b.n	80057c8 <ADC1_2_IRQHandler>
	...

080057cc <HAL_InitTick>:
 80057cc:	b538      	push	{r3, r4, r5, lr}
 80057ce:	4b0e      	ldr	r3, [pc, #56]	; (8005808 <HAL_InitTick+0x3c>)
 80057d0:	4605      	mov	r5, r0
 80057d2:	7818      	ldrb	r0, [r3, #0]
 80057d4:	f44f 737a 	mov.w	r3, #1000	; 0x3e8
 80057d8:	fbb3 f3f0 	udiv	r3, r3, r0
 80057dc:	4a0b      	ldr	r2, [pc, #44]	; (800580c <HAL_InitTick+0x40>)
 80057de:	6810      	ldr	r0, [r2, #0]
 80057e0:	fbb0 f0f3 	udiv	r0, r0, r3
 80057e4:	f000 f8b0 	bl	8005948 <HAL_SYSTICK_Config>
 80057e8:	4604      	mov	r4, r0
 80057ea:	b958      	cbnz	r0, 8005804 <HAL_InitTick+0x38>
 80057ec:	2d0f      	cmp	r5, #15
 80057ee:	d809      	bhi.n	8005804 <HAL_InitTick+0x38>
 80057f0:	4602      	mov	r2, r0
 80057f2:	4629      	mov	r1, r5
 80057f4:	f04f 30ff 	mov.w	r0, #4294967295	; 0xffffffff
 80057f8:	f000 f854 	bl	80058a4 <HAL_NVIC_SetPriority>
 80057fc:	4620      	mov	r0, r4
 80057fe:	4b04      	ldr	r3, [pc, #16]	; (8005810 <HAL_InitTick+0x44>)
 8005800:	601d      	str	r5, [r3, #0]
 8005802:	bd38      	pop	{r3, r4, r5, pc}
 8005804:	2001      	movs	r0, #1
 8005806:	e7fc      	b.n	8005802 <HAL_InitTick+0x36>
 8005808:	20000168 	.word	0x20000168
 800580c:	20000138 	.word	0x20000138
 8005810:	2000016c 	.word	0x2000016c

08005814 <HAL_Init>:
 8005814:	4a07      	ldr	r2, [pc, #28]	; (8005834 <HAL_Init+0x20>)
 8005816:	b508      	push	{r3, lr}
 8005818:	6813      	ldr	r3, [r2, #0]
 800581a:	2003      	movs	r0, #3
 800581c:	f043 0310 	orr.w	r3, r3, #16
 8005820:	6013      	str	r3, [r2, #0]
 8005822:	f000 f82d 	bl	8005880 <HAL_NVIC_SetPriorityGrouping>
 8005826:	2000      	movs	r0, #0
 8005828:	f7ff ffd0 	bl	80057cc <HAL_InitTick>
 800582c:	f7fe fee0 	bl	80045f0 <HAL_MspInit>
 8005830:	2000      	movs	r0, #0
 8005832:	bd08      	pop	{r3, pc}
 8005834:	40022000 	.word	0x40022000

08005838 <HAL_IncTick>:
 8005838:	4a03      	ldr	r2, [pc, #12]	; (8005848 <HAL_IncTick+0x10>)
 800583a:	4b04      	ldr	r3, [pc, #16]	; (800584c <HAL_IncTick+0x14>)
 800583c:	6811      	ldr	r1, [r2, #0]
 800583e:	781b      	ldrb	r3, [r3, #0]
 8005840:	440b      	add	r3, r1
 8005842:	6013      	str	r3, [r2, #0]
 8005844:	4770      	bx	lr
 8005846:	bf00      	nop
 8005848:	20001444 	.word	0x20001444
 800584c:	20000168 	.word	0x20000168

08005850 <HAL_GetTick>:
 8005850:	4b01      	ldr	r3, [pc, #4]	; (8005858 <HAL_GetTick+0x8>)
 8005852:	6818      	ldr	r0, [r3, #0]
 8005854:	4770      	bx	lr
 8005856:	bf00      	nop
 8005858:	20001444 	.word	0x20001444

0800585c <HAL_Delay>:
 800585c:	b538      	push	{r3, r4, r5, lr}
 800585e:	4604      	mov	r4, r0
 8005860:	f7ff fff6 	bl	8005850 <HAL_GetTick>
 8005864:	4605      	mov	r5, r0
 8005866:	1c63      	adds	r3, r4, #1
 8005868:	bf1e      	ittt	ne
 800586a:	4b04      	ldrne	r3, [pc, #16]	; (800587c <HAL_Delay+0x20>)
 800586c:	781b      	ldrbne	r3, [r3, #0]
 800586e:	18e4      	addne	r4, r4, r3
 8005870:	f7ff ffee 	bl	8005850 <HAL_GetTick>
 8005874:	1b43      	subs	r3, r0, r5
 8005876:	42a3      	cmp	r3, r4
 8005878:	d3fa      	bcc.n	8005870 <HAL_Delay+0x14>
 800587a:	bd38      	pop	{r3, r4, r5, pc}
 800587c:	20000168 	.word	0x20000168

08005880 <HAL_NVIC_SetPriorityGrouping>:
 8005880:	4907      	ldr	r1, [pc, #28]	; (80058a0 <HAL_NVIC_SetPriorityGrouping+0x20>)
 8005882:	0203      	lsls	r3, r0, #8
 8005884:	68ca      	ldr	r2, [r1, #12]
 8005886:	f403 63e0 	and.w	r3, r3, #1792	; 0x700
 800588a:	f422 62e0 	bic.w	r2, r2, #1792	; 0x700
 800588e:	0412      	lsls	r2, r2, #16
 8005890:	0c12      	lsrs	r2, r2, #16
 8005892:	4313      	orrs	r3, r2
 8005894:	f043 63bf 	orr.w	r3, r3, #100139008	; 0x5f80000
 8005898:	f443 3300 	orr.w	r3, r3, #131072	; 0x20000
 800589c:	60cb      	str	r3, [r1, #12]
 800589e:	4770      	bx	lr
 80058a0:	e000ed00 	.word	0xe000ed00

080058a4 <HAL_NVIC_SetPriority>:
 80058a4:	4b16      	ldr	r3, [pc, #88]	; (8005900 <HAL_NVIC_SetPriority+0x5c>)
 80058a6:	b530      	push	{r4, r5, lr}
 80058a8:	68dc      	ldr	r4, [r3, #12]
 80058aa:	f3c4 2402 	ubfx	r4, r4, #8, #3
 80058ae:	f1c4 0307 	rsb	r3, r4, #7
 80058b2:	1d25      	adds	r5, r4, #4
 80058b4:	2b04      	cmp	r3, #4
 80058b6:	bf28      	it	cs
 80058b8:	2304      	movcs	r3, #4
 80058ba:	2d06      	cmp	r5, #6
 80058bc:	f04f 35ff 	mov.w	r5, #4294967295	; 0xffffffff
 80058c0:	bf98      	it	ls
 80058c2:	2400      	movls	r4, #0
 80058c4:	fa05 f303 	lsl.w	r3, r5, r3
 80058c8:	bf88      	it	hi
 80058ca:	3c03      	subhi	r4, #3
 80058cc:	ea21 0303 	bic.w	r3, r1, r3
 80058d0:	40a3      	lsls	r3, r4
 80058d2:	fa05 f404 	lsl.w	r4, r5, r4
 80058d6:	ea22 0204 	bic.w	r2, r2, r4
 80058da:	2800      	cmp	r0, #0
 80058dc:	ea43 0302 	orr.w	r3, r3, r2
 80058e0:	bfac      	ite	ge
 80058e2:	f100 4060 	addge.w	r0, r0, #3758096384	; 0xe0000000
 80058e6:	4a07      	ldrlt	r2, [pc, #28]	; (8005904 <HAL_NVIC_SetPriority+0x60>)
 80058e8:	ea4f 1303 	mov.w	r3, r3, lsl #4
 80058ec:	b2db      	uxtb	r3, r3
 80058ee:	bfab      	itete	ge
 80058f0:	f500 4061 	addge.w	r0, r0, #57600	; 0xe100
 80058f4:	f000 000f 	andlt.w	r0, r0, #15
 80058f8:	f880 3300 	strbge.w	r3, [r0, #768]	; 0x300
 80058fc:	5413      	strblt	r3, [r2, r0]
 80058fe:	bd30      	pop	{r4, r5, pc}
 8005900:	e000ed00 	.word	0xe000ed00
 8005904:	e000ed14 	.word	0xe000ed14

08005908 <HAL_NVIC_EnableIRQ>:
 8005908:	2800      	cmp	r0, #0
 800590a:	db08      	blt.n	800591e <HAL_NVIC_EnableIRQ+0x16>
 800590c:	2301      	movs	r3, #1
 800590e:	0942      	lsrs	r2, r0, #5
 8005910:	f000 001f 	and.w	r0, r0, #31
 8005914:	fa03 f000 	lsl.w	r0, r3, r0
 8005918:	4b01      	ldr	r3, [pc, #4]	; (8005920 <HAL_NVIC_EnableIRQ+0x18>)
 800591a:	f843 0022 	str.w	r0, [r3, r2, lsl #2]
 800591e:	4770      	bx	lr
 8005920:	e000e100 	.word	0xe000e100

08005924 <HAL_NVIC_SystemReset>:
 8005924:	f3bf 8f4f 	dsb	sy
 8005928:	4905      	ldr	r1, [pc, #20]	; (8005940 <HAL_NVIC_SystemReset+0x1c>)
 800592a:	4b06      	ldr	r3, [pc, #24]	; (8005944 <HAL_NVIC_SystemReset+0x20>)
 800592c:	68ca      	ldr	r2, [r1, #12]
 800592e:	f402 62e0 	and.w	r2, r2, #1792	; 0x700
 8005932:	4313      	orrs	r3, r2
 8005934:	60cb      	str	r3, [r1, #12]
 8005936:	f3bf 8f4f 	dsb	sy
 800593a:	bf00      	nop
 800593c:	e7fd      	b.n	800593a <HAL_NVIC_SystemReset+0x16>
 800593e:	bf00      	nop
 8005940:	e000ed00 	.word	0xe000ed00
 8005944:	05fa0004 	.word	0x05fa0004

08005948 <HAL_SYSTICK_Config>:
 8005948:	3801      	subs	r0, #1
 800594a:	f1b0 7f80 	cmp.w	r0, #16777216	; 0x1000000
 800594e:	d20a      	bcs.n	8005966 <HAL_SYSTICK_Config+0x1e>
 8005950:	21f0      	movs	r1, #240	; 0xf0
 8005952:	4b06      	ldr	r3, [pc, #24]	; (800596c <HAL_SYSTICK_Config+0x24>)
 8005954:	4a06      	ldr	r2, [pc, #24]	; (8005970 <HAL_SYSTICK_Config+0x28>)
 8005956:	6058      	str	r0, [r3, #4]
 8005958:	f882 1023 	strb.w	r1, [r2, #35]	; 0x23
 800595c:	2000      	movs	r0, #0
 800595e:	2207      	movs	r2, #7
 8005960:	6098      	str	r0, [r3, #8]
 8005962:	601a      	str	r2, [r3, #0]
 8005964:	4770      	bx	lr
 8005966:	2001      	movs	r0, #1
 8005968:	4770      	bx	lr
 800596a:	bf00      	nop
 800596c:	e000e010 	.word	0xe000e010
 8005970:	e000ed00 	.word	0xe000ed00

08005974 <FLASH_SetErrorCode>:
 8005974:	4a11      	ldr	r2, [pc, #68]	; (80059bc <FLASH_SetErrorCode+0x48>)
 8005976:	68d3      	ldr	r3, [r2, #12]
 8005978:	f013 0310 	ands.w	r3, r3, #16
 800597c:	d005      	beq.n	800598a <FLASH_SetErrorCode+0x16>
 800597e:	4910      	ldr	r1, [pc, #64]	; (80059c0 <FLASH_SetErrorCode+0x4c>)
 8005980:	69cb      	ldr	r3, [r1, #28]
 8005982:	f043 0302 	orr.w	r3, r3, #2
 8005986:	61cb      	str	r3, [r1, #28]
 8005988:	2310      	movs	r3, #16
 800598a:	68d2      	ldr	r2, [r2, #12]
 800598c:	0750      	lsls	r0, r2, #29
 800598e:	d506      	bpl.n	800599e <FLASH_SetErrorCode+0x2a>
 8005990:	490b      	ldr	r1, [pc, #44]	; (80059c0 <FLASH_SetErrorCode+0x4c>)
 8005992:	f043 0304 	orr.w	r3, r3, #4
 8005996:	69ca      	ldr	r2, [r1, #28]
 8005998:	f042 0201 	orr.w	r2, r2, #1
 800599c:	61ca      	str	r2, [r1, #28]
 800599e:	4a07      	ldr	r2, [pc, #28]	; (80059bc <FLASH_SetErrorCode+0x48>)
 80059a0:	69d1      	ldr	r1, [r2, #28]
 80059a2:	07c9      	lsls	r1, r1, #31
 80059a4:	d508      	bpl.n	80059b8 <FLASH_SetErrorCode+0x44>
 80059a6:	4806      	ldr	r0, [pc, #24]	; (80059c0 <FLASH_SetErrorCode+0x4c>)
 80059a8:	69c1      	ldr	r1, [r0, #28]
 80059aa:	f041 0104 	orr.w	r1, r1, #4
 80059ae:	61c1      	str	r1, [r0, #28]
 80059b0:	69d1      	ldr	r1, [r2, #28]
 80059b2:	f021 0101 	bic.w	r1, r1, #1
 80059b6:	61d1      	str	r1, [r2, #28]
 80059b8:	60d3      	str	r3, [r2, #12]
 80059ba:	4770      	bx	lr
 80059bc:	40022000 	.word	0x40022000
 80059c0:	20001448 	.word	0x20001448

080059c4 <HAL_FLASH_Unlock>:
 80059c4:	4b06      	ldr	r3, [pc, #24]	; (80059e0 <HAL_FLASH_Unlock+0x1c>)
 80059c6:	6918      	ldr	r0, [r3, #16]
 80059c8:	f010 0080 	ands.w	r0, r0, #128	; 0x80
 80059cc:	d007      	beq.n	80059de <HAL_FLASH_Unlock+0x1a>
 80059ce:	4a05      	ldr	r2, [pc, #20]	; (80059e4 <HAL_FLASH_Unlock+0x20>)
 80059d0:	605a      	str	r2, [r3, #4]
 80059d2:	f102 3288 	add.w	r2, r2, #2290649224	; 0x88888888
 80059d6:	605a      	str	r2, [r3, #4]
 80059d8:	6918      	ldr	r0, [r3, #16]
 80059da:	f3c0 10c0 	ubfx	r0, r0, #7, #1
 80059de:	4770      	bx	lr
 80059e0:	40022000 	.word	0x40022000
 80059e4:	45670123 	.word	0x45670123

080059e8 <HAL_FLASH_Lock>:
 80059e8:	4a03      	ldr	r2, [pc, #12]	; (80059f8 <HAL_FLASH_Lock+0x10>)
 80059ea:	2000      	movs	r0, #0
 80059ec:	6913      	ldr	r3, [r2, #16]
 80059ee:	f043 0380 	orr.w	r3, r3, #128	; 0x80
 80059f2:	6113      	str	r3, [r2, #16]
 80059f4:	4770      	bx	lr
 80059f6:	bf00      	nop
 80059f8:	40022000 	.word	0x40022000

080059fc <FLASH_WaitForLastOperation>:
 80059fc:	b5f8      	push	{r3, r4, r5, r6, r7, lr}
 80059fe:	4604      	mov	r4, r0
 8005a00:	f7ff ff26 	bl	8005850 <HAL_GetTick>
 8005a04:	4d11      	ldr	r5, [pc, #68]	; (8005a4c <FLASH_WaitForLastOperation+0x50>)
 8005a06:	4607      	mov	r7, r0
 8005a08:	462e      	mov	r6, r5
 8005a0a:	68eb      	ldr	r3, [r5, #12]
 8005a0c:	07d8      	lsls	r0, r3, #31
 8005a0e:	d412      	bmi.n	8005a36 <FLASH_WaitForLastOperation+0x3a>
 8005a10:	68eb      	ldr	r3, [r5, #12]
 8005a12:	0699      	lsls	r1, r3, #26
 8005a14:	bf44      	itt	mi
 8005a16:	2320      	movmi	r3, #32
 8005a18:	60eb      	strmi	r3, [r5, #12]
 8005a1a:	68f3      	ldr	r3, [r6, #12]
 8005a1c:	06da      	lsls	r2, r3, #27
 8005a1e:	d406      	bmi.n	8005a2e <FLASH_WaitForLastOperation+0x32>
 8005a20:	69f3      	ldr	r3, [r6, #28]
 8005a22:	07db      	lsls	r3, r3, #31
 8005a24:	d403      	bmi.n	8005a2e <FLASH_WaitForLastOperation+0x32>
 8005a26:	68f0      	ldr	r0, [r6, #12]
 8005a28:	f010 0004 	ands.w	r0, r0, #4
 8005a2c:	d007      	beq.n	8005a3e <FLASH_WaitForLastOperation+0x42>
 8005a2e:	f7ff ffa1 	bl	8005974 <FLASH_SetErrorCode>
 8005a32:	2001      	movs	r0, #1
 8005a34:	e003      	b.n	8005a3e <FLASH_WaitForLastOperation+0x42>
 8005a36:	1c63      	adds	r3, r4, #1
 8005a38:	d0e7      	beq.n	8005a0a <FLASH_WaitForLastOperation+0xe>
 8005a3a:	b90c      	cbnz	r4, 8005a40 <FLASH_WaitForLastOperation+0x44>
 8005a3c:	2003      	movs	r0, #3
 8005a3e:	bdf8      	pop	{r3, r4, r5, r6, r7, pc}
 8005a40:	f7ff ff06 	bl	8005850 <HAL_GetTick>
 8005a44:	1bc0      	subs	r0, r0, r7
 8005a46:	42a0      	cmp	r0, r4
 8005a48:	d9df      	bls.n	8005a0a <FLASH_WaitForLastOperation+0xe>
 8005a4a:	e7f7      	b.n	8005a3c <FLASH_WaitForLastOperation+0x40>
 8005a4c:	40022000 	.word	0x40022000

08005a50 <HAL_FLASH_Program>:
 8005a50:	e92d 4ff8 	stmdb	sp!, {r3, r4, r5, r6, r7, r8, r9, sl, fp, lr}
 8005a54:	4e25      	ldr	r6, [pc, #148]	; (8005aec <HAL_FLASH_Program+0x9c>)
 8005a56:	461f      	mov	r7, r3
 8005a58:	7e33      	ldrb	r3, [r6, #24]
 8005a5a:	4605      	mov	r5, r0
 8005a5c:	2b01      	cmp	r3, #1
 8005a5e:	4688      	mov	r8, r1
 8005a60:	4691      	mov	r9, r2
 8005a62:	d040      	beq.n	8005ae6 <HAL_FLASH_Program+0x96>
 8005a64:	2301      	movs	r3, #1
 8005a66:	f24c 3050 	movw	r0, #50000	; 0xc350
 8005a6a:	7633      	strb	r3, [r6, #24]
 8005a6c:	f7ff ffc6 	bl	80059fc <FLASH_WaitForLastOperation>
 8005a70:	bba8      	cbnz	r0, 8005ade <HAL_FLASH_Program+0x8e>
 8005a72:	2d01      	cmp	r5, #1
 8005a74:	d003      	beq.n	8005a7e <HAL_FLASH_Program+0x2e>
 8005a76:	2d02      	cmp	r5, #2
 8005a78:	bf0c      	ite	eq
 8005a7a:	2502      	moveq	r5, #2
 8005a7c:	2504      	movne	r5, #4
 8005a7e:	f04f 0a00 	mov.w	sl, #0
 8005a82:	4653      	mov	r3, sl
 8005a84:	f8df b068 	ldr.w	fp, [pc, #104]	; 8005af0 <HAL_FLASH_Program+0xa0>
 8005a88:	ea4f 140a 	mov.w	r4, sl, lsl #4
 8005a8c:	f1c4 0120 	rsb	r1, r4, #32
 8005a90:	f1a4 0220 	sub.w	r2, r4, #32
 8005a94:	fa07 f101 	lsl.w	r1, r7, r1
 8005a98:	fa29 f404 	lsr.w	r4, r9, r4
 8005a9c:	61f3      	str	r3, [r6, #28]
 8005a9e:	430c      	orrs	r4, r1
 8005aa0:	fa27 f202 	lsr.w	r2, r7, r2
 8005aa4:	4314      	orrs	r4, r2
 8005aa6:	f8db 2010 	ldr.w	r2, [fp, #16]
 8005aaa:	b2a4      	uxth	r4, r4
 8005aac:	f042 0201 	orr.w	r2, r2, #1
 8005ab0:	f8cb 2010 	str.w	r2, [fp, #16]
 8005ab4:	f24c 3050 	movw	r0, #50000	; 0xc350
 8005ab8:	f828 401a 	strh.w	r4, [r8, sl, lsl #1]
 8005abc:	f7ff ff9e 	bl	80059fc <FLASH_WaitForLastOperation>
 8005ac0:	f8db 2010 	ldr.w	r2, [fp, #16]
 8005ac4:	f022 0201 	bic.w	r2, r2, #1
 8005ac8:	f8cb 2010 	str.w	r2, [fp, #16]
 8005acc:	b938      	cbnz	r0, 8005ade <HAL_FLASH_Program+0x8e>
 8005ace:	f10a 0a01 	add.w	sl, sl, #1
 8005ad2:	fa5f f28a 	uxtb.w	r2, sl
 8005ad6:	4295      	cmp	r5, r2
 8005ad8:	f04f 0300 	mov.w	r3, #0
 8005adc:	d8d4      	bhi.n	8005a88 <HAL_FLASH_Program+0x38>
 8005ade:	2300      	movs	r3, #0
 8005ae0:	7633      	strb	r3, [r6, #24]
 8005ae2:	e8bd 8ff8 	ldmia.w	sp!, {r3, r4, r5, r6, r7, r8, r9, sl, fp, pc}
 8005ae6:	2002      	movs	r0, #2
 8005ae8:	e7fb      	b.n	8005ae2 <HAL_FLASH_Program+0x92>
 8005aea:	bf00      	nop
 8005aec:	20001448 	.word	0x20001448
 8005af0:	40022000 	.word	0x40022000

08005af4 <FLASH_MassErase.isra.0>:
 8005af4:	2200      	movs	r2, #0
 8005af6:	4b06      	ldr	r3, [pc, #24]	; (8005b10 <FLASH_MassErase.isra.0+0x1c>)
 8005af8:	61da      	str	r2, [r3, #28]
 8005afa:	4b06      	ldr	r3, [pc, #24]	; (8005b14 <FLASH_MassErase.isra.0+0x20>)
 8005afc:	691a      	ldr	r2, [r3, #16]
 8005afe:	f042 0204 	orr.w	r2, r2, #4
 8005b02:	611a      	str	r2, [r3, #16]
 8005b04:	691a      	ldr	r2, [r3, #16]
 8005b06:	f042 0240 	orr.w	r2, r2, #64	; 0x40
 8005b0a:	611a      	str	r2, [r3, #16]
 8005b0c:	4770      	bx	lr
 8005b0e:	bf00      	nop
 8005b10:	20001448 	.word	0x20001448
 8005b14:	40022000 	.word	0x40022000

08005b18 <FLASH_PageErase>:
 8005b18:	2200      	movs	r2, #0
 8005b1a:	4b06      	ldr	r3, [pc, #24]	; (8005b34 <FLASH_PageErase+0x1c>)
 8005b1c:	61da      	str	r2, [r3, #28]
 8005b1e:	4b06      	ldr	r3, [pc, #24]	; (8005b38 <FLASH_PageErase+0x20>)
 8005b20:	691a      	ldr	r2, [r3, #16]
 8005b22:	f042 0202 	orr.w	r2, r2, #2
 8005b26:	611a      	str	r2, [r3, #16]
 8005b28:	6158      	str	r0, [r3, #20]
 8005b2a:	691a      	ldr	r2, [r3, #16]
 8005b2c:	f042 0240 	orr.w	r2, r2, #64	; 0x40
 8005b30:	611a      	str	r2, [r3, #16]
 8005b32:	4770      	bx	lr
 8005b34:	20001448 	.word	0x20001448
 8005b38:	40022000 	.word	0x40022000

08005b3c <HAL_FLASHEx_Erase>:
 8005b3c:	e92d 41f0 	stmdb	sp!, {r4, r5, r6, r7, r8, lr}
 8005b40:	4e22      	ldr	r6, [pc, #136]	; (8005bcc <HAL_FLASHEx_Erase+0x90>)
 8005b42:	4605      	mov	r5, r0
 8005b44:	7e33      	ldrb	r3, [r6, #24]
 8005b46:	4688      	mov	r8, r1
 8005b48:	2b01      	cmp	r3, #1
 8005b4a:	d03d      	beq.n	8005bc8 <HAL_FLASHEx_Erase+0x8c>
 8005b4c:	2401      	movs	r4, #1
 8005b4e:	7634      	strb	r4, [r6, #24]
 8005b50:	6803      	ldr	r3, [r0, #0]
 8005b52:	f24c 3050 	movw	r0, #50000	; 0xc350
 8005b56:	2b02      	cmp	r3, #2
 8005b58:	d113      	bne.n	8005b82 <HAL_FLASHEx_Erase+0x46>
 8005b5a:	f7ff ff4f 	bl	80059fc <FLASH_WaitForLastOperation>
 8005b5e:	b120      	cbz	r0, 8005b6a <HAL_FLASHEx_Erase+0x2e>
 8005b60:	2001      	movs	r0, #1
 8005b62:	2300      	movs	r3, #0
 8005b64:	7633      	strb	r3, [r6, #24]
 8005b66:	e8bd 81f0 	ldmia.w	sp!, {r4, r5, r6, r7, r8, pc}
 8005b6a:	f7ff ffc3 	bl	8005af4 <FLASH_MassErase.isra.0>
 8005b6e:	f24c 3050 	movw	r0, #50000	; 0xc350
 8005b72:	f7ff ff43 	bl	80059fc <FLASH_WaitForLastOperation>
 8005b76:	4a16      	ldr	r2, [pc, #88]	; (8005bd0 <HAL_FLASHEx_Erase+0x94>)
 8005b78:	6913      	ldr	r3, [r2, #16]
 8005b7a:	f023 0304 	bic.w	r3, r3, #4
 8005b7e:	6113      	str	r3, [r2, #16]
 8005b80:	e7ef      	b.n	8005b62 <HAL_FLASHEx_Erase+0x26>
 8005b82:	f7ff ff3b 	bl	80059fc <FLASH_WaitForLastOperation>
 8005b86:	2800      	cmp	r0, #0
 8005b88:	d1ea      	bne.n	8005b60 <HAL_FLASHEx_Erase+0x24>
 8005b8a:	f04f 33ff 	mov.w	r3, #4294967295	; 0xffffffff
 8005b8e:	f8c8 3000 	str.w	r3, [r8]
 8005b92:	4620      	mov	r0, r4
 8005b94:	68af      	ldr	r7, [r5, #8]
 8005b96:	4c0e      	ldr	r4, [pc, #56]	; (8005bd0 <HAL_FLASHEx_Erase+0x94>)
 8005b98:	e9d5 3202 	ldrd	r3, r2, [r5, #8]
 8005b9c:	eb03 2382 	add.w	r3, r3, r2, lsl #10
 8005ba0:	42bb      	cmp	r3, r7
 8005ba2:	d9de      	bls.n	8005b62 <HAL_FLASHEx_Erase+0x26>
 8005ba4:	4638      	mov	r0, r7
 8005ba6:	f7ff ffb7 	bl	8005b18 <FLASH_PageErase>
 8005baa:	f24c 3050 	movw	r0, #50000	; 0xc350
 8005bae:	f7ff ff25 	bl	80059fc <FLASH_WaitForLastOperation>
 8005bb2:	6923      	ldr	r3, [r4, #16]
 8005bb4:	f023 0302 	bic.w	r3, r3, #2
 8005bb8:	6123      	str	r3, [r4, #16]
 8005bba:	b110      	cbz	r0, 8005bc2 <HAL_FLASHEx_Erase+0x86>
 8005bbc:	f8c8 7000 	str.w	r7, [r8]
 8005bc0:	e7cf      	b.n	8005b62 <HAL_FLASHEx_Erase+0x26>
 8005bc2:	f507 6780 	add.w	r7, r7, #1024	; 0x400
 8005bc6:	e7e7      	b.n	8005b98 <HAL_FLASHEx_Erase+0x5c>
 8005bc8:	2002      	movs	r0, #2
 8005bca:	e7cc      	b.n	8005b66 <HAL_FLASHEx_Erase+0x2a>
 8005bcc:	20001448 	.word	0x20001448
 8005bd0:	40022000 	.word	0x40022000

08005bd4 <HAL_GPIO_Init>:
 8005bd4:	e92d 4ff7 	stmdb	sp!, {r0, r1, r2, r4, r5, r6, r7, r8, r9, sl, fp, lr}
 8005bd8:	2200      	movs	r2, #0
 8005bda:	4616      	mov	r6, r2
 8005bdc:	4b64      	ldr	r3, [pc, #400]	; (8005d70 <HAL_GPIO_Init+0x19c>)
 8005bde:	f8df c1a0 	ldr.w	ip, [pc, #416]	; 8005d80 <HAL_GPIO_Init+0x1ac>
 8005be2:	f8df e1a0 	ldr.w	lr, [pc, #416]	; 8005d84 <HAL_GPIO_Init+0x1b0>
 8005be6:	680d      	ldr	r5, [r1, #0]
 8005be8:	fa35 f406 	lsrs.w	r4, r5, r6
 8005bec:	d102      	bne.n	8005bf4 <HAL_GPIO_Init+0x20>
 8005bee:	b003      	add	sp, #12
 8005bf0:	e8bd 8ff0 	ldmia.w	sp!, {r4, r5, r6, r7, r8, r9, sl, fp, pc}
 8005bf4:	f04f 0801 	mov.w	r8, #1
 8005bf8:	fa08 f806 	lsl.w	r8, r8, r6
 8005bfc:	ea05 0408 	and.w	r4, r5, r8
 8005c00:	ea38 0505 	bics.w	r5, r8, r5
 8005c04:	d17c      	bne.n	8005d00 <HAL_GPIO_Init+0x12c>
 8005c06:	684d      	ldr	r5, [r1, #4]
 8005c08:	2d03      	cmp	r5, #3
 8005c0a:	d807      	bhi.n	8005c1c <HAL_GPIO_Init+0x48>
 8005c0c:	3d01      	subs	r5, #1
 8005c0e:	2d02      	cmp	r5, #2
 8005c10:	f200 8088 	bhi.w	8005d24 <HAL_GPIO_Init+0x150>
 8005c14:	e8df f005 	tbb	[pc, r5]
 8005c18:	9b96      	.short	0x9b96
 8005c1a:	a1          	.byte	0xa1
 8005c1b:	00          	.byte	0x00
 8005c1c:	2d12      	cmp	r5, #18
 8005c1e:	f000 8099 	beq.w	8005d54 <HAL_GPIO_Init+0x180>
 8005c22:	d86f      	bhi.n	8005d04 <HAL_GPIO_Init+0x130>
 8005c24:	2d11      	cmp	r5, #17
 8005c26:	f000 808f 	beq.w	8005d48 <HAL_GPIO_Init+0x174>
 8005c2a:	2cff      	cmp	r4, #255	; 0xff
 8005c2c:	bf98      	it	ls
 8005c2e:	4682      	movls	sl, r0
 8005c30:	f04f 090f 	mov.w	r9, #15
 8005c34:	bf88      	it	hi
 8005c36:	f100 0a04 	addhi.w	sl, r0, #4
 8005c3a:	ea4f 0586 	mov.w	r5, r6, lsl #2
 8005c3e:	f8da 8000 	ldr.w	r8, [sl]
 8005c42:	bf88      	it	hi
 8005c44:	3d20      	subhi	r5, #32
 8005c46:	fa09 fb05 	lsl.w	fp, r9, r5
 8005c4a:	ea28 080b 	bic.w	r8, r8, fp
 8005c4e:	fa02 f505 	lsl.w	r5, r2, r5
 8005c52:	ea48 0505 	orr.w	r5, r8, r5
 8005c56:	f8ca 5000 	str.w	r5, [sl]
 8005c5a:	f8d1 a004 	ldr.w	sl, [r1, #4]
 8005c5e:	f01a 5f80 	tst.w	sl, #268435456	; 0x10000000
 8005c62:	d04d      	beq.n	8005d00 <HAL_GPIO_Init+0x12c>
 8005c64:	4f43      	ldr	r7, [pc, #268]	; (8005d74 <HAL_GPIO_Init+0x1a0>)
 8005c66:	f026 0803 	bic.w	r8, r6, #3
 8005c6a:	69bd      	ldr	r5, [r7, #24]
 8005c6c:	f108 4880 	add.w	r8, r8, #1073741824	; 0x40000000
 8005c70:	f045 0501 	orr.w	r5, r5, #1
 8005c74:	61bd      	str	r5, [r7, #24]
 8005c76:	69bd      	ldr	r5, [r7, #24]
 8005c78:	f508 3880 	add.w	r8, r8, #65536	; 0x10000
 8005c7c:	f005 0501 	and.w	r5, r5, #1
 8005c80:	9501      	str	r5, [sp, #4]
 8005c82:	f006 0b03 	and.w	fp, r6, #3
 8005c86:	9d01      	ldr	r5, [sp, #4]
 8005c88:	ea4f 0b8b 	mov.w	fp, fp, lsl #2
 8005c8c:	f8d8 5008 	ldr.w	r5, [r8, #8]
 8005c90:	fa09 f90b 	lsl.w	r9, r9, fp
 8005c94:	ea25 0909 	bic.w	r9, r5, r9
 8005c98:	4d37      	ldr	r5, [pc, #220]	; (8005d78 <HAL_GPIO_Init+0x1a4>)
 8005c9a:	42a8      	cmp	r0, r5
 8005c9c:	d061      	beq.n	8005d62 <HAL_GPIO_Init+0x18e>
 8005c9e:	f505 6580 	add.w	r5, r5, #1024	; 0x400
 8005ca2:	42a8      	cmp	r0, r5
 8005ca4:	d05f      	beq.n	8005d66 <HAL_GPIO_Init+0x192>
 8005ca6:	f505 6580 	add.w	r5, r5, #1024	; 0x400
 8005caa:	42a8      	cmp	r0, r5
 8005cac:	d05d      	beq.n	8005d6a <HAL_GPIO_Init+0x196>
 8005cae:	f505 6580 	add.w	r5, r5, #1024	; 0x400
 8005cb2:	42a8      	cmp	r0, r5
 8005cb4:	bf0c      	ite	eq
 8005cb6:	2503      	moveq	r5, #3
 8005cb8:	2504      	movne	r5, #4
 8005cba:	fa05 f50b 	lsl.w	r5, r5, fp
 8005cbe:	ea45 0509 	orr.w	r5, r5, r9
 8005cc2:	f8c8 5008 	str.w	r5, [r8, #8]
 8005cc6:	681d      	ldr	r5, [r3, #0]
 8005cc8:	f41a 3f80 	tst.w	sl, #65536	; 0x10000
 8005ccc:	bf14      	ite	ne
 8005cce:	4325      	orrne	r5, r4
 8005cd0:	43a5      	biceq	r5, r4
 8005cd2:	601d      	str	r5, [r3, #0]
 8005cd4:	685d      	ldr	r5, [r3, #4]
 8005cd6:	f41a 3f00 	tst.w	sl, #131072	; 0x20000
 8005cda:	bf14      	ite	ne
 8005cdc:	4325      	orrne	r5, r4
 8005cde:	43a5      	biceq	r5, r4
 8005ce0:	605d      	str	r5, [r3, #4]
 8005ce2:	689d      	ldr	r5, [r3, #8]
 8005ce4:	f41a 1f80 	tst.w	sl, #1048576	; 0x100000
 8005ce8:	bf14      	ite	ne
 8005cea:	4325      	orrne	r5, r4
 8005cec:	43a5      	biceq	r5, r4
 8005cee:	609d      	str	r5, [r3, #8]
 8005cf0:	68dd      	ldr	r5, [r3, #12]
 8005cf2:	f41a 1f00 	tst.w	sl, #2097152	; 0x200000
 8005cf6:	bf14      	ite	ne
 8005cf8:	432c      	orrne	r4, r5
 8005cfa:	ea25 0404 	biceq.w	r4, r5, r4
 8005cfe:	60dc      	str	r4, [r3, #12]
 8005d00:	3601      	adds	r6, #1
 8005d02:	e770      	b.n	8005be6 <HAL_GPIO_Init+0x12>
 8005d04:	4f1d      	ldr	r7, [pc, #116]	; (8005d7c <HAL_GPIO_Init+0x1a8>)
 8005d06:	42bd      	cmp	r5, r7
 8005d08:	d00c      	beq.n	8005d24 <HAL_GPIO_Init+0x150>
 8005d0a:	d817      	bhi.n	8005d3c <HAL_GPIO_Init+0x168>
 8005d0c:	f8df 9078 	ldr.w	r9, [pc, #120]	; 8005d88 <HAL_GPIO_Init+0x1b4>
 8005d10:	454d      	cmp	r5, r9
 8005d12:	d007      	beq.n	8005d24 <HAL_GPIO_Init+0x150>
 8005d14:	f509 2970 	add.w	r9, r9, #983040	; 0xf0000
 8005d18:	454d      	cmp	r5, r9
 8005d1a:	d003      	beq.n	8005d24 <HAL_GPIO_Init+0x150>
 8005d1c:	f5a9 1980 	sub.w	r9, r9, #1048576	; 0x100000
 8005d20:	454d      	cmp	r5, r9
 8005d22:	d182      	bne.n	8005c2a <HAL_GPIO_Init+0x56>
 8005d24:	688a      	ldr	r2, [r1, #8]
 8005d26:	b1d2      	cbz	r2, 8005d5e <HAL_GPIO_Init+0x18a>
 8005d28:	2a01      	cmp	r2, #1
 8005d2a:	bf08      	it	eq
 8005d2c:	f8c0 8010 	streq.w	r8, [r0, #16]
 8005d30:	f04f 0208 	mov.w	r2, #8
 8005d34:	bf18      	it	ne
 8005d36:	f8c0 8014 	strne.w	r8, [r0, #20]
 8005d3a:	e776      	b.n	8005c2a <HAL_GPIO_Init+0x56>
 8005d3c:	4565      	cmp	r5, ip
 8005d3e:	d0f1      	beq.n	8005d24 <HAL_GPIO_Init+0x150>
 8005d40:	4575      	cmp	r5, lr
 8005d42:	e7ee      	b.n	8005d22 <HAL_GPIO_Init+0x14e>
 8005d44:	68ca      	ldr	r2, [r1, #12]
 8005d46:	e770      	b.n	8005c2a <HAL_GPIO_Init+0x56>
 8005d48:	68ca      	ldr	r2, [r1, #12]
 8005d4a:	3204      	adds	r2, #4
 8005d4c:	e76d      	b.n	8005c2a <HAL_GPIO_Init+0x56>
 8005d4e:	68ca      	ldr	r2, [r1, #12]
 8005d50:	3208      	adds	r2, #8
 8005d52:	e76a      	b.n	8005c2a <HAL_GPIO_Init+0x56>
 8005d54:	68ca      	ldr	r2, [r1, #12]
 8005d56:	320c      	adds	r2, #12
 8005d58:	e767      	b.n	8005c2a <HAL_GPIO_Init+0x56>
 8005d5a:	2200      	movs	r2, #0
 8005d5c:	e765      	b.n	8005c2a <HAL_GPIO_Init+0x56>
 8005d5e:	2204      	movs	r2, #4
 8005d60:	e763      	b.n	8005c2a <HAL_GPIO_Init+0x56>
 8005d62:	2500      	movs	r5, #0
 8005d64:	e7a9      	b.n	8005cba <HAL_GPIO_Init+0xe6>
 8005d66:	2501      	movs	r5, #1
 8005d68:	e7a7      	b.n	8005cba <HAL_GPIO_Init+0xe6>
 8005d6a:	2502      	movs	r5, #2
 8005d6c:	e7a5      	b.n	8005cba <HAL_GPIO_Init+0xe6>
 8005d6e:	bf00      	nop
 8005d70:	40010400 	.word	0x40010400
 8005d74:	40021000 	.word	0x40021000
 8005d78:	40010800 	.word	0x40010800
 8005d7c:	10220000 	.word	0x10220000
 8005d80:	10310000 	.word	0x10310000
 8005d84:	10320000 	.word	0x10320000
 8005d88:	10120000 	.word	0x10120000

08005d8c <HAL_GPIO_DeInit>:
 8005d8c:	e92d 4ff7 	stmdb	sp!, {r0, r1, r2, r4, r5, r6, r7, r8, r9, sl, fp, lr}
 8005d90:	f04f 0b04 	mov.w	fp, #4
 8005d94:	2200      	movs	r2, #0
 8005d96:	f04f 0a01 	mov.w	sl, #1
 8005d9a:	f04f 080f 	mov.w	r8, #15
 8005d9e:	eb00 030b 	add.w	r3, r0, fp
 8005da2:	9301      	str	r3, [sp, #4]
 8005da4:	4b2e      	ldr	r3, [pc, #184]	; (8005e60 <HAL_GPIO_DeInit+0xd4>)
 8005da6:	fa31 f402 	lsrs.w	r4, r1, r2
 8005daa:	d102      	bne.n	8005db2 <HAL_GPIO_DeInit+0x26>
 8005dac:	b003      	add	sp, #12
 8005dae:	e8bd 8ff0 	ldmia.w	sp!, {r4, r5, r6, r7, r8, r9, sl, fp, pc}
 8005db2:	fa0a f702 	lsl.w	r7, sl, r2
 8005db6:	400f      	ands	r7, r1
 8005db8:	d049      	beq.n	8005e4e <HAL_GPIO_DeInit+0xc2>
 8005dba:	f022 0403 	bic.w	r4, r2, #3
 8005dbe:	f104 4480 	add.w	r4, r4, #1073741824	; 0x40000000
 8005dc2:	4d28      	ldr	r5, [pc, #160]	; (8005e64 <HAL_GPIO_DeInit+0xd8>)
 8005dc4:	f504 3480 	add.w	r4, r4, #65536	; 0x10000
 8005dc8:	f002 0c03 	and.w	ip, r2, #3
 8005dcc:	68a6      	ldr	r6, [r4, #8]
 8005dce:	ea4f 0c8c 	mov.w	ip, ip, lsl #2
 8005dd2:	fa08 f90c 	lsl.w	r9, r8, ip
 8005dd6:	42a8      	cmp	r0, r5
 8005dd8:	ea09 0e06 	and.w	lr, r9, r6
 8005ddc:	d039      	beq.n	8005e52 <HAL_GPIO_DeInit+0xc6>
 8005dde:	f505 6580 	add.w	r5, r5, #1024	; 0x400
 8005de2:	42a8      	cmp	r0, r5
 8005de4:	d037      	beq.n	8005e56 <HAL_GPIO_DeInit+0xca>
 8005de6:	f505 6580 	add.w	r5, r5, #1024	; 0x400
 8005dea:	42a8      	cmp	r0, r5
 8005dec:	d035      	beq.n	8005e5a <HAL_GPIO_DeInit+0xce>
 8005dee:	f505 6580 	add.w	r5, r5, #1024	; 0x400
 8005df2:	42a8      	cmp	r0, r5
 8005df4:	bf0c      	ite	eq
 8005df6:	2503      	moveq	r5, #3
 8005df8:	2504      	movne	r5, #4
 8005dfa:	fa05 f50c 	lsl.w	r5, r5, ip
 8005dfe:	4575      	cmp	r5, lr
 8005e00:	ea6f 0607 	mvn.w	r6, r7
 8005e04:	d10f      	bne.n	8005e26 <HAL_GPIO_DeInit+0x9a>
 8005e06:	68a5      	ldr	r5, [r4, #8]
 8005e08:	ea25 0509 	bic.w	r5, r5, r9
 8005e0c:	60a5      	str	r5, [r4, #8]
 8005e0e:	681c      	ldr	r4, [r3, #0]
 8005e10:	4034      	ands	r4, r6
 8005e12:	601c      	str	r4, [r3, #0]
 8005e14:	685c      	ldr	r4, [r3, #4]
 8005e16:	4034      	ands	r4, r6
 8005e18:	605c      	str	r4, [r3, #4]
 8005e1a:	689c      	ldr	r4, [r3, #8]
 8005e1c:	4034      	ands	r4, r6
 8005e1e:	609c      	str	r4, [r3, #8]
 8005e20:	68dc      	ldr	r4, [r3, #12]
 8005e22:	4034      	ands	r4, r6
 8005e24:	60dc      	str	r4, [r3, #12]
 8005e26:	2fff      	cmp	r7, #255	; 0xff
 8005e28:	bf94      	ite	ls
 8005e2a:	4607      	movls	r7, r0
 8005e2c:	9f01      	ldrhi	r7, [sp, #4]
 8005e2e:	ea4f 0482 	mov.w	r4, r2, lsl #2
 8005e32:	683d      	ldr	r5, [r7, #0]
 8005e34:	bf88      	it	hi
 8005e36:	3c20      	subhi	r4, #32
 8005e38:	fa08 fc04 	lsl.w	ip, r8, r4
 8005e3c:	ea25 050c 	bic.w	r5, r5, ip
 8005e40:	fa0b f404 	lsl.w	r4, fp, r4
 8005e44:	4325      	orrs	r5, r4
 8005e46:	603d      	str	r5, [r7, #0]
 8005e48:	68c4      	ldr	r4, [r0, #12]
 8005e4a:	4026      	ands	r6, r4
 8005e4c:	60c6      	str	r6, [r0, #12]
 8005e4e:	3201      	adds	r2, #1
 8005e50:	e7a9      	b.n	8005da6 <HAL_GPIO_DeInit+0x1a>
 8005e52:	2500      	movs	r5, #0
 8005e54:	e7d1      	b.n	8005dfa <HAL_GPIO_DeInit+0x6e>
 8005e56:	2501      	movs	r5, #1
 8005e58:	e7cf      	b.n	8005dfa <HAL_GPIO_DeInit+0x6e>
 8005e5a:	2502      	movs	r5, #2
 8005e5c:	e7cd      	b.n	8005dfa <HAL_GPIO_DeInit+0x6e>
 8005e5e:	bf00      	nop
 8005e60:	40010400 	.word	0x40010400
 8005e64:	40010800 	.word	0x40010800

08005e68 <HAL_GPIO_WritePin>:
 8005e68:	b10a      	cbz	r2, 8005e6e <HAL_GPIO_WritePin+0x6>
 8005e6a:	6101      	str	r1, [r0, #16]
 8005e6c:	4770      	bx	lr
 8005e6e:	0409      	lsls	r1, r1, #16
 8005e70:	e7fb      	b.n	8005e6a <HAL_GPIO_WritePin+0x2>

08005e72 <I2C_IsAcknowledgeFailed>:
 8005e72:	6801      	ldr	r1, [r0, #0]
 8005e74:	2200      	movs	r2, #0
 8005e76:	694b      	ldr	r3, [r1, #20]
 8005e78:	f413 6380 	ands.w	r3, r3, #1024	; 0x400
 8005e7c:	d010      	beq.n	8005ea0 <I2C_IsAcknowledgeFailed+0x2e>
 8005e7e:	f46f 6380 	mvn.w	r3, #1024	; 0x400
 8005e82:	614b      	str	r3, [r1, #20]
 8005e84:	2320      	movs	r3, #32
 8005e86:	6302      	str	r2, [r0, #48]	; 0x30
 8005e88:	f880 303d 	strb.w	r3, [r0, #61]	; 0x3d
 8005e8c:	f880 203e 	strb.w	r2, [r0, #62]	; 0x3e
 8005e90:	6c03      	ldr	r3, [r0, #64]	; 0x40
 8005e92:	f880 203c 	strb.w	r2, [r0, #60]	; 0x3c
 8005e96:	f043 0304 	orr.w	r3, r3, #4
 8005e9a:	6403      	str	r3, [r0, #64]	; 0x40
 8005e9c:	2001      	movs	r0, #1
 8005e9e:	4770      	bx	lr
 8005ea0:	4618      	mov	r0, r3
 8005ea2:	4770      	bx	lr

08005ea4 <I2C_WaitOnMasterAddressFlagUntilTimeout>:
 8005ea4:	e92d 41f0 	stmdb	sp!, {r4, r5, r6, r7, r8, lr}
 8005ea8:	4604      	mov	r4, r0
 8005eaa:	460f      	mov	r7, r1
 8005eac:	4616      	mov	r6, r2
 8005eae:	4698      	mov	r8, r3
 8005eb0:	6825      	ldr	r5, [r4, #0]
 8005eb2:	6968      	ldr	r0, [r5, #20]
 8005eb4:	ea27 0000 	bic.w	r0, r7, r0
 8005eb8:	b280      	uxth	r0, r0
 8005eba:	b1b8      	cbz	r0, 8005eec <I2C_WaitOnMasterAddressFlagUntilTimeout+0x48>
 8005ebc:	696b      	ldr	r3, [r5, #20]
 8005ebe:	055a      	lsls	r2, r3, #21
 8005ec0:	d516      	bpl.n	8005ef0 <I2C_WaitOnMasterAddressFlagUntilTimeout+0x4c>
 8005ec2:	682b      	ldr	r3, [r5, #0]
 8005ec4:	2220      	movs	r2, #32
 8005ec6:	f443 7300 	orr.w	r3, r3, #512	; 0x200
 8005eca:	602b      	str	r3, [r5, #0]
 8005ecc:	f46f 6380 	mvn.w	r3, #1024	; 0x400
 8005ed0:	616b      	str	r3, [r5, #20]
 8005ed2:	2300      	movs	r3, #0
 8005ed4:	6323      	str	r3, [r4, #48]	; 0x30
 8005ed6:	f884 203d 	strb.w	r2, [r4, #61]	; 0x3d
 8005eda:	f884 303e 	strb.w	r3, [r4, #62]	; 0x3e
 8005ede:	6c22      	ldr	r2, [r4, #64]	; 0x40
 8005ee0:	f042 0204 	orr.w	r2, r2, #4
 8005ee4:	2001      	movs	r0, #1
 8005ee6:	6422      	str	r2, [r4, #64]	; 0x40
 8005ee8:	f884 303c 	strb.w	r3, [r4, #60]	; 0x3c
 8005eec:	e8bd 81f0 	ldmia.w	sp!, {r4, r5, r6, r7, r8, pc}
 8005ef0:	1c73      	adds	r3, r6, #1
 8005ef2:	d0de      	beq.n	8005eb2 <I2C_WaitOnMasterAddressFlagUntilTimeout+0xe>
 8005ef4:	f7ff fcac 	bl	8005850 <HAL_GetTick>
 8005ef8:	eba0 0008 	sub.w	r0, r0, r8
 8005efc:	42b0      	cmp	r0, r6
 8005efe:	d801      	bhi.n	8005f04 <I2C_WaitOnMasterAddressFlagUntilTimeout+0x60>
 8005f00:	2e00      	cmp	r6, #0
 8005f02:	d1d5      	bne.n	8005eb0 <I2C_WaitOnMasterAddressFlagUntilTimeout+0xc>
 8005f04:	2300      	movs	r3, #0
 8005f06:	2220      	movs	r2, #32
 8005f08:	6323      	str	r3, [r4, #48]	; 0x30
 8005f0a:	f884 203d 	strb.w	r2, [r4, #61]	; 0x3d
 8005f0e:	f884 303e 	strb.w	r3, [r4, #62]	; 0x3e
 8005f12:	6c22      	ldr	r2, [r4, #64]	; 0x40
 8005f14:	f042 0220 	orr.w	r2, r2, #32
 8005f18:	e7e4      	b.n	8005ee4 <I2C_WaitOnMasterAddressFlagUntilTimeout+0x40>

08005f1a <I2C_WaitOnBTFFlagUntilTimeout>:
 8005f1a:	b570      	push	{r4, r5, r6, lr}
 8005f1c:	4604      	mov	r4, r0
 8005f1e:	460d      	mov	r5, r1
 8005f20:	4616      	mov	r6, r2
 8005f22:	6823      	ldr	r3, [r4, #0]
 8005f24:	695b      	ldr	r3, [r3, #20]
 8005f26:	075b      	lsls	r3, r3, #29
 8005f28:	d501      	bpl.n	8005f2e <I2C_WaitOnBTFFlagUntilTimeout+0x14>
 8005f2a:	2000      	movs	r0, #0
 8005f2c:	bd70      	pop	{r4, r5, r6, pc}
 8005f2e:	4620      	mov	r0, r4
 8005f30:	f7ff ff9f 	bl	8005e72 <I2C_IsAcknowledgeFailed>
 8005f34:	b9a8      	cbnz	r0, 8005f62 <I2C_WaitOnBTFFlagUntilTimeout+0x48>
 8005f36:	1c6a      	adds	r2, r5, #1
 8005f38:	d0f3      	beq.n	8005f22 <I2C_WaitOnBTFFlagUntilTimeout+0x8>
 8005f3a:	f7ff fc89 	bl	8005850 <HAL_GetTick>
 8005f3e:	1b80      	subs	r0, r0, r6
 8005f40:	42a8      	cmp	r0, r5
 8005f42:	d801      	bhi.n	8005f48 <I2C_WaitOnBTFFlagUntilTimeout+0x2e>
 8005f44:	2d00      	cmp	r5, #0
 8005f46:	d1ec      	bne.n	8005f22 <I2C_WaitOnBTFFlagUntilTimeout+0x8>
 8005f48:	2300      	movs	r3, #0
 8005f4a:	2220      	movs	r2, #32
 8005f4c:	6323      	str	r3, [r4, #48]	; 0x30
 8005f4e:	f884 203d 	strb.w	r2, [r4, #61]	; 0x3d
 8005f52:	f884 303e 	strb.w	r3, [r4, #62]	; 0x3e
 8005f56:	6c22      	ldr	r2, [r4, #64]	; 0x40
 8005f58:	f884 303c 	strb.w	r3, [r4, #60]	; 0x3c
 8005f5c:	f042 0220 	orr.w	r2, r2, #32
 8005f60:	6422      	str	r2, [r4, #64]	; 0x40
 8005f62:	2001      	movs	r0, #1
 8005f64:	e7e2      	b.n	8005f2c <I2C_WaitOnBTFFlagUntilTimeout+0x12>

08005f66 <I2C_WaitOnRXNEFlagUntilTimeout>:
 8005f66:	b570      	push	{r4, r5, r6, lr}
 8005f68:	4604      	mov	r4, r0
 8005f6a:	460d      	mov	r5, r1
 8005f6c:	4616      	mov	r6, r2
 8005f6e:	6821      	ldr	r1, [r4, #0]
 8005f70:	694b      	ldr	r3, [r1, #20]
 8005f72:	f013 0340 	ands.w	r3, r3, #64	; 0x40
 8005f76:	d001      	beq.n	8005f7c <I2C_WaitOnRXNEFlagUntilTimeout+0x16>
 8005f78:	2000      	movs	r0, #0
 8005f7a:	e010      	b.n	8005f9e <I2C_WaitOnRXNEFlagUntilTimeout+0x38>
 8005f7c:	694a      	ldr	r2, [r1, #20]
 8005f7e:	06d2      	lsls	r2, r2, #27
 8005f80:	d50e      	bpl.n	8005fa0 <I2C_WaitOnRXNEFlagUntilTimeout+0x3a>
 8005f82:	f06f 0210 	mvn.w	r2, #16
 8005f86:	614a      	str	r2, [r1, #20]
 8005f88:	2220      	movs	r2, #32
 8005f8a:	6323      	str	r3, [r4, #48]	; 0x30
 8005f8c:	f884 203d 	strb.w	r2, [r4, #61]	; 0x3d
 8005f90:	f884 303e 	strb.w	r3, [r4, #62]	; 0x3e
 8005f94:	6c22      	ldr	r2, [r4, #64]	; 0x40
 8005f96:	2001      	movs	r0, #1
 8005f98:	6422      	str	r2, [r4, #64]	; 0x40
 8005f9a:	f884 303c 	strb.w	r3, [r4, #60]	; 0x3c
 8005f9e:	bd70      	pop	{r4, r5, r6, pc}
 8005fa0:	f7ff fc56 	bl	8005850 <HAL_GetTick>
 8005fa4:	1b80      	subs	r0, r0, r6
 8005fa6:	42a8      	cmp	r0, r5
 8005fa8:	d801      	bhi.n	8005fae <I2C_WaitOnRXNEFlagUntilTimeout+0x48>
 8005faa:	2d00      	cmp	r5, #0
 8005fac:	d1df      	bne.n	8005f6e <I2C_WaitOnRXNEFlagUntilTimeout+0x8>
 8005fae:	2300      	movs	r3, #0
 8005fb0:	2220      	movs	r2, #32
 8005fb2:	6323      	str	r3, [r4, #48]	; 0x30
 8005fb4:	f884 203d 	strb.w	r2, [r4, #61]	; 0x3d
 8005fb8:	f884 303e 	strb.w	r3, [r4, #62]	; 0x3e
 8005fbc:	6c22      	ldr	r2, [r4, #64]	; 0x40
 8005fbe:	f042 0220 	orr.w	r2, r2, #32
 8005fc2:	e7e8      	b.n	8005f96 <I2C_WaitOnRXNEFlagUntilTimeout+0x30>

08005fc4 <I2C_WaitOnFlagUntilTimeout>:
 8005fc4:	e92d 46f8 	stmdb	sp!, {r3, r4, r5, r6, r7, r9, sl, lr}
 8005fc8:	4606      	mov	r6, r0
 8005fca:	460f      	mov	r7, r1
 8005fcc:	4691      	mov	r9, r2
 8005fce:	461d      	mov	r5, r3
 8005fd0:	ea4f 4a11 	mov.w	sl, r1, lsr #16
 8005fd4:	6833      	ldr	r3, [r6, #0]
 8005fd6:	f1ba 0f01 	cmp.w	sl, #1
 8005fda:	bf0c      	ite	eq
 8005fdc:	695c      	ldreq	r4, [r3, #20]
 8005fde:	699c      	ldrne	r4, [r3, #24]
 8005fe0:	ea27 0404 	bic.w	r4, r7, r4
 8005fe4:	b2a4      	uxth	r4, r4
 8005fe6:	fab4 f484 	clz	r4, r4
 8005fea:	0964      	lsrs	r4, r4, #5
 8005fec:	45a1      	cmp	r9, r4
 8005fee:	d001      	beq.n	8005ff4 <I2C_WaitOnFlagUntilTimeout+0x30>
 8005ff0:	2000      	movs	r0, #0
 8005ff2:	e017      	b.n	8006024 <I2C_WaitOnFlagUntilTimeout+0x60>
 8005ff4:	1c6a      	adds	r2, r5, #1
 8005ff6:	d0ee      	beq.n	8005fd6 <I2C_WaitOnFlagUntilTimeout+0x12>
 8005ff8:	f7ff fc2a 	bl	8005850 <HAL_GetTick>
 8005ffc:	9b08      	ldr	r3, [sp, #32]
 8005ffe:	1ac0      	subs	r0, r0, r3
 8006000:	42a8      	cmp	r0, r5
 8006002:	d801      	bhi.n	8006008 <I2C_WaitOnFlagUntilTimeout+0x44>
 8006004:	2d00      	cmp	r5, #0
 8006006:	d1e5      	bne.n	8005fd4 <I2C_WaitOnFlagUntilTimeout+0x10>
 8006008:	2300      	movs	r3, #0
 800600a:	2220      	movs	r2, #32
 800600c:	2001      	movs	r0, #1
 800600e:	6333      	str	r3, [r6, #48]	; 0x30
 8006010:	f886 203d 	strb.w	r2, [r6, #61]	; 0x3d
 8006014:	f886 303e 	strb.w	r3, [r6, #62]	; 0x3e
 8006018:	6c32      	ldr	r2, [r6, #64]	; 0x40
 800601a:	f886 303c 	strb.w	r3, [r6, #60]	; 0x3c
 800601e:	f042 0220 	orr.w	r2, r2, #32
 8006022:	6432      	str	r2, [r6, #64]	; 0x40
 8006024:	e8bd 86f8 	ldmia.w	sp!, {r3, r4, r5, r6, r7, r9, sl, pc}

08006028 <I2C_WaitOnTXEFlagUntilTimeout>:
 8006028:	b570      	push	{r4, r5, r6, lr}
 800602a:	4604      	mov	r4, r0
 800602c:	460d      	mov	r5, r1
 800602e:	4616      	mov	r6, r2
 8006030:	6823      	ldr	r3, [r4, #0]
 8006032:	695b      	ldr	r3, [r3, #20]
 8006034:	061b      	lsls	r3, r3, #24
 8006036:	d501      	bpl.n	800603c <I2C_WaitOnTXEFlagUntilTimeout+0x14>
 8006038:	2000      	movs	r0, #0
 800603a:	bd70      	pop	{r4, r5, r6, pc}
 800603c:	4620      	mov	r0, r4
 800603e:	f7ff ff18 	bl	8005e72 <I2C_IsAcknowledgeFailed>
 8006042:	b9a8      	cbnz	r0, 8006070 <I2C_WaitOnTXEFlagUntilTimeout+0x48>
 8006044:	1c6a      	adds	r2, r5, #1
 8006046:	d0f3      	beq.n	8006030 <I2C_WaitOnTXEFlagUntilTimeout+0x8>
 8006048:	f7ff fc02 	bl	8005850 <HAL_GetTick>
 800604c:	1b80      	subs	r0, r0, r6
 800604e:	42a8      	cmp	r0, r5
 8006050:	d801      	bhi.n	8006056 <I2C_WaitOnTXEFlagUntilTimeout+0x2e>
 8006052:	2d00      	cmp	r5, #0
 8006054:	d1ec      	bne.n	8006030 <I2C_WaitOnTXEFlagUntilTimeout+0x8>
 8006056:	2300      	movs	r3, #0
 8006058:	2220      	movs	r2, #32
 800605a:	6323      	str	r3, [r4, #48]	; 0x30
 800605c:	f884 203d 	strb.w	r2, [r4, #61]	; 0x3d
 8006060:	f884 303e 	strb.w	r3, [r4, #62]	; 0x3e
 8006064:	6c22      	ldr	r2, [r4, #64]	; 0x40
 8006066:	f884 303c 	strb.w	r3, [r4, #60]	; 0x3c
 800606a:	f042 0220 	orr.w	r2, r2, #32
 800606e:	6422      	str	r2, [r4, #64]	; 0x40
 8006070:	2001      	movs	r0, #1
 8006072:	e7e2      	b.n	800603a <I2C_WaitOnTXEFlagUntilTimeout+0x12>

08006074 <I2C_RequestMemoryWrite>:
 8006074:	e92d 43f0 	stmdb	sp!, {r4, r5, r6, r7, r8, r9, lr}
 8006078:	4615      	mov	r5, r2
 800607a:	6802      	ldr	r2, [r0, #0]
 800607c:	4699      	mov	r9, r3
 800607e:	6813      	ldr	r3, [r2, #0]
 8006080:	b085      	sub	sp, #20
 8006082:	f443 7380 	orr.w	r3, r3, #256	; 0x100
 8006086:	6013      	str	r3, [r2, #0]
 8006088:	e9dd 780c 	ldrd	r7, r8, [sp, #48]	; 0x30
 800608c:	460e      	mov	r6, r1
 800608e:	463b      	mov	r3, r7
 8006090:	2200      	movs	r2, #0
 8006092:	f04f 1101 	mov.w	r1, #65537	; 0x10001
 8006096:	f8cd 8000 	str.w	r8, [sp]
 800609a:	4604      	mov	r4, r0
 800609c:	f7ff ff92 	bl	8005fc4 <I2C_WaitOnFlagUntilTimeout>
 80060a0:	6823      	ldr	r3, [r4, #0]
 80060a2:	b138      	cbz	r0, 80060b4 <I2C_RequestMemoryWrite+0x40>
 80060a4:	681b      	ldr	r3, [r3, #0]
 80060a6:	05db      	lsls	r3, r3, #23
 80060a8:	d502      	bpl.n	80060b0 <I2C_RequestMemoryWrite+0x3c>
 80060aa:	f44f 7300 	mov.w	r3, #512	; 0x200
 80060ae:	6423      	str	r3, [r4, #64]	; 0x40
 80060b0:	2003      	movs	r0, #3
 80060b2:	e00a      	b.n	80060ca <I2C_RequestMemoryWrite+0x56>
 80060b4:	f006 06fe 	and.w	r6, r6, #254	; 0xfe
 80060b8:	611e      	str	r6, [r3, #16]
 80060ba:	463a      	mov	r2, r7
 80060bc:	4643      	mov	r3, r8
 80060be:	4620      	mov	r0, r4
 80060c0:	4917      	ldr	r1, [pc, #92]	; (8006120 <I2C_RequestMemoryWrite+0xac>)
 80060c2:	f7ff feef 	bl	8005ea4 <I2C_WaitOnMasterAddressFlagUntilTimeout>
 80060c6:	b118      	cbz	r0, 80060d0 <I2C_RequestMemoryWrite+0x5c>
 80060c8:	2001      	movs	r0, #1
 80060ca:	b005      	add	sp, #20
 80060cc:	e8bd 83f0 	ldmia.w	sp!, {r4, r5, r6, r7, r8, r9, pc}
 80060d0:	6823      	ldr	r3, [r4, #0]
 80060d2:	9003      	str	r0, [sp, #12]
 80060d4:	695a      	ldr	r2, [r3, #20]
 80060d6:	4639      	mov	r1, r7
 80060d8:	9203      	str	r2, [sp, #12]
 80060da:	699b      	ldr	r3, [r3, #24]
 80060dc:	4642      	mov	r2, r8
 80060de:	9303      	str	r3, [sp, #12]
 80060e0:	4620      	mov	r0, r4
 80060e2:	9b03      	ldr	r3, [sp, #12]
 80060e4:	f7ff ffa0 	bl	8006028 <I2C_WaitOnTXEFlagUntilTimeout>
 80060e8:	b140      	cbz	r0, 80060fc <I2C_RequestMemoryWrite+0x88>
 80060ea:	6c23      	ldr	r3, [r4, #64]	; 0x40
 80060ec:	2b04      	cmp	r3, #4
 80060ee:	bf01      	itttt	eq
 80060f0:	6822      	ldreq	r2, [r4, #0]
 80060f2:	6813      	ldreq	r3, [r2, #0]
 80060f4:	f443 7300 	orreq.w	r3, r3, #512	; 0x200
 80060f8:	6013      	streq	r3, [r2, #0]
 80060fa:	e7e5      	b.n	80060c8 <I2C_RequestMemoryWrite+0x54>
 80060fc:	f1b9 0f01 	cmp.w	r9, #1
 8006100:	6823      	ldr	r3, [r4, #0]
 8006102:	d102      	bne.n	800610a <I2C_RequestMemoryWrite+0x96>
 8006104:	b2ed      	uxtb	r5, r5
 8006106:	611d      	str	r5, [r3, #16]
 8006108:	e7df      	b.n	80060ca <I2C_RequestMemoryWrite+0x56>
 800610a:	0a2a      	lsrs	r2, r5, #8
 800610c:	611a      	str	r2, [r3, #16]
 800610e:	4639      	mov	r1, r7
 8006110:	4642      	mov	r2, r8
 8006112:	4620      	mov	r0, r4
 8006114:	f7ff ff88 	bl	8006028 <I2C_WaitOnTXEFlagUntilTimeout>
 8006118:	2800      	cmp	r0, #0
 800611a:	d1e6      	bne.n	80060ea <I2C_RequestMemoryWrite+0x76>
 800611c:	6823      	ldr	r3, [r4, #0]
 800611e:	e7f1      	b.n	8006104 <I2C_RequestMemoryWrite+0x90>
 8006120:	00010002 	.word	0x00010002

08006124 <I2C_RequestMemoryRead>:
 8006124:	e92d 47ff 	stmdb	sp!, {r0, r1, r2, r3, r4, r5, r6, r7, r8, r9, sl, lr}
 8006128:	469a      	mov	sl, r3
 800612a:	e9dd 780c 	ldrd	r7, r8, [sp, #48]	; 0x30
 800612e:	6803      	ldr	r3, [r0, #0]
 8006130:	4615      	mov	r5, r2
 8006132:	681a      	ldr	r2, [r3, #0]
 8006134:	460e      	mov	r6, r1
 8006136:	f442 6280 	orr.w	r2, r2, #1024	; 0x400
 800613a:	601a      	str	r2, [r3, #0]
 800613c:	681a      	ldr	r2, [r3, #0]
 800613e:	f04f 1101 	mov.w	r1, #65537	; 0x10001
 8006142:	f442 7280 	orr.w	r2, r2, #256	; 0x100
 8006146:	601a      	str	r2, [r3, #0]
 8006148:	463b      	mov	r3, r7
 800614a:	2200      	movs	r2, #0
 800614c:	f8cd 8000 	str.w	r8, [sp]
 8006150:	4604      	mov	r4, r0
 8006152:	f7ff ff37 	bl	8005fc4 <I2C_WaitOnFlagUntilTimeout>
 8006156:	6823      	ldr	r3, [r4, #0]
 8006158:	b148      	cbz	r0, 800616e <I2C_RequestMemoryRead+0x4a>
 800615a:	681b      	ldr	r3, [r3, #0]
 800615c:	05db      	lsls	r3, r3, #23
 800615e:	d502      	bpl.n	8006166 <I2C_RequestMemoryRead+0x42>
 8006160:	f44f 7300 	mov.w	r3, #512	; 0x200
 8006164:	6423      	str	r3, [r4, #64]	; 0x40
 8006166:	2003      	movs	r0, #3
 8006168:	b004      	add	sp, #16
 800616a:	e8bd 87f0 	ldmia.w	sp!, {r4, r5, r6, r7, r8, r9, sl, pc}
 800616e:	fa5f f986 	uxtb.w	r9, r6
 8006172:	f006 06fe 	and.w	r6, r6, #254	; 0xfe
 8006176:	611e      	str	r6, [r3, #16]
 8006178:	463a      	mov	r2, r7
 800617a:	4643      	mov	r3, r8
 800617c:	4620      	mov	r0, r4
 800617e:	4929      	ldr	r1, [pc, #164]	; (8006224 <I2C_RequestMemoryRead+0x100>)
 8006180:	f7ff fe90 	bl	8005ea4 <I2C_WaitOnMasterAddressFlagUntilTimeout>
 8006184:	b108      	cbz	r0, 800618a <I2C_RequestMemoryRead+0x66>
 8006186:	2001      	movs	r0, #1
 8006188:	e7ee      	b.n	8006168 <I2C_RequestMemoryRead+0x44>
 800618a:	6823      	ldr	r3, [r4, #0]
 800618c:	9003      	str	r0, [sp, #12]
 800618e:	695a      	ldr	r2, [r3, #20]
 8006190:	4639      	mov	r1, r7
 8006192:	9203      	str	r2, [sp, #12]
 8006194:	699b      	ldr	r3, [r3, #24]
 8006196:	4642      	mov	r2, r8
 8006198:	9303      	str	r3, [sp, #12]
 800619a:	4620      	mov	r0, r4
 800619c:	9b03      	ldr	r3, [sp, #12]
 800619e:	f7ff ff43 	bl	8006028 <I2C_WaitOnTXEFlagUntilTimeout>
 80061a2:	b140      	cbz	r0, 80061b6 <I2C_RequestMemoryRead+0x92>
 80061a4:	6c23      	ldr	r3, [r4, #64]	; 0x40
 80061a6:	2b04      	cmp	r3, #4
 80061a8:	bf01      	itttt	eq
 80061aa:	6822      	ldreq	r2, [r4, #0]
 80061ac:	6813      	ldreq	r3, [r2, #0]
 80061ae:	f443 7300 	orreq.w	r3, r3, #512	; 0x200
 80061b2:	6013      	streq	r3, [r2, #0]
 80061b4:	e7e7      	b.n	8006186 <I2C_RequestMemoryRead+0x62>
 80061b6:	f1ba 0f01 	cmp.w	sl, #1
 80061ba:	6823      	ldr	r3, [r4, #0]
 80061bc:	d11a      	bne.n	80061f4 <I2C_RequestMemoryRead+0xd0>
 80061be:	b2ed      	uxtb	r5, r5
 80061c0:	4642      	mov	r2, r8
 80061c2:	4639      	mov	r1, r7
 80061c4:	4620      	mov	r0, r4
 80061c6:	611d      	str	r5, [r3, #16]
 80061c8:	f7ff ff2e 	bl	8006028 <I2C_WaitOnTXEFlagUntilTimeout>
 80061cc:	4602      	mov	r2, r0
 80061ce:	2800      	cmp	r0, #0
 80061d0:	d1e8      	bne.n	80061a4 <I2C_RequestMemoryRead+0x80>
 80061d2:	6821      	ldr	r1, [r4, #0]
 80061d4:	4620      	mov	r0, r4
 80061d6:	680b      	ldr	r3, [r1, #0]
 80061d8:	f443 7380 	orr.w	r3, r3, #256	; 0x100
 80061dc:	600b      	str	r3, [r1, #0]
 80061de:	463b      	mov	r3, r7
 80061e0:	f04f 1101 	mov.w	r1, #65537	; 0x10001
 80061e4:	f8cd 8000 	str.w	r8, [sp]
 80061e8:	f7ff feec 	bl	8005fc4 <I2C_WaitOnFlagUntilTimeout>
 80061ec:	6822      	ldr	r2, [r4, #0]
 80061ee:	b160      	cbz	r0, 800620a <I2C_RequestMemoryRead+0xe6>
 80061f0:	6813      	ldr	r3, [r2, #0]
 80061f2:	e7b3      	b.n	800615c <I2C_RequestMemoryRead+0x38>
 80061f4:	0a2a      	lsrs	r2, r5, #8
 80061f6:	611a      	str	r2, [r3, #16]
 80061f8:	4639      	mov	r1, r7
 80061fa:	4642      	mov	r2, r8
 80061fc:	4620      	mov	r0, r4
 80061fe:	f7ff ff13 	bl	8006028 <I2C_WaitOnTXEFlagUntilTimeout>
 8006202:	2800      	cmp	r0, #0
 8006204:	d1ce      	bne.n	80061a4 <I2C_RequestMemoryRead+0x80>
 8006206:	6823      	ldr	r3, [r4, #0]
 8006208:	e7d9      	b.n	80061be <I2C_RequestMemoryRead+0x9a>
 800620a:	f049 0301 	orr.w	r3, r9, #1
 800620e:	6113      	str	r3, [r2, #16]
 8006210:	4620      	mov	r0, r4
 8006212:	4643      	mov	r3, r8
 8006214:	463a      	mov	r2, r7
 8006216:	4903      	ldr	r1, [pc, #12]	; (8006224 <I2C_RequestMemoryRead+0x100>)
 8006218:	f7ff fe44 	bl	8005ea4 <I2C_WaitOnMasterAddressFlagUntilTimeout>
 800621c:	3800      	subs	r0, #0
 800621e:	bf18      	it	ne
 8006220:	2001      	movne	r0, #1
 8006222:	e7a1      	b.n	8006168 <I2C_RequestMemoryRead+0x44>
 8006224:	00010002 	.word	0x00010002

08006228 <HAL_I2C_Init>:
 8006228:	b570      	push	{r4, r5, r6, lr}
 800622a:	4604      	mov	r4, r0
 800622c:	b908      	cbnz	r0, 8006232 <HAL_I2C_Init+0xa>
 800622e:	2001      	movs	r0, #1
 8006230:	bd70      	pop	{r4, r5, r6, pc}
 8006232:	f890 303d 	ldrb.w	r3, [r0, #61]	; 0x3d
 8006236:	f003 02ff 	and.w	r2, r3, #255	; 0xff
 800623a:	b91b      	cbnz	r3, 8006244 <HAL_I2C_Init+0x1c>
 800623c:	f880 203c 	strb.w	r2, [r0, #60]	; 0x3c
 8006240:	f7fe f9f8 	bl	8004634 <HAL_I2C_MspInit>
 8006244:	2324      	movs	r3, #36	; 0x24
 8006246:	f884 303d 	strb.w	r3, [r4, #61]	; 0x3d
 800624a:	6823      	ldr	r3, [r4, #0]
 800624c:	681a      	ldr	r2, [r3, #0]
 800624e:	f022 0201 	bic.w	r2, r2, #1
 8006252:	601a      	str	r2, [r3, #0]
 8006254:	681a      	ldr	r2, [r3, #0]
 8006256:	f442 4200 	orr.w	r2, r2, #32768	; 0x8000
 800625a:	601a      	str	r2, [r3, #0]
 800625c:	681a      	ldr	r2, [r3, #0]
 800625e:	f422 4200 	bic.w	r2, r2, #32768	; 0x8000
 8006262:	601a      	str	r2, [r3, #0]
 8006264:	f000 fd16 	bl	8006c94 <HAL_RCC_GetPCLK1Freq>
 8006268:	4a3f      	ldr	r2, [pc, #252]	; (8006368 <HAL_I2C_Init+0x140>)
 800626a:	6863      	ldr	r3, [r4, #4]
 800626c:	4293      	cmp	r3, r2
 800626e:	bf94      	ite	ls
 8006270:	4a3e      	ldrls	r2, [pc, #248]	; (800636c <HAL_I2C_Init+0x144>)
 8006272:	4a3f      	ldrhi	r2, [pc, #252]	; (8006370 <HAL_I2C_Init+0x148>)
 8006274:	4290      	cmp	r0, r2
 8006276:	bf8c      	ite	hi
 8006278:	2200      	movhi	r2, #0
 800627a:	2201      	movls	r2, #1
 800627c:	2a00      	cmp	r2, #0
 800627e:	d1d6      	bne.n	800622e <HAL_I2C_Init+0x6>
 8006280:	4e3c      	ldr	r6, [pc, #240]	; (8006374 <HAL_I2C_Init+0x14c>)
 8006282:	6822      	ldr	r2, [r4, #0]
 8006284:	fbb0 f6f6 	udiv	r6, r0, r6
 8006288:	6851      	ldr	r1, [r2, #4]
 800628a:	3801      	subs	r0, #1
 800628c:	f021 013f 	bic.w	r1, r1, #63	; 0x3f
 8006290:	4331      	orrs	r1, r6
 8006292:	6051      	str	r1, [r2, #4]
 8006294:	4934      	ldr	r1, [pc, #208]	; (8006368 <HAL_I2C_Init+0x140>)
 8006296:	6a15      	ldr	r5, [r2, #32]
 8006298:	428b      	cmp	r3, r1
 800629a:	bf81      	itttt	hi
 800629c:	f44f 7196 	movhi.w	r1, #300	; 0x12c
 80062a0:	4371      	mulhi	r1, r6
 80062a2:	f44f 767a 	movhi.w	r6, #1000	; 0x3e8
 80062a6:	fbb1 f1f6 	udivhi	r1, r1, r6
 80062aa:	f025 053f 	bic.w	r5, r5, #63	; 0x3f
 80062ae:	bf94      	ite	ls
 80062b0:	1c71      	addls	r1, r6, #1
 80062b2:	3101      	addhi	r1, #1
 80062b4:	4329      	orrs	r1, r5
 80062b6:	6211      	str	r1, [r2, #32]
 80062b8:	69d1      	ldr	r1, [r2, #28]
 80062ba:	4d2b      	ldr	r5, [pc, #172]	; (8006368 <HAL_I2C_Init+0x140>)
 80062bc:	f421 414f 	bic.w	r1, r1, #52992	; 0xcf00
 80062c0:	42ab      	cmp	r3, r5
 80062c2:	f021 01ff 	bic.w	r1, r1, #255	; 0xff
 80062c6:	d832      	bhi.n	800632e <HAL_I2C_Init+0x106>
 80062c8:	005b      	lsls	r3, r3, #1
 80062ca:	fbb0 f0f3 	udiv	r0, r0, r3
 80062ce:	1c43      	adds	r3, r0, #1
 80062d0:	f640 70fc 	movw	r0, #4092	; 0xffc
 80062d4:	4203      	tst	r3, r0
 80062d6:	d042      	beq.n	800635e <HAL_I2C_Init+0x136>
 80062d8:	f3c3 030b 	ubfx	r3, r3, #0, #12
 80062dc:	430b      	orrs	r3, r1
 80062de:	61d3      	str	r3, [r2, #28]
 80062e0:	6811      	ldr	r1, [r2, #0]
 80062e2:	e9d4 3007 	ldrd	r3, r0, [r4, #28]
 80062e6:	f021 01c0 	bic.w	r1, r1, #192	; 0xc0
 80062ea:	4303      	orrs	r3, r0
 80062ec:	430b      	orrs	r3, r1
 80062ee:	6013      	str	r3, [r2, #0]
 80062f0:	6891      	ldr	r1, [r2, #8]
 80062f2:	e9d4 0303 	ldrd	r0, r3, [r4, #12]
 80062f6:	f421 4103 	bic.w	r1, r1, #33536	; 0x8300
 80062fa:	4303      	orrs	r3, r0
 80062fc:	f021 01ff 	bic.w	r1, r1, #255	; 0xff
 8006300:	430b      	orrs	r3, r1
 8006302:	6093      	str	r3, [r2, #8]
 8006304:	68d1      	ldr	r1, [r2, #12]
 8006306:	e9d4 3005 	ldrd	r3, r0, [r4, #20]
 800630a:	f021 01ff 	bic.w	r1, r1, #255	; 0xff
 800630e:	4303      	orrs	r3, r0
 8006310:	430b      	orrs	r3, r1
 8006312:	60d3      	str	r3, [r2, #12]
 8006314:	6813      	ldr	r3, [r2, #0]
 8006316:	2000      	movs	r0, #0
 8006318:	f043 0301 	orr.w	r3, r3, #1
 800631c:	6013      	str	r3, [r2, #0]
 800631e:	2320      	movs	r3, #32
 8006320:	6420      	str	r0, [r4, #64]	; 0x40
 8006322:	f884 303d 	strb.w	r3, [r4, #61]	; 0x3d
 8006326:	6320      	str	r0, [r4, #48]	; 0x30
 8006328:	f884 003e 	strb.w	r0, [r4, #62]	; 0x3e
 800632c:	e780      	b.n	8006230 <HAL_I2C_Init+0x8>
 800632e:	68a5      	ldr	r5, [r4, #8]
 8006330:	b955      	cbnz	r5, 8006348 <HAL_I2C_Init+0x120>
 8006332:	eb03 0343 	add.w	r3, r3, r3, lsl #1
 8006336:	fbb0 f3f3 	udiv	r3, r0, r3
 800633a:	3301      	adds	r3, #1
 800633c:	f3c3 030b 	ubfx	r3, r3, #0, #12
 8006340:	b17b      	cbz	r3, 8006362 <HAL_I2C_Init+0x13a>
 8006342:	f443 4300 	orr.w	r3, r3, #32768	; 0x8000
 8006346:	e7c9      	b.n	80062dc <HAL_I2C_Init+0xb4>
 8006348:	2519      	movs	r5, #25
 800634a:	436b      	muls	r3, r5
 800634c:	fbb0 f3f3 	udiv	r3, r0, r3
 8006350:	3301      	adds	r3, #1
 8006352:	f3c3 030b 	ubfx	r3, r3, #0, #12
 8006356:	b123      	cbz	r3, 8006362 <HAL_I2C_Init+0x13a>
 8006358:	f443 4340 	orr.w	r3, r3, #49152	; 0xc000
 800635c:	e7be      	b.n	80062dc <HAL_I2C_Init+0xb4>
 800635e:	2304      	movs	r3, #4
 8006360:	e7bc      	b.n	80062dc <HAL_I2C_Init+0xb4>
 8006362:	2301      	movs	r3, #1
 8006364:	e7ba      	b.n	80062dc <HAL_I2C_Init+0xb4>
 8006366:	bf00      	nop
 8006368:	000186a0 	.word	0x000186a0
 800636c:	001e847f 	.word	0x001e847f
 8006370:	003d08ff 	.word	0x003d08ff
 8006374:	000f4240 	.word	0x000f4240

08006378 <HAL_I2C_DeInit>:
 8006378:	b510      	push	{r4, lr}
 800637a:	4604      	mov	r4, r0
 800637c:	b198      	cbz	r0, 80063a6 <HAL_I2C_DeInit+0x2e>
 800637e:	2324      	movs	r3, #36	; 0x24
 8006380:	6802      	ldr	r2, [r0, #0]
 8006382:	f880 303d 	strb.w	r3, [r0, #61]	; 0x3d
 8006386:	6813      	ldr	r3, [r2, #0]
 8006388:	f023 0301 	bic.w	r3, r3, #1
 800638c:	6013      	str	r3, [r2, #0]
 800638e:	f7fe f98d 	bl	80046ac <HAL_I2C_MspDeInit>
 8006392:	2000      	movs	r0, #0
 8006394:	6420      	str	r0, [r4, #64]	; 0x40
 8006396:	f884 003c 	strb.w	r0, [r4, #60]	; 0x3c
 800639a:	f884 003d 	strb.w	r0, [r4, #61]	; 0x3d
 800639e:	6320      	str	r0, [r4, #48]	; 0x30
 80063a0:	f884 003e 	strb.w	r0, [r4, #62]	; 0x3e
 80063a4:	bd10      	pop	{r4, pc}
 80063a6:	2001      	movs	r0, #1
 80063a8:	e7fc      	b.n	80063a4 <HAL_I2C_DeInit+0x2c>
	...

080063ac <HAL_I2C_Mem_Write>:
 80063ac:	e92d 43f7 	stmdb	sp!, {r0, r1, r2, r4, r5, r6, r7, r8, r9, lr}
 80063b0:	4604      	mov	r4, r0
 80063b2:	4699      	mov	r9, r3
 80063b4:	460f      	mov	r7, r1
 80063b6:	4690      	mov	r8, r2
 80063b8:	9e0c      	ldr	r6, [sp, #48]	; 0x30
 80063ba:	f7ff fa49 	bl	8005850 <HAL_GetTick>
 80063be:	f894 303d 	ldrb.w	r3, [r4, #61]	; 0x3d
 80063c2:	4605      	mov	r5, r0
 80063c4:	2b20      	cmp	r3, #32
 80063c6:	d003      	beq.n	80063d0 <HAL_I2C_Mem_Write+0x24>
 80063c8:	2002      	movs	r0, #2
 80063ca:	b003      	add	sp, #12
 80063cc:	e8bd 83f0 	ldmia.w	sp!, {r4, r5, r6, r7, r8, r9, pc}
 80063d0:	9000      	str	r0, [sp, #0]
 80063d2:	2319      	movs	r3, #25
 80063d4:	2201      	movs	r2, #1
 80063d6:	4620      	mov	r0, r4
 80063d8:	493a      	ldr	r1, [pc, #232]	; (80064c4 <HAL_I2C_Mem_Write+0x118>)
 80063da:	f7ff fdf3 	bl	8005fc4 <I2C_WaitOnFlagUntilTimeout>
 80063de:	2800      	cmp	r0, #0
 80063e0:	d1f2      	bne.n	80063c8 <HAL_I2C_Mem_Write+0x1c>
 80063e2:	f894 303c 	ldrb.w	r3, [r4, #60]	; 0x3c
 80063e6:	2b01      	cmp	r3, #1
 80063e8:	d0ee      	beq.n	80063c8 <HAL_I2C_Mem_Write+0x1c>
 80063ea:	2301      	movs	r3, #1
 80063ec:	6820      	ldr	r0, [r4, #0]
 80063ee:	f884 303c 	strb.w	r3, [r4, #60]	; 0x3c
 80063f2:	6803      	ldr	r3, [r0, #0]
 80063f4:	4642      	mov	r2, r8
 80063f6:	07d9      	lsls	r1, r3, #31
 80063f8:	bf58      	it	pl
 80063fa:	6803      	ldrpl	r3, [r0, #0]
 80063fc:	4639      	mov	r1, r7
 80063fe:	bf5c      	itt	pl
 8006400:	f043 0301 	orrpl.w	r3, r3, #1
 8006404:	6003      	strpl	r3, [r0, #0]
 8006406:	6803      	ldr	r3, [r0, #0]
 8006408:	f423 6300 	bic.w	r3, r3, #2048	; 0x800
 800640c:	6003      	str	r3, [r0, #0]
 800640e:	2321      	movs	r3, #33	; 0x21
 8006410:	f884 303d 	strb.w	r3, [r4, #61]	; 0x3d
 8006414:	2340      	movs	r3, #64	; 0x40
 8006416:	f884 303e 	strb.w	r3, [r4, #62]	; 0x3e
 800641a:	2300      	movs	r3, #0
 800641c:	6423      	str	r3, [r4, #64]	; 0x40
 800641e:	9b0a      	ldr	r3, [sp, #40]	; 0x28
 8006420:	4620      	mov	r0, r4
 8006422:	6263      	str	r3, [r4, #36]	; 0x24
 8006424:	f8bd 302c 	ldrh.w	r3, [sp, #44]	; 0x2c
 8006428:	e9cd 6500 	strd	r6, r5, [sp]
 800642c:	8563      	strh	r3, [r4, #42]	; 0x2a
 800642e:	8d63      	ldrh	r3, [r4, #42]	; 0x2a
 8006430:	8523      	strh	r3, [r4, #40]	; 0x28
 8006432:	4b25      	ldr	r3, [pc, #148]	; (80064c8 <HAL_I2C_Mem_Write+0x11c>)
 8006434:	62e3      	str	r3, [r4, #44]	; 0x2c
 8006436:	464b      	mov	r3, r9
 8006438:	f7ff fe1c 	bl	8006074 <I2C_RequestMemoryWrite>
 800643c:	2800      	cmp	r0, #0
 800643e:	d02a      	beq.n	8006496 <HAL_I2C_Mem_Write+0xea>
 8006440:	2001      	movs	r0, #1
 8006442:	e7c2      	b.n	80063ca <HAL_I2C_Mem_Write+0x1e>
 8006444:	f7ff fdf0 	bl	8006028 <I2C_WaitOnTXEFlagUntilTimeout>
 8006448:	b140      	cbz	r0, 800645c <HAL_I2C_Mem_Write+0xb0>
 800644a:	6c23      	ldr	r3, [r4, #64]	; 0x40
 800644c:	2b04      	cmp	r3, #4
 800644e:	bf01      	itttt	eq
 8006450:	6822      	ldreq	r2, [r4, #0]
 8006452:	6813      	ldreq	r3, [r2, #0]
 8006454:	f443 7300 	orreq.w	r3, r3, #512	; 0x200
 8006458:	6013      	streq	r3, [r2, #0]
 800645a:	e7f1      	b.n	8006440 <HAL_I2C_Mem_Write+0x94>
 800645c:	6a63      	ldr	r3, [r4, #36]	; 0x24
 800645e:	6827      	ldr	r7, [r4, #0]
 8006460:	461a      	mov	r2, r3
 8006462:	f812 1b01 	ldrb.w	r1, [r2], #1
 8006466:	6139      	str	r1, [r7, #16]
 8006468:	6262      	str	r2, [r4, #36]	; 0x24
 800646a:	8d62      	ldrh	r2, [r4, #42]	; 0x2a
 800646c:	8d21      	ldrh	r1, [r4, #40]	; 0x28
 800646e:	3a01      	subs	r2, #1
 8006470:	b292      	uxth	r2, r2
 8006472:	8562      	strh	r2, [r4, #42]	; 0x2a
 8006474:	697a      	ldr	r2, [r7, #20]
 8006476:	1e48      	subs	r0, r1, #1
 8006478:	b280      	uxth	r0, r0
 800647a:	0752      	lsls	r2, r2, #29
 800647c:	8520      	strh	r0, [r4, #40]	; 0x28
 800647e:	d50a      	bpl.n	8006496 <HAL_I2C_Mem_Write+0xea>
 8006480:	b148      	cbz	r0, 8006496 <HAL_I2C_Mem_Write+0xea>
 8006482:	785a      	ldrb	r2, [r3, #1]
 8006484:	3302      	adds	r3, #2
 8006486:	613a      	str	r2, [r7, #16]
 8006488:	6263      	str	r3, [r4, #36]	; 0x24
 800648a:	8d63      	ldrh	r3, [r4, #42]	; 0x2a
 800648c:	3902      	subs	r1, #2
 800648e:	3b01      	subs	r3, #1
 8006490:	b29b      	uxth	r3, r3
 8006492:	8521      	strh	r1, [r4, #40]	; 0x28
 8006494:	8563      	strh	r3, [r4, #42]	; 0x2a
 8006496:	8d23      	ldrh	r3, [r4, #40]	; 0x28
 8006498:	462a      	mov	r2, r5
 800649a:	4631      	mov	r1, r6
 800649c:	4620      	mov	r0, r4
 800649e:	2b00      	cmp	r3, #0
 80064a0:	d1d0      	bne.n	8006444 <HAL_I2C_Mem_Write+0x98>
 80064a2:	f7ff fd3a 	bl	8005f1a <I2C_WaitOnBTFFlagUntilTimeout>
 80064a6:	2800      	cmp	r0, #0
 80064a8:	d1cf      	bne.n	800644a <HAL_I2C_Mem_Write+0x9e>
 80064aa:	6822      	ldr	r2, [r4, #0]
 80064ac:	6813      	ldr	r3, [r2, #0]
 80064ae:	f443 7300 	orr.w	r3, r3, #512	; 0x200
 80064b2:	6013      	str	r3, [r2, #0]
 80064b4:	2320      	movs	r3, #32
 80064b6:	f884 003c 	strb.w	r0, [r4, #60]	; 0x3c
 80064ba:	f884 303d 	strb.w	r3, [r4, #61]	; 0x3d
 80064be:	f884 003e 	strb.w	r0, [r4, #62]	; 0x3e
 80064c2:	e782      	b.n	80063ca <HAL_I2C_Mem_Write+0x1e>
 80064c4:	00100002 	.word	0x00100002
 80064c8:	ffff0000 	.word	0xffff0000

080064cc <HAL_I2C_Mem_Read>:
 80064cc:	e92d 43f0 	stmdb	sp!, {r4, r5, r6, r7, r8, r9, lr}
 80064d0:	4699      	mov	r9, r3
 80064d2:	2300      	movs	r3, #0
 80064d4:	4604      	mov	r4, r0
 80064d6:	b089      	sub	sp, #36	; 0x24
 80064d8:	9303      	str	r3, [sp, #12]
 80064da:	460d      	mov	r5, r1
 80064dc:	4690      	mov	r8, r2
 80064de:	9f12      	ldr	r7, [sp, #72]	; 0x48
 80064e0:	f7ff f9b6 	bl	8005850 <HAL_GetTick>
 80064e4:	f894 303d 	ldrb.w	r3, [r4, #61]	; 0x3d
 80064e8:	4606      	mov	r6, r0
 80064ea:	2b20      	cmp	r3, #32
 80064ec:	d004      	beq.n	80064f8 <HAL_I2C_Mem_Read+0x2c>
 80064ee:	2502      	movs	r5, #2
 80064f0:	4628      	mov	r0, r5
 80064f2:	b009      	add	sp, #36	; 0x24
 80064f4:	e8bd 83f0 	ldmia.w	sp!, {r4, r5, r6, r7, r8, r9, pc}
 80064f8:	9000      	str	r0, [sp, #0]
 80064fa:	2319      	movs	r3, #25
 80064fc:	2201      	movs	r2, #1
 80064fe:	4620      	mov	r0, r4
 8006500:	498d      	ldr	r1, [pc, #564]	; (8006738 <HAL_I2C_Mem_Read+0x26c>)
 8006502:	f7ff fd5f 	bl	8005fc4 <I2C_WaitOnFlagUntilTimeout>
 8006506:	2800      	cmp	r0, #0
 8006508:	d1f1      	bne.n	80064ee <HAL_I2C_Mem_Read+0x22>
 800650a:	f894 303c 	ldrb.w	r3, [r4, #60]	; 0x3c
 800650e:	2b01      	cmp	r3, #1
 8006510:	d0ed      	beq.n	80064ee <HAL_I2C_Mem_Read+0x22>
 8006512:	2301      	movs	r3, #1
 8006514:	6820      	ldr	r0, [r4, #0]
 8006516:	f884 303c 	strb.w	r3, [r4, #60]	; 0x3c
 800651a:	6803      	ldr	r3, [r0, #0]
 800651c:	4629      	mov	r1, r5
 800651e:	07db      	lsls	r3, r3, #31
 8006520:	bf58      	it	pl
 8006522:	6803      	ldrpl	r3, [r0, #0]
 8006524:	4642      	mov	r2, r8
 8006526:	bf5c      	itt	pl
 8006528:	f043 0301 	orrpl.w	r3, r3, #1
 800652c:	6003      	strpl	r3, [r0, #0]
 800652e:	6803      	ldr	r3, [r0, #0]
 8006530:	f423 6300 	bic.w	r3, r3, #2048	; 0x800
 8006534:	6003      	str	r3, [r0, #0]
 8006536:	2322      	movs	r3, #34	; 0x22
 8006538:	f884 303d 	strb.w	r3, [r4, #61]	; 0x3d
 800653c:	2340      	movs	r3, #64	; 0x40
 800653e:	f884 303e 	strb.w	r3, [r4, #62]	; 0x3e
 8006542:	2300      	movs	r3, #0
 8006544:	6423      	str	r3, [r4, #64]	; 0x40
 8006546:	9b10      	ldr	r3, [sp, #64]	; 0x40
 8006548:	4620      	mov	r0, r4
 800654a:	6263      	str	r3, [r4, #36]	; 0x24
 800654c:	f8bd 3044 	ldrh.w	r3, [sp, #68]	; 0x44
 8006550:	e9cd 7600 	strd	r7, r6, [sp]
 8006554:	8563      	strh	r3, [r4, #42]	; 0x2a
 8006556:	8d63      	ldrh	r3, [r4, #42]	; 0x2a
 8006558:	8523      	strh	r3, [r4, #40]	; 0x28
 800655a:	4b78      	ldr	r3, [pc, #480]	; (800673c <HAL_I2C_Mem_Read+0x270>)
 800655c:	62e3      	str	r3, [r4, #44]	; 0x2c
 800655e:	464b      	mov	r3, r9
 8006560:	f7ff fde0 	bl	8006124 <I2C_RequestMemoryRead>
 8006564:	4605      	mov	r5, r0
 8006566:	b108      	cbz	r0, 800656c <HAL_I2C_Mem_Read+0xa0>
 8006568:	2501      	movs	r5, #1
 800656a:	e7c1      	b.n	80064f0 <HAL_I2C_Mem_Read+0x24>
 800656c:	8d22      	ldrh	r2, [r4, #40]	; 0x28
 800656e:	6823      	ldr	r3, [r4, #0]
 8006570:	b9c2      	cbnz	r2, 80065a4 <HAL_I2C_Mem_Read+0xd8>
 8006572:	9004      	str	r0, [sp, #16]
 8006574:	695a      	ldr	r2, [r3, #20]
 8006576:	9204      	str	r2, [sp, #16]
 8006578:	699a      	ldr	r2, [r3, #24]
 800657a:	9204      	str	r2, [sp, #16]
 800657c:	9a04      	ldr	r2, [sp, #16]
 800657e:	681a      	ldr	r2, [r3, #0]
 8006580:	f442 7200 	orr.w	r2, r2, #512	; 0x200
 8006584:	601a      	str	r2, [r3, #0]
 8006586:	f8df 81b8 	ldr.w	r8, [pc, #440]	; 8006740 <HAL_I2C_Mem_Read+0x274>
 800658a:	f8df 91b8 	ldr.w	r9, [pc, #440]	; 8006744 <HAL_I2C_Mem_Read+0x278>
 800658e:	8d23      	ldrh	r3, [r4, #40]	; 0x28
 8006590:	2b00      	cmp	r3, #0
 8006592:	d137      	bne.n	8006604 <HAL_I2C_Mem_Read+0x138>
 8006594:	2220      	movs	r2, #32
 8006596:	f884 303c 	strb.w	r3, [r4, #60]	; 0x3c
 800659a:	f884 203d 	strb.w	r2, [r4, #61]	; 0x3d
 800659e:	f884 303e 	strb.w	r3, [r4, #62]	; 0x3e
 80065a2:	e7a5      	b.n	80064f0 <HAL_I2C_Mem_Read+0x24>
 80065a4:	2a01      	cmp	r2, #1
 80065a6:	d111      	bne.n	80065cc <HAL_I2C_Mem_Read+0x100>
 80065a8:	681a      	ldr	r2, [r3, #0]
 80065aa:	f422 6280 	bic.w	r2, r2, #1024	; 0x400
 80065ae:	601a      	str	r2, [r3, #0]
 80065b0:	b672      	cpsid	i
 80065b2:	6823      	ldr	r3, [r4, #0]
 80065b4:	9005      	str	r0, [sp, #20]
 80065b6:	695a      	ldr	r2, [r3, #20]
 80065b8:	9205      	str	r2, [sp, #20]
 80065ba:	699a      	ldr	r2, [r3, #24]
 80065bc:	9205      	str	r2, [sp, #20]
 80065be:	9a05      	ldr	r2, [sp, #20]
 80065c0:	681a      	ldr	r2, [r3, #0]
 80065c2:	f442 7200 	orr.w	r2, r2, #512	; 0x200
 80065c6:	601a      	str	r2, [r3, #0]
 80065c8:	b662      	cpsie	i
 80065ca:	e7dc      	b.n	8006586 <HAL_I2C_Mem_Read+0xba>
 80065cc:	2a02      	cmp	r2, #2
 80065ce:	681a      	ldr	r2, [r3, #0]
 80065d0:	d10e      	bne.n	80065f0 <HAL_I2C_Mem_Read+0x124>
 80065d2:	f442 6200 	orr.w	r2, r2, #2048	; 0x800
 80065d6:	601a      	str	r2, [r3, #0]
 80065d8:	b672      	cpsid	i
 80065da:	6823      	ldr	r3, [r4, #0]
 80065dc:	9006      	str	r0, [sp, #24]
 80065de:	695a      	ldr	r2, [r3, #20]
 80065e0:	9206      	str	r2, [sp, #24]
 80065e2:	699a      	ldr	r2, [r3, #24]
 80065e4:	9206      	str	r2, [sp, #24]
 80065e6:	9a06      	ldr	r2, [sp, #24]
 80065e8:	681a      	ldr	r2, [r3, #0]
 80065ea:	f422 6280 	bic.w	r2, r2, #1024	; 0x400
 80065ee:	e7ea      	b.n	80065c6 <HAL_I2C_Mem_Read+0xfa>
 80065f0:	f442 6280 	orr.w	r2, r2, #1024	; 0x400
 80065f4:	601a      	str	r2, [r3, #0]
 80065f6:	9007      	str	r0, [sp, #28]
 80065f8:	695a      	ldr	r2, [r3, #20]
 80065fa:	9207      	str	r2, [sp, #28]
 80065fc:	699b      	ldr	r3, [r3, #24]
 80065fe:	9307      	str	r3, [sp, #28]
 8006600:	9b07      	ldr	r3, [sp, #28]
 8006602:	e7c0      	b.n	8006586 <HAL_I2C_Mem_Read+0xba>
 8006604:	2b03      	cmp	r3, #3
 8006606:	d878      	bhi.n	80066fa <HAL_I2C_Mem_Read+0x22e>
 8006608:	2b01      	cmp	r3, #1
 800660a:	d115      	bne.n	8006638 <HAL_I2C_Mem_Read+0x16c>
 800660c:	4632      	mov	r2, r6
 800660e:	4639      	mov	r1, r7
 8006610:	4620      	mov	r0, r4
 8006612:	f7ff fca8 	bl	8005f66 <I2C_WaitOnRXNEFlagUntilTimeout>
 8006616:	2800      	cmp	r0, #0
 8006618:	d1a6      	bne.n	8006568 <HAL_I2C_Mem_Read+0x9c>
 800661a:	6823      	ldr	r3, [r4, #0]
 800661c:	691a      	ldr	r2, [r3, #16]
 800661e:	6a63      	ldr	r3, [r4, #36]	; 0x24
 8006620:	701a      	strb	r2, [r3, #0]
 8006622:	6a63      	ldr	r3, [r4, #36]	; 0x24
 8006624:	3301      	adds	r3, #1
 8006626:	6263      	str	r3, [r4, #36]	; 0x24
 8006628:	8d23      	ldrh	r3, [r4, #40]	; 0x28
 800662a:	3b01      	subs	r3, #1
 800662c:	8523      	strh	r3, [r4, #40]	; 0x28
 800662e:	8d63      	ldrh	r3, [r4, #42]	; 0x2a
 8006630:	3b01      	subs	r3, #1
 8006632:	b29b      	uxth	r3, r3
 8006634:	8563      	strh	r3, [r4, #42]	; 0x2a
 8006636:	e7aa      	b.n	800658e <HAL_I2C_Mem_Read+0xc2>
 8006638:	2b02      	cmp	r3, #2
 800663a:	f04f 0200 	mov.w	r2, #0
 800663e:	463b      	mov	r3, r7
 8006640:	4641      	mov	r1, r8
 8006642:	4620      	mov	r0, r4
 8006644:	9600      	str	r6, [sp, #0]
 8006646:	d118      	bne.n	800667a <HAL_I2C_Mem_Read+0x1ae>
 8006648:	f7ff fcbc 	bl	8005fc4 <I2C_WaitOnFlagUntilTimeout>
 800664c:	2800      	cmp	r0, #0
 800664e:	d18b      	bne.n	8006568 <HAL_I2C_Mem_Read+0x9c>
 8006650:	b672      	cpsid	i
 8006652:	6823      	ldr	r3, [r4, #0]
 8006654:	681a      	ldr	r2, [r3, #0]
 8006656:	f442 7200 	orr.w	r2, r2, #512	; 0x200
 800665a:	601a      	str	r2, [r3, #0]
 800665c:	691a      	ldr	r2, [r3, #16]
 800665e:	6a63      	ldr	r3, [r4, #36]	; 0x24
 8006660:	701a      	strb	r2, [r3, #0]
 8006662:	6a63      	ldr	r3, [r4, #36]	; 0x24
 8006664:	3301      	adds	r3, #1
 8006666:	6263      	str	r3, [r4, #36]	; 0x24
 8006668:	8d23      	ldrh	r3, [r4, #40]	; 0x28
 800666a:	3b01      	subs	r3, #1
 800666c:	8523      	strh	r3, [r4, #40]	; 0x28
 800666e:	8d63      	ldrh	r3, [r4, #42]	; 0x2a
 8006670:	3b01      	subs	r3, #1
 8006672:	b29b      	uxth	r3, r3
 8006674:	8563      	strh	r3, [r4, #42]	; 0x2a
 8006676:	b662      	cpsie	i
 8006678:	e7cf      	b.n	800661a <HAL_I2C_Mem_Read+0x14e>
 800667a:	f7ff fca3 	bl	8005fc4 <I2C_WaitOnFlagUntilTimeout>
 800667e:	2800      	cmp	r0, #0
 8006680:	f47f af72 	bne.w	8006568 <HAL_I2C_Mem_Read+0x9c>
 8006684:	6822      	ldr	r2, [r4, #0]
 8006686:	6813      	ldr	r3, [r2, #0]
 8006688:	f423 6380 	bic.w	r3, r3, #1024	; 0x400
 800668c:	6013      	str	r3, [r2, #0]
 800668e:	b672      	cpsid	i
 8006690:	6823      	ldr	r3, [r4, #0]
 8006692:	691a      	ldr	r2, [r3, #16]
 8006694:	6a63      	ldr	r3, [r4, #36]	; 0x24
 8006696:	701a      	strb	r2, [r3, #0]
 8006698:	f246 12a8 	movw	r2, #25000	; 0x61a8
 800669c:	6a61      	ldr	r1, [r4, #36]	; 0x24
 800669e:	1c4b      	adds	r3, r1, #1
 80066a0:	6263      	str	r3, [r4, #36]	; 0x24
 80066a2:	8d23      	ldrh	r3, [r4, #40]	; 0x28
 80066a4:	3b01      	subs	r3, #1
 80066a6:	8523      	strh	r3, [r4, #40]	; 0x28
 80066a8:	8d63      	ldrh	r3, [r4, #42]	; 0x2a
 80066aa:	3b01      	subs	r3, #1
 80066ac:	b29b      	uxth	r3, r3
 80066ae:	8563      	strh	r3, [r4, #42]	; 0x2a
 80066b0:	f8d9 3000 	ldr.w	r3, [r9]
 80066b4:	fbb3 f2f2 	udiv	r2, r3, r2
 80066b8:	2323      	movs	r3, #35	; 0x23
 80066ba:	4353      	muls	r3, r2
 80066bc:	9303      	str	r3, [sp, #12]
 80066be:	9b03      	ldr	r3, [sp, #12]
 80066c0:	3b01      	subs	r3, #1
 80066c2:	9303      	str	r3, [sp, #12]
 80066c4:	9b03      	ldr	r3, [sp, #12]
 80066c6:	b96b      	cbnz	r3, 80066e4 <HAL_I2C_Mem_Read+0x218>
 80066c8:	2220      	movs	r2, #32
 80066ca:	6323      	str	r3, [r4, #48]	; 0x30
 80066cc:	f884 203d 	strb.w	r2, [r4, #61]	; 0x3d
 80066d0:	f884 303e 	strb.w	r3, [r4, #62]	; 0x3e
 80066d4:	6c22      	ldr	r2, [r4, #64]	; 0x40
 80066d6:	f042 0220 	orr.w	r2, r2, #32
 80066da:	6422      	str	r2, [r4, #64]	; 0x40
 80066dc:	b662      	cpsie	i
 80066de:	f884 303c 	strb.w	r3, [r4, #60]	; 0x3c
 80066e2:	e741      	b.n	8006568 <HAL_I2C_Mem_Read+0x9c>
 80066e4:	6823      	ldr	r3, [r4, #0]
 80066e6:	695a      	ldr	r2, [r3, #20]
 80066e8:	0750      	lsls	r0, r2, #29
 80066ea:	d5e8      	bpl.n	80066be <HAL_I2C_Mem_Read+0x1f2>
 80066ec:	681a      	ldr	r2, [r3, #0]
 80066ee:	f442 7200 	orr.w	r2, r2, #512	; 0x200
 80066f2:	601a      	str	r2, [r3, #0]
 80066f4:	691b      	ldr	r3, [r3, #16]
 80066f6:	704b      	strb	r3, [r1, #1]
 80066f8:	e7b3      	b.n	8006662 <HAL_I2C_Mem_Read+0x196>
 80066fa:	4632      	mov	r2, r6
 80066fc:	4639      	mov	r1, r7
 80066fe:	4620      	mov	r0, r4
 8006700:	f7ff fc31 	bl	8005f66 <I2C_WaitOnRXNEFlagUntilTimeout>
 8006704:	2800      	cmp	r0, #0
 8006706:	f47f af2f 	bne.w	8006568 <HAL_I2C_Mem_Read+0x9c>
 800670a:	6823      	ldr	r3, [r4, #0]
 800670c:	691a      	ldr	r2, [r3, #16]
 800670e:	6a63      	ldr	r3, [r4, #36]	; 0x24
 8006710:	701a      	strb	r2, [r3, #0]
 8006712:	6a62      	ldr	r2, [r4, #36]	; 0x24
 8006714:	1c53      	adds	r3, r2, #1
 8006716:	6263      	str	r3, [r4, #36]	; 0x24
 8006718:	8d23      	ldrh	r3, [r4, #40]	; 0x28
 800671a:	3b01      	subs	r3, #1
 800671c:	8523      	strh	r3, [r4, #40]	; 0x28
 800671e:	8d63      	ldrh	r3, [r4, #42]	; 0x2a
 8006720:	3b01      	subs	r3, #1
 8006722:	b29b      	uxth	r3, r3
 8006724:	8563      	strh	r3, [r4, #42]	; 0x2a
 8006726:	6823      	ldr	r3, [r4, #0]
 8006728:	6959      	ldr	r1, [r3, #20]
 800672a:	0749      	lsls	r1, r1, #29
 800672c:	f57f af2f 	bpl.w	800658e <HAL_I2C_Mem_Read+0xc2>
 8006730:	691b      	ldr	r3, [r3, #16]
 8006732:	7053      	strb	r3, [r2, #1]
 8006734:	e775      	b.n	8006622 <HAL_I2C_Mem_Read+0x156>
 8006736:	bf00      	nop
 8006738:	00100002 	.word	0x00100002
 800673c:	ffff0000 	.word	0xffff0000
 8006740:	00010004 	.word	0x00010004
 8006744:	20000138 	.word	0x20000138

08006748 <HAL_IWDG_Init>:
 8006748:	b538      	push	{r3, r4, r5, lr}
 800674a:	4604      	mov	r4, r0
 800674c:	b308      	cbz	r0, 8006792 <HAL_IWDG_Init+0x4a>
 800674e:	f64c 42cc 	movw	r2, #52428	; 0xcccc
 8006752:	6803      	ldr	r3, [r0, #0]
 8006754:	601a      	str	r2, [r3, #0]
 8006756:	f245 5255 	movw	r2, #21845	; 0x5555
 800675a:	601a      	str	r2, [r3, #0]
 800675c:	6842      	ldr	r2, [r0, #4]
 800675e:	605a      	str	r2, [r3, #4]
 8006760:	6882      	ldr	r2, [r0, #8]
 8006762:	609a      	str	r2, [r3, #8]
 8006764:	f7ff f874 	bl	8005850 <HAL_GetTick>
 8006768:	4605      	mov	r5, r0
 800676a:	6822      	ldr	r2, [r4, #0]
 800676c:	68d0      	ldr	r0, [r2, #12]
 800676e:	f010 0003 	ands.w	r0, r0, #3
 8006772:	d103      	bne.n	800677c <HAL_IWDG_Init+0x34>
 8006774:	f64a 23aa 	movw	r3, #43690	; 0xaaaa
 8006778:	6013      	str	r3, [r2, #0]
 800677a:	bd38      	pop	{r3, r4, r5, pc}
 800677c:	f7ff f868 	bl	8005850 <HAL_GetTick>
 8006780:	1b40      	subs	r0, r0, r5
 8006782:	2827      	cmp	r0, #39	; 0x27
 8006784:	d9f1      	bls.n	800676a <HAL_IWDG_Init+0x22>
 8006786:	6823      	ldr	r3, [r4, #0]
 8006788:	68db      	ldr	r3, [r3, #12]
 800678a:	079b      	lsls	r3, r3, #30
 800678c:	d0ed      	beq.n	800676a <HAL_IWDG_Init+0x22>
 800678e:	2003      	movs	r0, #3
 8006790:	e7f3      	b.n	800677a <HAL_IWDG_Init+0x32>
 8006792:	2001      	movs	r0, #1
 8006794:	e7f1      	b.n	800677a <HAL_IWDG_Init+0x32>

08006796 <HAL_IWDG_Refresh>:
 8006796:	f64a 22aa 	movw	r2, #43690	; 0xaaaa
 800679a:	6803      	ldr	r3, [r0, #0]
 800679c:	2000      	movs	r0, #0
 800679e:	601a      	str	r2, [r3, #0]
 80067a0:	4770      	bx	lr
	...

080067a4 <HAL_RCC_OscConfig>:
 80067a4:	e92d 41f3 	stmdb	sp!, {r0, r1, r4, r5, r6, r7, r8, lr}
 80067a8:	4605      	mov	r5, r0
 80067aa:	b338      	cbz	r0, 80067fc <HAL_RCC_OscConfig+0x58>
 80067ac:	6803      	ldr	r3, [r0, #0]
 80067ae:	07db      	lsls	r3, r3, #31
 80067b0:	d410      	bmi.n	80067d4 <HAL_RCC_OscConfig+0x30>
 80067b2:	682b      	ldr	r3, [r5, #0]
 80067b4:	079f      	lsls	r7, r3, #30
 80067b6:	d45e      	bmi.n	8006876 <HAL_RCC_OscConfig+0xd2>
 80067b8:	682b      	ldr	r3, [r5, #0]
 80067ba:	0719      	lsls	r1, r3, #28
 80067bc:	f100 8095 	bmi.w	80068ea <HAL_RCC_OscConfig+0x146>
 80067c0:	682b      	ldr	r3, [r5, #0]
 80067c2:	075a      	lsls	r2, r3, #29
 80067c4:	f100 80bf 	bmi.w	8006946 <HAL_RCC_OscConfig+0x1a2>
 80067c8:	69e8      	ldr	r0, [r5, #28]
 80067ca:	2800      	cmp	r0, #0
 80067cc:	f040 812c 	bne.w	8006a28 <HAL_RCC_OscConfig+0x284>
 80067d0:	2000      	movs	r0, #0
 80067d2:	e029      	b.n	8006828 <HAL_RCC_OscConfig+0x84>
 80067d4:	4c8f      	ldr	r4, [pc, #572]	; (8006a14 <HAL_RCC_OscConfig+0x270>)
 80067d6:	6863      	ldr	r3, [r4, #4]
 80067d8:	f003 030c 	and.w	r3, r3, #12
 80067dc:	2b04      	cmp	r3, #4
 80067de:	d007      	beq.n	80067f0 <HAL_RCC_OscConfig+0x4c>
 80067e0:	6863      	ldr	r3, [r4, #4]
 80067e2:	f003 030c 	and.w	r3, r3, #12
 80067e6:	2b08      	cmp	r3, #8
 80067e8:	d10a      	bne.n	8006800 <HAL_RCC_OscConfig+0x5c>
 80067ea:	6863      	ldr	r3, [r4, #4]
 80067ec:	03de      	lsls	r6, r3, #15
 80067ee:	d507      	bpl.n	8006800 <HAL_RCC_OscConfig+0x5c>
 80067f0:	6823      	ldr	r3, [r4, #0]
 80067f2:	039c      	lsls	r4, r3, #14
 80067f4:	d5dd      	bpl.n	80067b2 <HAL_RCC_OscConfig+0xe>
 80067f6:	686b      	ldr	r3, [r5, #4]
 80067f8:	2b00      	cmp	r3, #0
 80067fa:	d1da      	bne.n	80067b2 <HAL_RCC_OscConfig+0xe>
 80067fc:	2001      	movs	r0, #1
 80067fe:	e013      	b.n	8006828 <HAL_RCC_OscConfig+0x84>
 8006800:	686b      	ldr	r3, [r5, #4]
 8006802:	f5b3 3f80 	cmp.w	r3, #65536	; 0x10000
 8006806:	d112      	bne.n	800682e <HAL_RCC_OscConfig+0x8a>
 8006808:	6823      	ldr	r3, [r4, #0]
 800680a:	f443 3380 	orr.w	r3, r3, #65536	; 0x10000
 800680e:	6023      	str	r3, [r4, #0]
 8006810:	f7ff f81e 	bl	8005850 <HAL_GetTick>
 8006814:	4606      	mov	r6, r0
 8006816:	6823      	ldr	r3, [r4, #0]
 8006818:	0398      	lsls	r0, r3, #14
 800681a:	d4ca      	bmi.n	80067b2 <HAL_RCC_OscConfig+0xe>
 800681c:	f7ff f818 	bl	8005850 <HAL_GetTick>
 8006820:	1b80      	subs	r0, r0, r6
 8006822:	2864      	cmp	r0, #100	; 0x64
 8006824:	d9f7      	bls.n	8006816 <HAL_RCC_OscConfig+0x72>
 8006826:	2003      	movs	r0, #3
 8006828:	b002      	add	sp, #8
 800682a:	e8bd 81f0 	ldmia.w	sp!, {r4, r5, r6, r7, r8, pc}
 800682e:	b99b      	cbnz	r3, 8006858 <HAL_RCC_OscConfig+0xb4>
 8006830:	6823      	ldr	r3, [r4, #0]
 8006832:	f423 3380 	bic.w	r3, r3, #65536	; 0x10000
 8006836:	6023      	str	r3, [r4, #0]
 8006838:	6823      	ldr	r3, [r4, #0]
 800683a:	f423 2380 	bic.w	r3, r3, #262144	; 0x40000
 800683e:	6023      	str	r3, [r4, #0]
 8006840:	f7ff f806 	bl	8005850 <HAL_GetTick>
 8006844:	4606      	mov	r6, r0
 8006846:	6823      	ldr	r3, [r4, #0]
 8006848:	0399      	lsls	r1, r3, #14
 800684a:	d5b2      	bpl.n	80067b2 <HAL_RCC_OscConfig+0xe>
 800684c:	f7ff f800 	bl	8005850 <HAL_GetTick>
 8006850:	1b80      	subs	r0, r0, r6
 8006852:	2864      	cmp	r0, #100	; 0x64
 8006854:	d9f7      	bls.n	8006846 <HAL_RCC_OscConfig+0xa2>
 8006856:	e7e6      	b.n	8006826 <HAL_RCC_OscConfig+0x82>
 8006858:	f5b3 2fa0 	cmp.w	r3, #327680	; 0x50000
 800685c:	6823      	ldr	r3, [r4, #0]
 800685e:	d103      	bne.n	8006868 <HAL_RCC_OscConfig+0xc4>
 8006860:	f443 2380 	orr.w	r3, r3, #262144	; 0x40000
 8006864:	6023      	str	r3, [r4, #0]
 8006866:	e7cf      	b.n	8006808 <HAL_RCC_OscConfig+0x64>
 8006868:	f423 3380 	bic.w	r3, r3, #65536	; 0x10000
 800686c:	6023      	str	r3, [r4, #0]
 800686e:	6823      	ldr	r3, [r4, #0]
 8006870:	f423 2380 	bic.w	r3, r3, #262144	; 0x40000
 8006874:	e7cb      	b.n	800680e <HAL_RCC_OscConfig+0x6a>
 8006876:	4c67      	ldr	r4, [pc, #412]	; (8006a14 <HAL_RCC_OscConfig+0x270>)
 8006878:	6863      	ldr	r3, [r4, #4]
 800687a:	f013 0f0c 	tst.w	r3, #12
 800687e:	d007      	beq.n	8006890 <HAL_RCC_OscConfig+0xec>
 8006880:	6863      	ldr	r3, [r4, #4]
 8006882:	f003 030c 	and.w	r3, r3, #12
 8006886:	2b08      	cmp	r3, #8
 8006888:	d110      	bne.n	80068ac <HAL_RCC_OscConfig+0x108>
 800688a:	6863      	ldr	r3, [r4, #4]
 800688c:	03da      	lsls	r2, r3, #15
 800688e:	d40d      	bmi.n	80068ac <HAL_RCC_OscConfig+0x108>
 8006890:	6823      	ldr	r3, [r4, #0]
 8006892:	079b      	lsls	r3, r3, #30
 8006894:	d502      	bpl.n	800689c <HAL_RCC_OscConfig+0xf8>
 8006896:	692b      	ldr	r3, [r5, #16]
 8006898:	2b01      	cmp	r3, #1
 800689a:	d1af      	bne.n	80067fc <HAL_RCC_OscConfig+0x58>
 800689c:	6823      	ldr	r3, [r4, #0]
 800689e:	696a      	ldr	r2, [r5, #20]
 80068a0:	f023 03f8 	bic.w	r3, r3, #248	; 0xf8
 80068a4:	ea43 03c2 	orr.w	r3, r3, r2, lsl #3
 80068a8:	6023      	str	r3, [r4, #0]
 80068aa:	e785      	b.n	80067b8 <HAL_RCC_OscConfig+0x14>
 80068ac:	692a      	ldr	r2, [r5, #16]
 80068ae:	4b5a      	ldr	r3, [pc, #360]	; (8006a18 <HAL_RCC_OscConfig+0x274>)
 80068b0:	b16a      	cbz	r2, 80068ce <HAL_RCC_OscConfig+0x12a>
 80068b2:	2201      	movs	r2, #1
 80068b4:	601a      	str	r2, [r3, #0]
 80068b6:	f7fe ffcb 	bl	8005850 <HAL_GetTick>
 80068ba:	4606      	mov	r6, r0
 80068bc:	6823      	ldr	r3, [r4, #0]
 80068be:	079f      	lsls	r7, r3, #30
 80068c0:	d4ec      	bmi.n	800689c <HAL_RCC_OscConfig+0xf8>
 80068c2:	f7fe ffc5 	bl	8005850 <HAL_GetTick>
 80068c6:	1b80      	subs	r0, r0, r6
 80068c8:	2802      	cmp	r0, #2
 80068ca:	d9f7      	bls.n	80068bc <HAL_RCC_OscConfig+0x118>
 80068cc:	e7ab      	b.n	8006826 <HAL_RCC_OscConfig+0x82>
 80068ce:	601a      	str	r2, [r3, #0]
 80068d0:	f7fe ffbe 	bl	8005850 <HAL_GetTick>
 80068d4:	4606      	mov	r6, r0
 80068d6:	6823      	ldr	r3, [r4, #0]
 80068d8:	0798      	lsls	r0, r3, #30
 80068da:	f57f af6d 	bpl.w	80067b8 <HAL_RCC_OscConfig+0x14>
 80068de:	f7fe ffb7 	bl	8005850 <HAL_GetTick>
 80068e2:	1b80      	subs	r0, r0, r6
 80068e4:	2802      	cmp	r0, #2
 80068e6:	d9f6      	bls.n	80068d6 <HAL_RCC_OscConfig+0x132>
 80068e8:	e79d      	b.n	8006826 <HAL_RCC_OscConfig+0x82>
 80068ea:	69aa      	ldr	r2, [r5, #24]
 80068ec:	4e49      	ldr	r6, [pc, #292]	; (8006a14 <HAL_RCC_OscConfig+0x270>)
 80068ee:	4b4b      	ldr	r3, [pc, #300]	; (8006a1c <HAL_RCC_OscConfig+0x278>)
 80068f0:	b1da      	cbz	r2, 800692a <HAL_RCC_OscConfig+0x186>
 80068f2:	2201      	movs	r2, #1
 80068f4:	601a      	str	r2, [r3, #0]
 80068f6:	f7fe ffab 	bl	8005850 <HAL_GetTick>
 80068fa:	4604      	mov	r4, r0
 80068fc:	6a73      	ldr	r3, [r6, #36]	; 0x24
 80068fe:	079b      	lsls	r3, r3, #30
 8006900:	d50d      	bpl.n	800691e <HAL_RCC_OscConfig+0x17a>
 8006902:	f44f 52fa 	mov.w	r2, #8000	; 0x1f40
 8006906:	4b46      	ldr	r3, [pc, #280]	; (8006a20 <HAL_RCC_OscConfig+0x27c>)
 8006908:	681b      	ldr	r3, [r3, #0]
 800690a:	fbb3 f3f2 	udiv	r3, r3, r2
 800690e:	9301      	str	r3, [sp, #4]
 8006910:	bf00      	nop
 8006912:	9b01      	ldr	r3, [sp, #4]
 8006914:	1e5a      	subs	r2, r3, #1
 8006916:	9201      	str	r2, [sp, #4]
 8006918:	2b00      	cmp	r3, #0
 800691a:	d1f9      	bne.n	8006910 <HAL_RCC_OscConfig+0x16c>
 800691c:	e750      	b.n	80067c0 <HAL_RCC_OscConfig+0x1c>
 800691e:	f7fe ff97 	bl	8005850 <HAL_GetTick>
 8006922:	1b00      	subs	r0, r0, r4
 8006924:	2802      	cmp	r0, #2
 8006926:	d9e9      	bls.n	80068fc <HAL_RCC_OscConfig+0x158>
 8006928:	e77d      	b.n	8006826 <HAL_RCC_OscConfig+0x82>
 800692a:	601a      	str	r2, [r3, #0]
 800692c:	f7fe ff90 	bl	8005850 <HAL_GetTick>
 8006930:	4604      	mov	r4, r0
 8006932:	6a73      	ldr	r3, [r6, #36]	; 0x24
 8006934:	079f      	lsls	r7, r3, #30
 8006936:	f57f af43 	bpl.w	80067c0 <HAL_RCC_OscConfig+0x1c>
 800693a:	f7fe ff89 	bl	8005850 <HAL_GetTick>
 800693e:	1b00      	subs	r0, r0, r4
 8006940:	2802      	cmp	r0, #2
 8006942:	d9f6      	bls.n	8006932 <HAL_RCC_OscConfig+0x18e>
 8006944:	e76f      	b.n	8006826 <HAL_RCC_OscConfig+0x82>
 8006946:	4c33      	ldr	r4, [pc, #204]	; (8006a14 <HAL_RCC_OscConfig+0x270>)
 8006948:	69e3      	ldr	r3, [r4, #28]
 800694a:	00d8      	lsls	r0, r3, #3
 800694c:	d424      	bmi.n	8006998 <HAL_RCC_OscConfig+0x1f4>
 800694e:	2701      	movs	r7, #1
 8006950:	69e3      	ldr	r3, [r4, #28]
 8006952:	f043 5380 	orr.w	r3, r3, #268435456	; 0x10000000
 8006956:	61e3      	str	r3, [r4, #28]
 8006958:	69e3      	ldr	r3, [r4, #28]
 800695a:	f003 5380 	and.w	r3, r3, #268435456	; 0x10000000
 800695e:	9300      	str	r3, [sp, #0]
 8006960:	9b00      	ldr	r3, [sp, #0]
 8006962:	4e30      	ldr	r6, [pc, #192]	; (8006a24 <HAL_RCC_OscConfig+0x280>)
 8006964:	6833      	ldr	r3, [r6, #0]
 8006966:	05d9      	lsls	r1, r3, #23
 8006968:	d518      	bpl.n	800699c <HAL_RCC_OscConfig+0x1f8>
 800696a:	68eb      	ldr	r3, [r5, #12]
 800696c:	2b01      	cmp	r3, #1
 800696e:	d126      	bne.n	80069be <HAL_RCC_OscConfig+0x21a>
 8006970:	6a23      	ldr	r3, [r4, #32]
 8006972:	f043 0301 	orr.w	r3, r3, #1
 8006976:	6223      	str	r3, [r4, #32]
 8006978:	f7fe ff6a 	bl	8005850 <HAL_GetTick>
 800697c:	f241 3888 	movw	r8, #5000	; 0x1388
 8006980:	4606      	mov	r6, r0
 8006982:	6a23      	ldr	r3, [r4, #32]
 8006984:	079b      	lsls	r3, r3, #30
 8006986:	d53f      	bpl.n	8006a08 <HAL_RCC_OscConfig+0x264>
 8006988:	2f00      	cmp	r7, #0
 800698a:	f43f af1d 	beq.w	80067c8 <HAL_RCC_OscConfig+0x24>
 800698e:	69e3      	ldr	r3, [r4, #28]
 8006990:	f023 5380 	bic.w	r3, r3, #268435456	; 0x10000000
 8006994:	61e3      	str	r3, [r4, #28]
 8006996:	e717      	b.n	80067c8 <HAL_RCC_OscConfig+0x24>
 8006998:	2700      	movs	r7, #0
 800699a:	e7e2      	b.n	8006962 <HAL_RCC_OscConfig+0x1be>
 800699c:	6833      	ldr	r3, [r6, #0]
 800699e:	f443 7380 	orr.w	r3, r3, #256	; 0x100
 80069a2:	6033      	str	r3, [r6, #0]
 80069a4:	f7fe ff54 	bl	8005850 <HAL_GetTick>
 80069a8:	4680      	mov	r8, r0
 80069aa:	6833      	ldr	r3, [r6, #0]
 80069ac:	05da      	lsls	r2, r3, #23
 80069ae:	d4dc      	bmi.n	800696a <HAL_RCC_OscConfig+0x1c6>
 80069b0:	f7fe ff4e 	bl	8005850 <HAL_GetTick>
 80069b4:	eba0 0008 	sub.w	r0, r0, r8
 80069b8:	2864      	cmp	r0, #100	; 0x64
 80069ba:	d9f6      	bls.n	80069aa <HAL_RCC_OscConfig+0x206>
 80069bc:	e733      	b.n	8006826 <HAL_RCC_OscConfig+0x82>
 80069be:	b9ab      	cbnz	r3, 80069ec <HAL_RCC_OscConfig+0x248>
 80069c0:	6a23      	ldr	r3, [r4, #32]
 80069c2:	f241 3888 	movw	r8, #5000	; 0x1388
 80069c6:	f023 0301 	bic.w	r3, r3, #1
 80069ca:	6223      	str	r3, [r4, #32]
 80069cc:	6a23      	ldr	r3, [r4, #32]
 80069ce:	f023 0304 	bic.w	r3, r3, #4
 80069d2:	6223      	str	r3, [r4, #32]
 80069d4:	f7fe ff3c 	bl	8005850 <HAL_GetTick>
 80069d8:	4606      	mov	r6, r0
 80069da:	6a23      	ldr	r3, [r4, #32]
 80069dc:	0798      	lsls	r0, r3, #30
 80069de:	d5d3      	bpl.n	8006988 <HAL_RCC_OscConfig+0x1e4>
 80069e0:	f7fe ff36 	bl	8005850 <HAL_GetTick>
 80069e4:	1b80      	subs	r0, r0, r6
 80069e6:	4540      	cmp	r0, r8
 80069e8:	d9f7      	bls.n	80069da <HAL_RCC_OscConfig+0x236>
 80069ea:	e71c      	b.n	8006826 <HAL_RCC_OscConfig+0x82>
 80069ec:	2b05      	cmp	r3, #5
 80069ee:	6a23      	ldr	r3, [r4, #32]
 80069f0:	d103      	bne.n	80069fa <HAL_RCC_OscConfig+0x256>
 80069f2:	f043 0304 	orr.w	r3, r3, #4
 80069f6:	6223      	str	r3, [r4, #32]
 80069f8:	e7ba      	b.n	8006970 <HAL_RCC_OscConfig+0x1cc>
 80069fa:	f023 0301 	bic.w	r3, r3, #1
 80069fe:	6223      	str	r3, [r4, #32]
 8006a00:	6a23      	ldr	r3, [r4, #32]
 8006a02:	f023 0304 	bic.w	r3, r3, #4
 8006a06:	e7b6      	b.n	8006976 <HAL_RCC_OscConfig+0x1d2>
 8006a08:	f7fe ff22 	bl	8005850 <HAL_GetTick>
 8006a0c:	1b80      	subs	r0, r0, r6
 8006a0e:	4540      	cmp	r0, r8
 8006a10:	d9b7      	bls.n	8006982 <HAL_RCC_OscConfig+0x1de>
 8006a12:	e708      	b.n	8006826 <HAL_RCC_OscConfig+0x82>
 8006a14:	40021000 	.word	0x40021000
 8006a18:	42420000 	.word	0x42420000
 8006a1c:	42420480 	.word	0x42420480
 8006a20:	20000138 	.word	0x20000138
 8006a24:	40007000 	.word	0x40007000
 8006a28:	4b2a      	ldr	r3, [pc, #168]	; (8006ad4 <HAL_RCC_OscConfig+0x330>)
 8006a2a:	685a      	ldr	r2, [r3, #4]
 8006a2c:	461c      	mov	r4, r3
 8006a2e:	f002 020c 	and.w	r2, r2, #12
 8006a32:	2a08      	cmp	r2, #8
 8006a34:	d03d      	beq.n	8006ab2 <HAL_RCC_OscConfig+0x30e>
 8006a36:	2300      	movs	r3, #0
 8006a38:	4e27      	ldr	r6, [pc, #156]	; (8006ad8 <HAL_RCC_OscConfig+0x334>)
 8006a3a:	2802      	cmp	r0, #2
 8006a3c:	6033      	str	r3, [r6, #0]
 8006a3e:	d12b      	bne.n	8006a98 <HAL_RCC_OscConfig+0x2f4>
 8006a40:	f7fe ff06 	bl	8005850 <HAL_GetTick>
 8006a44:	4607      	mov	r7, r0
 8006a46:	6823      	ldr	r3, [r4, #0]
 8006a48:	0199      	lsls	r1, r3, #6
 8006a4a:	d41f      	bmi.n	8006a8c <HAL_RCC_OscConfig+0x2e8>
 8006a4c:	6a2b      	ldr	r3, [r5, #32]
 8006a4e:	f5b3 3f80 	cmp.w	r3, #65536	; 0x10000
 8006a52:	d105      	bne.n	8006a60 <HAL_RCC_OscConfig+0x2bc>
 8006a54:	6862      	ldr	r2, [r4, #4]
 8006a56:	68a9      	ldr	r1, [r5, #8]
 8006a58:	f422 3200 	bic.w	r2, r2, #131072	; 0x20000
 8006a5c:	430a      	orrs	r2, r1
 8006a5e:	6062      	str	r2, [r4, #4]
 8006a60:	6a69      	ldr	r1, [r5, #36]	; 0x24
 8006a62:	6862      	ldr	r2, [r4, #4]
 8006a64:	430b      	orrs	r3, r1
 8006a66:	f422 1274 	bic.w	r2, r2, #3997696	; 0x3d0000
 8006a6a:	4313      	orrs	r3, r2
 8006a6c:	6063      	str	r3, [r4, #4]
 8006a6e:	2301      	movs	r3, #1
 8006a70:	6033      	str	r3, [r6, #0]
 8006a72:	f7fe feed 	bl	8005850 <HAL_GetTick>
 8006a76:	4605      	mov	r5, r0
 8006a78:	6823      	ldr	r3, [r4, #0]
 8006a7a:	019a      	lsls	r2, r3, #6
 8006a7c:	f53f aea8 	bmi.w	80067d0 <HAL_RCC_OscConfig+0x2c>
 8006a80:	f7fe fee6 	bl	8005850 <HAL_GetTick>
 8006a84:	1b40      	subs	r0, r0, r5
 8006a86:	2802      	cmp	r0, #2
 8006a88:	d9f6      	bls.n	8006a78 <HAL_RCC_OscConfig+0x2d4>
 8006a8a:	e6cc      	b.n	8006826 <HAL_RCC_OscConfig+0x82>
 8006a8c:	f7fe fee0 	bl	8005850 <HAL_GetTick>
 8006a90:	1bc0      	subs	r0, r0, r7
 8006a92:	2802      	cmp	r0, #2
 8006a94:	d9d7      	bls.n	8006a46 <HAL_RCC_OscConfig+0x2a2>
 8006a96:	e6c6      	b.n	8006826 <HAL_RCC_OscConfig+0x82>
 8006a98:	f7fe feda 	bl	8005850 <HAL_GetTick>
 8006a9c:	4605      	mov	r5, r0
 8006a9e:	6823      	ldr	r3, [r4, #0]
 8006aa0:	019b      	lsls	r3, r3, #6
 8006aa2:	f57f ae95 	bpl.w	80067d0 <HAL_RCC_OscConfig+0x2c>
 8006aa6:	f7fe fed3 	bl	8005850 <HAL_GetTick>
 8006aaa:	1b40      	subs	r0, r0, r5
 8006aac:	2802      	cmp	r0, #2
 8006aae:	d9f6      	bls.n	8006a9e <HAL_RCC_OscConfig+0x2fa>
 8006ab0:	e6b9      	b.n	8006826 <HAL_RCC_OscConfig+0x82>
 8006ab2:	2801      	cmp	r0, #1
 8006ab4:	f43f aeb8 	beq.w	8006828 <HAL_RCC_OscConfig+0x84>
 8006ab8:	685b      	ldr	r3, [r3, #4]
 8006aba:	6a2a      	ldr	r2, [r5, #32]
 8006abc:	f403 3180 	and.w	r1, r3, #65536	; 0x10000
 8006ac0:	4291      	cmp	r1, r2
 8006ac2:	f47f ae9b 	bne.w	80067fc <HAL_RCC_OscConfig+0x58>
 8006ac6:	6a6a      	ldr	r2, [r5, #36]	; 0x24
 8006ac8:	f403 1370 	and.w	r3, r3, #3932160	; 0x3c0000
 8006acc:	4293      	cmp	r3, r2
 8006ace:	f43f ae7f 	beq.w	80067d0 <HAL_RCC_OscConfig+0x2c>
 8006ad2:	e693      	b.n	80067fc <HAL_RCC_OscConfig+0x58>
 8006ad4:	40021000 	.word	0x40021000
 8006ad8:	42420060 	.word	0x42420060

08006adc <HAL_RCC_EnableCSS>:
 8006adc:	2201      	movs	r2, #1
 8006ade:	4b01      	ldr	r3, [pc, #4]	; (8006ae4 <HAL_RCC_EnableCSS+0x8>)
 8006ae0:	601a      	str	r2, [r3, #0]
 8006ae2:	4770      	bx	lr
 8006ae4:	4242004c 	.word	0x4242004c

08006ae8 <HAL_RCC_GetSysClockFreq>:
 8006ae8:	b530      	push	{r4, r5, lr}
 8006aea:	4b18      	ldr	r3, [pc, #96]	; (8006b4c <HAL_RCC_GetSysClockFreq+0x64>)
 8006aec:	b087      	sub	sp, #28
 8006aee:	ac02      	add	r4, sp, #8
 8006af0:	f103 0510 	add.w	r5, r3, #16
 8006af4:	4622      	mov	r2, r4
 8006af6:	6818      	ldr	r0, [r3, #0]
 8006af8:	6859      	ldr	r1, [r3, #4]
 8006afa:	3308      	adds	r3, #8
 8006afc:	c203      	stmia	r2!, {r0, r1}
 8006afe:	42ab      	cmp	r3, r5
 8006b00:	4614      	mov	r4, r2
 8006b02:	d1f7      	bne.n	8006af4 <HAL_RCC_GetSysClockFreq+0xc>
 8006b04:	f240 2301 	movw	r3, #513	; 0x201
 8006b08:	4911      	ldr	r1, [pc, #68]	; (8006b50 <HAL_RCC_GetSysClockFreq+0x68>)
 8006b0a:	f8ad 3004 	strh.w	r3, [sp, #4]
 8006b0e:	684b      	ldr	r3, [r1, #4]
 8006b10:	f003 020c 	and.w	r2, r3, #12
 8006b14:	2a08      	cmp	r2, #8
 8006b16:	d117      	bne.n	8006b48 <HAL_RCC_GetSysClockFreq+0x60>
 8006b18:	f3c3 4283 	ubfx	r2, r3, #18, #4
 8006b1c:	a806      	add	r0, sp, #24
 8006b1e:	4402      	add	r2, r0
 8006b20:	03db      	lsls	r3, r3, #15
 8006b22:	f812 2c10 	ldrb.w	r2, [r2, #-16]
 8006b26:	d50c      	bpl.n	8006b42 <HAL_RCC_GetSysClockFreq+0x5a>
 8006b28:	684b      	ldr	r3, [r1, #4]
 8006b2a:	480a      	ldr	r0, [pc, #40]	; (8006b54 <HAL_RCC_GetSysClockFreq+0x6c>)
 8006b2c:	f3c3 4340 	ubfx	r3, r3, #17, #1
 8006b30:	4350      	muls	r0, r2
 8006b32:	aa06      	add	r2, sp, #24
 8006b34:	4413      	add	r3, r2
 8006b36:	f813 3c14 	ldrb.w	r3, [r3, #-20]
 8006b3a:	fbb0 f0f3 	udiv	r0, r0, r3
 8006b3e:	b007      	add	sp, #28
 8006b40:	bd30      	pop	{r4, r5, pc}
 8006b42:	4805      	ldr	r0, [pc, #20]	; (8006b58 <HAL_RCC_GetSysClockFreq+0x70>)
 8006b44:	4350      	muls	r0, r2
 8006b46:	e7fa      	b.n	8006b3e <HAL_RCC_GetSysClockFreq+0x56>
 8006b48:	4802      	ldr	r0, [pc, #8]	; (8006b54 <HAL_RCC_GetSysClockFreq+0x6c>)
 8006b4a:	e7f8      	b.n	8006b3e <HAL_RCC_GetSysClockFreq+0x56>
 8006b4c:	0800ba3e 	.word	0x0800ba3e
 8006b50:	40021000 	.word	0x40021000
 8006b54:	007a1200 	.word	0x007a1200
 8006b58:	003d0900 	.word	0x003d0900

08006b5c <HAL_RCC_ClockConfig>:
 8006b5c:	e92d 41f0 	stmdb	sp!, {r4, r5, r6, r7, r8, lr}
 8006b60:	460d      	mov	r5, r1
 8006b62:	4604      	mov	r4, r0
 8006b64:	b910      	cbnz	r0, 8006b6c <HAL_RCC_ClockConfig+0x10>
 8006b66:	2001      	movs	r0, #1
 8006b68:	e8bd 81f0 	ldmia.w	sp!, {r4, r5, r6, r7, r8, pc}
 8006b6c:	4a44      	ldr	r2, [pc, #272]	; (8006c80 <HAL_RCC_ClockConfig+0x124>)
 8006b6e:	6813      	ldr	r3, [r2, #0]
 8006b70:	f003 0307 	and.w	r3, r3, #7
 8006b74:	428b      	cmp	r3, r1
 8006b76:	d328      	bcc.n	8006bca <HAL_RCC_ClockConfig+0x6e>
 8006b78:	6821      	ldr	r1, [r4, #0]
 8006b7a:	078e      	lsls	r6, r1, #30
 8006b7c:	d430      	bmi.n	8006be0 <HAL_RCC_ClockConfig+0x84>
 8006b7e:	07ca      	lsls	r2, r1, #31
 8006b80:	d443      	bmi.n	8006c0a <HAL_RCC_ClockConfig+0xae>
 8006b82:	4a3f      	ldr	r2, [pc, #252]	; (8006c80 <HAL_RCC_ClockConfig+0x124>)
 8006b84:	6813      	ldr	r3, [r2, #0]
 8006b86:	f003 0307 	and.w	r3, r3, #7
 8006b8a:	42ab      	cmp	r3, r5
 8006b8c:	d865      	bhi.n	8006c5a <HAL_RCC_ClockConfig+0xfe>
 8006b8e:	6822      	ldr	r2, [r4, #0]
 8006b90:	4d3c      	ldr	r5, [pc, #240]	; (8006c84 <HAL_RCC_ClockConfig+0x128>)
 8006b92:	f012 0f04 	tst.w	r2, #4
 8006b96:	d16c      	bne.n	8006c72 <HAL_RCC_ClockConfig+0x116>
 8006b98:	0713      	lsls	r3, r2, #28
 8006b9a:	d506      	bpl.n	8006baa <HAL_RCC_ClockConfig+0x4e>
 8006b9c:	686b      	ldr	r3, [r5, #4]
 8006b9e:	6922      	ldr	r2, [r4, #16]
 8006ba0:	f423 5360 	bic.w	r3, r3, #14336	; 0x3800
 8006ba4:	ea43 03c2 	orr.w	r3, r3, r2, lsl #3
 8006ba8:	606b      	str	r3, [r5, #4]
 8006baa:	f7ff ff9d 	bl	8006ae8 <HAL_RCC_GetSysClockFreq>
 8006bae:	686b      	ldr	r3, [r5, #4]
 8006bb0:	4a35      	ldr	r2, [pc, #212]	; (8006c88 <HAL_RCC_ClockConfig+0x12c>)
 8006bb2:	f3c3 1303 	ubfx	r3, r3, #4, #4
 8006bb6:	5cd3      	ldrb	r3, [r2, r3]
 8006bb8:	40d8      	lsrs	r0, r3
 8006bba:	4b34      	ldr	r3, [pc, #208]	; (8006c8c <HAL_RCC_ClockConfig+0x130>)
 8006bbc:	6018      	str	r0, [r3, #0]
 8006bbe:	4b34      	ldr	r3, [pc, #208]	; (8006c90 <HAL_RCC_ClockConfig+0x134>)
 8006bc0:	6818      	ldr	r0, [r3, #0]
 8006bc2:	f7fe fe03 	bl	80057cc <HAL_InitTick>
 8006bc6:	2000      	movs	r0, #0
 8006bc8:	e7ce      	b.n	8006b68 <HAL_RCC_ClockConfig+0xc>
 8006bca:	6813      	ldr	r3, [r2, #0]
 8006bcc:	f023 0307 	bic.w	r3, r3, #7
 8006bd0:	430b      	orrs	r3, r1
 8006bd2:	6013      	str	r3, [r2, #0]
 8006bd4:	6813      	ldr	r3, [r2, #0]
 8006bd6:	f003 0307 	and.w	r3, r3, #7
 8006bda:	428b      	cmp	r3, r1
 8006bdc:	d1c3      	bne.n	8006b66 <HAL_RCC_ClockConfig+0xa>
 8006bde:	e7cb      	b.n	8006b78 <HAL_RCC_ClockConfig+0x1c>
 8006be0:	4b28      	ldr	r3, [pc, #160]	; (8006c84 <HAL_RCC_ClockConfig+0x128>)
 8006be2:	f011 0f04 	tst.w	r1, #4
 8006be6:	bf1e      	ittt	ne
 8006be8:	685a      	ldrne	r2, [r3, #4]
 8006bea:	f442 62e0 	orrne.w	r2, r2, #1792	; 0x700
 8006bee:	605a      	strne	r2, [r3, #4]
 8006bf0:	0708      	lsls	r0, r1, #28
 8006bf2:	bf42      	ittt	mi
 8006bf4:	685a      	ldrmi	r2, [r3, #4]
 8006bf6:	f442 5260 	orrmi.w	r2, r2, #14336	; 0x3800
 8006bfa:	605a      	strmi	r2, [r3, #4]
 8006bfc:	685a      	ldr	r2, [r3, #4]
 8006bfe:	68a0      	ldr	r0, [r4, #8]
 8006c00:	f022 02f0 	bic.w	r2, r2, #240	; 0xf0
 8006c04:	4302      	orrs	r2, r0
 8006c06:	605a      	str	r2, [r3, #4]
 8006c08:	e7b9      	b.n	8006b7e <HAL_RCC_ClockConfig+0x22>
 8006c0a:	6862      	ldr	r2, [r4, #4]
 8006c0c:	4e1d      	ldr	r6, [pc, #116]	; (8006c84 <HAL_RCC_ClockConfig+0x128>)
 8006c0e:	2a01      	cmp	r2, #1
 8006c10:	6833      	ldr	r3, [r6, #0]
 8006c12:	d11a      	bne.n	8006c4a <HAL_RCC_ClockConfig+0xee>
 8006c14:	f413 3f00 	tst.w	r3, #131072	; 0x20000
 8006c18:	d0a5      	beq.n	8006b66 <HAL_RCC_ClockConfig+0xa>
 8006c1a:	6873      	ldr	r3, [r6, #4]
 8006c1c:	f241 3888 	movw	r8, #5000	; 0x1388
 8006c20:	f023 0303 	bic.w	r3, r3, #3
 8006c24:	4313      	orrs	r3, r2
 8006c26:	6073      	str	r3, [r6, #4]
 8006c28:	f7fe fe12 	bl	8005850 <HAL_GetTick>
 8006c2c:	4607      	mov	r7, r0
 8006c2e:	6873      	ldr	r3, [r6, #4]
 8006c30:	6862      	ldr	r2, [r4, #4]
 8006c32:	f003 030c 	and.w	r3, r3, #12
 8006c36:	ebb3 0f82 	cmp.w	r3, r2, lsl #2
 8006c3a:	d0a2      	beq.n	8006b82 <HAL_RCC_ClockConfig+0x26>
 8006c3c:	f7fe fe08 	bl	8005850 <HAL_GetTick>
 8006c40:	1bc0      	subs	r0, r0, r7
 8006c42:	4540      	cmp	r0, r8
 8006c44:	d9f3      	bls.n	8006c2e <HAL_RCC_ClockConfig+0xd2>
 8006c46:	2003      	movs	r0, #3
 8006c48:	e78e      	b.n	8006b68 <HAL_RCC_ClockConfig+0xc>
 8006c4a:	2a02      	cmp	r2, #2
 8006c4c:	d102      	bne.n	8006c54 <HAL_RCC_ClockConfig+0xf8>
 8006c4e:	f013 7f00 	tst.w	r3, #33554432	; 0x2000000
 8006c52:	e7e1      	b.n	8006c18 <HAL_RCC_ClockConfig+0xbc>
 8006c54:	f013 0f02 	tst.w	r3, #2
 8006c58:	e7de      	b.n	8006c18 <HAL_RCC_ClockConfig+0xbc>
 8006c5a:	6813      	ldr	r3, [r2, #0]
 8006c5c:	f023 0307 	bic.w	r3, r3, #7
 8006c60:	432b      	orrs	r3, r5
 8006c62:	6013      	str	r3, [r2, #0]
 8006c64:	6813      	ldr	r3, [r2, #0]
 8006c66:	f003 0307 	and.w	r3, r3, #7
 8006c6a:	42ab      	cmp	r3, r5
 8006c6c:	f47f af7b 	bne.w	8006b66 <HAL_RCC_ClockConfig+0xa>
 8006c70:	e78d      	b.n	8006b8e <HAL_RCC_ClockConfig+0x32>
 8006c72:	686b      	ldr	r3, [r5, #4]
 8006c74:	68e1      	ldr	r1, [r4, #12]
 8006c76:	f423 63e0 	bic.w	r3, r3, #1792	; 0x700
 8006c7a:	430b      	orrs	r3, r1
 8006c7c:	606b      	str	r3, [r5, #4]
 8006c7e:	e78b      	b.n	8006b98 <HAL_RCC_ClockConfig+0x3c>
 8006c80:	40022000 	.word	0x40022000
 8006c84:	40021000 	.word	0x40021000
 8006c88:	0800ba26 	.word	0x0800ba26
 8006c8c:	20000138 	.word	0x20000138
 8006c90:	2000016c 	.word	0x2000016c

08006c94 <HAL_RCC_GetPCLK1Freq>:
 8006c94:	4b04      	ldr	r3, [pc, #16]	; (8006ca8 <HAL_RCC_GetPCLK1Freq+0x14>)
 8006c96:	4a05      	ldr	r2, [pc, #20]	; (8006cac <HAL_RCC_GetPCLK1Freq+0x18>)
 8006c98:	685b      	ldr	r3, [r3, #4]
 8006c9a:	f3c3 2302 	ubfx	r3, r3, #8, #3
 8006c9e:	5cd3      	ldrb	r3, [r2, r3]
 8006ca0:	4a03      	ldr	r2, [pc, #12]	; (8006cb0 <HAL_RCC_GetPCLK1Freq+0x1c>)
 8006ca2:	6810      	ldr	r0, [r2, #0]
 8006ca4:	40d8      	lsrs	r0, r3
 8006ca6:	4770      	bx	lr
 8006ca8:	40021000 	.word	0x40021000
 8006cac:	0800ba36 	.word	0x0800ba36
 8006cb0:	20000138 	.word	0x20000138

08006cb4 <HAL_RCC_GetPCLK2Freq>:
 8006cb4:	4b04      	ldr	r3, [pc, #16]	; (8006cc8 <HAL_RCC_GetPCLK2Freq+0x14>)
 8006cb6:	4a05      	ldr	r2, [pc, #20]	; (8006ccc <HAL_RCC_GetPCLK2Freq+0x18>)
 8006cb8:	685b      	ldr	r3, [r3, #4]
 8006cba:	f3c3 23c2 	ubfx	r3, r3, #11, #3
 8006cbe:	5cd3      	ldrb	r3, [r2, r3]
 8006cc0:	4a03      	ldr	r2, [pc, #12]	; (8006cd0 <HAL_RCC_GetPCLK2Freq+0x1c>)
 8006cc2:	6810      	ldr	r0, [r2, #0]
 8006cc4:	40d8      	lsrs	r0, r3
 8006cc6:	4770      	bx	lr
 8006cc8:	40021000 	.word	0x40021000
 8006ccc:	0800ba36 	.word	0x0800ba36
 8006cd0:	20000138 	.word	0x20000138

08006cd4 <HAL_RCC_CSSCallback>:
 8006cd4:	4770      	bx	lr
	...

08006cd8 <HAL_RCC_NMI_IRQHandler>:
 8006cd8:	b508      	push	{r3, lr}
 8006cda:	4b05      	ldr	r3, [pc, #20]	; (8006cf0 <HAL_RCC_NMI_IRQHandler+0x18>)
 8006cdc:	689b      	ldr	r3, [r3, #8]
 8006cde:	061b      	lsls	r3, r3, #24
 8006ce0:	d504      	bpl.n	8006cec <HAL_RCC_NMI_IRQHandler+0x14>
 8006ce2:	f7ff fff7 	bl	8006cd4 <HAL_RCC_CSSCallback>
 8006ce6:	2280      	movs	r2, #128	; 0x80
 8006ce8:	4b02      	ldr	r3, [pc, #8]	; (8006cf4 <HAL_RCC_NMI_IRQHandler+0x1c>)
 8006cea:	701a      	strb	r2, [r3, #0]
 8006cec:	bd08      	pop	{r3, pc}
 8006cee:	bf00      	nop
 8006cf0:	40021000 	.word	0x40021000
 8006cf4:	4002100a 	.word	0x4002100a

08006cf8 <SPI_WaitFlagStateUntilTimeout.constprop.0>:
 8006cf8:	e92d 41f3 	stmdb	sp!, {r0, r1, r4, r5, r6, r7, r8, lr}
 8006cfc:	461c      	mov	r4, r3
 8006cfe:	4616      	mov	r6, r2
 8006d00:	460f      	mov	r7, r1
 8006d02:	4605      	mov	r5, r0
 8006d04:	f7fe fda4 	bl	8005850 <HAL_GetTick>
 8006d08:	4434      	add	r4, r6
 8006d0a:	1a24      	subs	r4, r4, r0
 8006d0c:	f7fe fda0 	bl	8005850 <HAL_GetTick>
 8006d10:	4680      	mov	r8, r0
 8006d12:	4b23      	ldr	r3, [pc, #140]	; (8006da0 <SPI_WaitFlagStateUntilTimeout.constprop.0+0xa8>)
 8006d14:	681b      	ldr	r3, [r3, #0]
 8006d16:	f3c3 33cb 	ubfx	r3, r3, #15, #12
 8006d1a:	4363      	muls	r3, r4
 8006d1c:	682a      	ldr	r2, [r5, #0]
 8006d1e:	9301      	str	r3, [sp, #4]
 8006d20:	6893      	ldr	r3, [r2, #8]
 8006d22:	ea37 0303 	bics.w	r3, r7, r3
 8006d26:	d001      	beq.n	8006d2c <SPI_WaitFlagStateUntilTimeout.constprop.0+0x34>
 8006d28:	2000      	movs	r0, #0
 8006d2a:	e02e      	b.n	8006d8a <SPI_WaitFlagStateUntilTimeout.constprop.0+0x92>
 8006d2c:	1c73      	adds	r3, r6, #1
 8006d2e:	d0f7      	beq.n	8006d20 <SPI_WaitFlagStateUntilTimeout.constprop.0+0x28>
 8006d30:	f7fe fd8e 	bl	8005850 <HAL_GetTick>
 8006d34:	eba0 0008 	sub.w	r0, r0, r8
 8006d38:	42a0      	cmp	r0, r4
 8006d3a:	d329      	bcc.n	8006d90 <SPI_WaitFlagStateUntilTimeout.constprop.0+0x98>
 8006d3c:	682b      	ldr	r3, [r5, #0]
 8006d3e:	685a      	ldr	r2, [r3, #4]
 8006d40:	f022 02e0 	bic.w	r2, r2, #224	; 0xe0
 8006d44:	605a      	str	r2, [r3, #4]
 8006d46:	686a      	ldr	r2, [r5, #4]
 8006d48:	f5b2 7f82 	cmp.w	r2, #260	; 0x104
 8006d4c:	d10a      	bne.n	8006d64 <SPI_WaitFlagStateUntilTimeout.constprop.0+0x6c>
 8006d4e:	68aa      	ldr	r2, [r5, #8]
 8006d50:	f5b2 4f00 	cmp.w	r2, #32768	; 0x8000
 8006d54:	d002      	beq.n	8006d5c <SPI_WaitFlagStateUntilTimeout.constprop.0+0x64>
 8006d56:	f5b2 6f80 	cmp.w	r2, #1024	; 0x400
 8006d5a:	d103      	bne.n	8006d64 <SPI_WaitFlagStateUntilTimeout.constprop.0+0x6c>
 8006d5c:	681a      	ldr	r2, [r3, #0]
 8006d5e:	f022 0240 	bic.w	r2, r2, #64	; 0x40
 8006d62:	601a      	str	r2, [r3, #0]
 8006d64:	6aaa      	ldr	r2, [r5, #40]	; 0x28
 8006d66:	f5b2 5f00 	cmp.w	r2, #8192	; 0x2000
 8006d6a:	d107      	bne.n	8006d7c <SPI_WaitFlagStateUntilTimeout.constprop.0+0x84>
 8006d6c:	681a      	ldr	r2, [r3, #0]
 8006d6e:	f422 5200 	bic.w	r2, r2, #8192	; 0x2000
 8006d72:	601a      	str	r2, [r3, #0]
 8006d74:	681a      	ldr	r2, [r3, #0]
 8006d76:	f442 5200 	orr.w	r2, r2, #8192	; 0x2000
 8006d7a:	601a      	str	r2, [r3, #0]
 8006d7c:	2301      	movs	r3, #1
 8006d7e:	f885 3051 	strb.w	r3, [r5, #81]	; 0x51
 8006d82:	2300      	movs	r3, #0
 8006d84:	2003      	movs	r0, #3
 8006d86:	f885 3050 	strb.w	r3, [r5, #80]	; 0x50
 8006d8a:	b002      	add	sp, #8
 8006d8c:	e8bd 81f0 	ldmia.w	sp!, {r4, r5, r6, r7, r8, pc}
 8006d90:	9b01      	ldr	r3, [sp, #4]
 8006d92:	2b00      	cmp	r3, #0
 8006d94:	9b01      	ldr	r3, [sp, #4]
 8006d96:	bf08      	it	eq
 8006d98:	2400      	moveq	r4, #0
 8006d9a:	3b01      	subs	r3, #1
 8006d9c:	e7be      	b.n	8006d1c <SPI_WaitFlagStateUntilTimeout.constprop.0+0x24>
 8006d9e:	bf00      	nop
 8006da0:	20000138 	.word	0x20000138

08006da4 <SPI_EndRxTransaction>:
 8006da4:	b538      	push	{r3, r4, r5, lr}
 8006da6:	4613      	mov	r3, r2
 8006da8:	6842      	ldr	r2, [r0, #4]
 8006daa:	4604      	mov	r4, r0
 8006dac:	f5b2 7f82 	cmp.w	r2, #260	; 0x104
 8006db0:	d116      	bne.n	8006de0 <SPI_EndRxTransaction+0x3c>
 8006db2:	6882      	ldr	r2, [r0, #8]
 8006db4:	f5b2 4f00 	cmp.w	r2, #32768	; 0x8000
 8006db8:	d002      	beq.n	8006dc0 <SPI_EndRxTransaction+0x1c>
 8006dba:	f5b2 6f80 	cmp.w	r2, #1024	; 0x400
 8006dbe:	d10f      	bne.n	8006de0 <SPI_EndRxTransaction+0x3c>
 8006dc0:	6825      	ldr	r5, [r4, #0]
 8006dc2:	f5b2 6f80 	cmp.w	r2, #1024	; 0x400
 8006dc6:	6828      	ldr	r0, [r5, #0]
 8006dc8:	f020 0040 	bic.w	r0, r0, #64	; 0x40
 8006dcc:	6028      	str	r0, [r5, #0]
 8006dce:	d107      	bne.n	8006de0 <SPI_EndRxTransaction+0x3c>
 8006dd0:	460a      	mov	r2, r1
 8006dd2:	2101      	movs	r1, #1
 8006dd4:	4620      	mov	r0, r4
 8006dd6:	f7ff ff8f 	bl	8006cf8 <SPI_WaitFlagStateUntilTimeout.constprop.0>
 8006dda:	b920      	cbnz	r0, 8006de6 <SPI_EndRxTransaction+0x42>
 8006ddc:	2000      	movs	r0, #0
 8006dde:	bd38      	pop	{r3, r4, r5, pc}
 8006de0:	460a      	mov	r2, r1
 8006de2:	2180      	movs	r1, #128	; 0x80
 8006de4:	e7f6      	b.n	8006dd4 <SPI_EndRxTransaction+0x30>
 8006de6:	6d63      	ldr	r3, [r4, #84]	; 0x54
 8006de8:	2003      	movs	r0, #3
 8006dea:	f043 0320 	orr.w	r3, r3, #32
 8006dee:	6563      	str	r3, [r4, #84]	; 0x54
 8006df0:	e7f5      	b.n	8006dde <SPI_EndRxTransaction+0x3a>

08006df2 <SPI_EndRxTxTransaction>:
 8006df2:	b510      	push	{r4, lr}
 8006df4:	4613      	mov	r3, r2
 8006df6:	460a      	mov	r2, r1
 8006df8:	2180      	movs	r1, #128	; 0x80
 8006dfa:	4604      	mov	r4, r0
 8006dfc:	f7ff ff7c 	bl	8006cf8 <SPI_WaitFlagStateUntilTimeout.constprop.0>
 8006e00:	b120      	cbz	r0, 8006e0c <SPI_EndRxTxTransaction+0x1a>
 8006e02:	2003      	movs	r0, #3
 8006e04:	6d63      	ldr	r3, [r4, #84]	; 0x54
 8006e06:	f043 0320 	orr.w	r3, r3, #32
 8006e0a:	6563      	str	r3, [r4, #84]	; 0x54
 8006e0c:	bd10      	pop	{r4, pc}

08006e0e <HAL_SPI_Init>:
 8006e0e:	b510      	push	{r4, lr}
 8006e10:	4604      	mov	r4, r0
 8006e12:	2800      	cmp	r0, #0
 8006e14:	d051      	beq.n	8006eba <HAL_SPI_Init+0xac>
 8006e16:	6a43      	ldr	r3, [r0, #36]	; 0x24
 8006e18:	2b00      	cmp	r3, #0
 8006e1a:	d14a      	bne.n	8006eb2 <HAL_SPI_Init+0xa4>
 8006e1c:	6842      	ldr	r2, [r0, #4]
 8006e1e:	f5b2 7f82 	cmp.w	r2, #260	; 0x104
 8006e22:	d000      	beq.n	8006e26 <HAL_SPI_Init+0x18>
 8006e24:	61c3      	str	r3, [r0, #28]
 8006e26:	2300      	movs	r3, #0
 8006e28:	62a3      	str	r3, [r4, #40]	; 0x28
 8006e2a:	f894 3051 	ldrb.w	r3, [r4, #81]	; 0x51
 8006e2e:	f003 02ff 	and.w	r2, r3, #255	; 0xff
 8006e32:	b923      	cbnz	r3, 8006e3e <HAL_SPI_Init+0x30>
 8006e34:	4620      	mov	r0, r4
 8006e36:	f884 2050 	strb.w	r2, [r4, #80]	; 0x50
 8006e3a:	f7fd fc55 	bl	80046e8 <HAL_SPI_MspInit>
 8006e3e:	2302      	movs	r3, #2
 8006e40:	6822      	ldr	r2, [r4, #0]
 8006e42:	f884 3051 	strb.w	r3, [r4, #81]	; 0x51
 8006e46:	6813      	ldr	r3, [r2, #0]
 8006e48:	68a0      	ldr	r0, [r4, #8]
 8006e4a:	f023 0340 	bic.w	r3, r3, #64	; 0x40
 8006e4e:	6013      	str	r3, [r2, #0]
 8006e50:	6863      	ldr	r3, [r4, #4]
 8006e52:	f400 4004 	and.w	r0, r0, #33792	; 0x8400
 8006e56:	f403 7382 	and.w	r3, r3, #260	; 0x104
 8006e5a:	4303      	orrs	r3, r0
 8006e5c:	68e0      	ldr	r0, [r4, #12]
 8006e5e:	69a1      	ldr	r1, [r4, #24]
 8006e60:	f400 6000 	and.w	r0, r0, #2048	; 0x800
 8006e64:	4303      	orrs	r3, r0
 8006e66:	6920      	ldr	r0, [r4, #16]
 8006e68:	f000 0002 	and.w	r0, r0, #2
 8006e6c:	4303      	orrs	r3, r0
 8006e6e:	6960      	ldr	r0, [r4, #20]
 8006e70:	f000 0001 	and.w	r0, r0, #1
 8006e74:	4303      	orrs	r3, r0
 8006e76:	f401 7000 	and.w	r0, r1, #512	; 0x200
 8006e7a:	4303      	orrs	r3, r0
 8006e7c:	69e0      	ldr	r0, [r4, #28]
 8006e7e:	0c09      	lsrs	r1, r1, #16
 8006e80:	f000 0038 	and.w	r0, r0, #56	; 0x38
 8006e84:	4303      	orrs	r3, r0
 8006e86:	6a20      	ldr	r0, [r4, #32]
 8006e88:	f001 0104 	and.w	r1, r1, #4
 8006e8c:	f000 0080 	and.w	r0, r0, #128	; 0x80
 8006e90:	4303      	orrs	r3, r0
 8006e92:	6aa0      	ldr	r0, [r4, #40]	; 0x28
 8006e94:	f400 5000 	and.w	r0, r0, #8192	; 0x2000
 8006e98:	4303      	orrs	r3, r0
 8006e9a:	6013      	str	r3, [r2, #0]
 8006e9c:	6051      	str	r1, [r2, #4]
 8006e9e:	69d3      	ldr	r3, [r2, #28]
 8006ea0:	2000      	movs	r0, #0
 8006ea2:	f423 6300 	bic.w	r3, r3, #2048	; 0x800
 8006ea6:	61d3      	str	r3, [r2, #28]
 8006ea8:	2301      	movs	r3, #1
 8006eaa:	6560      	str	r0, [r4, #84]	; 0x54
 8006eac:	f884 3051 	strb.w	r3, [r4, #81]	; 0x51
 8006eb0:	bd10      	pop	{r4, pc}
 8006eb2:	2300      	movs	r3, #0
 8006eb4:	e9c0 3304 	strd	r3, r3, [r0, #16]
 8006eb8:	e7b5      	b.n	8006e26 <HAL_SPI_Init+0x18>
 8006eba:	2001      	movs	r0, #1
 8006ebc:	e7f8      	b.n	8006eb0 <HAL_SPI_Init+0xa2>

08006ebe <HAL_SPI_Transmit>:
 8006ebe:	e92d 43f7 	stmdb	sp!, {r0, r1, r2, r4, r5, r6, r7, r8, r9, lr}
 8006ec2:	461f      	mov	r7, r3
 8006ec4:	f890 3050 	ldrb.w	r3, [r0, #80]	; 0x50
 8006ec8:	4604      	mov	r4, r0
 8006eca:	2b01      	cmp	r3, #1
 8006ecc:	460d      	mov	r5, r1
 8006ece:	4690      	mov	r8, r2
 8006ed0:	f000 80a0 	beq.w	8007014 <HAL_SPI_Transmit+0x156>
 8006ed4:	2301      	movs	r3, #1
 8006ed6:	f880 3050 	strb.w	r3, [r0, #80]	; 0x50
 8006eda:	f7fe fcb9 	bl	8005850 <HAL_GetTick>
 8006ede:	f894 3051 	ldrb.w	r3, [r4, #81]	; 0x51
 8006ee2:	4681      	mov	r9, r0
 8006ee4:	2b01      	cmp	r3, #1
 8006ee6:	b2d8      	uxtb	r0, r3
 8006ee8:	f040 8092 	bne.w	8007010 <HAL_SPI_Transmit+0x152>
 8006eec:	2d00      	cmp	r5, #0
 8006eee:	d061      	beq.n	8006fb4 <HAL_SPI_Transmit+0xf6>
 8006ef0:	f1b8 0f00 	cmp.w	r8, #0
 8006ef4:	d05e      	beq.n	8006fb4 <HAL_SPI_Transmit+0xf6>
 8006ef6:	2303      	movs	r3, #3
 8006ef8:	f884 3051 	strb.w	r3, [r4, #81]	; 0x51
 8006efc:	2300      	movs	r3, #0
 8006efe:	6563      	str	r3, [r4, #84]	; 0x54
 8006f00:	e9c4 3310 	strd	r3, r3, [r4, #64]	; 0x40
 8006f04:	f8a4 8036 	strh.w	r8, [r4, #54]	; 0x36
 8006f08:	63a3      	str	r3, [r4, #56]	; 0x38
 8006f0a:	87a3      	strh	r3, [r4, #60]	; 0x3c
 8006f0c:	87e3      	strh	r3, [r4, #62]	; 0x3e
 8006f0e:	68a3      	ldr	r3, [r4, #8]
 8006f10:	6826      	ldr	r6, [r4, #0]
 8006f12:	f5b3 4f00 	cmp.w	r3, #32768	; 0x8000
 8006f16:	6325      	str	r5, [r4, #48]	; 0x30
 8006f18:	f8a4 8034 	strh.w	r8, [r4, #52]	; 0x34
 8006f1c:	d107      	bne.n	8006f2e <HAL_SPI_Transmit+0x70>
 8006f1e:	6833      	ldr	r3, [r6, #0]
 8006f20:	f023 0340 	bic.w	r3, r3, #64	; 0x40
 8006f24:	6033      	str	r3, [r6, #0]
 8006f26:	6833      	ldr	r3, [r6, #0]
 8006f28:	f443 4380 	orr.w	r3, r3, #16384	; 0x4000
 8006f2c:	6033      	str	r3, [r6, #0]
 8006f2e:	6833      	ldr	r3, [r6, #0]
 8006f30:	68e2      	ldr	r2, [r4, #12]
 8006f32:	065b      	lsls	r3, r3, #25
 8006f34:	bf5e      	ittt	pl
 8006f36:	6833      	ldrpl	r3, [r6, #0]
 8006f38:	f043 0340 	orrpl.w	r3, r3, #64	; 0x40
 8006f3c:	6033      	strpl	r3, [r6, #0]
 8006f3e:	f5b2 6f00 	cmp.w	r2, #2048	; 0x800
 8006f42:	6863      	ldr	r3, [r4, #4]
 8006f44:	d13f      	bne.n	8006fc6 <HAL_SPI_Transmit+0x108>
 8006f46:	b113      	cbz	r3, 8006f4e <HAL_SPI_Transmit+0x90>
 8006f48:	f1b8 0f01 	cmp.w	r8, #1
 8006f4c:	d107      	bne.n	8006f5e <HAL_SPI_Transmit+0xa0>
 8006f4e:	f835 3b02 	ldrh.w	r3, [r5], #2
 8006f52:	60f3      	str	r3, [r6, #12]
 8006f54:	6325      	str	r5, [r4, #48]	; 0x30
 8006f56:	8ee3      	ldrh	r3, [r4, #54]	; 0x36
 8006f58:	3b01      	subs	r3, #1
 8006f5a:	b29b      	uxth	r3, r3
 8006f5c:	86e3      	strh	r3, [r4, #54]	; 0x36
 8006f5e:	8ee3      	ldrh	r3, [r4, #54]	; 0x36
 8006f60:	b29b      	uxth	r3, r3
 8006f62:	b9a3      	cbnz	r3, 8006f8e <HAL_SPI_Transmit+0xd0>
 8006f64:	464a      	mov	r2, r9
 8006f66:	4639      	mov	r1, r7
 8006f68:	4620      	mov	r0, r4
 8006f6a:	f7ff ff42 	bl	8006df2 <SPI_EndRxTxTransaction>
 8006f6e:	2800      	cmp	r0, #0
 8006f70:	d14b      	bne.n	800700a <HAL_SPI_Transmit+0x14c>
 8006f72:	68a3      	ldr	r3, [r4, #8]
 8006f74:	b933      	cbnz	r3, 8006f84 <HAL_SPI_Transmit+0xc6>
 8006f76:	9301      	str	r3, [sp, #4]
 8006f78:	6823      	ldr	r3, [r4, #0]
 8006f7a:	68da      	ldr	r2, [r3, #12]
 8006f7c:	9201      	str	r2, [sp, #4]
 8006f7e:	689b      	ldr	r3, [r3, #8]
 8006f80:	9301      	str	r3, [sp, #4]
 8006f82:	9b01      	ldr	r3, [sp, #4]
 8006f84:	6d60      	ldr	r0, [r4, #84]	; 0x54
 8006f86:	3800      	subs	r0, #0
 8006f88:	bf18      	it	ne
 8006f8a:	2001      	movne	r0, #1
 8006f8c:	e012      	b.n	8006fb4 <HAL_SPI_Transmit+0xf6>
 8006f8e:	6822      	ldr	r2, [r4, #0]
 8006f90:	6893      	ldr	r3, [r2, #8]
 8006f92:	0798      	lsls	r0, r3, #30
 8006f94:	d505      	bpl.n	8006fa2 <HAL_SPI_Transmit+0xe4>
 8006f96:	6b23      	ldr	r3, [r4, #48]	; 0x30
 8006f98:	f833 1b02 	ldrh.w	r1, [r3], #2
 8006f9c:	60d1      	str	r1, [r2, #12]
 8006f9e:	6323      	str	r3, [r4, #48]	; 0x30
 8006fa0:	e7d9      	b.n	8006f56 <HAL_SPI_Transmit+0x98>
 8006fa2:	f7fe fc55 	bl	8005850 <HAL_GetTick>
 8006fa6:	eba0 0009 	sub.w	r0, r0, r9
 8006faa:	42b8      	cmp	r0, r7
 8006fac:	d3d7      	bcc.n	8006f5e <HAL_SPI_Transmit+0xa0>
 8006fae:	1c79      	adds	r1, r7, #1
 8006fb0:	d0d5      	beq.n	8006f5e <HAL_SPI_Transmit+0xa0>
 8006fb2:	2003      	movs	r0, #3
 8006fb4:	2301      	movs	r3, #1
 8006fb6:	f884 3051 	strb.w	r3, [r4, #81]	; 0x51
 8006fba:	2300      	movs	r3, #0
 8006fbc:	f884 3050 	strb.w	r3, [r4, #80]	; 0x50
 8006fc0:	b003      	add	sp, #12
 8006fc2:	e8bd 83f0 	ldmia.w	sp!, {r4, r5, r6, r7, r8, r9, pc}
 8006fc6:	b113      	cbz	r3, 8006fce <HAL_SPI_Transmit+0x110>
 8006fc8:	f1b8 0f01 	cmp.w	r8, #1
 8006fcc:	d108      	bne.n	8006fe0 <HAL_SPI_Transmit+0x122>
 8006fce:	782b      	ldrb	r3, [r5, #0]
 8006fd0:	7333      	strb	r3, [r6, #12]
 8006fd2:	6b23      	ldr	r3, [r4, #48]	; 0x30
 8006fd4:	3301      	adds	r3, #1
 8006fd6:	6323      	str	r3, [r4, #48]	; 0x30
 8006fd8:	8ee3      	ldrh	r3, [r4, #54]	; 0x36
 8006fda:	3b01      	subs	r3, #1
 8006fdc:	b29b      	uxth	r3, r3
 8006fde:	86e3      	strh	r3, [r4, #54]	; 0x36
 8006fe0:	8ee3      	ldrh	r3, [r4, #54]	; 0x36
 8006fe2:	b29b      	uxth	r3, r3
 8006fe4:	2b00      	cmp	r3, #0
 8006fe6:	d0bd      	beq.n	8006f64 <HAL_SPI_Transmit+0xa6>
 8006fe8:	6823      	ldr	r3, [r4, #0]
 8006fea:	689a      	ldr	r2, [r3, #8]
 8006fec:	0792      	lsls	r2, r2, #30
 8006fee:	d503      	bpl.n	8006ff8 <HAL_SPI_Transmit+0x13a>
 8006ff0:	6b22      	ldr	r2, [r4, #48]	; 0x30
 8006ff2:	7812      	ldrb	r2, [r2, #0]
 8006ff4:	731a      	strb	r2, [r3, #12]
 8006ff6:	e7ec      	b.n	8006fd2 <HAL_SPI_Transmit+0x114>
 8006ff8:	f7fe fc2a 	bl	8005850 <HAL_GetTick>
 8006ffc:	eba0 0009 	sub.w	r0, r0, r9
 8007000:	42b8      	cmp	r0, r7
 8007002:	d3ed      	bcc.n	8006fe0 <HAL_SPI_Transmit+0x122>
 8007004:	1c7b      	adds	r3, r7, #1
 8007006:	d0eb      	beq.n	8006fe0 <HAL_SPI_Transmit+0x122>
 8007008:	e7d3      	b.n	8006fb2 <HAL_SPI_Transmit+0xf4>
 800700a:	2320      	movs	r3, #32
 800700c:	6563      	str	r3, [r4, #84]	; 0x54
 800700e:	e7b0      	b.n	8006f72 <HAL_SPI_Transmit+0xb4>
 8007010:	2002      	movs	r0, #2
 8007012:	e7cf      	b.n	8006fb4 <HAL_SPI_Transmit+0xf6>
 8007014:	2002      	movs	r0, #2
 8007016:	e7d3      	b.n	8006fc0 <HAL_SPI_Transmit+0x102>

08007018 <HAL_SPI_TransmitReceive>:
 8007018:	e92d 43f7 	stmdb	sp!, {r0, r1, r2, r4, r5, r6, r7, r8, r9, lr}
 800701c:	461e      	mov	r6, r3
 800701e:	f890 3050 	ldrb.w	r3, [r0, #80]	; 0x50
 8007022:	4604      	mov	r4, r0
 8007024:	2b01      	cmp	r3, #1
 8007026:	460d      	mov	r5, r1
 8007028:	4691      	mov	r9, r2
 800702a:	f8dd 8028 	ldr.w	r8, [sp, #40]	; 0x28
 800702e:	f000 80e0 	beq.w	80071f2 <HAL_SPI_TransmitReceive+0x1da>
 8007032:	2301      	movs	r3, #1
 8007034:	f880 3050 	strb.w	r3, [r0, #80]	; 0x50
 8007038:	f7fe fc0a 	bl	8005850 <HAL_GetTick>
 800703c:	f894 3051 	ldrb.w	r3, [r4, #81]	; 0x51
 8007040:	4607      	mov	r7, r0
 8007042:	2b01      	cmp	r3, #1
 8007044:	6862      	ldr	r2, [r4, #4]
 8007046:	b2d9      	uxtb	r1, r3
 8007048:	d00a      	beq.n	8007060 <HAL_SPI_TransmitReceive+0x48>
 800704a:	f5b2 7f82 	cmp.w	r2, #260	; 0x104
 800704e:	f040 80ce 	bne.w	80071ee <HAL_SPI_TransmitReceive+0x1d6>
 8007052:	68a3      	ldr	r3, [r4, #8]
 8007054:	2b00      	cmp	r3, #0
 8007056:	f040 80ca 	bne.w	80071ee <HAL_SPI_TransmitReceive+0x1d6>
 800705a:	2904      	cmp	r1, #4
 800705c:	f040 80c7 	bne.w	80071ee <HAL_SPI_TransmitReceive+0x1d6>
 8007060:	2d00      	cmp	r5, #0
 8007062:	d03f      	beq.n	80070e4 <HAL_SPI_TransmitReceive+0xcc>
 8007064:	f1b9 0f00 	cmp.w	r9, #0
 8007068:	d03c      	beq.n	80070e4 <HAL_SPI_TransmitReceive+0xcc>
 800706a:	2e00      	cmp	r6, #0
 800706c:	d03a      	beq.n	80070e4 <HAL_SPI_TransmitReceive+0xcc>
 800706e:	f894 3051 	ldrb.w	r3, [r4, #81]	; 0x51
 8007072:	f8c4 9038 	str.w	r9, [r4, #56]	; 0x38
 8007076:	2b04      	cmp	r3, #4
 8007078:	bf1c      	itt	ne
 800707a:	2305      	movne	r3, #5
 800707c:	f884 3051 	strbne.w	r3, [r4, #81]	; 0x51
 8007080:	2300      	movs	r3, #0
 8007082:	6563      	str	r3, [r4, #84]	; 0x54
 8007084:	e9c4 3310 	strd	r3, r3, [r4, #64]	; 0x40
 8007088:	6823      	ldr	r3, [r4, #0]
 800708a:	87e6      	strh	r6, [r4, #62]	; 0x3e
 800708c:	86e6      	strh	r6, [r4, #54]	; 0x36
 800708e:	6819      	ldr	r1, [r3, #0]
 8007090:	87a6      	strh	r6, [r4, #60]	; 0x3c
 8007092:	0649      	lsls	r1, r1, #25
 8007094:	bf58      	it	pl
 8007096:	6819      	ldrpl	r1, [r3, #0]
 8007098:	6325      	str	r5, [r4, #48]	; 0x30
 800709a:	bf58      	it	pl
 800709c:	f041 0140 	orrpl.w	r1, r1, #64	; 0x40
 80070a0:	86a6      	strh	r6, [r4, #52]	; 0x34
 80070a2:	bf58      	it	pl
 80070a4:	6019      	strpl	r1, [r3, #0]
 80070a6:	68e1      	ldr	r1, [r4, #12]
 80070a8:	f5b1 6f00 	cmp.w	r1, #2048	; 0x800
 80070ac:	d151      	bne.n	8007152 <HAL_SPI_TransmitReceive+0x13a>
 80070ae:	b10a      	cbz	r2, 80070b4 <HAL_SPI_TransmitReceive+0x9c>
 80070b0:	2e01      	cmp	r6, #1
 80070b2:	d107      	bne.n	80070c4 <HAL_SPI_TransmitReceive+0xac>
 80070b4:	f835 2b02 	ldrh.w	r2, [r5], #2
 80070b8:	60da      	str	r2, [r3, #12]
 80070ba:	8ee3      	ldrh	r3, [r4, #54]	; 0x36
 80070bc:	6325      	str	r5, [r4, #48]	; 0x30
 80070be:	3b01      	subs	r3, #1
 80070c0:	b29b      	uxth	r3, r3
 80070c2:	86e3      	strh	r3, [r4, #54]	; 0x36
 80070c4:	2501      	movs	r5, #1
 80070c6:	8ee3      	ldrh	r3, [r4, #54]	; 0x36
 80070c8:	b29b      	uxth	r3, r3
 80070ca:	b96b      	cbnz	r3, 80070e8 <HAL_SPI_TransmitReceive+0xd0>
 80070cc:	8fe3      	ldrh	r3, [r4, #62]	; 0x3e
 80070ce:	b29b      	uxth	r3, r3
 80070d0:	b953      	cbnz	r3, 80070e8 <HAL_SPI_TransmitReceive+0xd0>
 80070d2:	463a      	mov	r2, r7
 80070d4:	4641      	mov	r1, r8
 80070d6:	4620      	mov	r0, r4
 80070d8:	f7ff fe8b 	bl	8006df2 <SPI_EndRxTxTransaction>
 80070dc:	2800      	cmp	r0, #0
 80070de:	d07b      	beq.n	80071d8 <HAL_SPI_TransmitReceive+0x1c0>
 80070e0:	2320      	movs	r3, #32
 80070e2:	6563      	str	r3, [r4, #84]	; 0x54
 80070e4:	2001      	movs	r0, #1
 80070e6:	e02b      	b.n	8007140 <HAL_SPI_TransmitReceive+0x128>
 80070e8:	6821      	ldr	r1, [r4, #0]
 80070ea:	688b      	ldr	r3, [r1, #8]
 80070ec:	079a      	lsls	r2, r3, #30
 80070ee:	d50d      	bpl.n	800710c <HAL_SPI_TransmitReceive+0xf4>
 80070f0:	8ee3      	ldrh	r3, [r4, #54]	; 0x36
 80070f2:	b29b      	uxth	r3, r3
 80070f4:	b153      	cbz	r3, 800710c <HAL_SPI_TransmitReceive+0xf4>
 80070f6:	b14d      	cbz	r5, 800710c <HAL_SPI_TransmitReceive+0xf4>
 80070f8:	2500      	movs	r5, #0
 80070fa:	6b23      	ldr	r3, [r4, #48]	; 0x30
 80070fc:	f833 2b02 	ldrh.w	r2, [r3], #2
 8007100:	60ca      	str	r2, [r1, #12]
 8007102:	6323      	str	r3, [r4, #48]	; 0x30
 8007104:	8ee3      	ldrh	r3, [r4, #54]	; 0x36
 8007106:	3b01      	subs	r3, #1
 8007108:	b29b      	uxth	r3, r3
 800710a:	86e3      	strh	r3, [r4, #54]	; 0x36
 800710c:	688a      	ldr	r2, [r1, #8]
 800710e:	f012 0201 	ands.w	r2, r2, #1
 8007112:	d00c      	beq.n	800712e <HAL_SPI_TransmitReceive+0x116>
 8007114:	8fe3      	ldrh	r3, [r4, #62]	; 0x3e
 8007116:	b29b      	uxth	r3, r3
 8007118:	b14b      	cbz	r3, 800712e <HAL_SPI_TransmitReceive+0x116>
 800711a:	4615      	mov	r5, r2
 800711c:	68c9      	ldr	r1, [r1, #12]
 800711e:	6ba3      	ldr	r3, [r4, #56]	; 0x38
 8007120:	f823 1b02 	strh.w	r1, [r3], #2
 8007124:	63a3      	str	r3, [r4, #56]	; 0x38
 8007126:	8fe3      	ldrh	r3, [r4, #62]	; 0x3e
 8007128:	3b01      	subs	r3, #1
 800712a:	b29b      	uxth	r3, r3
 800712c:	87e3      	strh	r3, [r4, #62]	; 0x3e
 800712e:	f7fe fb8f 	bl	8005850 <HAL_GetTick>
 8007132:	1bc0      	subs	r0, r0, r7
 8007134:	4540      	cmp	r0, r8
 8007136:	d3c6      	bcc.n	80070c6 <HAL_SPI_TransmitReceive+0xae>
 8007138:	f1b8 3fff 	cmp.w	r8, #4294967295	; 0xffffffff
 800713c:	d0c3      	beq.n	80070c6 <HAL_SPI_TransmitReceive+0xae>
 800713e:	2003      	movs	r0, #3
 8007140:	2301      	movs	r3, #1
 8007142:	f884 3051 	strb.w	r3, [r4, #81]	; 0x51
 8007146:	2300      	movs	r3, #0
 8007148:	f884 3050 	strb.w	r3, [r4, #80]	; 0x50
 800714c:	b003      	add	sp, #12
 800714e:	e8bd 83f0 	ldmia.w	sp!, {r4, r5, r6, r7, r8, r9, pc}
 8007152:	b10a      	cbz	r2, 8007158 <HAL_SPI_TransmitReceive+0x140>
 8007154:	2e01      	cmp	r6, #1
 8007156:	d108      	bne.n	800716a <HAL_SPI_TransmitReceive+0x152>
 8007158:	782a      	ldrb	r2, [r5, #0]
 800715a:	731a      	strb	r2, [r3, #12]
 800715c:	6b23      	ldr	r3, [r4, #48]	; 0x30
 800715e:	3301      	adds	r3, #1
 8007160:	6323      	str	r3, [r4, #48]	; 0x30
 8007162:	8ee3      	ldrh	r3, [r4, #54]	; 0x36
 8007164:	3b01      	subs	r3, #1
 8007166:	b29b      	uxth	r3, r3
 8007168:	86e3      	strh	r3, [r4, #54]	; 0x36
 800716a:	2501      	movs	r5, #1
 800716c:	8ee3      	ldrh	r3, [r4, #54]	; 0x36
 800716e:	b29b      	uxth	r3, r3
 8007170:	b91b      	cbnz	r3, 800717a <HAL_SPI_TransmitReceive+0x162>
 8007172:	8fe3      	ldrh	r3, [r4, #62]	; 0x3e
 8007174:	b29b      	uxth	r3, r3
 8007176:	2b00      	cmp	r3, #0
 8007178:	d0ab      	beq.n	80070d2 <HAL_SPI_TransmitReceive+0xba>
 800717a:	6822      	ldr	r2, [r4, #0]
 800717c:	6893      	ldr	r3, [r2, #8]
 800717e:	079b      	lsls	r3, r3, #30
 8007180:	d50e      	bpl.n	80071a0 <HAL_SPI_TransmitReceive+0x188>
 8007182:	8ee3      	ldrh	r3, [r4, #54]	; 0x36
 8007184:	b29b      	uxth	r3, r3
 8007186:	b15b      	cbz	r3, 80071a0 <HAL_SPI_TransmitReceive+0x188>
 8007188:	b155      	cbz	r5, 80071a0 <HAL_SPI_TransmitReceive+0x188>
 800718a:	2500      	movs	r5, #0
 800718c:	6b23      	ldr	r3, [r4, #48]	; 0x30
 800718e:	781b      	ldrb	r3, [r3, #0]
 8007190:	7313      	strb	r3, [r2, #12]
 8007192:	6b23      	ldr	r3, [r4, #48]	; 0x30
 8007194:	3301      	adds	r3, #1
 8007196:	6323      	str	r3, [r4, #48]	; 0x30
 8007198:	8ee3      	ldrh	r3, [r4, #54]	; 0x36
 800719a:	3b01      	subs	r3, #1
 800719c:	b29b      	uxth	r3, r3
 800719e:	86e3      	strh	r3, [r4, #54]	; 0x36
 80071a0:	6822      	ldr	r2, [r4, #0]
 80071a2:	6891      	ldr	r1, [r2, #8]
 80071a4:	f011 0101 	ands.w	r1, r1, #1
 80071a8:	d00d      	beq.n	80071c6 <HAL_SPI_TransmitReceive+0x1ae>
 80071aa:	8fe3      	ldrh	r3, [r4, #62]	; 0x3e
 80071ac:	b29b      	uxth	r3, r3
 80071ae:	b153      	cbz	r3, 80071c6 <HAL_SPI_TransmitReceive+0x1ae>
 80071b0:	460d      	mov	r5, r1
 80071b2:	68d2      	ldr	r2, [r2, #12]
 80071b4:	6ba3      	ldr	r3, [r4, #56]	; 0x38
 80071b6:	701a      	strb	r2, [r3, #0]
 80071b8:	6ba3      	ldr	r3, [r4, #56]	; 0x38
 80071ba:	3301      	adds	r3, #1
 80071bc:	63a3      	str	r3, [r4, #56]	; 0x38
 80071be:	8fe3      	ldrh	r3, [r4, #62]	; 0x3e
 80071c0:	3b01      	subs	r3, #1
 80071c2:	b29b      	uxth	r3, r3
 80071c4:	87e3      	strh	r3, [r4, #62]	; 0x3e
 80071c6:	f7fe fb43 	bl	8005850 <HAL_GetTick>
 80071ca:	1bc0      	subs	r0, r0, r7
 80071cc:	4540      	cmp	r0, r8
 80071ce:	d3cd      	bcc.n	800716c <HAL_SPI_TransmitReceive+0x154>
 80071d0:	f1b8 3fff 	cmp.w	r8, #4294967295	; 0xffffffff
 80071d4:	d0ca      	beq.n	800716c <HAL_SPI_TransmitReceive+0x154>
 80071d6:	e7b2      	b.n	800713e <HAL_SPI_TransmitReceive+0x126>
 80071d8:	68a3      	ldr	r3, [r4, #8]
 80071da:	2b00      	cmp	r3, #0
 80071dc:	d1b0      	bne.n	8007140 <HAL_SPI_TransmitReceive+0x128>
 80071de:	6823      	ldr	r3, [r4, #0]
 80071e0:	9001      	str	r0, [sp, #4]
 80071e2:	68da      	ldr	r2, [r3, #12]
 80071e4:	9201      	str	r2, [sp, #4]
 80071e6:	689b      	ldr	r3, [r3, #8]
 80071e8:	9301      	str	r3, [sp, #4]
 80071ea:	9b01      	ldr	r3, [sp, #4]
 80071ec:	e7a8      	b.n	8007140 <HAL_SPI_TransmitReceive+0x128>
 80071ee:	2002      	movs	r0, #2
 80071f0:	e7a6      	b.n	8007140 <HAL_SPI_TransmitReceive+0x128>
 80071f2:	2002      	movs	r0, #2
 80071f4:	e7aa      	b.n	800714c <HAL_SPI_TransmitReceive+0x134>

080071f6 <HAL_SPI_Receive>:
 80071f6:	e92d 41f3 	stmdb	sp!, {r0, r1, r4, r5, r6, r7, r8, lr}
 80071fa:	461d      	mov	r5, r3
 80071fc:	6843      	ldr	r3, [r0, #4]
 80071fe:	4604      	mov	r4, r0
 8007200:	f5b3 7f82 	cmp.w	r3, #260	; 0x104
 8007204:	4688      	mov	r8, r1
 8007206:	4616      	mov	r6, r2
 8007208:	d10c      	bne.n	8007224 <HAL_SPI_Receive+0x2e>
 800720a:	6883      	ldr	r3, [r0, #8]
 800720c:	b953      	cbnz	r3, 8007224 <HAL_SPI_Receive+0x2e>
 800720e:	2304      	movs	r3, #4
 8007210:	f880 3051 	strb.w	r3, [r0, #81]	; 0x51
 8007214:	4613      	mov	r3, r2
 8007216:	9500      	str	r5, [sp, #0]
 8007218:	460a      	mov	r2, r1
 800721a:	f7ff fefd 	bl	8007018 <HAL_SPI_TransmitReceive>
 800721e:	b002      	add	sp, #8
 8007220:	e8bd 81f0 	ldmia.w	sp!, {r4, r5, r6, r7, r8, pc}
 8007224:	f894 3050 	ldrb.w	r3, [r4, #80]	; 0x50
 8007228:	2b01      	cmp	r3, #1
 800722a:	d07d      	beq.n	8007328 <HAL_SPI_Receive+0x132>
 800722c:	2301      	movs	r3, #1
 800722e:	f884 3050 	strb.w	r3, [r4, #80]	; 0x50
 8007232:	f7fe fb0d 	bl	8005850 <HAL_GetTick>
 8007236:	f894 3051 	ldrb.w	r3, [r4, #81]	; 0x51
 800723a:	4607      	mov	r7, r0
 800723c:	2b01      	cmp	r3, #1
 800723e:	b2d8      	uxtb	r0, r3
 8007240:	d170      	bne.n	8007324 <HAL_SPI_Receive+0x12e>
 8007242:	f1b8 0f00 	cmp.w	r8, #0
 8007246:	d05b      	beq.n	8007300 <HAL_SPI_Receive+0x10a>
 8007248:	2e00      	cmp	r6, #0
 800724a:	d059      	beq.n	8007300 <HAL_SPI_Receive+0x10a>
 800724c:	2304      	movs	r3, #4
 800724e:	f884 3051 	strb.w	r3, [r4, #81]	; 0x51
 8007252:	2300      	movs	r3, #0
 8007254:	68a2      	ldr	r2, [r4, #8]
 8007256:	6563      	str	r3, [r4, #84]	; 0x54
 8007258:	f5b2 4f00 	cmp.w	r2, #32768	; 0x8000
 800725c:	e9c4 3310 	strd	r3, r3, [r4, #64]	; 0x40
 8007260:	87e6      	strh	r6, [r4, #62]	; 0x3e
 8007262:	6323      	str	r3, [r4, #48]	; 0x30
 8007264:	86a3      	strh	r3, [r4, #52]	; 0x34
 8007266:	86e3      	strh	r3, [r4, #54]	; 0x36
 8007268:	f8c4 8038 	str.w	r8, [r4, #56]	; 0x38
 800726c:	6823      	ldr	r3, [r4, #0]
 800726e:	87a6      	strh	r6, [r4, #60]	; 0x3c
 8007270:	d107      	bne.n	8007282 <HAL_SPI_Receive+0x8c>
 8007272:	681a      	ldr	r2, [r3, #0]
 8007274:	f022 0240 	bic.w	r2, r2, #64	; 0x40
 8007278:	601a      	str	r2, [r3, #0]
 800727a:	681a      	ldr	r2, [r3, #0]
 800727c:	f422 4280 	bic.w	r2, r2, #16384	; 0x4000
 8007280:	601a      	str	r2, [r3, #0]
 8007282:	681a      	ldr	r2, [r3, #0]
 8007284:	0656      	lsls	r6, r2, #25
 8007286:	bf5e      	ittt	pl
 8007288:	681a      	ldrpl	r2, [r3, #0]
 800728a:	f042 0240 	orrpl.w	r2, r2, #64	; 0x40
 800728e:	601a      	strpl	r2, [r3, #0]
 8007290:	68e3      	ldr	r3, [r4, #12]
 8007292:	b1f3      	cbz	r3, 80072d2 <HAL_SPI_Receive+0xdc>
 8007294:	8fe3      	ldrh	r3, [r4, #62]	; 0x3e
 8007296:	b29b      	uxth	r3, r3
 8007298:	b1fb      	cbz	r3, 80072da <HAL_SPI_Receive+0xe4>
 800729a:	6823      	ldr	r3, [r4, #0]
 800729c:	689a      	ldr	r2, [r3, #8]
 800729e:	07d2      	lsls	r2, r2, #31
 80072a0:	d535      	bpl.n	800730e <HAL_SPI_Receive+0x118>
 80072a2:	68da      	ldr	r2, [r3, #12]
 80072a4:	6ba3      	ldr	r3, [r4, #56]	; 0x38
 80072a6:	f823 2b02 	strh.w	r2, [r3], #2
 80072aa:	63a3      	str	r3, [r4, #56]	; 0x38
 80072ac:	8fe3      	ldrh	r3, [r4, #62]	; 0x3e
 80072ae:	3b01      	subs	r3, #1
 80072b0:	b29b      	uxth	r3, r3
 80072b2:	87e3      	strh	r3, [r4, #62]	; 0x3e
 80072b4:	e7ee      	b.n	8007294 <HAL_SPI_Receive+0x9e>
 80072b6:	6823      	ldr	r3, [r4, #0]
 80072b8:	689a      	ldr	r2, [r3, #8]
 80072ba:	07d0      	lsls	r0, r2, #31
 80072bc:	d518      	bpl.n	80072f0 <HAL_SPI_Receive+0xfa>
 80072be:	7b1b      	ldrb	r3, [r3, #12]
 80072c0:	6ba2      	ldr	r2, [r4, #56]	; 0x38
 80072c2:	7013      	strb	r3, [r2, #0]
 80072c4:	6ba3      	ldr	r3, [r4, #56]	; 0x38
 80072c6:	3301      	adds	r3, #1
 80072c8:	63a3      	str	r3, [r4, #56]	; 0x38
 80072ca:	8fe3      	ldrh	r3, [r4, #62]	; 0x3e
 80072cc:	3b01      	subs	r3, #1
 80072ce:	b29b      	uxth	r3, r3
 80072d0:	87e3      	strh	r3, [r4, #62]	; 0x3e
 80072d2:	8fe3      	ldrh	r3, [r4, #62]	; 0x3e
 80072d4:	b29b      	uxth	r3, r3
 80072d6:	2b00      	cmp	r3, #0
 80072d8:	d1ed      	bne.n	80072b6 <HAL_SPI_Receive+0xc0>
 80072da:	463a      	mov	r2, r7
 80072dc:	4629      	mov	r1, r5
 80072de:	4620      	mov	r0, r4
 80072e0:	f7ff fd60 	bl	8006da4 <SPI_EndRxTransaction>
 80072e4:	b9d8      	cbnz	r0, 800731e <HAL_SPI_Receive+0x128>
 80072e6:	6d60      	ldr	r0, [r4, #84]	; 0x54
 80072e8:	3800      	subs	r0, #0
 80072ea:	bf18      	it	ne
 80072ec:	2001      	movne	r0, #1
 80072ee:	e007      	b.n	8007300 <HAL_SPI_Receive+0x10a>
 80072f0:	f7fe faae 	bl	8005850 <HAL_GetTick>
 80072f4:	1bc0      	subs	r0, r0, r7
 80072f6:	42a8      	cmp	r0, r5
 80072f8:	d3eb      	bcc.n	80072d2 <HAL_SPI_Receive+0xdc>
 80072fa:	1c69      	adds	r1, r5, #1
 80072fc:	d0e9      	beq.n	80072d2 <HAL_SPI_Receive+0xdc>
 80072fe:	2003      	movs	r0, #3
 8007300:	2301      	movs	r3, #1
 8007302:	f884 3051 	strb.w	r3, [r4, #81]	; 0x51
 8007306:	2300      	movs	r3, #0
 8007308:	f884 3050 	strb.w	r3, [r4, #80]	; 0x50
 800730c:	e787      	b.n	800721e <HAL_SPI_Receive+0x28>
 800730e:	f7fe fa9f 	bl	8005850 <HAL_GetTick>
 8007312:	1bc0      	subs	r0, r0, r7
 8007314:	42a8      	cmp	r0, r5
 8007316:	d3bd      	bcc.n	8007294 <HAL_SPI_Receive+0x9e>
 8007318:	1c6b      	adds	r3, r5, #1
 800731a:	d0bb      	beq.n	8007294 <HAL_SPI_Receive+0x9e>
 800731c:	e7ef      	b.n	80072fe <HAL_SPI_Receive+0x108>
 800731e:	2320      	movs	r3, #32
 8007320:	6563      	str	r3, [r4, #84]	; 0x54
 8007322:	e7e0      	b.n	80072e6 <HAL_SPI_Receive+0xf0>
 8007324:	2002      	movs	r0, #2
 8007326:	e7eb      	b.n	8007300 <HAL_SPI_Receive+0x10a>
 8007328:	2002      	movs	r0, #2
 800732a:	e778      	b.n	800721e <HAL_SPI_Receive+0x28>

0800732c <TIM_OC1_SetConfig>:
 800732c:	6a03      	ldr	r3, [r0, #32]
 800732e:	b570      	push	{r4, r5, r6, lr}
 8007330:	f023 0301 	bic.w	r3, r3, #1
 8007334:	6203      	str	r3, [r0, #32]
 8007336:	6a03      	ldr	r3, [r0, #32]
 8007338:	6844      	ldr	r4, [r0, #4]
 800733a:	6982      	ldr	r2, [r0, #24]
 800733c:	680d      	ldr	r5, [r1, #0]
 800733e:	f022 0273 	bic.w	r2, r2, #115	; 0x73
 8007342:	432a      	orrs	r2, r5
 8007344:	688d      	ldr	r5, [r1, #8]
 8007346:	f023 0302 	bic.w	r3, r3, #2
 800734a:	432b      	orrs	r3, r5
 800734c:	4d0a      	ldr	r5, [pc, #40]	; (8007378 <TIM_OC1_SetConfig+0x4c>)
 800734e:	42a8      	cmp	r0, r5
 8007350:	d10b      	bne.n	800736a <TIM_OC1_SetConfig+0x3e>
 8007352:	68cd      	ldr	r5, [r1, #12]
 8007354:	f023 0308 	bic.w	r3, r3, #8
 8007358:	432b      	orrs	r3, r5
 800735a:	f424 7440 	bic.w	r4, r4, #768	; 0x300
 800735e:	e9d1 5605 	ldrd	r5, r6, [r1, #20]
 8007362:	4335      	orrs	r5, r6
 8007364:	f023 0304 	bic.w	r3, r3, #4
 8007368:	432c      	orrs	r4, r5
 800736a:	6044      	str	r4, [r0, #4]
 800736c:	6182      	str	r2, [r0, #24]
 800736e:	684a      	ldr	r2, [r1, #4]
 8007370:	6342      	str	r2, [r0, #52]	; 0x34
 8007372:	6203      	str	r3, [r0, #32]
 8007374:	bd70      	pop	{r4, r5, r6, pc}
 8007376:	bf00      	nop
 8007378:	40012c00 	.word	0x40012c00

0800737c <TIM_OC3_SetConfig>:
 800737c:	6a03      	ldr	r3, [r0, #32]
 800737e:	b570      	push	{r4, r5, r6, lr}
 8007380:	f423 7380 	bic.w	r3, r3, #256	; 0x100
 8007384:	6203      	str	r3, [r0, #32]
 8007386:	6a03      	ldr	r3, [r0, #32]
 8007388:	6844      	ldr	r4, [r0, #4]
 800738a:	69c2      	ldr	r2, [r0, #28]
 800738c:	680d      	ldr	r5, [r1, #0]
 800738e:	f022 0273 	bic.w	r2, r2, #115	; 0x73
 8007392:	432a      	orrs	r2, r5
 8007394:	688d      	ldr	r5, [r1, #8]
 8007396:	f423 7300 	bic.w	r3, r3, #512	; 0x200
 800739a:	ea43 2305 	orr.w	r3, r3, r5, lsl #8
 800739e:	4d0b      	ldr	r5, [pc, #44]	; (80073cc <TIM_OC3_SetConfig+0x50>)
 80073a0:	42a8      	cmp	r0, r5
 80073a2:	d10d      	bne.n	80073c0 <TIM_OC3_SetConfig+0x44>
 80073a4:	68cd      	ldr	r5, [r1, #12]
 80073a6:	f423 6300 	bic.w	r3, r3, #2048	; 0x800
 80073aa:	ea43 2305 	orr.w	r3, r3, r5, lsl #8
 80073ae:	f424 5440 	bic.w	r4, r4, #12288	; 0x3000
 80073b2:	e9d1 5605 	ldrd	r5, r6, [r1, #20]
 80073b6:	4335      	orrs	r5, r6
 80073b8:	f423 6380 	bic.w	r3, r3, #1024	; 0x400
 80073bc:	ea44 1405 	orr.w	r4, r4, r5, lsl #4
 80073c0:	6044      	str	r4, [r0, #4]
 80073c2:	61c2      	str	r2, [r0, #28]
 80073c4:	684a      	ldr	r2, [r1, #4]
 80073c6:	63c2      	str	r2, [r0, #60]	; 0x3c
 80073c8:	6203      	str	r3, [r0, #32]
 80073ca:	bd70      	pop	{r4, r5, r6, pc}
 80073cc:	40012c00 	.word	0x40012c00

080073d0 <TIM_OC4_SetConfig>:
 80073d0:	6a03      	ldr	r3, [r0, #32]
 80073d2:	b530      	push	{r4, r5, lr}
 80073d4:	f423 5380 	bic.w	r3, r3, #4096	; 0x1000
 80073d8:	6203      	str	r3, [r0, #32]
 80073da:	6a03      	ldr	r3, [r0, #32]
 80073dc:	6844      	ldr	r4, [r0, #4]
 80073de:	69c2      	ldr	r2, [r0, #28]
 80073e0:	680d      	ldr	r5, [r1, #0]
 80073e2:	f422 42e6 	bic.w	r2, r2, #29440	; 0x7300
 80073e6:	ea42 2205 	orr.w	r2, r2, r5, lsl #8
 80073ea:	688d      	ldr	r5, [r1, #8]
 80073ec:	f423 5300 	bic.w	r3, r3, #8192	; 0x2000
 80073f0:	ea43 3305 	orr.w	r3, r3, r5, lsl #12
 80073f4:	4d06      	ldr	r5, [pc, #24]	; (8007410 <TIM_OC4_SetConfig+0x40>)
 80073f6:	42a8      	cmp	r0, r5
 80073f8:	bf02      	ittt	eq
 80073fa:	694d      	ldreq	r5, [r1, #20]
 80073fc:	f424 4480 	biceq.w	r4, r4, #16384	; 0x4000
 8007400:	ea44 1485 	orreq.w	r4, r4, r5, lsl #6
 8007404:	6044      	str	r4, [r0, #4]
 8007406:	61c2      	str	r2, [r0, #28]
 8007408:	684a      	ldr	r2, [r1, #4]
 800740a:	6402      	str	r2, [r0, #64]	; 0x40
 800740c:	6203      	str	r3, [r0, #32]
 800740e:	bd30      	pop	{r4, r5, pc}
 8007410:	40012c00 	.word	0x40012c00

08007414 <HAL_TIM_Base_Start_IT>:
 8007414:	f890 303d 	ldrb.w	r3, [r0, #61]	; 0x3d
 8007418:	2b01      	cmp	r3, #1
 800741a:	d120      	bne.n	800745e <HAL_TIM_Base_Start_IT+0x4a>
 800741c:	2302      	movs	r3, #2
 800741e:	f880 303d 	strb.w	r3, [r0, #61]	; 0x3d
 8007422:	6803      	ldr	r3, [r0, #0]
 8007424:	68da      	ldr	r2, [r3, #12]
 8007426:	f042 0201 	orr.w	r2, r2, #1
 800742a:	60da      	str	r2, [r3, #12]
 800742c:	4a0d      	ldr	r2, [pc, #52]	; (8007464 <HAL_TIM_Base_Start_IT+0x50>)
 800742e:	4293      	cmp	r3, r2
 8007430:	d00a      	beq.n	8007448 <HAL_TIM_Base_Start_IT+0x34>
 8007432:	f1b3 4f80 	cmp.w	r3, #1073741824	; 0x40000000
 8007436:	d007      	beq.n	8007448 <HAL_TIM_Base_Start_IT+0x34>
 8007438:	f5a2 3294 	sub.w	r2, r2, #75776	; 0x12800
 800743c:	4293      	cmp	r3, r2
 800743e:	d003      	beq.n	8007448 <HAL_TIM_Base_Start_IT+0x34>
 8007440:	f502 6280 	add.w	r2, r2, #1024	; 0x400
 8007444:	4293      	cmp	r3, r2
 8007446:	d104      	bne.n	8007452 <HAL_TIM_Base_Start_IT+0x3e>
 8007448:	689a      	ldr	r2, [r3, #8]
 800744a:	f002 0207 	and.w	r2, r2, #7
 800744e:	2a06      	cmp	r2, #6
 8007450:	d003      	beq.n	800745a <HAL_TIM_Base_Start_IT+0x46>
 8007452:	681a      	ldr	r2, [r3, #0]
 8007454:	f042 0201 	orr.w	r2, r2, #1
 8007458:	601a      	str	r2, [r3, #0]
 800745a:	2000      	movs	r0, #0
 800745c:	4770      	bx	lr
 800745e:	2001      	movs	r0, #1
 8007460:	4770      	bx	lr
 8007462:	bf00      	nop
 8007464:	40012c00 	.word	0x40012c00

08007468 <HAL_TIM_Base_Stop_IT>:
 8007468:	6803      	ldr	r3, [r0, #0]
 800746a:	68da      	ldr	r2, [r3, #12]
 800746c:	f022 0201 	bic.w	r2, r2, #1
 8007470:	60da      	str	r2, [r3, #12]
 8007472:	f241 1211 	movw	r2, #4369	; 0x1111
 8007476:	6a19      	ldr	r1, [r3, #32]
 8007478:	4211      	tst	r1, r2
 800747a:	d108      	bne.n	800748e <HAL_TIM_Base_Stop_IT+0x26>
 800747c:	f240 4244 	movw	r2, #1092	; 0x444
 8007480:	6a19      	ldr	r1, [r3, #32]
 8007482:	4211      	tst	r1, r2
 8007484:	bf02      	ittt	eq
 8007486:	681a      	ldreq	r2, [r3, #0]
 8007488:	f022 0201 	biceq.w	r2, r2, #1
 800748c:	601a      	streq	r2, [r3, #0]
 800748e:	2301      	movs	r3, #1
 8007490:	f880 303d 	strb.w	r3, [r0, #61]	; 0x3d
 8007494:	2000      	movs	r0, #0
 8007496:	4770      	bx	lr

08007498 <HAL_TIM_OC_MspInit>:
 8007498:	4770      	bx	lr

0800749a <HAL_TIM_IC_MspInit>:
 800749a:	4770      	bx	lr

0800749c <HAL_TIM_OnePulse_MspInit>:
 800749c:	4770      	bx	lr

0800749e <HAL_TIM_ReadCapturedValue>:
 800749e:	2908      	cmp	r1, #8
 80074a0:	d010      	beq.n	80074c4 <HAL_TIM_ReadCapturedValue+0x26>
 80074a2:	d804      	bhi.n	80074ae <HAL_TIM_ReadCapturedValue+0x10>
 80074a4:	b141      	cbz	r1, 80074b8 <HAL_TIM_ReadCapturedValue+0x1a>
 80074a6:	2904      	cmp	r1, #4
 80074a8:	d009      	beq.n	80074be <HAL_TIM_ReadCapturedValue+0x20>
 80074aa:	2000      	movs	r0, #0
 80074ac:	4770      	bx	lr
 80074ae:	290c      	cmp	r1, #12
 80074b0:	d1fb      	bne.n	80074aa <HAL_TIM_ReadCapturedValue+0xc>
 80074b2:	6803      	ldr	r3, [r0, #0]
 80074b4:	6c18      	ldr	r0, [r3, #64]	; 0x40
 80074b6:	4770      	bx	lr
 80074b8:	6803      	ldr	r3, [r0, #0]
 80074ba:	6b58      	ldr	r0, [r3, #52]	; 0x34
 80074bc:	4770      	bx	lr
 80074be:	6803      	ldr	r3, [r0, #0]
 80074c0:	6b98      	ldr	r0, [r3, #56]	; 0x38
 80074c2:	4770      	bx	lr
 80074c4:	6803      	ldr	r3, [r0, #0]
 80074c6:	6bd8      	ldr	r0, [r3, #60]	; 0x3c
 80074c8:	4770      	bx	lr

080074ca <HAL_TIM_PeriodElapsedCallback>:
 80074ca:	4770      	bx	lr

080074cc <HAL_TIM_OC_DelayElapsedCallback>:
 80074cc:	4770      	bx	lr

080074ce <HAL_TIM_PWM_PulseFinishedCallback>:
 80074ce:	4770      	bx	lr

080074d0 <HAL_TIM_TriggerCallback>:
 80074d0:	4770      	bx	lr

080074d2 <HAL_TIM_IRQHandler>:
 80074d2:	6803      	ldr	r3, [r0, #0]
 80074d4:	b510      	push	{r4, lr}
 80074d6:	691a      	ldr	r2, [r3, #16]
 80074d8:	4604      	mov	r4, r0
 80074da:	0791      	lsls	r1, r2, #30
 80074dc:	d50e      	bpl.n	80074fc <HAL_TIM_IRQHandler+0x2a>
 80074de:	68da      	ldr	r2, [r3, #12]
 80074e0:	0792      	lsls	r2, r2, #30
 80074e2:	d50b      	bpl.n	80074fc <HAL_TIM_IRQHandler+0x2a>
 80074e4:	f06f 0202 	mvn.w	r2, #2
 80074e8:	611a      	str	r2, [r3, #16]
 80074ea:	2201      	movs	r2, #1
 80074ec:	7702      	strb	r2, [r0, #28]
 80074ee:	699b      	ldr	r3, [r3, #24]
 80074f0:	079b      	lsls	r3, r3, #30
 80074f2:	d077      	beq.n	80075e4 <HAL_TIM_IRQHandler+0x112>
 80074f4:	f7fc fc72 	bl	8003ddc <HAL_TIM_IC_CaptureCallback>
 80074f8:	2300      	movs	r3, #0
 80074fa:	7723      	strb	r3, [r4, #28]
 80074fc:	6823      	ldr	r3, [r4, #0]
 80074fe:	691a      	ldr	r2, [r3, #16]
 8007500:	0750      	lsls	r0, r2, #29
 8007502:	d510      	bpl.n	8007526 <HAL_TIM_IRQHandler+0x54>
 8007504:	68da      	ldr	r2, [r3, #12]
 8007506:	0751      	lsls	r1, r2, #29
 8007508:	d50d      	bpl.n	8007526 <HAL_TIM_IRQHandler+0x54>
 800750a:	f06f 0204 	mvn.w	r2, #4
 800750e:	611a      	str	r2, [r3, #16]
 8007510:	2202      	movs	r2, #2
 8007512:	7722      	strb	r2, [r4, #28]
 8007514:	699b      	ldr	r3, [r3, #24]
 8007516:	4620      	mov	r0, r4
 8007518:	f413 7f40 	tst.w	r3, #768	; 0x300
 800751c:	d068      	beq.n	80075f0 <HAL_TIM_IRQHandler+0x11e>
 800751e:	f7fc fc5d 	bl	8003ddc <HAL_TIM_IC_CaptureCallback>
 8007522:	2300      	movs	r3, #0
 8007524:	7723      	strb	r3, [r4, #28]
 8007526:	6823      	ldr	r3, [r4, #0]
 8007528:	691a      	ldr	r2, [r3, #16]
 800752a:	0712      	lsls	r2, r2, #28
 800752c:	d50f      	bpl.n	800754e <HAL_TIM_IRQHandler+0x7c>
 800752e:	68da      	ldr	r2, [r3, #12]
 8007530:	0710      	lsls	r0, r2, #28
 8007532:	d50c      	bpl.n	800754e <HAL_TIM_IRQHandler+0x7c>
 8007534:	f06f 0208 	mvn.w	r2, #8
 8007538:	611a      	str	r2, [r3, #16]
 800753a:	2204      	movs	r2, #4
 800753c:	7722      	strb	r2, [r4, #28]
 800753e:	69db      	ldr	r3, [r3, #28]
 8007540:	4620      	mov	r0, r4
 8007542:	0799      	lsls	r1, r3, #30
 8007544:	d05a      	beq.n	80075fc <HAL_TIM_IRQHandler+0x12a>
 8007546:	f7fc fc49 	bl	8003ddc <HAL_TIM_IC_CaptureCallback>
 800754a:	2300      	movs	r3, #0
 800754c:	7723      	strb	r3, [r4, #28]
 800754e:	6823      	ldr	r3, [r4, #0]
 8007550:	691a      	ldr	r2, [r3, #16]
 8007552:	06d2      	lsls	r2, r2, #27
 8007554:	d510      	bpl.n	8007578 <HAL_TIM_IRQHandler+0xa6>
 8007556:	68da      	ldr	r2, [r3, #12]
 8007558:	06d0      	lsls	r0, r2, #27
 800755a:	d50d      	bpl.n	8007578 <HAL_TIM_IRQHandler+0xa6>
 800755c:	f06f 0210 	mvn.w	r2, #16
 8007560:	611a      	str	r2, [r3, #16]
 8007562:	2208      	movs	r2, #8
 8007564:	7722      	strb	r2, [r4, #28]
 8007566:	69db      	ldr	r3, [r3, #28]
 8007568:	4620      	mov	r0, r4
 800756a:	f413 7f40 	tst.w	r3, #768	; 0x300
 800756e:	d04b      	beq.n	8007608 <HAL_TIM_IRQHandler+0x136>
 8007570:	f7fc fc34 	bl	8003ddc <HAL_TIM_IC_CaptureCallback>
 8007574:	2300      	movs	r3, #0
 8007576:	7723      	strb	r3, [r4, #28]
 8007578:	6823      	ldr	r3, [r4, #0]
 800757a:	691a      	ldr	r2, [r3, #16]
 800757c:	07d1      	lsls	r1, r2, #31
 800757e:	d508      	bpl.n	8007592 <HAL_TIM_IRQHandler+0xc0>
 8007580:	68da      	ldr	r2, [r3, #12]
 8007582:	07d2      	lsls	r2, r2, #31
 8007584:	d505      	bpl.n	8007592 <HAL_TIM_IRQHandler+0xc0>
 8007586:	f06f 0201 	mvn.w	r2, #1
 800758a:	4620      	mov	r0, r4
 800758c:	611a      	str	r2, [r3, #16]
 800758e:	f7ff ff9c 	bl	80074ca <HAL_TIM_PeriodElapsedCallback>
 8007592:	6823      	ldr	r3, [r4, #0]
 8007594:	691a      	ldr	r2, [r3, #16]
 8007596:	0610      	lsls	r0, r2, #24
 8007598:	d508      	bpl.n	80075ac <HAL_TIM_IRQHandler+0xda>
 800759a:	68da      	ldr	r2, [r3, #12]
 800759c:	0611      	lsls	r1, r2, #24
 800759e:	d505      	bpl.n	80075ac <HAL_TIM_IRQHandler+0xda>
 80075a0:	f06f 0280 	mvn.w	r2, #128	; 0x80
 80075a4:	4620      	mov	r0, r4
 80075a6:	611a      	str	r2, [r3, #16]
 80075a8:	f000 fcdf 	bl	8007f6a <HAL_TIMEx_BreakCallback>
 80075ac:	6823      	ldr	r3, [r4, #0]
 80075ae:	691a      	ldr	r2, [r3, #16]
 80075b0:	0652      	lsls	r2, r2, #25
 80075b2:	d508      	bpl.n	80075c6 <HAL_TIM_IRQHandler+0xf4>
 80075b4:	68da      	ldr	r2, [r3, #12]
 80075b6:	0650      	lsls	r0, r2, #25
 80075b8:	d505      	bpl.n	80075c6 <HAL_TIM_IRQHandler+0xf4>
 80075ba:	f06f 0240 	mvn.w	r2, #64	; 0x40
 80075be:	4620      	mov	r0, r4
 80075c0:	611a      	str	r2, [r3, #16]
 80075c2:	f7ff ff85 	bl	80074d0 <HAL_TIM_TriggerCallback>
 80075c6:	6823      	ldr	r3, [r4, #0]
 80075c8:	691a      	ldr	r2, [r3, #16]
 80075ca:	0691      	lsls	r1, r2, #26
 80075cc:	d522      	bpl.n	8007614 <HAL_TIM_IRQHandler+0x142>
 80075ce:	68da      	ldr	r2, [r3, #12]
 80075d0:	0692      	lsls	r2, r2, #26
 80075d2:	d51f      	bpl.n	8007614 <HAL_TIM_IRQHandler+0x142>
 80075d4:	f06f 0220 	mvn.w	r2, #32
 80075d8:	4620      	mov	r0, r4
 80075da:	e8bd 4010 	ldmia.w	sp!, {r4, lr}
 80075de:	611a      	str	r2, [r3, #16]
 80075e0:	f000 bcc2 	b.w	8007f68 <HAL_TIMEx_CommutCallback>
 80075e4:	f7ff ff72 	bl	80074cc <HAL_TIM_OC_DelayElapsedCallback>
 80075e8:	4620      	mov	r0, r4
 80075ea:	f7ff ff70 	bl	80074ce <HAL_TIM_PWM_PulseFinishedCallback>
 80075ee:	e783      	b.n	80074f8 <HAL_TIM_IRQHandler+0x26>
 80075f0:	f7ff ff6c 	bl	80074cc <HAL_TIM_OC_DelayElapsedCallback>
 80075f4:	4620      	mov	r0, r4
 80075f6:	f7ff ff6a 	bl	80074ce <HAL_TIM_PWM_PulseFinishedCallback>
 80075fa:	e792      	b.n	8007522 <HAL_TIM_IRQHandler+0x50>
 80075fc:	f7ff ff66 	bl	80074cc <HAL_TIM_OC_DelayElapsedCallback>
 8007600:	4620      	mov	r0, r4
 8007602:	f7ff ff64 	bl	80074ce <HAL_TIM_PWM_PulseFinishedCallback>
 8007606:	e7a0      	b.n	800754a <HAL_TIM_IRQHandler+0x78>
 8007608:	f7ff ff60 	bl	80074cc <HAL_TIM_OC_DelayElapsedCallback>
 800760c:	4620      	mov	r0, r4
 800760e:	f7ff ff5e 	bl	80074ce <HAL_TIM_PWM_PulseFinishedCallback>
 8007612:	e7af      	b.n	8007574 <HAL_TIM_IRQHandler+0xa2>
 8007614:	bd10      	pop	{r4, pc}
	...

08007618 <TIM_Base_SetConfig>:
 8007618:	4a1a      	ldr	r2, [pc, #104]	; (8007684 <TIM_Base_SetConfig+0x6c>)
 800761a:	6803      	ldr	r3, [r0, #0]
 800761c:	4290      	cmp	r0, r2
 800761e:	d00a      	beq.n	8007636 <TIM_Base_SetConfig+0x1e>
 8007620:	f1b0 4f80 	cmp.w	r0, #1073741824	; 0x40000000
 8007624:	d007      	beq.n	8007636 <TIM_Base_SetConfig+0x1e>
 8007626:	f5a2 3294 	sub.w	r2, r2, #75776	; 0x12800
 800762a:	4290      	cmp	r0, r2
 800762c:	d003      	beq.n	8007636 <TIM_Base_SetConfig+0x1e>
 800762e:	f502 6280 	add.w	r2, r2, #1024	; 0x400
 8007632:	4290      	cmp	r0, r2
 8007634:	d115      	bne.n	8007662 <TIM_Base_SetConfig+0x4a>
 8007636:	684a      	ldr	r2, [r1, #4]
 8007638:	f023 0370 	bic.w	r3, r3, #112	; 0x70
 800763c:	4313      	orrs	r3, r2
 800763e:	4a11      	ldr	r2, [pc, #68]	; (8007684 <TIM_Base_SetConfig+0x6c>)
 8007640:	4290      	cmp	r0, r2
 8007642:	d00a      	beq.n	800765a <TIM_Base_SetConfig+0x42>
 8007644:	f1b0 4f80 	cmp.w	r0, #1073741824	; 0x40000000
 8007648:	d007      	beq.n	800765a <TIM_Base_SetConfig+0x42>
 800764a:	f5a2 3294 	sub.w	r2, r2, #75776	; 0x12800
 800764e:	4290      	cmp	r0, r2
 8007650:	d003      	beq.n	800765a <TIM_Base_SetConfig+0x42>
 8007652:	f502 6280 	add.w	r2, r2, #1024	; 0x400
 8007656:	4290      	cmp	r0, r2
 8007658:	d103      	bne.n	8007662 <TIM_Base_SetConfig+0x4a>
 800765a:	68ca      	ldr	r2, [r1, #12]
 800765c:	f423 7340 	bic.w	r3, r3, #768	; 0x300
 8007660:	4313      	orrs	r3, r2
 8007662:	694a      	ldr	r2, [r1, #20]
 8007664:	f023 0380 	bic.w	r3, r3, #128	; 0x80
 8007668:	4313      	orrs	r3, r2
 800766a:	6003      	str	r3, [r0, #0]
 800766c:	688b      	ldr	r3, [r1, #8]
 800766e:	62c3      	str	r3, [r0, #44]	; 0x2c
 8007670:	680b      	ldr	r3, [r1, #0]
 8007672:	6283      	str	r3, [r0, #40]	; 0x28
 8007674:	4b03      	ldr	r3, [pc, #12]	; (8007684 <TIM_Base_SetConfig+0x6c>)
 8007676:	4298      	cmp	r0, r3
 8007678:	bf04      	itt	eq
 800767a:	690b      	ldreq	r3, [r1, #16]
 800767c:	6303      	streq	r3, [r0, #48]	; 0x30
 800767e:	2301      	movs	r3, #1
 8007680:	6143      	str	r3, [r0, #20]
 8007682:	4770      	bx	lr
 8007684:	40012c00 	.word	0x40012c00

08007688 <HAL_TIM_Base_Init>:
 8007688:	b510      	push	{r4, lr}
 800768a:	4604      	mov	r4, r0
 800768c:	b330      	cbz	r0, 80076dc <HAL_TIM_Base_Init+0x54>
 800768e:	f890 303d 	ldrb.w	r3, [r0, #61]	; 0x3d
 8007692:	f003 02ff 	and.w	r2, r3, #255	; 0xff
 8007696:	b91b      	cbnz	r3, 80076a0 <HAL_TIM_Base_Init+0x18>
 8007698:	f880 203c 	strb.w	r2, [r0, #60]	; 0x3c
 800769c:	f7fd f860 	bl	8004760 <HAL_TIM_Base_MspInit>
 80076a0:	2302      	movs	r3, #2
 80076a2:	6820      	ldr	r0, [r4, #0]
 80076a4:	f884 303d 	strb.w	r3, [r4, #61]	; 0x3d
 80076a8:	1d21      	adds	r1, r4, #4
 80076aa:	f7ff ffb5 	bl	8007618 <TIM_Base_SetConfig>
 80076ae:	2301      	movs	r3, #1
 80076b0:	2000      	movs	r0, #0
 80076b2:	f884 3046 	strb.w	r3, [r4, #70]	; 0x46
 80076b6:	f884 303e 	strb.w	r3, [r4, #62]	; 0x3e
 80076ba:	f884 303f 	strb.w	r3, [r4, #63]	; 0x3f
 80076be:	f884 3040 	strb.w	r3, [r4, #64]	; 0x40
 80076c2:	f884 3041 	strb.w	r3, [r4, #65]	; 0x41
 80076c6:	f884 3042 	strb.w	r3, [r4, #66]	; 0x42
 80076ca:	f884 3043 	strb.w	r3, [r4, #67]	; 0x43
 80076ce:	f884 3044 	strb.w	r3, [r4, #68]	; 0x44
 80076d2:	f884 3045 	strb.w	r3, [r4, #69]	; 0x45
 80076d6:	f884 303d 	strb.w	r3, [r4, #61]	; 0x3d
 80076da:	bd10      	pop	{r4, pc}
 80076dc:	2001      	movs	r0, #1
 80076de:	e7fc      	b.n	80076da <HAL_TIM_Base_Init+0x52>

080076e0 <HAL_TIM_OC_Init>:
 80076e0:	b510      	push	{r4, lr}
 80076e2:	4604      	mov	r4, r0
 80076e4:	b330      	cbz	r0, 8007734 <HAL_TIM_OC_Init+0x54>
 80076e6:	f890 303d 	ldrb.w	r3, [r0, #61]	; 0x3d
 80076ea:	f003 02ff 	and.w	r2, r3, #255	; 0xff
 80076ee:	b91b      	cbnz	r3, 80076f8 <HAL_TIM_OC_Init+0x18>
 80076f0:	f880 203c 	strb.w	r2, [r0, #60]	; 0x3c
 80076f4:	f7ff fed0 	bl	8007498 <HAL_TIM_OC_MspInit>
 80076f8:	2302      	movs	r3, #2
 80076fa:	6820      	ldr	r0, [r4, #0]
 80076fc:	f884 303d 	strb.w	r3, [r4, #61]	; 0x3d
 8007700:	1d21      	adds	r1, r4, #4
 8007702:	f7ff ff89 	bl	8007618 <TIM_Base_SetConfig>
 8007706:	2301      	movs	r3, #1
 8007708:	2000      	movs	r0, #0
 800770a:	f884 3046 	strb.w	r3, [r4, #70]	; 0x46
 800770e:	f884 303e 	strb.w	r3, [r4, #62]	; 0x3e
 8007712:	f884 303f 	strb.w	r3, [r4, #63]	; 0x3f
 8007716:	f884 3040 	strb.w	r3, [r4, #64]	; 0x40
 800771a:	f884 3041 	strb.w	r3, [r4, #65]	; 0x41
 800771e:	f884 3042 	strb.w	r3, [r4, #66]	; 0x42
 8007722:	f884 3043 	strb.w	r3, [r4, #67]	; 0x43
 8007726:	f884 3044 	strb.w	r3, [r4, #68]	; 0x44
 800772a:	f884 3045 	strb.w	r3, [r4, #69]	; 0x45
 800772e:	f884 303d 	strb.w	r3, [r4, #61]	; 0x3d
 8007732:	bd10      	pop	{r4, pc}
 8007734:	2001      	movs	r0, #1
 8007736:	e7fc      	b.n	8007732 <HAL_TIM_OC_Init+0x52>

08007738 <HAL_TIM_IC_Init>:
 8007738:	b510      	push	{r4, lr}
 800773a:	4604      	mov	r4, r0
 800773c:	b330      	cbz	r0, 800778c <HAL_TIM_IC_Init+0x54>
 800773e:	f890 303d 	ldrb.w	r3, [r0, #61]	; 0x3d
 8007742:	f003 02ff 	and.w	r2, r3, #255	; 0xff
 8007746:	b91b      	cbnz	r3, 8007750 <HAL_TIM_IC_Init+0x18>
 8007748:	f880 203c 	strb.w	r2, [r0, #60]	; 0x3c
 800774c:	f7ff fea5 	bl	800749a <HAL_TIM_IC_MspInit>
 8007750:	2302      	movs	r3, #2
 8007752:	6820      	ldr	r0, [r4, #0]
 8007754:	f884 303d 	strb.w	r3, [r4, #61]	; 0x3d
 8007758:	1d21      	adds	r1, r4, #4
 800775a:	f7ff ff5d 	bl	8007618 <TIM_Base_SetConfig>
 800775e:	2301      	movs	r3, #1
 8007760:	2000      	movs	r0, #0
 8007762:	f884 3046 	strb.w	r3, [r4, #70]	; 0x46
 8007766:	f884 303e 	strb.w	r3, [r4, #62]	; 0x3e
 800776a:	f884 303f 	strb.w	r3, [r4, #63]	; 0x3f
 800776e:	f884 3040 	strb.w	r3, [r4, #64]	; 0x40
 8007772:	f884 3041 	strb.w	r3, [r4, #65]	; 0x41
 8007776:	f884 3042 	strb.w	r3, [r4, #66]	; 0x42
 800777a:	f884 3043 	strb.w	r3, [r4, #67]	; 0x43
 800777e:	f884 3044 	strb.w	r3, [r4, #68]	; 0x44
 8007782:	f884 3045 	strb.w	r3, [r4, #69]	; 0x45
 8007786:	f884 303d 	strb.w	r3, [r4, #61]	; 0x3d
 800778a:	bd10      	pop	{r4, pc}
 800778c:	2001      	movs	r0, #1
 800778e:	e7fc      	b.n	800778a <HAL_TIM_IC_Init+0x52>

08007790 <HAL_TIM_OnePulse_Init>:
 8007790:	b538      	push	{r3, r4, r5, lr}
 8007792:	460d      	mov	r5, r1
 8007794:	4604      	mov	r4, r0
 8007796:	b330      	cbz	r0, 80077e6 <HAL_TIM_OnePulse_Init+0x56>
 8007798:	f890 303d 	ldrb.w	r3, [r0, #61]	; 0x3d
 800779c:	f003 02ff 	and.w	r2, r3, #255	; 0xff
 80077a0:	b91b      	cbnz	r3, 80077aa <HAL_TIM_OnePulse_Init+0x1a>
 80077a2:	f880 203c 	strb.w	r2, [r0, #60]	; 0x3c
 80077a6:	f7ff fe79 	bl	800749c <HAL_TIM_OnePulse_MspInit>
 80077aa:	2302      	movs	r3, #2
 80077ac:	6820      	ldr	r0, [r4, #0]
 80077ae:	f884 303d 	strb.w	r3, [r4, #61]	; 0x3d
 80077b2:	1d21      	adds	r1, r4, #4
 80077b4:	f7ff ff30 	bl	8007618 <TIM_Base_SetConfig>
 80077b8:	6823      	ldr	r3, [r4, #0]
 80077ba:	2000      	movs	r0, #0
 80077bc:	681a      	ldr	r2, [r3, #0]
 80077be:	f022 0208 	bic.w	r2, r2, #8
 80077c2:	601a      	str	r2, [r3, #0]
 80077c4:	681a      	ldr	r2, [r3, #0]
 80077c6:	432a      	orrs	r2, r5
 80077c8:	601a      	str	r2, [r3, #0]
 80077ca:	2301      	movs	r3, #1
 80077cc:	f884 3046 	strb.w	r3, [r4, #70]	; 0x46
 80077d0:	f884 303e 	strb.w	r3, [r4, #62]	; 0x3e
 80077d4:	f884 303f 	strb.w	r3, [r4, #63]	; 0x3f
 80077d8:	f884 3042 	strb.w	r3, [r4, #66]	; 0x42
 80077dc:	f884 3043 	strb.w	r3, [r4, #67]	; 0x43
 80077e0:	f884 303d 	strb.w	r3, [r4, #61]	; 0x3d
 80077e4:	bd38      	pop	{r3, r4, r5, pc}
 80077e6:	2001      	movs	r0, #1
 80077e8:	e7fc      	b.n	80077e4 <HAL_TIM_OnePulse_Init+0x54>
	...

080077ec <TIM_OC2_SetConfig>:
 80077ec:	6a03      	ldr	r3, [r0, #32]
 80077ee:	b570      	push	{r4, r5, r6, lr}
 80077f0:	f023 0310 	bic.w	r3, r3, #16
 80077f4:	6203      	str	r3, [r0, #32]
 80077f6:	6a03      	ldr	r3, [r0, #32]
 80077f8:	6844      	ldr	r4, [r0, #4]
 80077fa:	6982      	ldr	r2, [r0, #24]
 80077fc:	680d      	ldr	r5, [r1, #0]
 80077fe:	f422 42e6 	bic.w	r2, r2, #29440	; 0x7300
 8007802:	ea42 2205 	orr.w	r2, r2, r5, lsl #8
 8007806:	688d      	ldr	r5, [r1, #8]
 8007808:	f023 0320 	bic.w	r3, r3, #32
 800780c:	ea43 1305 	orr.w	r3, r3, r5, lsl #4
 8007810:	4d0b      	ldr	r5, [pc, #44]	; (8007840 <TIM_OC2_SetConfig+0x54>)
 8007812:	42a8      	cmp	r0, r5
 8007814:	d10d      	bne.n	8007832 <TIM_OC2_SetConfig+0x46>
 8007816:	68cd      	ldr	r5, [r1, #12]
 8007818:	f023 0380 	bic.w	r3, r3, #128	; 0x80
 800781c:	ea43 1305 	orr.w	r3, r3, r5, lsl #4
 8007820:	f424 6440 	bic.w	r4, r4, #3072	; 0xc00
 8007824:	e9d1 5605 	ldrd	r5, r6, [r1, #20]
 8007828:	4335      	orrs	r5, r6
 800782a:	f023 0340 	bic.w	r3, r3, #64	; 0x40
 800782e:	ea44 0485 	orr.w	r4, r4, r5, lsl #2
 8007832:	6044      	str	r4, [r0, #4]
 8007834:	6182      	str	r2, [r0, #24]
 8007836:	684a      	ldr	r2, [r1, #4]
 8007838:	6382      	str	r2, [r0, #56]	; 0x38
 800783a:	6203      	str	r3, [r0, #32]
 800783c:	bd70      	pop	{r4, r5, r6, pc}
 800783e:	bf00      	nop
 8007840:	40012c00 	.word	0x40012c00

08007844 <HAL_TIM_OC_ConfigChannel>:
 8007844:	b510      	push	{r4, lr}
 8007846:	f890 303c 	ldrb.w	r3, [r0, #60]	; 0x3c
 800784a:	4604      	mov	r4, r0
 800784c:	2b01      	cmp	r3, #1
 800784e:	d01e      	beq.n	800788e <HAL_TIM_OC_ConfigChannel+0x4a>
 8007850:	2301      	movs	r3, #1
 8007852:	2a08      	cmp	r2, #8
 8007854:	f880 303c 	strb.w	r3, [r0, #60]	; 0x3c
 8007858:	d015      	beq.n	8007886 <HAL_TIM_OC_ConfigChannel+0x42>
 800785a:	d806      	bhi.n	800786a <HAL_TIM_OC_ConfigChannel+0x26>
 800785c:	b15a      	cbz	r2, 8007876 <HAL_TIM_OC_ConfigChannel+0x32>
 800785e:	2a04      	cmp	r2, #4
 8007860:	d00d      	beq.n	800787e <HAL_TIM_OC_ConfigChannel+0x3a>
 8007862:	2000      	movs	r0, #0
 8007864:	f884 003c 	strb.w	r0, [r4, #60]	; 0x3c
 8007868:	bd10      	pop	{r4, pc}
 800786a:	2a0c      	cmp	r2, #12
 800786c:	d1f9      	bne.n	8007862 <HAL_TIM_OC_ConfigChannel+0x1e>
 800786e:	6800      	ldr	r0, [r0, #0]
 8007870:	f7ff fdae 	bl	80073d0 <TIM_OC4_SetConfig>
 8007874:	e7f5      	b.n	8007862 <HAL_TIM_OC_ConfigChannel+0x1e>
 8007876:	6800      	ldr	r0, [r0, #0]
 8007878:	f7ff fd58 	bl	800732c <TIM_OC1_SetConfig>
 800787c:	e7f1      	b.n	8007862 <HAL_TIM_OC_ConfigChannel+0x1e>
 800787e:	6800      	ldr	r0, [r0, #0]
 8007880:	f7ff ffb4 	bl	80077ec <TIM_OC2_SetConfig>
 8007884:	e7ed      	b.n	8007862 <HAL_TIM_OC_ConfigChannel+0x1e>
 8007886:	6800      	ldr	r0, [r0, #0]
 8007888:	f7ff fd78 	bl	800737c <TIM_OC3_SetConfig>
 800788c:	e7e9      	b.n	8007862 <HAL_TIM_OC_ConfigChannel+0x1e>
 800788e:	2002      	movs	r0, #2
 8007890:	e7ea      	b.n	8007868 <HAL_TIM_OC_ConfigChannel+0x24>
	...

08007894 <TIM_TI1_SetConfig>:
 8007894:	b570      	push	{r4, r5, r6, lr}
 8007896:	6a04      	ldr	r4, [r0, #32]
 8007898:	4e12      	ldr	r6, [pc, #72]	; (80078e4 <TIM_TI1_SetConfig+0x50>)
 800789a:	f024 0401 	bic.w	r4, r4, #1
 800789e:	6204      	str	r4, [r0, #32]
 80078a0:	42b0      	cmp	r0, r6
 80078a2:	6984      	ldr	r4, [r0, #24]
 80078a4:	6a05      	ldr	r5, [r0, #32]
 80078a6:	d019      	beq.n	80078dc <TIM_TI1_SetConfig+0x48>
 80078a8:	f1b0 4f80 	cmp.w	r0, #1073741824	; 0x40000000
 80078ac:	d016      	beq.n	80078dc <TIM_TI1_SetConfig+0x48>
 80078ae:	f5a6 3694 	sub.w	r6, r6, #75776	; 0x12800
 80078b2:	42b0      	cmp	r0, r6
 80078b4:	d012      	beq.n	80078dc <TIM_TI1_SetConfig+0x48>
 80078b6:	f506 6680 	add.w	r6, r6, #1024	; 0x400
 80078ba:	42b0      	cmp	r0, r6
 80078bc:	d00e      	beq.n	80078dc <TIM_TI1_SetConfig+0x48>
 80078be:	f044 0201 	orr.w	r2, r4, #1
 80078c2:	011b      	lsls	r3, r3, #4
 80078c4:	f022 02f0 	bic.w	r2, r2, #240	; 0xf0
 80078c8:	b2db      	uxtb	r3, r3
 80078ca:	4313      	orrs	r3, r2
 80078cc:	f001 010a 	and.w	r1, r1, #10
 80078d0:	f025 020a 	bic.w	r2, r5, #10
 80078d4:	4311      	orrs	r1, r2
 80078d6:	6183      	str	r3, [r0, #24]
 80078d8:	6201      	str	r1, [r0, #32]
 80078da:	bd70      	pop	{r4, r5, r6, pc}
 80078dc:	f024 0403 	bic.w	r4, r4, #3
 80078e0:	4322      	orrs	r2, r4
 80078e2:	e7ee      	b.n	80078c2 <TIM_TI1_SetConfig+0x2e>
 80078e4:	40012c00 	.word	0x40012c00

080078e8 <HAL_TIM_IC_ConfigChannel>:
 80078e8:	b5f8      	push	{r3, r4, r5, r6, r7, lr}
 80078ea:	f890 303c 	ldrb.w	r3, [r0, #60]	; 0x3c
 80078ee:	4604      	mov	r4, r0
 80078f0:	2b01      	cmp	r3, #1
 80078f2:	460e      	mov	r6, r1
 80078f4:	4615      	mov	r5, r2
 80078f6:	d079      	beq.n	80079ec <HAL_TIM_IC_ConfigChannel+0x104>
 80078f8:	2301      	movs	r3, #1
 80078fa:	f880 303c 	strb.w	r3, [r0, #60]	; 0x3c
 80078fe:	68f3      	ldr	r3, [r6, #12]
 8007900:	6800      	ldr	r0, [r0, #0]
 8007902:	c906      	ldmia	r1, {r1, r2}
 8007904:	b975      	cbnz	r5, 8007924 <HAL_TIM_IC_ConfigChannel+0x3c>
 8007906:	f7ff ffc5 	bl	8007894 <TIM_TI1_SetConfig>
 800790a:	6823      	ldr	r3, [r4, #0]
 800790c:	68b1      	ldr	r1, [r6, #8]
 800790e:	699a      	ldr	r2, [r3, #24]
 8007910:	f022 020c 	bic.w	r2, r2, #12
 8007914:	619a      	str	r2, [r3, #24]
 8007916:	699a      	ldr	r2, [r3, #24]
 8007918:	430a      	orrs	r2, r1
 800791a:	619a      	str	r2, [r3, #24]
 800791c:	2000      	movs	r0, #0
 800791e:	f884 003c 	strb.w	r0, [r4, #60]	; 0x3c
 8007922:	bdf8      	pop	{r3, r4, r5, r6, r7, pc}
 8007924:	2d04      	cmp	r5, #4
 8007926:	68b6      	ldr	r6, [r6, #8]
 8007928:	d122      	bne.n	8007970 <HAL_TIM_IC_ConfigChannel+0x88>
 800792a:	6a05      	ldr	r5, [r0, #32]
 800792c:	0109      	lsls	r1, r1, #4
 800792e:	f025 0510 	bic.w	r5, r5, #16
 8007932:	6205      	str	r5, [r0, #32]
 8007934:	6987      	ldr	r7, [r0, #24]
 8007936:	f8d0 e020 	ldr.w	lr, [r0, #32]
 800793a:	f427 7c40 	bic.w	ip, r7, #768	; 0x300
 800793e:	031d      	lsls	r5, r3, #12
 8007940:	ea4c 2c02 	orr.w	ip, ip, r2, lsl #8
 8007944:	f42c 4c70 	bic.w	ip, ip, #61440	; 0xf000
 8007948:	b2ad      	uxth	r5, r5
 800794a:	f02e 0ea0 	bic.w	lr, lr, #160	; 0xa0
 800794e:	f001 01a0 	and.w	r1, r1, #160	; 0xa0
 8007952:	ea45 050c 	orr.w	r5, r5, ip
 8007956:	ea41 010e 	orr.w	r1, r1, lr
 800795a:	6185      	str	r5, [r0, #24]
 800795c:	6201      	str	r1, [r0, #32]
 800795e:	6983      	ldr	r3, [r0, #24]
 8007960:	f423 6340 	bic.w	r3, r3, #3072	; 0xc00
 8007964:	6183      	str	r3, [r0, #24]
 8007966:	6983      	ldr	r3, [r0, #24]
 8007968:	ea43 2606 	orr.w	r6, r3, r6, lsl #8
 800796c:	6186      	str	r6, [r0, #24]
 800796e:	e7d5      	b.n	800791c <HAL_TIM_IC_ConfigChannel+0x34>
 8007970:	2d08      	cmp	r5, #8
 8007972:	6a05      	ldr	r5, [r0, #32]
 8007974:	d11c      	bne.n	80079b0 <HAL_TIM_IC_ConfigChannel+0xc8>
 8007976:	f425 7580 	bic.w	r5, r5, #256	; 0x100
 800797a:	6205      	str	r5, [r0, #32]
 800797c:	69c7      	ldr	r7, [r0, #28]
 800797e:	6a05      	ldr	r5, [r0, #32]
 8007980:	f027 0703 	bic.w	r7, r7, #3
 8007984:	4317      	orrs	r7, r2
 8007986:	011b      	lsls	r3, r3, #4
 8007988:	0209      	lsls	r1, r1, #8
 800798a:	b2db      	uxtb	r3, r3
 800798c:	f027 07f0 	bic.w	r7, r7, #240	; 0xf0
 8007990:	f425 7500 	bic.w	r5, r5, #512	; 0x200
 8007994:	f401 7100 	and.w	r1, r1, #512	; 0x200
 8007998:	431f      	orrs	r7, r3
 800799a:	4329      	orrs	r1, r5
 800799c:	61c7      	str	r7, [r0, #28]
 800799e:	6201      	str	r1, [r0, #32]
 80079a0:	69c3      	ldr	r3, [r0, #28]
 80079a2:	f023 030c 	bic.w	r3, r3, #12
 80079a6:	61c3      	str	r3, [r0, #28]
 80079a8:	69c3      	ldr	r3, [r0, #28]
 80079aa:	431e      	orrs	r6, r3
 80079ac:	61c6      	str	r6, [r0, #28]
 80079ae:	e7b5      	b.n	800791c <HAL_TIM_IC_ConfigChannel+0x34>
 80079b0:	f425 5580 	bic.w	r5, r5, #4096	; 0x1000
 80079b4:	6205      	str	r5, [r0, #32]
 80079b6:	69c5      	ldr	r5, [r0, #28]
 80079b8:	6a07      	ldr	r7, [r0, #32]
 80079ba:	f425 7540 	bic.w	r5, r5, #768	; 0x300
 80079be:	ea45 2502 	orr.w	r5, r5, r2, lsl #8
 80079c2:	031b      	lsls	r3, r3, #12
 80079c4:	0309      	lsls	r1, r1, #12
 80079c6:	f425 4570 	bic.w	r5, r5, #61440	; 0xf000
 80079ca:	b29b      	uxth	r3, r3
 80079cc:	f427 5700 	bic.w	r7, r7, #8192	; 0x2000
 80079d0:	f401 5100 	and.w	r1, r1, #8192	; 0x2000
 80079d4:	432b      	orrs	r3, r5
 80079d6:	4339      	orrs	r1, r7
 80079d8:	61c3      	str	r3, [r0, #28]
 80079da:	6201      	str	r1, [r0, #32]
 80079dc:	69c3      	ldr	r3, [r0, #28]
 80079de:	f423 6340 	bic.w	r3, r3, #3072	; 0xc00
 80079e2:	61c3      	str	r3, [r0, #28]
 80079e4:	69c3      	ldr	r3, [r0, #28]
 80079e6:	ea43 2606 	orr.w	r6, r3, r6, lsl #8
 80079ea:	e7df      	b.n	80079ac <HAL_TIM_IC_ConfigChannel+0xc4>
 80079ec:	2002      	movs	r0, #2
 80079ee:	e798      	b.n	8007922 <HAL_TIM_IC_ConfigChannel+0x3a>

080079f0 <TIM_ETR_SetConfig>:
 80079f0:	b510      	push	{r4, lr}
 80079f2:	6884      	ldr	r4, [r0, #8]
 80079f4:	430a      	orrs	r2, r1
 80079f6:	f424 447f 	bic.w	r4, r4, #65280	; 0xff00
 80079fa:	ea42 2203 	orr.w	r2, r2, r3, lsl #8
 80079fe:	4322      	orrs	r2, r4
 8007a00:	6082      	str	r2, [r0, #8]
 8007a02:	bd10      	pop	{r4, pc}

08007a04 <HAL_TIM_ConfigClockSource>:
 8007a04:	b570      	push	{r4, r5, r6, lr}
 8007a06:	f890 303c 	ldrb.w	r3, [r0, #60]	; 0x3c
 8007a0a:	4604      	mov	r4, r0
 8007a0c:	2b01      	cmp	r3, #1
 8007a0e:	f04f 0002 	mov.w	r0, #2
 8007a12:	d027      	beq.n	8007a64 <HAL_TIM_ConfigClockSource+0x60>
 8007a14:	2301      	movs	r3, #1
 8007a16:	f884 003d 	strb.w	r0, [r4, #61]	; 0x3d
 8007a1a:	6820      	ldr	r0, [r4, #0]
 8007a1c:	f884 303c 	strb.w	r3, [r4, #60]	; 0x3c
 8007a20:	6883      	ldr	r3, [r0, #8]
 8007a22:	f423 437f 	bic.w	r3, r3, #65280	; 0xff00
 8007a26:	f023 0377 	bic.w	r3, r3, #119	; 0x77
 8007a2a:	6083      	str	r3, [r0, #8]
 8007a2c:	680b      	ldr	r3, [r1, #0]
 8007a2e:	2b60      	cmp	r3, #96	; 0x60
 8007a30:	d04d      	beq.n	8007ace <HAL_TIM_ConfigClockSource+0xca>
 8007a32:	d832      	bhi.n	8007a9a <HAL_TIM_ConfigClockSource+0x96>
 8007a34:	2b40      	cmp	r3, #64	; 0x40
 8007a36:	d062      	beq.n	8007afe <HAL_TIM_ConfigClockSource+0xfa>
 8007a38:	d815      	bhi.n	8007a66 <HAL_TIM_ConfigClockSource+0x62>
 8007a3a:	2b20      	cmp	r3, #32
 8007a3c:	d003      	beq.n	8007a46 <HAL_TIM_ConfigClockSource+0x42>
 8007a3e:	d809      	bhi.n	8007a54 <HAL_TIM_ConfigClockSource+0x50>
 8007a40:	f033 0210 	bics.w	r2, r3, #16
 8007a44:	d108      	bne.n	8007a58 <HAL_TIM_ConfigClockSource+0x54>
 8007a46:	6882      	ldr	r2, [r0, #8]
 8007a48:	f022 0270 	bic.w	r2, r2, #112	; 0x70
 8007a4c:	4313      	orrs	r3, r2
 8007a4e:	f043 0307 	orr.w	r3, r3, #7
 8007a52:	e020      	b.n	8007a96 <HAL_TIM_ConfigClockSource+0x92>
 8007a54:	2b30      	cmp	r3, #48	; 0x30
 8007a56:	d0f6      	beq.n	8007a46 <HAL_TIM_ConfigClockSource+0x42>
 8007a58:	2301      	movs	r3, #1
 8007a5a:	2000      	movs	r0, #0
 8007a5c:	f884 303d 	strb.w	r3, [r4, #61]	; 0x3d
 8007a60:	f884 003c 	strb.w	r0, [r4, #60]	; 0x3c
 8007a64:	bd70      	pop	{r4, r5, r6, pc}
 8007a66:	2b50      	cmp	r3, #80	; 0x50
 8007a68:	d1f6      	bne.n	8007a58 <HAL_TIM_ConfigClockSource+0x54>
 8007a6a:	684a      	ldr	r2, [r1, #4]
 8007a6c:	68ce      	ldr	r6, [r1, #12]
 8007a6e:	6a01      	ldr	r1, [r0, #32]
 8007a70:	6a05      	ldr	r5, [r0, #32]
 8007a72:	f021 010a 	bic.w	r1, r1, #10
 8007a76:	f025 0501 	bic.w	r5, r5, #1
 8007a7a:	6205      	str	r5, [r0, #32]
 8007a7c:	6983      	ldr	r3, [r0, #24]
 8007a7e:	430a      	orrs	r2, r1
 8007a80:	f023 03f0 	bic.w	r3, r3, #240	; 0xf0
 8007a84:	ea43 1306 	orr.w	r3, r3, r6, lsl #4
 8007a88:	6183      	str	r3, [r0, #24]
 8007a8a:	6202      	str	r2, [r0, #32]
 8007a8c:	6883      	ldr	r3, [r0, #8]
 8007a8e:	f023 0370 	bic.w	r3, r3, #112	; 0x70
 8007a92:	f043 0357 	orr.w	r3, r3, #87	; 0x57
 8007a96:	6083      	str	r3, [r0, #8]
 8007a98:	e7de      	b.n	8007a58 <HAL_TIM_ConfigClockSource+0x54>
 8007a9a:	2b70      	cmp	r3, #112	; 0x70
 8007a9c:	d00c      	beq.n	8007ab8 <HAL_TIM_ConfigClockSource+0xb4>
 8007a9e:	f5b3 5f00 	cmp.w	r3, #8192	; 0x2000
 8007aa2:	d1d9      	bne.n	8007a58 <HAL_TIM_ConfigClockSource+0x54>
 8007aa4:	68cb      	ldr	r3, [r1, #12]
 8007aa6:	e9d1 2101 	ldrd	r2, r1, [r1, #4]
 8007aaa:	f7ff ffa1 	bl	80079f0 <TIM_ETR_SetConfig>
 8007aae:	6822      	ldr	r2, [r4, #0]
 8007ab0:	6893      	ldr	r3, [r2, #8]
 8007ab2:	f443 4380 	orr.w	r3, r3, #16384	; 0x4000
 8007ab6:	e008      	b.n	8007aca <HAL_TIM_ConfigClockSource+0xc6>
 8007ab8:	68cb      	ldr	r3, [r1, #12]
 8007aba:	e9d1 2101 	ldrd	r2, r1, [r1, #4]
 8007abe:	f7ff ff97 	bl	80079f0 <TIM_ETR_SetConfig>
 8007ac2:	6822      	ldr	r2, [r4, #0]
 8007ac4:	6893      	ldr	r3, [r2, #8]
 8007ac6:	f043 0377 	orr.w	r3, r3, #119	; 0x77
 8007aca:	6093      	str	r3, [r2, #8]
 8007acc:	e7c4      	b.n	8007a58 <HAL_TIM_ConfigClockSource+0x54>
 8007ace:	684d      	ldr	r5, [r1, #4]
 8007ad0:	68ce      	ldr	r6, [r1, #12]
 8007ad2:	6a01      	ldr	r1, [r0, #32]
 8007ad4:	f021 0110 	bic.w	r1, r1, #16
 8007ad8:	6201      	str	r1, [r0, #32]
 8007ada:	6982      	ldr	r2, [r0, #24]
 8007adc:	6a03      	ldr	r3, [r0, #32]
 8007ade:	f422 4270 	bic.w	r2, r2, #61440	; 0xf000
 8007ae2:	f023 03a0 	bic.w	r3, r3, #160	; 0xa0
 8007ae6:	ea43 1305 	orr.w	r3, r3, r5, lsl #4
 8007aea:	ea42 3206 	orr.w	r2, r2, r6, lsl #12
 8007aee:	6182      	str	r2, [r0, #24]
 8007af0:	6203      	str	r3, [r0, #32]
 8007af2:	6883      	ldr	r3, [r0, #8]
 8007af4:	f023 0370 	bic.w	r3, r3, #112	; 0x70
 8007af8:	f043 0367 	orr.w	r3, r3, #103	; 0x67
 8007afc:	e7cb      	b.n	8007a96 <HAL_TIM_ConfigClockSource+0x92>
 8007afe:	684a      	ldr	r2, [r1, #4]
 8007b00:	68ce      	ldr	r6, [r1, #12]
 8007b02:	6a01      	ldr	r1, [r0, #32]
 8007b04:	6a05      	ldr	r5, [r0, #32]
 8007b06:	f021 010a 	bic.w	r1, r1, #10
 8007b0a:	f025 0501 	bic.w	r5, r5, #1
 8007b0e:	6205      	str	r5, [r0, #32]
 8007b10:	6983      	ldr	r3, [r0, #24]
 8007b12:	430a      	orrs	r2, r1
 8007b14:	f023 03f0 	bic.w	r3, r3, #240	; 0xf0
 8007b18:	ea43 1306 	orr.w	r3, r3, r6, lsl #4
 8007b1c:	6183      	str	r3, [r0, #24]
 8007b1e:	6202      	str	r2, [r0, #32]
 8007b20:	6883      	ldr	r3, [r0, #8]
 8007b22:	f023 0370 	bic.w	r3, r3, #112	; 0x70
 8007b26:	f043 0347 	orr.w	r3, r3, #71	; 0x47
 8007b2a:	e7b4      	b.n	8007a96 <HAL_TIM_ConfigClockSource+0x92>

08007b2c <TIM_SlaveTimer_SetConfig>:
 8007b2c:	6800      	ldr	r0, [r0, #0]
 8007b2e:	b538      	push	{r3, r4, r5, lr}
 8007b30:	6883      	ldr	r3, [r0, #8]
 8007b32:	684a      	ldr	r2, [r1, #4]
 8007b34:	f023 0370 	bic.w	r3, r3, #112	; 0x70
 8007b38:	680c      	ldr	r4, [r1, #0]
 8007b3a:	4313      	orrs	r3, r2
 8007b3c:	f023 0307 	bic.w	r3, r3, #7
 8007b40:	4323      	orrs	r3, r4
 8007b42:	2a60      	cmp	r2, #96	; 0x60
 8007b44:	6083      	str	r3, [r0, #8]
 8007b46:	d02e      	beq.n	8007ba6 <TIM_SlaveTimer_SetConfig+0x7a>
 8007b48:	d805      	bhi.n	8007b56 <TIM_SlaveTimer_SetConfig+0x2a>
 8007b4a:	2a40      	cmp	r2, #64	; 0x40
 8007b4c:	d00b      	beq.n	8007b66 <TIM_SlaveTimer_SetConfig+0x3a>
 8007b4e:	2a50      	cmp	r2, #80	; 0x50
 8007b50:	d019      	beq.n	8007b86 <TIM_SlaveTimer_SetConfig+0x5a>
 8007b52:	2000      	movs	r0, #0
 8007b54:	bd38      	pop	{r3, r4, r5, pc}
 8007b56:	2a70      	cmp	r2, #112	; 0x70
 8007b58:	d1fb      	bne.n	8007b52 <TIM_SlaveTimer_SetConfig+0x26>
 8007b5a:	690b      	ldr	r3, [r1, #16]
 8007b5c:	e9d1 2102 	ldrd	r2, r1, [r1, #8]
 8007b60:	f7ff ff46 	bl	80079f0 <TIM_ETR_SetConfig>
 8007b64:	e7f5      	b.n	8007b52 <TIM_SlaveTimer_SetConfig+0x26>
 8007b66:	2c05      	cmp	r4, #5
 8007b68:	d030      	beq.n	8007bcc <TIM_SlaveTimer_SetConfig+0xa0>
 8007b6a:	6a02      	ldr	r2, [r0, #32]
 8007b6c:	6a03      	ldr	r3, [r0, #32]
 8007b6e:	6909      	ldr	r1, [r1, #16]
 8007b70:	f023 0301 	bic.w	r3, r3, #1
 8007b74:	6203      	str	r3, [r0, #32]
 8007b76:	6983      	ldr	r3, [r0, #24]
 8007b78:	f023 03f0 	bic.w	r3, r3, #240	; 0xf0
 8007b7c:	ea43 1301 	orr.w	r3, r3, r1, lsl #4
 8007b80:	6183      	str	r3, [r0, #24]
 8007b82:	6202      	str	r2, [r0, #32]
 8007b84:	e7e5      	b.n	8007b52 <TIM_SlaveTimer_SetConfig+0x26>
 8007b86:	688a      	ldr	r2, [r1, #8]
 8007b88:	690d      	ldr	r5, [r1, #16]
 8007b8a:	6a01      	ldr	r1, [r0, #32]
 8007b8c:	6a04      	ldr	r4, [r0, #32]
 8007b8e:	f021 010a 	bic.w	r1, r1, #10
 8007b92:	f024 0401 	bic.w	r4, r4, #1
 8007b96:	6204      	str	r4, [r0, #32]
 8007b98:	6983      	ldr	r3, [r0, #24]
 8007b9a:	430a      	orrs	r2, r1
 8007b9c:	f023 03f0 	bic.w	r3, r3, #240	; 0xf0
 8007ba0:	ea43 1305 	orr.w	r3, r3, r5, lsl #4
 8007ba4:	e7ec      	b.n	8007b80 <TIM_SlaveTimer_SetConfig+0x54>
 8007ba6:	688c      	ldr	r4, [r1, #8]
 8007ba8:	690d      	ldr	r5, [r1, #16]
 8007baa:	6a01      	ldr	r1, [r0, #32]
 8007bac:	f021 0110 	bic.w	r1, r1, #16
 8007bb0:	6201      	str	r1, [r0, #32]
 8007bb2:	6982      	ldr	r2, [r0, #24]
 8007bb4:	6a03      	ldr	r3, [r0, #32]
 8007bb6:	f422 4270 	bic.w	r2, r2, #61440	; 0xf000
 8007bba:	f023 03a0 	bic.w	r3, r3, #160	; 0xa0
 8007bbe:	ea42 3205 	orr.w	r2, r2, r5, lsl #12
 8007bc2:	ea43 1304 	orr.w	r3, r3, r4, lsl #4
 8007bc6:	6182      	str	r2, [r0, #24]
 8007bc8:	6203      	str	r3, [r0, #32]
 8007bca:	e7c2      	b.n	8007b52 <TIM_SlaveTimer_SetConfig+0x26>
 8007bcc:	2001      	movs	r0, #1
 8007bce:	e7c1      	b.n	8007b54 <TIM_SlaveTimer_SetConfig+0x28>

08007bd0 <HAL_TIM_SlaveConfigSynchro>:
 8007bd0:	b538      	push	{r3, r4, r5, lr}
 8007bd2:	f890 303c 	ldrb.w	r3, [r0, #60]	; 0x3c
 8007bd6:	4604      	mov	r4, r0
 8007bd8:	2b01      	cmp	r3, #1
 8007bda:	f04f 0302 	mov.w	r3, #2
 8007bde:	d01c      	beq.n	8007c1a <HAL_TIM_SlaveConfigSynchro+0x4a>
 8007be0:	2501      	movs	r5, #1
 8007be2:	f880 303d 	strb.w	r3, [r0, #61]	; 0x3d
 8007be6:	f880 503c 	strb.w	r5, [r0, #60]	; 0x3c
 8007bea:	f7ff ff9f 	bl	8007b2c <TIM_SlaveTimer_SetConfig>
 8007bee:	b130      	cbz	r0, 8007bfe <HAL_TIM_SlaveConfigSynchro+0x2e>
 8007bf0:	2300      	movs	r3, #0
 8007bf2:	4628      	mov	r0, r5
 8007bf4:	f884 503d 	strb.w	r5, [r4, #61]	; 0x3d
 8007bf8:	f884 303c 	strb.w	r3, [r4, #60]	; 0x3c
 8007bfc:	bd38      	pop	{r3, r4, r5, pc}
 8007bfe:	6823      	ldr	r3, [r4, #0]
 8007c00:	68da      	ldr	r2, [r3, #12]
 8007c02:	f022 0240 	bic.w	r2, r2, #64	; 0x40
 8007c06:	60da      	str	r2, [r3, #12]
 8007c08:	68da      	ldr	r2, [r3, #12]
 8007c0a:	f422 4280 	bic.w	r2, r2, #16384	; 0x4000
 8007c0e:	60da      	str	r2, [r3, #12]
 8007c10:	f884 503d 	strb.w	r5, [r4, #61]	; 0x3d
 8007c14:	f884 003c 	strb.w	r0, [r4, #60]	; 0x3c
 8007c18:	e7f0      	b.n	8007bfc <HAL_TIM_SlaveConfigSynchro+0x2c>
 8007c1a:	4618      	mov	r0, r3
 8007c1c:	e7ee      	b.n	8007bfc <HAL_TIM_SlaveConfigSynchro+0x2c>

08007c1e <TIM_CCxChannelCmd>:
 8007c1e:	b510      	push	{r4, lr}
 8007c20:	2401      	movs	r4, #1
 8007c22:	6a03      	ldr	r3, [r0, #32]
 8007c24:	f001 011f 	and.w	r1, r1, #31
 8007c28:	408c      	lsls	r4, r1
 8007c2a:	ea23 0304 	bic.w	r3, r3, r4
 8007c2e:	6203      	str	r3, [r0, #32]
 8007c30:	6a03      	ldr	r3, [r0, #32]
 8007c32:	408a      	lsls	r2, r1
 8007c34:	431a      	orrs	r2, r3
 8007c36:	6202      	str	r2, [r0, #32]
 8007c38:	bd10      	pop	{r4, pc}
	...

08007c3c <HAL_TIM_OC_Start>:
 8007c3c:	b510      	push	{r4, lr}
 8007c3e:	4604      	mov	r4, r0
 8007c40:	b929      	cbnz	r1, 8007c4e <HAL_TIM_OC_Start+0x12>
 8007c42:	f890 303e 	ldrb.w	r3, [r0, #62]	; 0x3e
 8007c46:	2b01      	cmp	r3, #1
 8007c48:	d01d      	beq.n	8007c86 <HAL_TIM_OC_Start+0x4a>
 8007c4a:	2001      	movs	r0, #1
 8007c4c:	bd10      	pop	{r4, pc}
 8007c4e:	2904      	cmp	r1, #4
 8007c50:	d107      	bne.n	8007c62 <HAL_TIM_OC_Start+0x26>
 8007c52:	f890 303f 	ldrb.w	r3, [r0, #63]	; 0x3f
 8007c56:	2b01      	cmp	r3, #1
 8007c58:	d1f7      	bne.n	8007c4a <HAL_TIM_OC_Start+0xe>
 8007c5a:	2302      	movs	r3, #2
 8007c5c:	f880 303f 	strb.w	r3, [r0, #63]	; 0x3f
 8007c60:	e014      	b.n	8007c8c <HAL_TIM_OC_Start+0x50>
 8007c62:	2908      	cmp	r1, #8
 8007c64:	d107      	bne.n	8007c76 <HAL_TIM_OC_Start+0x3a>
 8007c66:	f890 3040 	ldrb.w	r3, [r0, #64]	; 0x40
 8007c6a:	2b01      	cmp	r3, #1
 8007c6c:	d1ed      	bne.n	8007c4a <HAL_TIM_OC_Start+0xe>
 8007c6e:	2302      	movs	r3, #2
 8007c70:	f880 3040 	strb.w	r3, [r0, #64]	; 0x40
 8007c74:	e00a      	b.n	8007c8c <HAL_TIM_OC_Start+0x50>
 8007c76:	f890 3041 	ldrb.w	r3, [r0, #65]	; 0x41
 8007c7a:	2b01      	cmp	r3, #1
 8007c7c:	d1e5      	bne.n	8007c4a <HAL_TIM_OC_Start+0xe>
 8007c7e:	2302      	movs	r3, #2
 8007c80:	f880 3041 	strb.w	r3, [r0, #65]	; 0x41
 8007c84:	e002      	b.n	8007c8c <HAL_TIM_OC_Start+0x50>
 8007c86:	2302      	movs	r3, #2
 8007c88:	f880 303e 	strb.w	r3, [r0, #62]	; 0x3e
 8007c8c:	2201      	movs	r2, #1
 8007c8e:	6820      	ldr	r0, [r4, #0]
 8007c90:	f7ff ffc5 	bl	8007c1e <TIM_CCxChannelCmd>
 8007c94:	6823      	ldr	r3, [r4, #0]
 8007c96:	4a0e      	ldr	r2, [pc, #56]	; (8007cd0 <HAL_TIM_OC_Start+0x94>)
 8007c98:	4293      	cmp	r3, r2
 8007c9a:	d10a      	bne.n	8007cb2 <HAL_TIM_OC_Start+0x76>
 8007c9c:	6c5a      	ldr	r2, [r3, #68]	; 0x44
 8007c9e:	f442 4200 	orr.w	r2, r2, #32768	; 0x8000
 8007ca2:	645a      	str	r2, [r3, #68]	; 0x44
 8007ca4:	689a      	ldr	r2, [r3, #8]
 8007ca6:	f002 0207 	and.w	r2, r2, #7
 8007caa:	2a06      	cmp	r2, #6
 8007cac:	d10b      	bne.n	8007cc6 <HAL_TIM_OC_Start+0x8a>
 8007cae:	2000      	movs	r0, #0
 8007cb0:	e7cc      	b.n	8007c4c <HAL_TIM_OC_Start+0x10>
 8007cb2:	f1b3 4f80 	cmp.w	r3, #1073741824	; 0x40000000
 8007cb6:	d0f5      	beq.n	8007ca4 <HAL_TIM_OC_Start+0x68>
 8007cb8:	4a06      	ldr	r2, [pc, #24]	; (8007cd4 <HAL_TIM_OC_Start+0x98>)
 8007cba:	4293      	cmp	r3, r2
 8007cbc:	d0f2      	beq.n	8007ca4 <HAL_TIM_OC_Start+0x68>
 8007cbe:	f502 6280 	add.w	r2, r2, #1024	; 0x400
 8007cc2:	4293      	cmp	r3, r2
 8007cc4:	d0ee      	beq.n	8007ca4 <HAL_TIM_OC_Start+0x68>
 8007cc6:	681a      	ldr	r2, [r3, #0]
 8007cc8:	f042 0201 	orr.w	r2, r2, #1
 8007ccc:	601a      	str	r2, [r3, #0]
 8007cce:	e7ee      	b.n	8007cae <HAL_TIM_OC_Start+0x72>
 8007cd0:	40012c00 	.word	0x40012c00
 8007cd4:	40000400 	.word	0x40000400

08007cd8 <HAL_TIM_OC_Stop>:
 8007cd8:	b538      	push	{r3, r4, r5, lr}
 8007cda:	4604      	mov	r4, r0
 8007cdc:	2200      	movs	r2, #0
 8007cde:	6800      	ldr	r0, [r0, #0]
 8007ce0:	460d      	mov	r5, r1
 8007ce2:	f7ff ff9c 	bl	8007c1e <TIM_CCxChannelCmd>
 8007ce6:	6823      	ldr	r3, [r4, #0]
 8007ce8:	4a18      	ldr	r2, [pc, #96]	; (8007d4c <HAL_TIM_OC_Stop+0x74>)
 8007cea:	4293      	cmp	r3, r2
 8007cec:	d10d      	bne.n	8007d0a <HAL_TIM_OC_Stop+0x32>
 8007cee:	f241 1211 	movw	r2, #4369	; 0x1111
 8007cf2:	6a19      	ldr	r1, [r3, #32]
 8007cf4:	4211      	tst	r1, r2
 8007cf6:	d108      	bne.n	8007d0a <HAL_TIM_OC_Stop+0x32>
 8007cf8:	f240 4244 	movw	r2, #1092	; 0x444
 8007cfc:	6a19      	ldr	r1, [r3, #32]
 8007cfe:	4211      	tst	r1, r2
 8007d00:	bf02      	ittt	eq
 8007d02:	6c5a      	ldreq	r2, [r3, #68]	; 0x44
 8007d04:	f422 4200 	biceq.w	r2, r2, #32768	; 0x8000
 8007d08:	645a      	streq	r2, [r3, #68]	; 0x44
 8007d0a:	f241 1211 	movw	r2, #4369	; 0x1111
 8007d0e:	6a19      	ldr	r1, [r3, #32]
 8007d10:	4211      	tst	r1, r2
 8007d12:	d108      	bne.n	8007d26 <HAL_TIM_OC_Stop+0x4e>
 8007d14:	f240 4244 	movw	r2, #1092	; 0x444
 8007d18:	6a19      	ldr	r1, [r3, #32]
 8007d1a:	4211      	tst	r1, r2
 8007d1c:	bf02      	ittt	eq
 8007d1e:	681a      	ldreq	r2, [r3, #0]
 8007d20:	f022 0201 	biceq.w	r2, r2, #1
 8007d24:	601a      	streq	r2, [r3, #0]
 8007d26:	2301      	movs	r3, #1
 8007d28:	b91d      	cbnz	r5, 8007d32 <HAL_TIM_OC_Stop+0x5a>
 8007d2a:	f884 303e 	strb.w	r3, [r4, #62]	; 0x3e
 8007d2e:	2000      	movs	r0, #0
 8007d30:	bd38      	pop	{r3, r4, r5, pc}
 8007d32:	2d04      	cmp	r5, #4
 8007d34:	d102      	bne.n	8007d3c <HAL_TIM_OC_Stop+0x64>
 8007d36:	f884 303f 	strb.w	r3, [r4, #63]	; 0x3f
 8007d3a:	e7f8      	b.n	8007d2e <HAL_TIM_OC_Stop+0x56>
 8007d3c:	2d08      	cmp	r5, #8
 8007d3e:	bf0c      	ite	eq
 8007d40:	f884 3040 	strbeq.w	r3, [r4, #64]	; 0x40
 8007d44:	f884 3041 	strbne.w	r3, [r4, #65]	; 0x41
 8007d48:	e7f1      	b.n	8007d2e <HAL_TIM_OC_Stop+0x56>
 8007d4a:	bf00      	nop
 8007d4c:	40012c00 	.word	0x40012c00

08007d50 <HAL_TIM_IC_Start_IT>:
 8007d50:	b510      	push	{r4, lr}
 8007d52:	4604      	mov	r4, r0
 8007d54:	bb91      	cbnz	r1, 8007dbc <HAL_TIM_IC_Start_IT+0x6c>
 8007d56:	f890 003e 	ldrb.w	r0, [r0, #62]	; 0x3e
 8007d5a:	f894 3042 	ldrb.w	r3, [r4, #66]	; 0x42
 8007d5e:	b2c0      	uxtb	r0, r0
 8007d60:	2801      	cmp	r0, #1
 8007d62:	b2db      	uxtb	r3, r3
 8007d64:	d15e      	bne.n	8007e24 <HAL_TIM_IC_Start_IT+0xd4>
 8007d66:	2b01      	cmp	r3, #1
 8007d68:	d15d      	bne.n	8007e26 <HAL_TIM_IC_Start_IT+0xd6>
 8007d6a:	2302      	movs	r3, #2
 8007d6c:	6820      	ldr	r0, [r4, #0]
 8007d6e:	2900      	cmp	r1, #0
 8007d70:	d13a      	bne.n	8007de8 <HAL_TIM_IC_Start_IT+0x98>
 8007d72:	f884 303e 	strb.w	r3, [r4, #62]	; 0x3e
 8007d76:	f884 3042 	strb.w	r3, [r4, #66]	; 0x42
 8007d7a:	68c3      	ldr	r3, [r0, #12]
 8007d7c:	f043 0302 	orr.w	r3, r3, #2
 8007d80:	60c3      	str	r3, [r0, #12]
 8007d82:	2201      	movs	r2, #1
 8007d84:	f7ff ff4b 	bl	8007c1e <TIM_CCxChannelCmd>
 8007d88:	6823      	ldr	r3, [r4, #0]
 8007d8a:	4a27      	ldr	r2, [pc, #156]	; (8007e28 <HAL_TIM_IC_Start_IT+0xd8>)
 8007d8c:	4293      	cmp	r3, r2
 8007d8e:	d00a      	beq.n	8007da6 <HAL_TIM_IC_Start_IT+0x56>
 8007d90:	f1b3 4f80 	cmp.w	r3, #1073741824	; 0x40000000
 8007d94:	d007      	beq.n	8007da6 <HAL_TIM_IC_Start_IT+0x56>
 8007d96:	f5a2 3294 	sub.w	r2, r2, #75776	; 0x12800
 8007d9a:	4293      	cmp	r3, r2
 8007d9c:	d003      	beq.n	8007da6 <HAL_TIM_IC_Start_IT+0x56>
 8007d9e:	f502 6280 	add.w	r2, r2, #1024	; 0x400
 8007da2:	4293      	cmp	r3, r2
 8007da4:	d104      	bne.n	8007db0 <HAL_TIM_IC_Start_IT+0x60>
 8007da6:	689a      	ldr	r2, [r3, #8]
 8007da8:	f002 0207 	and.w	r2, r2, #7
 8007dac:	2a06      	cmp	r2, #6
 8007dae:	d003      	beq.n	8007db8 <HAL_TIM_IC_Start_IT+0x68>
 8007db0:	681a      	ldr	r2, [r3, #0]
 8007db2:	f042 0201 	orr.w	r2, r2, #1
 8007db6:	601a      	str	r2, [r3, #0]
 8007db8:	2000      	movs	r0, #0
 8007dba:	e034      	b.n	8007e26 <HAL_TIM_IC_Start_IT+0xd6>
 8007dbc:	2904      	cmp	r1, #4
 8007dbe:	d105      	bne.n	8007dcc <HAL_TIM_IC_Start_IT+0x7c>
 8007dc0:	f890 003f 	ldrb.w	r0, [r0, #63]	; 0x3f
 8007dc4:	f894 3043 	ldrb.w	r3, [r4, #67]	; 0x43
 8007dc8:	b2c0      	uxtb	r0, r0
 8007dca:	e7c9      	b.n	8007d60 <HAL_TIM_IC_Start_IT+0x10>
 8007dcc:	2908      	cmp	r1, #8
 8007dce:	bf0b      	itete	eq
 8007dd0:	f890 0040 	ldrbeq.w	r0, [r0, #64]	; 0x40
 8007dd4:	f894 0041 	ldrbne.w	r0, [r4, #65]	; 0x41
 8007dd8:	f894 3044 	ldrbeq.w	r3, [r4, #68]	; 0x44
 8007ddc:	f894 3045 	ldrbne.w	r3, [r4, #69]	; 0x45
 8007de0:	bf0c      	ite	eq
 8007de2:	b2c0      	uxtbeq	r0, r0
 8007de4:	b2c0      	uxtbne	r0, r0
 8007de6:	e7bb      	b.n	8007d60 <HAL_TIM_IC_Start_IT+0x10>
 8007de8:	2904      	cmp	r1, #4
 8007dea:	d107      	bne.n	8007dfc <HAL_TIM_IC_Start_IT+0xac>
 8007dec:	f884 303f 	strb.w	r3, [r4, #63]	; 0x3f
 8007df0:	f884 3043 	strb.w	r3, [r4, #67]	; 0x43
 8007df4:	68c3      	ldr	r3, [r0, #12]
 8007df6:	f043 0304 	orr.w	r3, r3, #4
 8007dfa:	e7c1      	b.n	8007d80 <HAL_TIM_IC_Start_IT+0x30>
 8007dfc:	2908      	cmp	r1, #8
 8007dfe:	d107      	bne.n	8007e10 <HAL_TIM_IC_Start_IT+0xc0>
 8007e00:	f884 3040 	strb.w	r3, [r4, #64]	; 0x40
 8007e04:	f884 3044 	strb.w	r3, [r4, #68]	; 0x44
 8007e08:	68c3      	ldr	r3, [r0, #12]
 8007e0a:	f043 0308 	orr.w	r3, r3, #8
 8007e0e:	e7b7      	b.n	8007d80 <HAL_TIM_IC_Start_IT+0x30>
 8007e10:	290c      	cmp	r1, #12
 8007e12:	f884 3041 	strb.w	r3, [r4, #65]	; 0x41
 8007e16:	f884 3045 	strb.w	r3, [r4, #69]	; 0x45
 8007e1a:	d1b2      	bne.n	8007d82 <HAL_TIM_IC_Start_IT+0x32>
 8007e1c:	68c3      	ldr	r3, [r0, #12]
 8007e1e:	f043 0310 	orr.w	r3, r3, #16
 8007e22:	e7ad      	b.n	8007d80 <HAL_TIM_IC_Start_IT+0x30>
 8007e24:	2001      	movs	r0, #1
 8007e26:	bd10      	pop	{r4, pc}
 8007e28:	40012c00 	.word	0x40012c00

08007e2c <HAL_TIM_IC_Stop_IT>:
 8007e2c:	2908      	cmp	r1, #8
 8007e2e:	b538      	push	{r3, r4, r5, lr}
 8007e30:	4604      	mov	r4, r0
 8007e32:	460d      	mov	r5, r1
 8007e34:	6800      	ldr	r0, [r0, #0]
 8007e36:	d02d      	beq.n	8007e94 <HAL_TIM_IC_Stop_IT+0x68>
 8007e38:	d81d      	bhi.n	8007e76 <HAL_TIM_IC_Stop_IT+0x4a>
 8007e3a:	b311      	cbz	r1, 8007e82 <HAL_TIM_IC_Stop_IT+0x56>
 8007e3c:	2904      	cmp	r1, #4
 8007e3e:	d025      	beq.n	8007e8c <HAL_TIM_IC_Stop_IT+0x60>
 8007e40:	2200      	movs	r2, #0
 8007e42:	4629      	mov	r1, r5
 8007e44:	f7ff feeb 	bl	8007c1e <TIM_CCxChannelCmd>
 8007e48:	f241 1211 	movw	r2, #4369	; 0x1111
 8007e4c:	6823      	ldr	r3, [r4, #0]
 8007e4e:	6a19      	ldr	r1, [r3, #32]
 8007e50:	4211      	tst	r1, r2
 8007e52:	d108      	bne.n	8007e66 <HAL_TIM_IC_Stop_IT+0x3a>
 8007e54:	f240 4244 	movw	r2, #1092	; 0x444
 8007e58:	6a19      	ldr	r1, [r3, #32]
 8007e5a:	4211      	tst	r1, r2
 8007e5c:	bf02      	ittt	eq
 8007e5e:	681a      	ldreq	r2, [r3, #0]
 8007e60:	f022 0201 	biceq.w	r2, r2, #1
 8007e64:	601a      	streq	r2, [r3, #0]
 8007e66:	2301      	movs	r3, #1
 8007e68:	b9c5      	cbnz	r5, 8007e9c <HAL_TIM_IC_Stop_IT+0x70>
 8007e6a:	f884 303e 	strb.w	r3, [r4, #62]	; 0x3e
 8007e6e:	f884 3042 	strb.w	r3, [r4, #66]	; 0x42
 8007e72:	2000      	movs	r0, #0
 8007e74:	bd38      	pop	{r3, r4, r5, pc}
 8007e76:	290c      	cmp	r1, #12
 8007e78:	d1e2      	bne.n	8007e40 <HAL_TIM_IC_Stop_IT+0x14>
 8007e7a:	68c3      	ldr	r3, [r0, #12]
 8007e7c:	f023 0310 	bic.w	r3, r3, #16
 8007e80:	e002      	b.n	8007e88 <HAL_TIM_IC_Stop_IT+0x5c>
 8007e82:	68c3      	ldr	r3, [r0, #12]
 8007e84:	f023 0302 	bic.w	r3, r3, #2
 8007e88:	60c3      	str	r3, [r0, #12]
 8007e8a:	e7d9      	b.n	8007e40 <HAL_TIM_IC_Stop_IT+0x14>
 8007e8c:	68c3      	ldr	r3, [r0, #12]
 8007e8e:	f023 0304 	bic.w	r3, r3, #4
 8007e92:	e7f9      	b.n	8007e88 <HAL_TIM_IC_Stop_IT+0x5c>
 8007e94:	68c3      	ldr	r3, [r0, #12]
 8007e96:	f023 0308 	bic.w	r3, r3, #8
 8007e9a:	e7f5      	b.n	8007e88 <HAL_TIM_IC_Stop_IT+0x5c>
 8007e9c:	2d04      	cmp	r5, #4
 8007e9e:	d104      	bne.n	8007eaa <HAL_TIM_IC_Stop_IT+0x7e>
 8007ea0:	f884 303f 	strb.w	r3, [r4, #63]	; 0x3f
 8007ea4:	f884 3043 	strb.w	r3, [r4, #67]	; 0x43
 8007ea8:	e7e3      	b.n	8007e72 <HAL_TIM_IC_Stop_IT+0x46>
 8007eaa:	2d08      	cmp	r5, #8
 8007eac:	bf0b      	itete	eq
 8007eae:	f884 3040 	strbeq.w	r3, [r4, #64]	; 0x40
 8007eb2:	f884 3041 	strbne.w	r3, [r4, #65]	; 0x41
 8007eb6:	f884 3044 	strbeq.w	r3, [r4, #68]	; 0x44
 8007eba:	f884 3045 	strbne.w	r3, [r4, #69]	; 0x45
 8007ebe:	e7d8      	b.n	8007e72 <HAL_TIM_IC_Stop_IT+0x46>

08007ec0 <HAL_TIMEx_MasterConfigSynchronization>:
 8007ec0:	b530      	push	{r4, r5, lr}
 8007ec2:	f890 303c 	ldrb.w	r3, [r0, #60]	; 0x3c
 8007ec6:	4602      	mov	r2, r0
 8007ec8:	2b01      	cmp	r3, #1
 8007eca:	f04f 0002 	mov.w	r0, #2
 8007ece:	d022      	beq.n	8007f16 <HAL_TIMEx_MasterConfigSynchronization+0x56>
 8007ed0:	6813      	ldr	r3, [r2, #0]
 8007ed2:	f882 003d 	strb.w	r0, [r2, #61]	; 0x3d
 8007ed6:	685c      	ldr	r4, [r3, #4]
 8007ed8:	680d      	ldr	r5, [r1, #0]
 8007eda:	f024 0470 	bic.w	r4, r4, #112	; 0x70
 8007ede:	432c      	orrs	r4, r5
 8007ee0:	6898      	ldr	r0, [r3, #8]
 8007ee2:	605c      	str	r4, [r3, #4]
 8007ee4:	4c0c      	ldr	r4, [pc, #48]	; (8007f18 <HAL_TIMEx_MasterConfigSynchronization+0x58>)
 8007ee6:	42a3      	cmp	r3, r4
 8007ee8:	d00a      	beq.n	8007f00 <HAL_TIMEx_MasterConfigSynchronization+0x40>
 8007eea:	f1b3 4f80 	cmp.w	r3, #1073741824	; 0x40000000
 8007eee:	d007      	beq.n	8007f00 <HAL_TIMEx_MasterConfigSynchronization+0x40>
 8007ef0:	f5a4 3494 	sub.w	r4, r4, #75776	; 0x12800
 8007ef4:	42a3      	cmp	r3, r4
 8007ef6:	d003      	beq.n	8007f00 <HAL_TIMEx_MasterConfigSynchronization+0x40>
 8007ef8:	f504 6480 	add.w	r4, r4, #1024	; 0x400
 8007efc:	42a3      	cmp	r3, r4
 8007efe:	d104      	bne.n	8007f0a <HAL_TIMEx_MasterConfigSynchronization+0x4a>
 8007f00:	6849      	ldr	r1, [r1, #4]
 8007f02:	f020 0080 	bic.w	r0, r0, #128	; 0x80
 8007f06:	4301      	orrs	r1, r0
 8007f08:	6099      	str	r1, [r3, #8]
 8007f0a:	2301      	movs	r3, #1
 8007f0c:	2000      	movs	r0, #0
 8007f0e:	f882 303d 	strb.w	r3, [r2, #61]	; 0x3d
 8007f12:	f882 003c 	strb.w	r0, [r2, #60]	; 0x3c
 8007f16:	bd30      	pop	{r4, r5, pc}
 8007f18:	40012c00 	.word	0x40012c00

08007f1c <HAL_TIMEx_ConfigBreakDeadTime>:
 8007f1c:	f890 303c 	ldrb.w	r3, [r0, #60]	; 0x3c
 8007f20:	2b01      	cmp	r3, #1
 8007f22:	d01f      	beq.n	8007f64 <HAL_TIMEx_ConfigBreakDeadTime+0x48>
 8007f24:	68cb      	ldr	r3, [r1, #12]
 8007f26:	688a      	ldr	r2, [r1, #8]
 8007f28:	f423 7340 	bic.w	r3, r3, #768	; 0x300
 8007f2c:	4313      	orrs	r3, r2
 8007f2e:	684a      	ldr	r2, [r1, #4]
 8007f30:	f423 6380 	bic.w	r3, r3, #1024	; 0x400
 8007f34:	4313      	orrs	r3, r2
 8007f36:	680a      	ldr	r2, [r1, #0]
 8007f38:	f423 6300 	bic.w	r3, r3, #2048	; 0x800
 8007f3c:	4313      	orrs	r3, r2
 8007f3e:	690a      	ldr	r2, [r1, #16]
 8007f40:	f423 5380 	bic.w	r3, r3, #4096	; 0x1000
 8007f44:	4313      	orrs	r3, r2
 8007f46:	694a      	ldr	r2, [r1, #20]
 8007f48:	f423 5300 	bic.w	r3, r3, #8192	; 0x2000
 8007f4c:	4313      	orrs	r3, r2
 8007f4e:	69ca      	ldr	r2, [r1, #28]
 8007f50:	f423 4380 	bic.w	r3, r3, #16384	; 0x4000
 8007f54:	4313      	orrs	r3, r2
 8007f56:	6802      	ldr	r2, [r0, #0]
 8007f58:	6453      	str	r3, [r2, #68]	; 0x44
 8007f5a:	2300      	movs	r3, #0
 8007f5c:	f880 303c 	strb.w	r3, [r0, #60]	; 0x3c
 8007f60:	4618      	mov	r0, r3
 8007f62:	4770      	bx	lr
 8007f64:	2002      	movs	r0, #2
 8007f66:	4770      	bx	lr

08007f68 <HAL_TIMEx_CommutCallback>:
 8007f68:	4770      	bx	lr

08007f6a <HAL_TIMEx_BreakCallback>:
 8007f6a:	4770      	bx	lr

08007f6c <UART_SetConfig>:
 8007f6c:	b510      	push	{r4, lr}
 8007f6e:	4604      	mov	r4, r0
 8007f70:	6803      	ldr	r3, [r0, #0]
 8007f72:	68c1      	ldr	r1, [r0, #12]
 8007f74:	691a      	ldr	r2, [r3, #16]
 8007f76:	f422 5240 	bic.w	r2, r2, #12288	; 0x3000
 8007f7a:	430a      	orrs	r2, r1
 8007f7c:	611a      	str	r2, [r3, #16]
 8007f7e:	6882      	ldr	r2, [r0, #8]
 8007f80:	6900      	ldr	r0, [r0, #16]
 8007f82:	68d9      	ldr	r1, [r3, #12]
 8007f84:	4302      	orrs	r2, r0
 8007f86:	6960      	ldr	r0, [r4, #20]
 8007f88:	f421 51b0 	bic.w	r1, r1, #5632	; 0x1600
 8007f8c:	f021 010c 	bic.w	r1, r1, #12
 8007f90:	4302      	orrs	r2, r0
 8007f92:	430a      	orrs	r2, r1
 8007f94:	60da      	str	r2, [r3, #12]
 8007f96:	695a      	ldr	r2, [r3, #20]
 8007f98:	69a1      	ldr	r1, [r4, #24]
 8007f9a:	f422 7240 	bic.w	r2, r2, #768	; 0x300
 8007f9e:	430a      	orrs	r2, r1
 8007fa0:	615a      	str	r2, [r3, #20]
 8007fa2:	4a0e      	ldr	r2, [pc, #56]	; (8007fdc <UART_SetConfig+0x70>)
 8007fa4:	4293      	cmp	r3, r2
 8007fa6:	d115      	bne.n	8007fd4 <UART_SetConfig+0x68>
 8007fa8:	f7fe fe84 	bl	8006cb4 <HAL_RCC_GetPCLK2Freq>
 8007fac:	2319      	movs	r3, #25
 8007fae:	4343      	muls	r3, r0
 8007fb0:	6862      	ldr	r2, [r4, #4]
 8007fb2:	6820      	ldr	r0, [r4, #0]
 8007fb4:	0092      	lsls	r2, r2, #2
 8007fb6:	fbb3 f3f2 	udiv	r3, r3, r2
 8007fba:	2264      	movs	r2, #100	; 0x64
 8007fbc:	fbb3 f1f2 	udiv	r1, r3, r2
 8007fc0:	fb02 3311 	mls	r3, r2, r1, r3
 8007fc4:	011b      	lsls	r3, r3, #4
 8007fc6:	3332      	adds	r3, #50	; 0x32
 8007fc8:	fbb3 f3f2 	udiv	r3, r3, r2
 8007fcc:	eb03 1301 	add.w	r3, r3, r1, lsl #4
 8007fd0:	6083      	str	r3, [r0, #8]
 8007fd2:	bd10      	pop	{r4, pc}
 8007fd4:	f7fe fe5e 	bl	8006c94 <HAL_RCC_GetPCLK1Freq>
 8007fd8:	e7e8      	b.n	8007fac <UART_SetConfig+0x40>
 8007fda:	bf00      	nop
 8007fdc:	40013800 	.word	0x40013800

08007fe0 <UART_WaitOnFlagUntilTimeout.constprop.0>:
 8007fe0:	b5f8      	push	{r3, r4, r5, r6, r7, lr}
 8007fe2:	4604      	mov	r4, r0
 8007fe4:	460e      	mov	r6, r1
 8007fe6:	4617      	mov	r7, r2
 8007fe8:	461d      	mov	r5, r3
 8007fea:	6822      	ldr	r2, [r4, #0]
 8007fec:	6813      	ldr	r3, [r2, #0]
 8007fee:	ea36 0303 	bics.w	r3, r6, r3
 8007ff2:	d101      	bne.n	8007ff8 <UART_WaitOnFlagUntilTimeout.constprop.0+0x18>
 8007ff4:	2000      	movs	r0, #0
 8007ff6:	e014      	b.n	8008022 <UART_WaitOnFlagUntilTimeout.constprop.0+0x42>
 8007ff8:	1c6b      	adds	r3, r5, #1
 8007ffa:	d0f7      	beq.n	8007fec <UART_WaitOnFlagUntilTimeout.constprop.0+0xc>
 8007ffc:	b995      	cbnz	r5, 8008024 <UART_WaitOnFlagUntilTimeout.constprop.0+0x44>
 8007ffe:	6823      	ldr	r3, [r4, #0]
 8008000:	2003      	movs	r0, #3
 8008002:	68da      	ldr	r2, [r3, #12]
 8008004:	f422 72d0 	bic.w	r2, r2, #416	; 0x1a0
 8008008:	60da      	str	r2, [r3, #12]
 800800a:	695a      	ldr	r2, [r3, #20]
 800800c:	f022 0201 	bic.w	r2, r2, #1
 8008010:	615a      	str	r2, [r3, #20]
 8008012:	2320      	movs	r3, #32
 8008014:	f884 303d 	strb.w	r3, [r4, #61]	; 0x3d
 8008018:	f884 303e 	strb.w	r3, [r4, #62]	; 0x3e
 800801c:	2300      	movs	r3, #0
 800801e:	f884 303c 	strb.w	r3, [r4, #60]	; 0x3c
 8008022:	bdf8      	pop	{r3, r4, r5, r6, r7, pc}
 8008024:	f7fd fc14 	bl	8005850 <HAL_GetTick>
 8008028:	1bc0      	subs	r0, r0, r7
 800802a:	4285      	cmp	r5, r0
 800802c:	d2dd      	bcs.n	8007fea <UART_WaitOnFlagUntilTimeout.constprop.0+0xa>
 800802e:	e7e6      	b.n	8007ffe <UART_WaitOnFlagUntilTimeout.constprop.0+0x1e>

08008030 <HAL_UART_Init>:
 8008030:	b510      	push	{r4, lr}
 8008032:	4604      	mov	r4, r0
 8008034:	b340      	cbz	r0, 8008088 <HAL_UART_Init+0x58>
 8008036:	f890 303d 	ldrb.w	r3, [r0, #61]	; 0x3d
 800803a:	f003 02ff 	and.w	r2, r3, #255	; 0xff
 800803e:	b91b      	cbnz	r3, 8008048 <HAL_UART_Init+0x18>
 8008040:	f880 203c 	strb.w	r2, [r0, #60]	; 0x3c
 8008044:	f7fc fc28 	bl	8004898 <HAL_UART_MspInit>
 8008048:	2324      	movs	r3, #36	; 0x24
 800804a:	6822      	ldr	r2, [r4, #0]
 800804c:	f884 303d 	strb.w	r3, [r4, #61]	; 0x3d
 8008050:	68d3      	ldr	r3, [r2, #12]
 8008052:	4620      	mov	r0, r4
 8008054:	f423 5300 	bic.w	r3, r3, #8192	; 0x2000
 8008058:	60d3      	str	r3, [r2, #12]
 800805a:	f7ff ff87 	bl	8007f6c <UART_SetConfig>
 800805e:	6823      	ldr	r3, [r4, #0]
 8008060:	2000      	movs	r0, #0
 8008062:	691a      	ldr	r2, [r3, #16]
 8008064:	f422 4290 	bic.w	r2, r2, #18432	; 0x4800
 8008068:	611a      	str	r2, [r3, #16]
 800806a:	695a      	ldr	r2, [r3, #20]
 800806c:	f022 022a 	bic.w	r2, r2, #42	; 0x2a
 8008070:	615a      	str	r2, [r3, #20]
 8008072:	68da      	ldr	r2, [r3, #12]
 8008074:	f442 5200 	orr.w	r2, r2, #8192	; 0x2000
 8008078:	60da      	str	r2, [r3, #12]
 800807a:	2320      	movs	r3, #32
 800807c:	6420      	str	r0, [r4, #64]	; 0x40
 800807e:	f884 303d 	strb.w	r3, [r4, #61]	; 0x3d
 8008082:	f884 303e 	strb.w	r3, [r4, #62]	; 0x3e
 8008086:	bd10      	pop	{r4, pc}
 8008088:	2001      	movs	r0, #1
 800808a:	e7fc      	b.n	8008086 <HAL_UART_Init+0x56>

0800808c <HAL_UART_Transmit>:
 800808c:	e92d 43f8 	stmdb	sp!, {r3, r4, r5, r6, r7, r8, r9, lr}
 8008090:	4699      	mov	r9, r3
 8008092:	f890 303d 	ldrb.w	r3, [r0, #61]	; 0x3d
 8008096:	4604      	mov	r4, r0
 8008098:	2b20      	cmp	r3, #32
 800809a:	460e      	mov	r6, r1
 800809c:	4617      	mov	r7, r2
 800809e:	d148      	bne.n	8008132 <HAL_UART_Transmit+0xa6>
 80080a0:	2900      	cmp	r1, #0
 80080a2:	d044      	beq.n	800812e <HAL_UART_Transmit+0xa2>
 80080a4:	2a00      	cmp	r2, #0
 80080a6:	d042      	beq.n	800812e <HAL_UART_Transmit+0xa2>
 80080a8:	f890 303c 	ldrb.w	r3, [r0, #60]	; 0x3c
 80080ac:	2b01      	cmp	r3, #1
 80080ae:	d040      	beq.n	8008132 <HAL_UART_Transmit+0xa6>
 80080b0:	2301      	movs	r3, #1
 80080b2:	2500      	movs	r5, #0
 80080b4:	f880 303c 	strb.w	r3, [r0, #60]	; 0x3c
 80080b8:	2321      	movs	r3, #33	; 0x21
 80080ba:	6405      	str	r5, [r0, #64]	; 0x40
 80080bc:	f880 303d 	strb.w	r3, [r0, #61]	; 0x3d
 80080c0:	f7fd fbc6 	bl	8005850 <HAL_GetTick>
 80080c4:	68a3      	ldr	r3, [r4, #8]
 80080c6:	4680      	mov	r8, r0
 80080c8:	f5b3 5f80 	cmp.w	r3, #4096	; 0x1000
 80080cc:	84a7      	strh	r7, [r4, #36]	; 0x24
 80080ce:	84e7      	strh	r7, [r4, #38]	; 0x26
 80080d0:	d103      	bne.n	80080da <HAL_UART_Transmit+0x4e>
 80080d2:	6923      	ldr	r3, [r4, #16]
 80080d4:	b90b      	cbnz	r3, 80080da <HAL_UART_Transmit+0x4e>
 80080d6:	4635      	mov	r5, r6
 80080d8:	461e      	mov	r6, r3
 80080da:	2300      	movs	r3, #0
 80080dc:	f884 303c 	strb.w	r3, [r4, #60]	; 0x3c
 80080e0:	8ce3      	ldrh	r3, [r4, #38]	; 0x26
 80080e2:	b29b      	uxth	r3, r3
 80080e4:	b953      	cbnz	r3, 80080fc <HAL_UART_Transmit+0x70>
 80080e6:	464b      	mov	r3, r9
 80080e8:	4642      	mov	r2, r8
 80080ea:	2140      	movs	r1, #64	; 0x40
 80080ec:	4620      	mov	r0, r4
 80080ee:	f7ff ff77 	bl	8007fe0 <UART_WaitOnFlagUntilTimeout.constprop.0>
 80080f2:	b950      	cbnz	r0, 800810a <HAL_UART_Transmit+0x7e>
 80080f4:	2320      	movs	r3, #32
 80080f6:	f884 303d 	strb.w	r3, [r4, #61]	; 0x3d
 80080fa:	e007      	b.n	800810c <HAL_UART_Transmit+0x80>
 80080fc:	464b      	mov	r3, r9
 80080fe:	4642      	mov	r2, r8
 8008100:	2180      	movs	r1, #128	; 0x80
 8008102:	4620      	mov	r0, r4
 8008104:	f7ff ff6c 	bl	8007fe0 <UART_WaitOnFlagUntilTimeout.constprop.0>
 8008108:	b110      	cbz	r0, 8008110 <HAL_UART_Transmit+0x84>
 800810a:	2003      	movs	r0, #3
 800810c:	e8bd 83f8 	ldmia.w	sp!, {r3, r4, r5, r6, r7, r8, r9, pc}
 8008110:	6822      	ldr	r2, [r4, #0]
 8008112:	b94e      	cbnz	r6, 8008128 <HAL_UART_Transmit+0x9c>
 8008114:	f835 3b02 	ldrh.w	r3, [r5], #2
 8008118:	f3c3 0308 	ubfx	r3, r3, #0, #9
 800811c:	6053      	str	r3, [r2, #4]
 800811e:	8ce1      	ldrh	r1, [r4, #38]	; 0x26
 8008120:	3901      	subs	r1, #1
 8008122:	b289      	uxth	r1, r1
 8008124:	84e1      	strh	r1, [r4, #38]	; 0x26
 8008126:	e7db      	b.n	80080e0 <HAL_UART_Transmit+0x54>
 8008128:	f816 3b01 	ldrb.w	r3, [r6], #1
 800812c:	e7f6      	b.n	800811c <HAL_UART_Transmit+0x90>
 800812e:	2001      	movs	r0, #1
 8008130:	e7ec      	b.n	800810c <HAL_UART_Transmit+0x80>
 8008132:	2002      	movs	r0, #2
 8008134:	e7ea      	b.n	800810c <HAL_UART_Transmit+0x80>

08008136 <HAL_UART_Receive>:
 8008136:	e92d 43f8 	stmdb	sp!, {r3, r4, r5, r6, r7, r8, r9, lr}
 800813a:	461f      	mov	r7, r3
 800813c:	f890 303e 	ldrb.w	r3, [r0, #62]	; 0x3e
 8008140:	4604      	mov	r4, r0
 8008142:	2b20      	cmp	r3, #32
 8008144:	460e      	mov	r6, r1
 8008146:	4691      	mov	r9, r2
 8008148:	d14f      	bne.n	80081ea <HAL_UART_Receive+0xb4>
 800814a:	2900      	cmp	r1, #0
 800814c:	d04b      	beq.n	80081e6 <HAL_UART_Receive+0xb0>
 800814e:	2a00      	cmp	r2, #0
 8008150:	d049      	beq.n	80081e6 <HAL_UART_Receive+0xb0>
 8008152:	f890 303c 	ldrb.w	r3, [r0, #60]	; 0x3c
 8008156:	2b01      	cmp	r3, #1
 8008158:	d047      	beq.n	80081ea <HAL_UART_Receive+0xb4>
 800815a:	2301      	movs	r3, #1
 800815c:	2500      	movs	r5, #0
 800815e:	f880 303c 	strb.w	r3, [r0, #60]	; 0x3c
 8008162:	2322      	movs	r3, #34	; 0x22
 8008164:	6405      	str	r5, [r0, #64]	; 0x40
 8008166:	f880 303e 	strb.w	r3, [r0, #62]	; 0x3e
 800816a:	6305      	str	r5, [r0, #48]	; 0x30
 800816c:	f7fd fb70 	bl	8005850 <HAL_GetTick>
 8008170:	68a3      	ldr	r3, [r4, #8]
 8008172:	4680      	mov	r8, r0
 8008174:	f5b3 5f80 	cmp.w	r3, #4096	; 0x1000
 8008178:	f8a4 902c 	strh.w	r9, [r4, #44]	; 0x2c
 800817c:	f8a4 902e 	strh.w	r9, [r4, #46]	; 0x2e
 8008180:	d103      	bne.n	800818a <HAL_UART_Receive+0x54>
 8008182:	6923      	ldr	r3, [r4, #16]
 8008184:	b90b      	cbnz	r3, 800818a <HAL_UART_Receive+0x54>
 8008186:	4635      	mov	r5, r6
 8008188:	461e      	mov	r6, r3
 800818a:	2300      	movs	r3, #0
 800818c:	f884 303c 	strb.w	r3, [r4, #60]	; 0x3c
 8008190:	8de0      	ldrh	r0, [r4, #46]	; 0x2e
 8008192:	b280      	uxth	r0, r0
 8008194:	b920      	cbnz	r0, 80081a0 <HAL_UART_Receive+0x6a>
 8008196:	2320      	movs	r3, #32
 8008198:	f884 303e 	strb.w	r3, [r4, #62]	; 0x3e
 800819c:	e8bd 83f8 	ldmia.w	sp!, {r3, r4, r5, r6, r7, r8, r9, pc}
 80081a0:	463b      	mov	r3, r7
 80081a2:	4642      	mov	r2, r8
 80081a4:	2120      	movs	r1, #32
 80081a6:	4620      	mov	r0, r4
 80081a8:	f7ff ff1a 	bl	8007fe0 <UART_WaitOnFlagUntilTimeout.constprop.0>
 80081ac:	b9f8      	cbnz	r0, 80081ee <HAL_UART_Receive+0xb8>
 80081ae:	6823      	ldr	r3, [r4, #0]
 80081b0:	b94e      	cbnz	r6, 80081c6 <HAL_UART_Receive+0x90>
 80081b2:	685b      	ldr	r3, [r3, #4]
 80081b4:	f3c3 0308 	ubfx	r3, r3, #0, #9
 80081b8:	f825 3b02 	strh.w	r3, [r5], #2
 80081bc:	8de3      	ldrh	r3, [r4, #46]	; 0x2e
 80081be:	3b01      	subs	r3, #1
 80081c0:	b29b      	uxth	r3, r3
 80081c2:	85e3      	strh	r3, [r4, #46]	; 0x2e
 80081c4:	e7e4      	b.n	8008190 <HAL_UART_Receive+0x5a>
 80081c6:	68a2      	ldr	r2, [r4, #8]
 80081c8:	f5b2 5f80 	cmp.w	r2, #4096	; 0x1000
 80081cc:	d002      	beq.n	80081d4 <HAL_UART_Receive+0x9e>
 80081ce:	b932      	cbnz	r2, 80081de <HAL_UART_Receive+0xa8>
 80081d0:	6922      	ldr	r2, [r4, #16]
 80081d2:	b922      	cbnz	r2, 80081de <HAL_UART_Receive+0xa8>
 80081d4:	6859      	ldr	r1, [r3, #4]
 80081d6:	b2c9      	uxtb	r1, r1
 80081d8:	f806 1b01 	strb.w	r1, [r6], #1
 80081dc:	e7ee      	b.n	80081bc <HAL_UART_Receive+0x86>
 80081de:	6859      	ldr	r1, [r3, #4]
 80081e0:	f001 017f 	and.w	r1, r1, #127	; 0x7f
 80081e4:	e7f8      	b.n	80081d8 <HAL_UART_Receive+0xa2>
 80081e6:	2001      	movs	r0, #1
 80081e8:	e7d8      	b.n	800819c <HAL_UART_Receive+0x66>
 80081ea:	2002      	movs	r0, #2
 80081ec:	e7d6      	b.n	800819c <HAL_UART_Receive+0x66>
 80081ee:	2003      	movs	r0, #3
 80081f0:	e7d4      	b.n	800819c <HAL_UART_Receive+0x66>
	...

080081f4 <__errno>:
 80081f4:	4b01      	ldr	r3, [pc, #4]	; (80081fc <__errno+0x8>)
 80081f6:	6818      	ldr	r0, [r3, #0]
 80081f8:	4770      	bx	lr
 80081fa:	bf00      	nop
 80081fc:	20000170 	.word	0x20000170

08008200 <__libc_init_array>:
 8008200:	b570      	push	{r4, r5, r6, lr}
 8008202:	2600      	movs	r6, #0
 8008204:	4d0c      	ldr	r5, [pc, #48]	; (8008238 <__libc_init_array+0x38>)
 8008206:	4c0d      	ldr	r4, [pc, #52]	; (800823c <__libc_init_array+0x3c>)
 8008208:	1b64      	subs	r4, r4, r5
 800820a:	10a4      	asrs	r4, r4, #2
 800820c:	42a6      	cmp	r6, r4
 800820e:	d109      	bne.n	8008224 <__libc_init_array+0x24>
 8008210:	f003 fa20 	bl	800b654 <_init>
 8008214:	2600      	movs	r6, #0
 8008216:	4d0a      	ldr	r5, [pc, #40]	; (8008240 <__libc_init_array+0x40>)
 8008218:	4c0a      	ldr	r4, [pc, #40]	; (8008244 <__libc_init_array+0x44>)
 800821a:	1b64      	subs	r4, r4, r5
 800821c:	10a4      	asrs	r4, r4, #2
 800821e:	42a6      	cmp	r6, r4
 8008220:	d105      	bne.n	800822e <__libc_init_array+0x2e>
 8008222:	bd70      	pop	{r4, r5, r6, pc}
 8008224:	f855 3b04 	ldr.w	r3, [r5], #4
 8008228:	4798      	blx	r3
 800822a:	3601      	adds	r6, #1
 800822c:	e7ee      	b.n	800820c <__libc_init_array+0xc>
 800822e:	f855 3b04 	ldr.w	r3, [r5], #4
 8008232:	4798      	blx	r3
 8008234:	3601      	adds	r6, #1
 8008236:	e7f2      	b.n	800821e <__libc_init_array+0x1e>
 8008238:	0800be3c 	.word	0x0800be3c
 800823c:	0800be3c 	.word	0x0800be3c
 8008240:	0800be3c 	.word	0x0800be3c
 8008244:	0800be40 	.word	0x0800be40

08008248 <memset>:
 8008248:	4603      	mov	r3, r0
 800824a:	4402      	add	r2, r0
 800824c:	4293      	cmp	r3, r2
 800824e:	d100      	bne.n	8008252 <memset+0xa>
 8008250:	4770      	bx	lr
 8008252:	f803 1b01 	strb.w	r1, [r3], #1
 8008256:	e7f9      	b.n	800824c <memset+0x4>

08008258 <__cvt>:
 8008258:	2b00      	cmp	r3, #0
 800825a:	e92d 47f0 	stmdb	sp!, {r4, r5, r6, r7, r8, r9, sl, lr}
 800825e:	461f      	mov	r7, r3
 8008260:	bfbb      	ittet	lt
 8008262:	f103 4300 	addlt.w	r3, r3, #2147483648	; 0x80000000
 8008266:	461f      	movlt	r7, r3
 8008268:	2300      	movge	r3, #0
 800826a:	232d      	movlt	r3, #45	; 0x2d
 800826c:	b088      	sub	sp, #32
 800826e:	4614      	mov	r4, r2
 8008270:	9a12      	ldr	r2, [sp, #72]	; 0x48
 8008272:	9d10      	ldr	r5, [sp, #64]	; 0x40
 8008274:	7013      	strb	r3, [r2, #0]
 8008276:	9b14      	ldr	r3, [sp, #80]	; 0x50
 8008278:	f8dd a04c 	ldr.w	sl, [sp, #76]	; 0x4c
 800827c:	f023 0820 	bic.w	r8, r3, #32
 8008280:	f1b8 0f46 	cmp.w	r8, #70	; 0x46
 8008284:	d005      	beq.n	8008292 <__cvt+0x3a>
 8008286:	f1b8 0f45 	cmp.w	r8, #69	; 0x45
 800828a:	d100      	bne.n	800828e <__cvt+0x36>
 800828c:	3501      	adds	r5, #1
 800828e:	2302      	movs	r3, #2
 8008290:	e000      	b.n	8008294 <__cvt+0x3c>
 8008292:	2303      	movs	r3, #3
 8008294:	aa07      	add	r2, sp, #28
 8008296:	9204      	str	r2, [sp, #16]
 8008298:	aa06      	add	r2, sp, #24
 800829a:	e9cd a202 	strd	sl, r2, [sp, #8]
 800829e:	e9cd 3500 	strd	r3, r5, [sp]
 80082a2:	4622      	mov	r2, r4
 80082a4:	463b      	mov	r3, r7
 80082a6:	f000 fcef 	bl	8008c88 <_dtoa_r>
 80082aa:	f1b8 0f47 	cmp.w	r8, #71	; 0x47
 80082ae:	4606      	mov	r6, r0
 80082b0:	d102      	bne.n	80082b8 <__cvt+0x60>
 80082b2:	9b11      	ldr	r3, [sp, #68]	; 0x44
 80082b4:	07db      	lsls	r3, r3, #31
 80082b6:	d522      	bpl.n	80082fe <__cvt+0xa6>
 80082b8:	f1b8 0f46 	cmp.w	r8, #70	; 0x46
 80082bc:	eb06 0905 	add.w	r9, r6, r5
 80082c0:	d110      	bne.n	80082e4 <__cvt+0x8c>
 80082c2:	7833      	ldrb	r3, [r6, #0]
 80082c4:	2b30      	cmp	r3, #48	; 0x30
 80082c6:	d10a      	bne.n	80082de <__cvt+0x86>
 80082c8:	2200      	movs	r2, #0
 80082ca:	2300      	movs	r3, #0
 80082cc:	4620      	mov	r0, r4
 80082ce:	4639      	mov	r1, r7
 80082d0:	f7f8 fb6a 	bl	80009a8 <__aeabi_dcmpeq>
 80082d4:	b918      	cbnz	r0, 80082de <__cvt+0x86>
 80082d6:	f1c5 0501 	rsb	r5, r5, #1
 80082da:	f8ca 5000 	str.w	r5, [sl]
 80082de:	f8da 3000 	ldr.w	r3, [sl]
 80082e2:	4499      	add	r9, r3
 80082e4:	2200      	movs	r2, #0
 80082e6:	2300      	movs	r3, #0
 80082e8:	4620      	mov	r0, r4
 80082ea:	4639      	mov	r1, r7
 80082ec:	f7f8 fb5c 	bl	80009a8 <__aeabi_dcmpeq>
 80082f0:	b108      	cbz	r0, 80082f6 <__cvt+0x9e>
 80082f2:	f8cd 901c 	str.w	r9, [sp, #28]
 80082f6:	2230      	movs	r2, #48	; 0x30
 80082f8:	9b07      	ldr	r3, [sp, #28]
 80082fa:	454b      	cmp	r3, r9
 80082fc:	d307      	bcc.n	800830e <__cvt+0xb6>
 80082fe:	4630      	mov	r0, r6
 8008300:	9b07      	ldr	r3, [sp, #28]
 8008302:	9a15      	ldr	r2, [sp, #84]	; 0x54
 8008304:	1b9b      	subs	r3, r3, r6
 8008306:	6013      	str	r3, [r2, #0]
 8008308:	b008      	add	sp, #32
 800830a:	e8bd 87f0 	ldmia.w	sp!, {r4, r5, r6, r7, r8, r9, sl, pc}
 800830e:	1c59      	adds	r1, r3, #1
 8008310:	9107      	str	r1, [sp, #28]
 8008312:	701a      	strb	r2, [r3, #0]
 8008314:	e7f0      	b.n	80082f8 <__cvt+0xa0>

08008316 <__exponent>:
 8008316:	4603      	mov	r3, r0
 8008318:	b5f7      	push	{r0, r1, r2, r4, r5, r6, r7, lr}
 800831a:	2900      	cmp	r1, #0
 800831c:	f803 2b02 	strb.w	r2, [r3], #2
 8008320:	bfb6      	itet	lt
 8008322:	222d      	movlt	r2, #45	; 0x2d
 8008324:	222b      	movge	r2, #43	; 0x2b
 8008326:	4249      	neglt	r1, r1
 8008328:	2909      	cmp	r1, #9
 800832a:	7042      	strb	r2, [r0, #1]
 800832c:	dd2b      	ble.n	8008386 <__exponent+0x70>
 800832e:	f10d 0407 	add.w	r4, sp, #7
 8008332:	46a4      	mov	ip, r4
 8008334:	270a      	movs	r7, #10
 8008336:	fb91 f6f7 	sdiv	r6, r1, r7
 800833a:	460a      	mov	r2, r1
 800833c:	46a6      	mov	lr, r4
 800833e:	fb07 1516 	mls	r5, r7, r6, r1
 8008342:	2a63      	cmp	r2, #99	; 0x63
 8008344:	f105 0530 	add.w	r5, r5, #48	; 0x30
 8008348:	4631      	mov	r1, r6
 800834a:	f104 34ff 	add.w	r4, r4, #4294967295	; 0xffffffff
 800834e:	f80e 5c01 	strb.w	r5, [lr, #-1]
 8008352:	dcf0      	bgt.n	8008336 <__exponent+0x20>
 8008354:	3130      	adds	r1, #48	; 0x30
 8008356:	f1ae 0502 	sub.w	r5, lr, #2
 800835a:	f804 1c01 	strb.w	r1, [r4, #-1]
 800835e:	4629      	mov	r1, r5
 8008360:	1c44      	adds	r4, r0, #1
 8008362:	4561      	cmp	r1, ip
 8008364:	d30a      	bcc.n	800837c <__exponent+0x66>
 8008366:	f10d 0209 	add.w	r2, sp, #9
 800836a:	eba2 020e 	sub.w	r2, r2, lr
 800836e:	4565      	cmp	r5, ip
 8008370:	bf88      	it	hi
 8008372:	2200      	movhi	r2, #0
 8008374:	4413      	add	r3, r2
 8008376:	1a18      	subs	r0, r3, r0
 8008378:	b003      	add	sp, #12
 800837a:	bdf0      	pop	{r4, r5, r6, r7, pc}
 800837c:	f811 2b01 	ldrb.w	r2, [r1], #1
 8008380:	f804 2f01 	strb.w	r2, [r4, #1]!
 8008384:	e7ed      	b.n	8008362 <__exponent+0x4c>
 8008386:	2330      	movs	r3, #48	; 0x30
 8008388:	3130      	adds	r1, #48	; 0x30
 800838a:	7083      	strb	r3, [r0, #2]
 800838c:	70c1      	strb	r1, [r0, #3]
 800838e:	1d03      	adds	r3, r0, #4
 8008390:	e7f1      	b.n	8008376 <__exponent+0x60>
	...

08008394 <_printf_float>:
 8008394:	e92d 4ff0 	stmdb	sp!, {r4, r5, r6, r7, r8, r9, sl, fp, lr}
 8008398:	b091      	sub	sp, #68	; 0x44
 800839a:	460c      	mov	r4, r1
 800839c:	f8dd 8068 	ldr.w	r8, [sp, #104]	; 0x68
 80083a0:	4616      	mov	r6, r2
 80083a2:	461f      	mov	r7, r3
 80083a4:	4605      	mov	r5, r0
 80083a6:	f001 fa5d 	bl	8009864 <_localeconv_r>
 80083aa:	6803      	ldr	r3, [r0, #0]
 80083ac:	4618      	mov	r0, r3
 80083ae:	9309      	str	r3, [sp, #36]	; 0x24
 80083b0:	f7f7 fece 	bl	8000150 <strlen>
 80083b4:	2300      	movs	r3, #0
 80083b6:	930e      	str	r3, [sp, #56]	; 0x38
 80083b8:	f8d8 3000 	ldr.w	r3, [r8]
 80083bc:	900a      	str	r0, [sp, #40]	; 0x28
 80083be:	3307      	adds	r3, #7
 80083c0:	f023 0307 	bic.w	r3, r3, #7
 80083c4:	f103 0208 	add.w	r2, r3, #8
 80083c8:	f894 9018 	ldrb.w	r9, [r4, #24]
 80083cc:	f8d4 b000 	ldr.w	fp, [r4]
 80083d0:	f8c8 2000 	str.w	r2, [r8]
 80083d4:	e9d3 2300 	ldrd	r2, r3, [r3]
 80083d8:	e9c4 2312 	strd	r2, r3, [r4, #72]	; 0x48
 80083dc:	e9d4 8a12 	ldrd	r8, sl, [r4, #72]	; 0x48
 80083e0:	f02a 4300 	bic.w	r3, sl, #2147483648	; 0x80000000
 80083e4:	930b      	str	r3, [sp, #44]	; 0x2c
 80083e6:	f04f 32ff 	mov.w	r2, #4294967295	; 0xffffffff
 80083ea:	4640      	mov	r0, r8
 80083ec:	4b9c      	ldr	r3, [pc, #624]	; (8008660 <_printf_float+0x2cc>)
 80083ee:	990b      	ldr	r1, [sp, #44]	; 0x2c
 80083f0:	f7f8 fb0c 	bl	8000a0c <__aeabi_dcmpun>
 80083f4:	bb70      	cbnz	r0, 8008454 <_printf_float+0xc0>
 80083f6:	f04f 32ff 	mov.w	r2, #4294967295	; 0xffffffff
 80083fa:	4640      	mov	r0, r8
 80083fc:	4b98      	ldr	r3, [pc, #608]	; (8008660 <_printf_float+0x2cc>)
 80083fe:	990b      	ldr	r1, [sp, #44]	; 0x2c
 8008400:	f7f8 fae6 	bl	80009d0 <__aeabi_dcmple>
 8008404:	bb30      	cbnz	r0, 8008454 <_printf_float+0xc0>
 8008406:	2200      	movs	r2, #0
 8008408:	2300      	movs	r3, #0
 800840a:	4640      	mov	r0, r8
 800840c:	4651      	mov	r1, sl
 800840e:	f7f8 fad5 	bl	80009bc <__aeabi_dcmplt>
 8008412:	b110      	cbz	r0, 800841a <_printf_float+0x86>
 8008414:	232d      	movs	r3, #45	; 0x2d
 8008416:	f884 3043 	strb.w	r3, [r4, #67]	; 0x43
 800841a:	4b92      	ldr	r3, [pc, #584]	; (8008664 <_printf_float+0x2d0>)
 800841c:	4892      	ldr	r0, [pc, #584]	; (8008668 <_printf_float+0x2d4>)
 800841e:	f1b9 0f47 	cmp.w	r9, #71	; 0x47
 8008422:	bf94      	ite	ls
 8008424:	4698      	movls	r8, r3
 8008426:	4680      	movhi	r8, r0
 8008428:	2303      	movs	r3, #3
 800842a:	f04f 0a00 	mov.w	sl, #0
 800842e:	6123      	str	r3, [r4, #16]
 8008430:	f02b 0304 	bic.w	r3, fp, #4
 8008434:	6023      	str	r3, [r4, #0]
 8008436:	4633      	mov	r3, r6
 8008438:	4621      	mov	r1, r4
 800843a:	4628      	mov	r0, r5
 800843c:	9700      	str	r7, [sp, #0]
 800843e:	aa0f      	add	r2, sp, #60	; 0x3c
 8008440:	f000 f9d4 	bl	80087ec <_printf_common>
 8008444:	3001      	adds	r0, #1
 8008446:	f040 8090 	bne.w	800856a <_printf_float+0x1d6>
 800844a:	f04f 30ff 	mov.w	r0, #4294967295	; 0xffffffff
 800844e:	b011      	add	sp, #68	; 0x44
 8008450:	e8bd 8ff0 	ldmia.w	sp!, {r4, r5, r6, r7, r8, r9, sl, fp, pc}
 8008454:	4642      	mov	r2, r8
 8008456:	4653      	mov	r3, sl
 8008458:	4640      	mov	r0, r8
 800845a:	4651      	mov	r1, sl
 800845c:	f7f8 fad6 	bl	8000a0c <__aeabi_dcmpun>
 8008460:	b148      	cbz	r0, 8008476 <_printf_float+0xe2>
 8008462:	f1ba 0f00 	cmp.w	sl, #0
 8008466:	bfb8      	it	lt
 8008468:	232d      	movlt	r3, #45	; 0x2d
 800846a:	4880      	ldr	r0, [pc, #512]	; (800866c <_printf_float+0x2d8>)
 800846c:	bfb8      	it	lt
 800846e:	f884 3043 	strblt.w	r3, [r4, #67]	; 0x43
 8008472:	4b7f      	ldr	r3, [pc, #508]	; (8008670 <_printf_float+0x2dc>)
 8008474:	e7d3      	b.n	800841e <_printf_float+0x8a>
 8008476:	6863      	ldr	r3, [r4, #4]
 8008478:	f009 01df 	and.w	r1, r9, #223	; 0xdf
 800847c:	1c5a      	adds	r2, r3, #1
 800847e:	d142      	bne.n	8008506 <_printf_float+0x172>
 8008480:	2306      	movs	r3, #6
 8008482:	6063      	str	r3, [r4, #4]
 8008484:	2200      	movs	r2, #0
 8008486:	9206      	str	r2, [sp, #24]
 8008488:	aa0e      	add	r2, sp, #56	; 0x38
 800848a:	e9cd 9204 	strd	r9, r2, [sp, #16]
 800848e:	aa0d      	add	r2, sp, #52	; 0x34
 8008490:	f44b 6380 	orr.w	r3, fp, #1024	; 0x400
 8008494:	9203      	str	r2, [sp, #12]
 8008496:	f10d 0233 	add.w	r2, sp, #51	; 0x33
 800849a:	e9cd 3201 	strd	r3, r2, [sp, #4]
 800849e:	6023      	str	r3, [r4, #0]
 80084a0:	6863      	ldr	r3, [r4, #4]
 80084a2:	4642      	mov	r2, r8
 80084a4:	9300      	str	r3, [sp, #0]
 80084a6:	4628      	mov	r0, r5
 80084a8:	4653      	mov	r3, sl
 80084aa:	910b      	str	r1, [sp, #44]	; 0x2c
 80084ac:	f7ff fed4 	bl	8008258 <__cvt>
 80084b0:	990b      	ldr	r1, [sp, #44]	; 0x2c
 80084b2:	4680      	mov	r8, r0
 80084b4:	2947      	cmp	r1, #71	; 0x47
 80084b6:	990d      	ldr	r1, [sp, #52]	; 0x34
 80084b8:	d108      	bne.n	80084cc <_printf_float+0x138>
 80084ba:	1cc8      	adds	r0, r1, #3
 80084bc:	db02      	blt.n	80084c4 <_printf_float+0x130>
 80084be:	6863      	ldr	r3, [r4, #4]
 80084c0:	4299      	cmp	r1, r3
 80084c2:	dd40      	ble.n	8008546 <_printf_float+0x1b2>
 80084c4:	f1a9 0902 	sub.w	r9, r9, #2
 80084c8:	fa5f f989 	uxtb.w	r9, r9
 80084cc:	f1b9 0f65 	cmp.w	r9, #101	; 0x65
 80084d0:	d81f      	bhi.n	8008512 <_printf_float+0x17e>
 80084d2:	464a      	mov	r2, r9
 80084d4:	3901      	subs	r1, #1
 80084d6:	f104 0050 	add.w	r0, r4, #80	; 0x50
 80084da:	910d      	str	r1, [sp, #52]	; 0x34
 80084dc:	f7ff ff1b 	bl	8008316 <__exponent>
 80084e0:	9a0e      	ldr	r2, [sp, #56]	; 0x38
 80084e2:	4682      	mov	sl, r0
 80084e4:	1813      	adds	r3, r2, r0
 80084e6:	2a01      	cmp	r2, #1
 80084e8:	6123      	str	r3, [r4, #16]
 80084ea:	dc02      	bgt.n	80084f2 <_printf_float+0x15e>
 80084ec:	6822      	ldr	r2, [r4, #0]
 80084ee:	07d2      	lsls	r2, r2, #31
 80084f0:	d501      	bpl.n	80084f6 <_printf_float+0x162>
 80084f2:	3301      	adds	r3, #1
 80084f4:	6123      	str	r3, [r4, #16]
 80084f6:	f89d 3033 	ldrb.w	r3, [sp, #51]	; 0x33
 80084fa:	2b00      	cmp	r3, #0
 80084fc:	d09b      	beq.n	8008436 <_printf_float+0xa2>
 80084fe:	232d      	movs	r3, #45	; 0x2d
 8008500:	f884 3043 	strb.w	r3, [r4, #67]	; 0x43
 8008504:	e797      	b.n	8008436 <_printf_float+0xa2>
 8008506:	2947      	cmp	r1, #71	; 0x47
 8008508:	d1bc      	bne.n	8008484 <_printf_float+0xf0>
 800850a:	2b00      	cmp	r3, #0
 800850c:	d1ba      	bne.n	8008484 <_printf_float+0xf0>
 800850e:	2301      	movs	r3, #1
 8008510:	e7b7      	b.n	8008482 <_printf_float+0xee>
 8008512:	f1b9 0f66 	cmp.w	r9, #102	; 0x66
 8008516:	d118      	bne.n	800854a <_printf_float+0x1b6>
 8008518:	2900      	cmp	r1, #0
 800851a:	6863      	ldr	r3, [r4, #4]
 800851c:	dd0b      	ble.n	8008536 <_printf_float+0x1a2>
 800851e:	6121      	str	r1, [r4, #16]
 8008520:	b913      	cbnz	r3, 8008528 <_printf_float+0x194>
 8008522:	6822      	ldr	r2, [r4, #0]
 8008524:	07d0      	lsls	r0, r2, #31
 8008526:	d502      	bpl.n	800852e <_printf_float+0x19a>
 8008528:	3301      	adds	r3, #1
 800852a:	440b      	add	r3, r1
 800852c:	6123      	str	r3, [r4, #16]
 800852e:	f04f 0a00 	mov.w	sl, #0
 8008532:	65a1      	str	r1, [r4, #88]	; 0x58
 8008534:	e7df      	b.n	80084f6 <_printf_float+0x162>
 8008536:	b913      	cbnz	r3, 800853e <_printf_float+0x1aa>
 8008538:	6822      	ldr	r2, [r4, #0]
 800853a:	07d2      	lsls	r2, r2, #31
 800853c:	d501      	bpl.n	8008542 <_printf_float+0x1ae>
 800853e:	3302      	adds	r3, #2
 8008540:	e7f4      	b.n	800852c <_printf_float+0x198>
 8008542:	2301      	movs	r3, #1
 8008544:	e7f2      	b.n	800852c <_printf_float+0x198>
 8008546:	f04f 0967 	mov.w	r9, #103	; 0x67
 800854a:	9b0e      	ldr	r3, [sp, #56]	; 0x38
 800854c:	4299      	cmp	r1, r3
 800854e:	db05      	blt.n	800855c <_printf_float+0x1c8>
 8008550:	6823      	ldr	r3, [r4, #0]
 8008552:	6121      	str	r1, [r4, #16]
 8008554:	07d8      	lsls	r0, r3, #31
 8008556:	d5ea      	bpl.n	800852e <_printf_float+0x19a>
 8008558:	1c4b      	adds	r3, r1, #1
 800855a:	e7e7      	b.n	800852c <_printf_float+0x198>
 800855c:	2900      	cmp	r1, #0
 800855e:	bfcc      	ite	gt
 8008560:	2201      	movgt	r2, #1
 8008562:	f1c1 0202 	rsble	r2, r1, #2
 8008566:	4413      	add	r3, r2
 8008568:	e7e0      	b.n	800852c <_printf_float+0x198>
 800856a:	6823      	ldr	r3, [r4, #0]
 800856c:	055a      	lsls	r2, r3, #21
 800856e:	d407      	bmi.n	8008580 <_printf_float+0x1ec>
 8008570:	6923      	ldr	r3, [r4, #16]
 8008572:	4642      	mov	r2, r8
 8008574:	4631      	mov	r1, r6
 8008576:	4628      	mov	r0, r5
 8008578:	47b8      	blx	r7
 800857a:	3001      	adds	r0, #1
 800857c:	d12b      	bne.n	80085d6 <_printf_float+0x242>
 800857e:	e764      	b.n	800844a <_printf_float+0xb6>
 8008580:	f1b9 0f65 	cmp.w	r9, #101	; 0x65
 8008584:	f240 80dd 	bls.w	8008742 <_printf_float+0x3ae>
 8008588:	e9d4 0112 	ldrd	r0, r1, [r4, #72]	; 0x48
 800858c:	2200      	movs	r2, #0
 800858e:	2300      	movs	r3, #0
 8008590:	f7f8 fa0a 	bl	80009a8 <__aeabi_dcmpeq>
 8008594:	2800      	cmp	r0, #0
 8008596:	d033      	beq.n	8008600 <_printf_float+0x26c>
 8008598:	2301      	movs	r3, #1
 800859a:	4631      	mov	r1, r6
 800859c:	4628      	mov	r0, r5
 800859e:	4a35      	ldr	r2, [pc, #212]	; (8008674 <_printf_float+0x2e0>)
 80085a0:	47b8      	blx	r7
 80085a2:	3001      	adds	r0, #1
 80085a4:	f43f af51 	beq.w	800844a <_printf_float+0xb6>
 80085a8:	e9dd 230d 	ldrd	r2, r3, [sp, #52]	; 0x34
 80085ac:	429a      	cmp	r2, r3
 80085ae:	db02      	blt.n	80085b6 <_printf_float+0x222>
 80085b0:	6823      	ldr	r3, [r4, #0]
 80085b2:	07d8      	lsls	r0, r3, #31
 80085b4:	d50f      	bpl.n	80085d6 <_printf_float+0x242>
 80085b6:	e9dd 2309 	ldrd	r2, r3, [sp, #36]	; 0x24
 80085ba:	4631      	mov	r1, r6
 80085bc:	4628      	mov	r0, r5
 80085be:	47b8      	blx	r7
 80085c0:	3001      	adds	r0, #1
 80085c2:	f43f af42 	beq.w	800844a <_printf_float+0xb6>
 80085c6:	f04f 0800 	mov.w	r8, #0
 80085ca:	f104 091a 	add.w	r9, r4, #26
 80085ce:	9b0e      	ldr	r3, [sp, #56]	; 0x38
 80085d0:	3b01      	subs	r3, #1
 80085d2:	4543      	cmp	r3, r8
 80085d4:	dc09      	bgt.n	80085ea <_printf_float+0x256>
 80085d6:	6823      	ldr	r3, [r4, #0]
 80085d8:	079b      	lsls	r3, r3, #30
 80085da:	f100 8102 	bmi.w	80087e2 <_printf_float+0x44e>
 80085de:	68e0      	ldr	r0, [r4, #12]
 80085e0:	9b0f      	ldr	r3, [sp, #60]	; 0x3c
 80085e2:	4298      	cmp	r0, r3
 80085e4:	bfb8      	it	lt
 80085e6:	4618      	movlt	r0, r3
 80085e8:	e731      	b.n	800844e <_printf_float+0xba>
 80085ea:	2301      	movs	r3, #1
 80085ec:	464a      	mov	r2, r9
 80085ee:	4631      	mov	r1, r6
 80085f0:	4628      	mov	r0, r5
 80085f2:	47b8      	blx	r7
 80085f4:	3001      	adds	r0, #1
 80085f6:	f43f af28 	beq.w	800844a <_printf_float+0xb6>
 80085fa:	f108 0801 	add.w	r8, r8, #1
 80085fe:	e7e6      	b.n	80085ce <_printf_float+0x23a>
 8008600:	9b0d      	ldr	r3, [sp, #52]	; 0x34
 8008602:	2b00      	cmp	r3, #0
 8008604:	dc38      	bgt.n	8008678 <_printf_float+0x2e4>
 8008606:	2301      	movs	r3, #1
 8008608:	4631      	mov	r1, r6
 800860a:	4628      	mov	r0, r5
 800860c:	4a19      	ldr	r2, [pc, #100]	; (8008674 <_printf_float+0x2e0>)
 800860e:	47b8      	blx	r7
 8008610:	3001      	adds	r0, #1
 8008612:	f43f af1a 	beq.w	800844a <_printf_float+0xb6>
 8008616:	e9dd 230d 	ldrd	r2, r3, [sp, #52]	; 0x34
 800861a:	4313      	orrs	r3, r2
 800861c:	d102      	bne.n	8008624 <_printf_float+0x290>
 800861e:	6823      	ldr	r3, [r4, #0]
 8008620:	07d9      	lsls	r1, r3, #31
 8008622:	d5d8      	bpl.n	80085d6 <_printf_float+0x242>
 8008624:	e9dd 2309 	ldrd	r2, r3, [sp, #36]	; 0x24
 8008628:	4631      	mov	r1, r6
 800862a:	4628      	mov	r0, r5
 800862c:	47b8      	blx	r7
 800862e:	3001      	adds	r0, #1
 8008630:	f43f af0b 	beq.w	800844a <_printf_float+0xb6>
 8008634:	f04f 0900 	mov.w	r9, #0
 8008638:	f104 0a1a 	add.w	sl, r4, #26
 800863c:	9b0d      	ldr	r3, [sp, #52]	; 0x34
 800863e:	425b      	negs	r3, r3
 8008640:	454b      	cmp	r3, r9
 8008642:	dc01      	bgt.n	8008648 <_printf_float+0x2b4>
 8008644:	9b0e      	ldr	r3, [sp, #56]	; 0x38
 8008646:	e794      	b.n	8008572 <_printf_float+0x1de>
 8008648:	2301      	movs	r3, #1
 800864a:	4652      	mov	r2, sl
 800864c:	4631      	mov	r1, r6
 800864e:	4628      	mov	r0, r5
 8008650:	47b8      	blx	r7
 8008652:	3001      	adds	r0, #1
 8008654:	f43f aef9 	beq.w	800844a <_printf_float+0xb6>
 8008658:	f109 0901 	add.w	r9, r9, #1
 800865c:	e7ee      	b.n	800863c <_printf_float+0x2a8>
 800865e:	bf00      	nop
 8008660:	7fefffff 	.word	0x7fefffff
 8008664:	0800ba54 	.word	0x0800ba54
 8008668:	0800ba58 	.word	0x0800ba58
 800866c:	0800ba60 	.word	0x0800ba60
 8008670:	0800ba5c 	.word	0x0800ba5c
 8008674:	0800ba64 	.word	0x0800ba64
 8008678:	9a0e      	ldr	r2, [sp, #56]	; 0x38
 800867a:	6da3      	ldr	r3, [r4, #88]	; 0x58
 800867c:	429a      	cmp	r2, r3
 800867e:	bfa8      	it	ge
 8008680:	461a      	movge	r2, r3
 8008682:	2a00      	cmp	r2, #0
 8008684:	4691      	mov	r9, r2
 8008686:	dc37      	bgt.n	80086f8 <_printf_float+0x364>
 8008688:	f04f 0b00 	mov.w	fp, #0
 800868c:	ea29 79e9 	bic.w	r9, r9, r9, asr #31
 8008690:	f104 021a 	add.w	r2, r4, #26
 8008694:	f8d4 a058 	ldr.w	sl, [r4, #88]	; 0x58
 8008698:	ebaa 0309 	sub.w	r3, sl, r9
 800869c:	455b      	cmp	r3, fp
 800869e:	dc33      	bgt.n	8008708 <_printf_float+0x374>
 80086a0:	e9dd 230d 	ldrd	r2, r3, [sp, #52]	; 0x34
 80086a4:	429a      	cmp	r2, r3
 80086a6:	db3b      	blt.n	8008720 <_printf_float+0x38c>
 80086a8:	6823      	ldr	r3, [r4, #0]
 80086aa:	07da      	lsls	r2, r3, #31
 80086ac:	d438      	bmi.n	8008720 <_printf_float+0x38c>
 80086ae:	9a0e      	ldr	r2, [sp, #56]	; 0x38
 80086b0:	990d      	ldr	r1, [sp, #52]	; 0x34
 80086b2:	eba2 030a 	sub.w	r3, r2, sl
 80086b6:	eba2 0901 	sub.w	r9, r2, r1
 80086ba:	4599      	cmp	r9, r3
 80086bc:	bfa8      	it	ge
 80086be:	4699      	movge	r9, r3
 80086c0:	f1b9 0f00 	cmp.w	r9, #0
 80086c4:	dc34      	bgt.n	8008730 <_printf_float+0x39c>
 80086c6:	f04f 0800 	mov.w	r8, #0
 80086ca:	ea29 79e9 	bic.w	r9, r9, r9, asr #31
 80086ce:	f104 0a1a 	add.w	sl, r4, #26
 80086d2:	e9dd 230d 	ldrd	r2, r3, [sp, #52]	; 0x34
 80086d6:	1a9b      	subs	r3, r3, r2
 80086d8:	eba3 0309 	sub.w	r3, r3, r9
 80086dc:	4543      	cmp	r3, r8
 80086de:	f77f af7a 	ble.w	80085d6 <_printf_float+0x242>
 80086e2:	2301      	movs	r3, #1
 80086e4:	4652      	mov	r2, sl
 80086e6:	4631      	mov	r1, r6
 80086e8:	4628      	mov	r0, r5
 80086ea:	47b8      	blx	r7
 80086ec:	3001      	adds	r0, #1
 80086ee:	f43f aeac 	beq.w	800844a <_printf_float+0xb6>
 80086f2:	f108 0801 	add.w	r8, r8, #1
 80086f6:	e7ec      	b.n	80086d2 <_printf_float+0x33e>
 80086f8:	4613      	mov	r3, r2
 80086fa:	4631      	mov	r1, r6
 80086fc:	4642      	mov	r2, r8
 80086fe:	4628      	mov	r0, r5
 8008700:	47b8      	blx	r7
 8008702:	3001      	adds	r0, #1
 8008704:	d1c0      	bne.n	8008688 <_printf_float+0x2f4>
 8008706:	e6a0      	b.n	800844a <_printf_float+0xb6>
 8008708:	2301      	movs	r3, #1
 800870a:	4631      	mov	r1, r6
 800870c:	4628      	mov	r0, r5
 800870e:	920b      	str	r2, [sp, #44]	; 0x2c
 8008710:	47b8      	blx	r7
 8008712:	3001      	adds	r0, #1
 8008714:	f43f ae99 	beq.w	800844a <_printf_float+0xb6>
 8008718:	9a0b      	ldr	r2, [sp, #44]	; 0x2c
 800871a:	f10b 0b01 	add.w	fp, fp, #1
 800871e:	e7b9      	b.n	8008694 <_printf_float+0x300>
 8008720:	4631      	mov	r1, r6
 8008722:	e9dd 2309 	ldrd	r2, r3, [sp, #36]	; 0x24
 8008726:	4628      	mov	r0, r5
 8008728:	47b8      	blx	r7
 800872a:	3001      	adds	r0, #1
 800872c:	d1bf      	bne.n	80086ae <_printf_float+0x31a>
 800872e:	e68c      	b.n	800844a <_printf_float+0xb6>
 8008730:	464b      	mov	r3, r9
 8008732:	4631      	mov	r1, r6
 8008734:	4628      	mov	r0, r5
 8008736:	eb08 020a 	add.w	r2, r8, sl
 800873a:	47b8      	blx	r7
 800873c:	3001      	adds	r0, #1
 800873e:	d1c2      	bne.n	80086c6 <_printf_float+0x332>
 8008740:	e683      	b.n	800844a <_printf_float+0xb6>
 8008742:	9a0e      	ldr	r2, [sp, #56]	; 0x38
 8008744:	2a01      	cmp	r2, #1
 8008746:	dc01      	bgt.n	800874c <_printf_float+0x3b8>
 8008748:	07db      	lsls	r3, r3, #31
 800874a:	d537      	bpl.n	80087bc <_printf_float+0x428>
 800874c:	2301      	movs	r3, #1
 800874e:	4642      	mov	r2, r8
 8008750:	4631      	mov	r1, r6
 8008752:	4628      	mov	r0, r5
 8008754:	47b8      	blx	r7
 8008756:	3001      	adds	r0, #1
 8008758:	f43f ae77 	beq.w	800844a <_printf_float+0xb6>
 800875c:	e9dd 2309 	ldrd	r2, r3, [sp, #36]	; 0x24
 8008760:	4631      	mov	r1, r6
 8008762:	4628      	mov	r0, r5
 8008764:	47b8      	blx	r7
 8008766:	3001      	adds	r0, #1
 8008768:	f43f ae6f 	beq.w	800844a <_printf_float+0xb6>
 800876c:	e9d4 0112 	ldrd	r0, r1, [r4, #72]	; 0x48
 8008770:	2200      	movs	r2, #0
 8008772:	2300      	movs	r3, #0
 8008774:	f7f8 f918 	bl	80009a8 <__aeabi_dcmpeq>
 8008778:	b9d8      	cbnz	r0, 80087b2 <_printf_float+0x41e>
 800877a:	9b0e      	ldr	r3, [sp, #56]	; 0x38
 800877c:	f108 0201 	add.w	r2, r8, #1
 8008780:	3b01      	subs	r3, #1
 8008782:	4631      	mov	r1, r6
 8008784:	4628      	mov	r0, r5
 8008786:	47b8      	blx	r7
 8008788:	3001      	adds	r0, #1
 800878a:	d10e      	bne.n	80087aa <_printf_float+0x416>
 800878c:	e65d      	b.n	800844a <_printf_float+0xb6>
 800878e:	2301      	movs	r3, #1
 8008790:	464a      	mov	r2, r9
 8008792:	4631      	mov	r1, r6
 8008794:	4628      	mov	r0, r5
 8008796:	47b8      	blx	r7
 8008798:	3001      	adds	r0, #1
 800879a:	f43f ae56 	beq.w	800844a <_printf_float+0xb6>
 800879e:	f108 0801 	add.w	r8, r8, #1
 80087a2:	9b0e      	ldr	r3, [sp, #56]	; 0x38
 80087a4:	3b01      	subs	r3, #1
 80087a6:	4543      	cmp	r3, r8
 80087a8:	dcf1      	bgt.n	800878e <_printf_float+0x3fa>
 80087aa:	4653      	mov	r3, sl
 80087ac:	f104 0250 	add.w	r2, r4, #80	; 0x50
 80087b0:	e6e0      	b.n	8008574 <_printf_float+0x1e0>
 80087b2:	f04f 0800 	mov.w	r8, #0
 80087b6:	f104 091a 	add.w	r9, r4, #26
 80087ba:	e7f2      	b.n	80087a2 <_printf_float+0x40e>
 80087bc:	2301      	movs	r3, #1
 80087be:	4642      	mov	r2, r8
 80087c0:	e7df      	b.n	8008782 <_printf_float+0x3ee>
 80087c2:	2301      	movs	r3, #1
 80087c4:	464a      	mov	r2, r9
 80087c6:	4631      	mov	r1, r6
 80087c8:	4628      	mov	r0, r5
 80087ca:	47b8      	blx	r7
 80087cc:	3001      	adds	r0, #1
 80087ce:	f43f ae3c 	beq.w	800844a <_printf_float+0xb6>
 80087d2:	f108 0801 	add.w	r8, r8, #1
 80087d6:	68e3      	ldr	r3, [r4, #12]
 80087d8:	990f      	ldr	r1, [sp, #60]	; 0x3c
 80087da:	1a5b      	subs	r3, r3, r1
 80087dc:	4543      	cmp	r3, r8
 80087de:	dcf0      	bgt.n	80087c2 <_printf_float+0x42e>
 80087e0:	e6fd      	b.n	80085de <_printf_float+0x24a>
 80087e2:	f04f 0800 	mov.w	r8, #0
 80087e6:	f104 0919 	add.w	r9, r4, #25
 80087ea:	e7f4      	b.n	80087d6 <_printf_float+0x442>

080087ec <_printf_common>:
 80087ec:	e92d 47f0 	stmdb	sp!, {r4, r5, r6, r7, r8, r9, sl, lr}
 80087f0:	4616      	mov	r6, r2
 80087f2:	4699      	mov	r9, r3
 80087f4:	688a      	ldr	r2, [r1, #8]
 80087f6:	690b      	ldr	r3, [r1, #16]
 80087f8:	4607      	mov	r7, r0
 80087fa:	4293      	cmp	r3, r2
 80087fc:	bfb8      	it	lt
 80087fe:	4613      	movlt	r3, r2
 8008800:	6033      	str	r3, [r6, #0]
 8008802:	f891 2043 	ldrb.w	r2, [r1, #67]	; 0x43
 8008806:	460c      	mov	r4, r1
 8008808:	f8dd 8020 	ldr.w	r8, [sp, #32]
 800880c:	b10a      	cbz	r2, 8008812 <_printf_common+0x26>
 800880e:	3301      	adds	r3, #1
 8008810:	6033      	str	r3, [r6, #0]
 8008812:	6823      	ldr	r3, [r4, #0]
 8008814:	0699      	lsls	r1, r3, #26
 8008816:	bf42      	ittt	mi
 8008818:	6833      	ldrmi	r3, [r6, #0]
 800881a:	3302      	addmi	r3, #2
 800881c:	6033      	strmi	r3, [r6, #0]
 800881e:	6825      	ldr	r5, [r4, #0]
 8008820:	f015 0506 	ands.w	r5, r5, #6
 8008824:	d106      	bne.n	8008834 <_printf_common+0x48>
 8008826:	f104 0a19 	add.w	sl, r4, #25
 800882a:	68e3      	ldr	r3, [r4, #12]
 800882c:	6832      	ldr	r2, [r6, #0]
 800882e:	1a9b      	subs	r3, r3, r2
 8008830:	42ab      	cmp	r3, r5
 8008832:	dc28      	bgt.n	8008886 <_printf_common+0x9a>
 8008834:	f894 2043 	ldrb.w	r2, [r4, #67]	; 0x43
 8008838:	1e13      	subs	r3, r2, #0
 800883a:	6822      	ldr	r2, [r4, #0]
 800883c:	bf18      	it	ne
 800883e:	2301      	movne	r3, #1
 8008840:	0692      	lsls	r2, r2, #26
 8008842:	d42d      	bmi.n	80088a0 <_printf_common+0xb4>
 8008844:	4649      	mov	r1, r9
 8008846:	4638      	mov	r0, r7
 8008848:	f104 0243 	add.w	r2, r4, #67	; 0x43
 800884c:	47c0      	blx	r8
 800884e:	3001      	adds	r0, #1
 8008850:	d020      	beq.n	8008894 <_printf_common+0xa8>
 8008852:	6823      	ldr	r3, [r4, #0]
 8008854:	68e5      	ldr	r5, [r4, #12]
 8008856:	f003 0306 	and.w	r3, r3, #6
 800885a:	2b04      	cmp	r3, #4
 800885c:	bf18      	it	ne
 800885e:	2500      	movne	r5, #0
 8008860:	6832      	ldr	r2, [r6, #0]
 8008862:	f04f 0600 	mov.w	r6, #0
 8008866:	68a3      	ldr	r3, [r4, #8]
 8008868:	bf08      	it	eq
 800886a:	1aad      	subeq	r5, r5, r2
 800886c:	6922      	ldr	r2, [r4, #16]
 800886e:	bf08      	it	eq
 8008870:	ea25 75e5 	biceq.w	r5, r5, r5, asr #31
 8008874:	4293      	cmp	r3, r2
 8008876:	bfc4      	itt	gt
 8008878:	1a9b      	subgt	r3, r3, r2
 800887a:	18ed      	addgt	r5, r5, r3
 800887c:	341a      	adds	r4, #26
 800887e:	42b5      	cmp	r5, r6
 8008880:	d11a      	bne.n	80088b8 <_printf_common+0xcc>
 8008882:	2000      	movs	r0, #0
 8008884:	e008      	b.n	8008898 <_printf_common+0xac>
 8008886:	2301      	movs	r3, #1
 8008888:	4652      	mov	r2, sl
 800888a:	4649      	mov	r1, r9
 800888c:	4638      	mov	r0, r7
 800888e:	47c0      	blx	r8
 8008890:	3001      	adds	r0, #1
 8008892:	d103      	bne.n	800889c <_printf_common+0xb0>
 8008894:	f04f 30ff 	mov.w	r0, #4294967295	; 0xffffffff
 8008898:	e8bd 87f0 	ldmia.w	sp!, {r4, r5, r6, r7, r8, r9, sl, pc}
 800889c:	3501      	adds	r5, #1
 800889e:	e7c4      	b.n	800882a <_printf_common+0x3e>
 80088a0:	2030      	movs	r0, #48	; 0x30
 80088a2:	18e1      	adds	r1, r4, r3
 80088a4:	f881 0043 	strb.w	r0, [r1, #67]	; 0x43
 80088a8:	1c5a      	adds	r2, r3, #1
 80088aa:	f894 1045 	ldrb.w	r1, [r4, #69]	; 0x45
 80088ae:	4422      	add	r2, r4
 80088b0:	3302      	adds	r3, #2
 80088b2:	f882 1043 	strb.w	r1, [r2, #67]	; 0x43
 80088b6:	e7c5      	b.n	8008844 <_printf_common+0x58>
 80088b8:	2301      	movs	r3, #1
 80088ba:	4622      	mov	r2, r4
 80088bc:	4649      	mov	r1, r9
 80088be:	4638      	mov	r0, r7
 80088c0:	47c0      	blx	r8
 80088c2:	3001      	adds	r0, #1
 80088c4:	d0e6      	beq.n	8008894 <_printf_common+0xa8>
 80088c6:	3601      	adds	r6, #1
 80088c8:	e7d9      	b.n	800887e <_printf_common+0x92>
	...

080088cc <_printf_i>:
 80088cc:	e92d 47ff 	stmdb	sp!, {r0, r1, r2, r3, r4, r5, r6, r7, r8, r9, sl, lr}
 80088d0:	460c      	mov	r4, r1
 80088d2:	7e27      	ldrb	r7, [r4, #24]
 80088d4:	4691      	mov	r9, r2
 80088d6:	2f78      	cmp	r7, #120	; 0x78
 80088d8:	4680      	mov	r8, r0
 80088da:	469a      	mov	sl, r3
 80088dc:	990c      	ldr	r1, [sp, #48]	; 0x30
 80088de:	f104 0243 	add.w	r2, r4, #67	; 0x43
 80088e2:	d807      	bhi.n	80088f4 <_printf_i+0x28>
 80088e4:	2f62      	cmp	r7, #98	; 0x62
 80088e6:	d80a      	bhi.n	80088fe <_printf_i+0x32>
 80088e8:	2f00      	cmp	r7, #0
 80088ea:	f000 80d9 	beq.w	8008aa0 <_printf_i+0x1d4>
 80088ee:	2f58      	cmp	r7, #88	; 0x58
 80088f0:	f000 80a4 	beq.w	8008a3c <_printf_i+0x170>
 80088f4:	f104 0642 	add.w	r6, r4, #66	; 0x42
 80088f8:	f884 7042 	strb.w	r7, [r4, #66]	; 0x42
 80088fc:	e03a      	b.n	8008974 <_printf_i+0xa8>
 80088fe:	f1a7 0363 	sub.w	r3, r7, #99	; 0x63
 8008902:	2b15      	cmp	r3, #21
 8008904:	d8f6      	bhi.n	80088f4 <_printf_i+0x28>
 8008906:	a001      	add	r0, pc, #4	; (adr r0, 800890c <_printf_i+0x40>)
 8008908:	f850 f023 	ldr.w	pc, [r0, r3, lsl #2]
 800890c:	08008965 	.word	0x08008965
 8008910:	08008979 	.word	0x08008979
 8008914:	080088f5 	.word	0x080088f5
 8008918:	080088f5 	.word	0x080088f5
 800891c:	080088f5 	.word	0x080088f5
 8008920:	080088f5 	.word	0x080088f5
 8008924:	08008979 	.word	0x08008979
 8008928:	080088f5 	.word	0x080088f5
 800892c:	080088f5 	.word	0x080088f5
 8008930:	080088f5 	.word	0x080088f5
 8008934:	080088f5 	.word	0x080088f5
 8008938:	08008a87 	.word	0x08008a87
 800893c:	080089a9 	.word	0x080089a9
 8008940:	08008a69 	.word	0x08008a69
 8008944:	080088f5 	.word	0x080088f5
 8008948:	080088f5 	.word	0x080088f5
 800894c:	08008aa9 	.word	0x08008aa9
 8008950:	080088f5 	.word	0x080088f5
 8008954:	080089a9 	.word	0x080089a9
 8008958:	080088f5 	.word	0x080088f5
 800895c:	080088f5 	.word	0x080088f5
 8008960:	08008a71 	.word	0x08008a71
 8008964:	680b      	ldr	r3, [r1, #0]
 8008966:	f104 0642 	add.w	r6, r4, #66	; 0x42
 800896a:	1d1a      	adds	r2, r3, #4
 800896c:	681b      	ldr	r3, [r3, #0]
 800896e:	600a      	str	r2, [r1, #0]
 8008970:	f884 3042 	strb.w	r3, [r4, #66]	; 0x42
 8008974:	2301      	movs	r3, #1
 8008976:	e0a4      	b.n	8008ac2 <_printf_i+0x1f6>
 8008978:	6825      	ldr	r5, [r4, #0]
 800897a:	6808      	ldr	r0, [r1, #0]
 800897c:	062e      	lsls	r6, r5, #24
 800897e:	f100 0304 	add.w	r3, r0, #4
 8008982:	d50a      	bpl.n	800899a <_printf_i+0xce>
 8008984:	6805      	ldr	r5, [r0, #0]
 8008986:	600b      	str	r3, [r1, #0]
 8008988:	2d00      	cmp	r5, #0
 800898a:	da03      	bge.n	8008994 <_printf_i+0xc8>
 800898c:	232d      	movs	r3, #45	; 0x2d
 800898e:	426d      	negs	r5, r5
 8008990:	f884 3043 	strb.w	r3, [r4, #67]	; 0x43
 8008994:	230a      	movs	r3, #10
 8008996:	485e      	ldr	r0, [pc, #376]	; (8008b10 <_printf_i+0x244>)
 8008998:	e019      	b.n	80089ce <_printf_i+0x102>
 800899a:	f015 0f40 	tst.w	r5, #64	; 0x40
 800899e:	6805      	ldr	r5, [r0, #0]
 80089a0:	600b      	str	r3, [r1, #0]
 80089a2:	bf18      	it	ne
 80089a4:	b22d      	sxthne	r5, r5
 80089a6:	e7ef      	b.n	8008988 <_printf_i+0xbc>
 80089a8:	680b      	ldr	r3, [r1, #0]
 80089aa:	6825      	ldr	r5, [r4, #0]
 80089ac:	1d18      	adds	r0, r3, #4
 80089ae:	6008      	str	r0, [r1, #0]
 80089b0:	0628      	lsls	r0, r5, #24
 80089b2:	d501      	bpl.n	80089b8 <_printf_i+0xec>
 80089b4:	681d      	ldr	r5, [r3, #0]
 80089b6:	e002      	b.n	80089be <_printf_i+0xf2>
 80089b8:	0669      	lsls	r1, r5, #25
 80089ba:	d5fb      	bpl.n	80089b4 <_printf_i+0xe8>
 80089bc:	881d      	ldrh	r5, [r3, #0]
 80089be:	2f6f      	cmp	r7, #111	; 0x6f
 80089c0:	bf0c      	ite	eq
 80089c2:	2308      	moveq	r3, #8
 80089c4:	230a      	movne	r3, #10
 80089c6:	4852      	ldr	r0, [pc, #328]	; (8008b10 <_printf_i+0x244>)
 80089c8:	2100      	movs	r1, #0
 80089ca:	f884 1043 	strb.w	r1, [r4, #67]	; 0x43
 80089ce:	6866      	ldr	r6, [r4, #4]
 80089d0:	2e00      	cmp	r6, #0
 80089d2:	bfa8      	it	ge
 80089d4:	6821      	ldrge	r1, [r4, #0]
 80089d6:	60a6      	str	r6, [r4, #8]
 80089d8:	bfa4      	itt	ge
 80089da:	f021 0104 	bicge.w	r1, r1, #4
 80089de:	6021      	strge	r1, [r4, #0]
 80089e0:	b90d      	cbnz	r5, 80089e6 <_printf_i+0x11a>
 80089e2:	2e00      	cmp	r6, #0
 80089e4:	d04d      	beq.n	8008a82 <_printf_i+0x1b6>
 80089e6:	4616      	mov	r6, r2
 80089e8:	fbb5 f1f3 	udiv	r1, r5, r3
 80089ec:	fb03 5711 	mls	r7, r3, r1, r5
 80089f0:	5dc7      	ldrb	r7, [r0, r7]
 80089f2:	f806 7d01 	strb.w	r7, [r6, #-1]!
 80089f6:	462f      	mov	r7, r5
 80089f8:	42bb      	cmp	r3, r7
 80089fa:	460d      	mov	r5, r1
 80089fc:	d9f4      	bls.n	80089e8 <_printf_i+0x11c>
 80089fe:	2b08      	cmp	r3, #8
 8008a00:	d10b      	bne.n	8008a1a <_printf_i+0x14e>
 8008a02:	6823      	ldr	r3, [r4, #0]
 8008a04:	07df      	lsls	r7, r3, #31
 8008a06:	d508      	bpl.n	8008a1a <_printf_i+0x14e>
 8008a08:	6923      	ldr	r3, [r4, #16]
 8008a0a:	6861      	ldr	r1, [r4, #4]
 8008a0c:	4299      	cmp	r1, r3
 8008a0e:	bfde      	ittt	le
 8008a10:	2330      	movle	r3, #48	; 0x30
 8008a12:	f806 3c01 	strble.w	r3, [r6, #-1]
 8008a16:	f106 36ff 	addle.w	r6, r6, #4294967295	; 0xffffffff
 8008a1a:	1b92      	subs	r2, r2, r6
 8008a1c:	6122      	str	r2, [r4, #16]
 8008a1e:	464b      	mov	r3, r9
 8008a20:	4621      	mov	r1, r4
 8008a22:	4640      	mov	r0, r8
 8008a24:	f8cd a000 	str.w	sl, [sp]
 8008a28:	aa03      	add	r2, sp, #12
 8008a2a:	f7ff fedf 	bl	80087ec <_printf_common>
 8008a2e:	3001      	adds	r0, #1
 8008a30:	d14c      	bne.n	8008acc <_printf_i+0x200>
 8008a32:	f04f 30ff 	mov.w	r0, #4294967295	; 0xffffffff
 8008a36:	b004      	add	sp, #16
 8008a38:	e8bd 87f0 	ldmia.w	sp!, {r4, r5, r6, r7, r8, r9, sl, pc}
 8008a3c:	4834      	ldr	r0, [pc, #208]	; (8008b10 <_printf_i+0x244>)
 8008a3e:	f884 7045 	strb.w	r7, [r4, #69]	; 0x45
 8008a42:	680e      	ldr	r6, [r1, #0]
 8008a44:	6823      	ldr	r3, [r4, #0]
 8008a46:	f856 5b04 	ldr.w	r5, [r6], #4
 8008a4a:	061f      	lsls	r7, r3, #24
 8008a4c:	600e      	str	r6, [r1, #0]
 8008a4e:	d514      	bpl.n	8008a7a <_printf_i+0x1ae>
 8008a50:	07d9      	lsls	r1, r3, #31
 8008a52:	bf44      	itt	mi
 8008a54:	f043 0320 	orrmi.w	r3, r3, #32
 8008a58:	6023      	strmi	r3, [r4, #0]
 8008a5a:	b91d      	cbnz	r5, 8008a64 <_printf_i+0x198>
 8008a5c:	6823      	ldr	r3, [r4, #0]
 8008a5e:	f023 0320 	bic.w	r3, r3, #32
 8008a62:	6023      	str	r3, [r4, #0]
 8008a64:	2310      	movs	r3, #16
 8008a66:	e7af      	b.n	80089c8 <_printf_i+0xfc>
 8008a68:	6823      	ldr	r3, [r4, #0]
 8008a6a:	f043 0320 	orr.w	r3, r3, #32
 8008a6e:	6023      	str	r3, [r4, #0]
 8008a70:	2378      	movs	r3, #120	; 0x78
 8008a72:	4828      	ldr	r0, [pc, #160]	; (8008b14 <_printf_i+0x248>)
 8008a74:	f884 3045 	strb.w	r3, [r4, #69]	; 0x45
 8008a78:	e7e3      	b.n	8008a42 <_printf_i+0x176>
 8008a7a:	065e      	lsls	r6, r3, #25
 8008a7c:	bf48      	it	mi
 8008a7e:	b2ad      	uxthmi	r5, r5
 8008a80:	e7e6      	b.n	8008a50 <_printf_i+0x184>
 8008a82:	4616      	mov	r6, r2
 8008a84:	e7bb      	b.n	80089fe <_printf_i+0x132>
 8008a86:	680b      	ldr	r3, [r1, #0]
 8008a88:	6826      	ldr	r6, [r4, #0]
 8008a8a:	1d1d      	adds	r5, r3, #4
 8008a8c:	6960      	ldr	r0, [r4, #20]
 8008a8e:	600d      	str	r5, [r1, #0]
 8008a90:	0635      	lsls	r5, r6, #24
 8008a92:	681b      	ldr	r3, [r3, #0]
 8008a94:	d501      	bpl.n	8008a9a <_printf_i+0x1ce>
 8008a96:	6018      	str	r0, [r3, #0]
 8008a98:	e002      	b.n	8008aa0 <_printf_i+0x1d4>
 8008a9a:	0671      	lsls	r1, r6, #25
 8008a9c:	d5fb      	bpl.n	8008a96 <_printf_i+0x1ca>
 8008a9e:	8018      	strh	r0, [r3, #0]
 8008aa0:	2300      	movs	r3, #0
 8008aa2:	4616      	mov	r6, r2
 8008aa4:	6123      	str	r3, [r4, #16]
 8008aa6:	e7ba      	b.n	8008a1e <_printf_i+0x152>
 8008aa8:	680b      	ldr	r3, [r1, #0]
 8008aaa:	1d1a      	adds	r2, r3, #4
 8008aac:	600a      	str	r2, [r1, #0]
 8008aae:	681e      	ldr	r6, [r3, #0]
 8008ab0:	2100      	movs	r1, #0
 8008ab2:	4630      	mov	r0, r6
 8008ab4:	6862      	ldr	r2, [r4, #4]
 8008ab6:	f000 fee1 	bl	800987c <memchr>
 8008aba:	b108      	cbz	r0, 8008ac0 <_printf_i+0x1f4>
 8008abc:	1b80      	subs	r0, r0, r6
 8008abe:	6060      	str	r0, [r4, #4]
 8008ac0:	6863      	ldr	r3, [r4, #4]
 8008ac2:	6123      	str	r3, [r4, #16]
 8008ac4:	2300      	movs	r3, #0
 8008ac6:	f884 3043 	strb.w	r3, [r4, #67]	; 0x43
 8008aca:	e7a8      	b.n	8008a1e <_printf_i+0x152>
 8008acc:	4632      	mov	r2, r6
 8008ace:	4649      	mov	r1, r9
 8008ad0:	4640      	mov	r0, r8
 8008ad2:	6923      	ldr	r3, [r4, #16]
 8008ad4:	47d0      	blx	sl
 8008ad6:	3001      	adds	r0, #1
 8008ad8:	d0ab      	beq.n	8008a32 <_printf_i+0x166>
 8008ada:	6823      	ldr	r3, [r4, #0]
 8008adc:	079b      	lsls	r3, r3, #30
 8008ade:	d413      	bmi.n	8008b08 <_printf_i+0x23c>
 8008ae0:	68e0      	ldr	r0, [r4, #12]
 8008ae2:	9b03      	ldr	r3, [sp, #12]
 8008ae4:	4298      	cmp	r0, r3
 8008ae6:	bfb8      	it	lt
 8008ae8:	4618      	movlt	r0, r3
 8008aea:	e7a4      	b.n	8008a36 <_printf_i+0x16a>
 8008aec:	2301      	movs	r3, #1
 8008aee:	4632      	mov	r2, r6
 8008af0:	4649      	mov	r1, r9
 8008af2:	4640      	mov	r0, r8
 8008af4:	47d0      	blx	sl
 8008af6:	3001      	adds	r0, #1
 8008af8:	d09b      	beq.n	8008a32 <_printf_i+0x166>
 8008afa:	3501      	adds	r5, #1
 8008afc:	68e3      	ldr	r3, [r4, #12]
 8008afe:	9903      	ldr	r1, [sp, #12]
 8008b00:	1a5b      	subs	r3, r3, r1
 8008b02:	42ab      	cmp	r3, r5
 8008b04:	dcf2      	bgt.n	8008aec <_printf_i+0x220>
 8008b06:	e7eb      	b.n	8008ae0 <_printf_i+0x214>
 8008b08:	2500      	movs	r5, #0
 8008b0a:	f104 0619 	add.w	r6, r4, #25
 8008b0e:	e7f5      	b.n	8008afc <_printf_i+0x230>
 8008b10:	0800ba66 	.word	0x0800ba66
 8008b14:	0800ba77 	.word	0x0800ba77

08008b18 <siprintf>:
 8008b18:	b40e      	push	{r1, r2, r3}
 8008b1a:	f06f 4100 	mvn.w	r1, #2147483648	; 0x80000000
 8008b1e:	b500      	push	{lr}
 8008b20:	b09c      	sub	sp, #112	; 0x70
 8008b22:	ab1d      	add	r3, sp, #116	; 0x74
 8008b24:	9002      	str	r0, [sp, #8]
 8008b26:	9006      	str	r0, [sp, #24]
 8008b28:	9107      	str	r1, [sp, #28]
 8008b2a:	9104      	str	r1, [sp, #16]
 8008b2c:	4808      	ldr	r0, [pc, #32]	; (8008b50 <siprintf+0x38>)
 8008b2e:	4909      	ldr	r1, [pc, #36]	; (8008b54 <siprintf+0x3c>)
 8008b30:	f853 2b04 	ldr.w	r2, [r3], #4
 8008b34:	9105      	str	r1, [sp, #20]
 8008b36:	6800      	ldr	r0, [r0, #0]
 8008b38:	a902      	add	r1, sp, #8
 8008b3a:	9301      	str	r3, [sp, #4]
 8008b3c:	f001 fb4c 	bl	800a1d8 <_svfiprintf_r>
 8008b40:	2200      	movs	r2, #0
 8008b42:	9b02      	ldr	r3, [sp, #8]
 8008b44:	701a      	strb	r2, [r3, #0]
 8008b46:	b01c      	add	sp, #112	; 0x70
 8008b48:	f85d eb04 	ldr.w	lr, [sp], #4
 8008b4c:	b003      	add	sp, #12
 8008b4e:	4770      	bx	lr
 8008b50:	20000170 	.word	0x20000170
 8008b54:	ffff0208 	.word	0xffff0208

08008b58 <strcpy>:
 8008b58:	4603      	mov	r3, r0
 8008b5a:	f811 2b01 	ldrb.w	r2, [r1], #1
 8008b5e:	f803 2b01 	strb.w	r2, [r3], #1
 8008b62:	2a00      	cmp	r2, #0
 8008b64:	d1f9      	bne.n	8008b5a <strcpy+0x2>
 8008b66:	4770      	bx	lr

08008b68 <quorem>:
 8008b68:	e92d 4ff7 	stmdb	sp!, {r0, r1, r2, r4, r5, r6, r7, r8, r9, sl, fp, lr}
 8008b6c:	6903      	ldr	r3, [r0, #16]
 8008b6e:	690c      	ldr	r4, [r1, #16]
 8008b70:	4607      	mov	r7, r0
 8008b72:	42a3      	cmp	r3, r4
 8008b74:	f2c0 8083 	blt.w	8008c7e <quorem+0x116>
 8008b78:	3c01      	subs	r4, #1
 8008b7a:	f100 0514 	add.w	r5, r0, #20
 8008b7e:	f101 0814 	add.w	r8, r1, #20
 8008b82:	eb05 0384 	add.w	r3, r5, r4, lsl #2
 8008b86:	9301      	str	r3, [sp, #4]
 8008b88:	f858 3024 	ldr.w	r3, [r8, r4, lsl #2]
 8008b8c:	f855 2024 	ldr.w	r2, [r5, r4, lsl #2]
 8008b90:	3301      	adds	r3, #1
 8008b92:	429a      	cmp	r2, r3
 8008b94:	fbb2 f6f3 	udiv	r6, r2, r3
 8008b98:	ea4f 0b84 	mov.w	fp, r4, lsl #2
 8008b9c:	eb08 0984 	add.w	r9, r8, r4, lsl #2
 8008ba0:	d332      	bcc.n	8008c08 <quorem+0xa0>
 8008ba2:	f04f 0e00 	mov.w	lr, #0
 8008ba6:	4640      	mov	r0, r8
 8008ba8:	46ac      	mov	ip, r5
 8008baa:	46f2      	mov	sl, lr
 8008bac:	f850 2b04 	ldr.w	r2, [r0], #4
 8008bb0:	b293      	uxth	r3, r2
 8008bb2:	fb06 e303 	mla	r3, r6, r3, lr
 8008bb6:	0c12      	lsrs	r2, r2, #16
 8008bb8:	ea4f 4e13 	mov.w	lr, r3, lsr #16
 8008bbc:	fb06 e202 	mla	r2, r6, r2, lr
 8008bc0:	b29b      	uxth	r3, r3
 8008bc2:	ebaa 0303 	sub.w	r3, sl, r3
 8008bc6:	f8dc a000 	ldr.w	sl, [ip]
 8008bca:	ea4f 4e12 	mov.w	lr, r2, lsr #16
 8008bce:	fa1f fa8a 	uxth.w	sl, sl
 8008bd2:	4453      	add	r3, sl
 8008bd4:	fa1f fa82 	uxth.w	sl, r2
 8008bd8:	f8dc 2000 	ldr.w	r2, [ip]
 8008bdc:	4581      	cmp	r9, r0
 8008bde:	ebca 4212 	rsb	r2, sl, r2, lsr #16
 8008be2:	eb02 4223 	add.w	r2, r2, r3, asr #16
 8008be6:	b29b      	uxth	r3, r3
 8008be8:	ea43 4302 	orr.w	r3, r3, r2, lsl #16
 8008bec:	ea4f 4a22 	mov.w	sl, r2, asr #16
 8008bf0:	f84c 3b04 	str.w	r3, [ip], #4
 8008bf4:	d2da      	bcs.n	8008bac <quorem+0x44>
 8008bf6:	f855 300b 	ldr.w	r3, [r5, fp]
 8008bfa:	b92b      	cbnz	r3, 8008c08 <quorem+0xa0>
 8008bfc:	9b01      	ldr	r3, [sp, #4]
 8008bfe:	3b04      	subs	r3, #4
 8008c00:	429d      	cmp	r5, r3
 8008c02:	461a      	mov	r2, r3
 8008c04:	d32f      	bcc.n	8008c66 <quorem+0xfe>
 8008c06:	613c      	str	r4, [r7, #16]
 8008c08:	4638      	mov	r0, r7
 8008c0a:	f001 f8cd 	bl	8009da8 <__mcmp>
 8008c0e:	2800      	cmp	r0, #0
 8008c10:	db25      	blt.n	8008c5e <quorem+0xf6>
 8008c12:	4628      	mov	r0, r5
 8008c14:	f04f 0c00 	mov.w	ip, #0
 8008c18:	3601      	adds	r6, #1
 8008c1a:	f858 1b04 	ldr.w	r1, [r8], #4
 8008c1e:	f8d0 e000 	ldr.w	lr, [r0]
 8008c22:	b28b      	uxth	r3, r1
 8008c24:	ebac 0303 	sub.w	r3, ip, r3
 8008c28:	fa1f f28e 	uxth.w	r2, lr
 8008c2c:	4413      	add	r3, r2
 8008c2e:	0c0a      	lsrs	r2, r1, #16
 8008c30:	ebc2 421e 	rsb	r2, r2, lr, lsr #16
 8008c34:	eb02 4223 	add.w	r2, r2, r3, asr #16
 8008c38:	b29b      	uxth	r3, r3
 8008c3a:	ea43 4302 	orr.w	r3, r3, r2, lsl #16
 8008c3e:	45c1      	cmp	r9, r8
 8008c40:	ea4f 4c22 	mov.w	ip, r2, asr #16
 8008c44:	f840 3b04 	str.w	r3, [r0], #4
 8008c48:	d2e7      	bcs.n	8008c1a <quorem+0xb2>
 8008c4a:	f855 2024 	ldr.w	r2, [r5, r4, lsl #2]
 8008c4e:	eb05 0384 	add.w	r3, r5, r4, lsl #2
 8008c52:	b922      	cbnz	r2, 8008c5e <quorem+0xf6>
 8008c54:	3b04      	subs	r3, #4
 8008c56:	429d      	cmp	r5, r3
 8008c58:	461a      	mov	r2, r3
 8008c5a:	d30a      	bcc.n	8008c72 <quorem+0x10a>
 8008c5c:	613c      	str	r4, [r7, #16]
 8008c5e:	4630      	mov	r0, r6
 8008c60:	b003      	add	sp, #12
 8008c62:	e8bd 8ff0 	ldmia.w	sp!, {r4, r5, r6, r7, r8, r9, sl, fp, pc}
 8008c66:	6812      	ldr	r2, [r2, #0]
 8008c68:	3b04      	subs	r3, #4
 8008c6a:	2a00      	cmp	r2, #0
 8008c6c:	d1cb      	bne.n	8008c06 <quorem+0x9e>
 8008c6e:	3c01      	subs	r4, #1
 8008c70:	e7c6      	b.n	8008c00 <quorem+0x98>
 8008c72:	6812      	ldr	r2, [r2, #0]
 8008c74:	3b04      	subs	r3, #4
 8008c76:	2a00      	cmp	r2, #0
 8008c78:	d1f0      	bne.n	8008c5c <quorem+0xf4>
 8008c7a:	3c01      	subs	r4, #1
 8008c7c:	e7eb      	b.n	8008c56 <quorem+0xee>
 8008c7e:	2000      	movs	r0, #0
 8008c80:	e7ee      	b.n	8008c60 <quorem+0xf8>
 8008c82:	0000      	movs	r0, r0
 8008c84:	0000      	movs	r0, r0
	...

08008c88 <_dtoa_r>:
 8008c88:	e92d 4ff0 	stmdb	sp!, {r4, r5, r6, r7, r8, r9, sl, fp, lr}
 8008c8c:	4616      	mov	r6, r2
 8008c8e:	461f      	mov	r7, r3
 8008c90:	6a44      	ldr	r4, [r0, #36]	; 0x24
 8008c92:	b099      	sub	sp, #100	; 0x64
 8008c94:	4605      	mov	r5, r0
 8008c96:	e9cd 6704 	strd	r6, r7, [sp, #16]
 8008c9a:	f8dd 8094 	ldr.w	r8, [sp, #148]	; 0x94
 8008c9e:	b974      	cbnz	r4, 8008cbe <_dtoa_r+0x36>
 8008ca0:	2010      	movs	r0, #16
 8008ca2:	f000 fde3 	bl	800986c <malloc>
 8008ca6:	4602      	mov	r2, r0
 8008ca8:	6268      	str	r0, [r5, #36]	; 0x24
 8008caa:	b920      	cbnz	r0, 8008cb6 <_dtoa_r+0x2e>
 8008cac:	21ea      	movs	r1, #234	; 0xea
 8008cae:	4bae      	ldr	r3, [pc, #696]	; (8008f68 <_dtoa_r+0x2e0>)
 8008cb0:	48ae      	ldr	r0, [pc, #696]	; (8008f6c <_dtoa_r+0x2e4>)
 8008cb2:	f001 fba1 	bl	800a3f8 <__assert_func>
 8008cb6:	e9c0 4401 	strd	r4, r4, [r0, #4]
 8008cba:	6004      	str	r4, [r0, #0]
 8008cbc:	60c4      	str	r4, [r0, #12]
 8008cbe:	6a6b      	ldr	r3, [r5, #36]	; 0x24
 8008cc0:	6819      	ldr	r1, [r3, #0]
 8008cc2:	b151      	cbz	r1, 8008cda <_dtoa_r+0x52>
 8008cc4:	685a      	ldr	r2, [r3, #4]
 8008cc6:	2301      	movs	r3, #1
 8008cc8:	4093      	lsls	r3, r2
 8008cca:	604a      	str	r2, [r1, #4]
 8008ccc:	608b      	str	r3, [r1, #8]
 8008cce:	4628      	mov	r0, r5
 8008cd0:	f000 fe30 	bl	8009934 <_Bfree>
 8008cd4:	2200      	movs	r2, #0
 8008cd6:	6a6b      	ldr	r3, [r5, #36]	; 0x24
 8008cd8:	601a      	str	r2, [r3, #0]
 8008cda:	1e3b      	subs	r3, r7, #0
 8008cdc:	bfaf      	iteee	ge
 8008cde:	2300      	movge	r3, #0
 8008ce0:	2201      	movlt	r2, #1
 8008ce2:	f023 4300 	biclt.w	r3, r3, #2147483648	; 0x80000000
 8008ce6:	9305      	strlt	r3, [sp, #20]
 8008ce8:	bfa8      	it	ge
 8008cea:	f8c8 3000 	strge.w	r3, [r8]
 8008cee:	f8dd 9014 	ldr.w	r9, [sp, #20]
 8008cf2:	4b9f      	ldr	r3, [pc, #636]	; (8008f70 <_dtoa_r+0x2e8>)
 8008cf4:	bfb8      	it	lt
 8008cf6:	f8c8 2000 	strlt.w	r2, [r8]
 8008cfa:	ea33 0309 	bics.w	r3, r3, r9
 8008cfe:	d119      	bne.n	8008d34 <_dtoa_r+0xac>
 8008d00:	f242 730f 	movw	r3, #9999	; 0x270f
 8008d04:	9a24      	ldr	r2, [sp, #144]	; 0x90
 8008d06:	6013      	str	r3, [r2, #0]
 8008d08:	f3c9 0313 	ubfx	r3, r9, #0, #20
 8008d0c:	4333      	orrs	r3, r6
 8008d0e:	f000 8580 	beq.w	8009812 <_dtoa_r+0xb8a>
 8008d12:	9b26      	ldr	r3, [sp, #152]	; 0x98
 8008d14:	b953      	cbnz	r3, 8008d2c <_dtoa_r+0xa4>
 8008d16:	4b97      	ldr	r3, [pc, #604]	; (8008f74 <_dtoa_r+0x2ec>)
 8008d18:	e022      	b.n	8008d60 <_dtoa_r+0xd8>
 8008d1a:	4b97      	ldr	r3, [pc, #604]	; (8008f78 <_dtoa_r+0x2f0>)
 8008d1c:	9308      	str	r3, [sp, #32]
 8008d1e:	3308      	adds	r3, #8
 8008d20:	9a26      	ldr	r2, [sp, #152]	; 0x98
 8008d22:	6013      	str	r3, [r2, #0]
 8008d24:	9808      	ldr	r0, [sp, #32]
 8008d26:	b019      	add	sp, #100	; 0x64
 8008d28:	e8bd 8ff0 	ldmia.w	sp!, {r4, r5, r6, r7, r8, r9, sl, fp, pc}
 8008d2c:	4b91      	ldr	r3, [pc, #580]	; (8008f74 <_dtoa_r+0x2ec>)
 8008d2e:	9308      	str	r3, [sp, #32]
 8008d30:	3303      	adds	r3, #3
 8008d32:	e7f5      	b.n	8008d20 <_dtoa_r+0x98>
 8008d34:	e9dd 3404 	ldrd	r3, r4, [sp, #16]
 8008d38:	e9cd 340c 	strd	r3, r4, [sp, #48]	; 0x30
 8008d3c:	e9dd 010c 	ldrd	r0, r1, [sp, #48]	; 0x30
 8008d40:	2200      	movs	r2, #0
 8008d42:	2300      	movs	r3, #0
 8008d44:	f7f7 fe30 	bl	80009a8 <__aeabi_dcmpeq>
 8008d48:	4680      	mov	r8, r0
 8008d4a:	b158      	cbz	r0, 8008d64 <_dtoa_r+0xdc>
 8008d4c:	2301      	movs	r3, #1
 8008d4e:	9a24      	ldr	r2, [sp, #144]	; 0x90
 8008d50:	6013      	str	r3, [r2, #0]
 8008d52:	9b26      	ldr	r3, [sp, #152]	; 0x98
 8008d54:	2b00      	cmp	r3, #0
 8008d56:	f000 8559 	beq.w	800980c <_dtoa_r+0xb84>
 8008d5a:	4888      	ldr	r0, [pc, #544]	; (8008f7c <_dtoa_r+0x2f4>)
 8008d5c:	6018      	str	r0, [r3, #0]
 8008d5e:	1e43      	subs	r3, r0, #1
 8008d60:	9308      	str	r3, [sp, #32]
 8008d62:	e7df      	b.n	8008d24 <_dtoa_r+0x9c>
 8008d64:	ab16      	add	r3, sp, #88	; 0x58
 8008d66:	9301      	str	r3, [sp, #4]
 8008d68:	ab17      	add	r3, sp, #92	; 0x5c
 8008d6a:	9300      	str	r3, [sp, #0]
 8008d6c:	4628      	mov	r0, r5
 8008d6e:	e9dd 230c 	ldrd	r2, r3, [sp, #48]	; 0x30
 8008d72:	f001 f8c5 	bl	8009f00 <__d2b>
 8008d76:	f3c9 540a 	ubfx	r4, r9, #20, #11
 8008d7a:	4682      	mov	sl, r0
 8008d7c:	2c00      	cmp	r4, #0
 8008d7e:	d07e      	beq.n	8008e7e <_dtoa_r+0x1f6>
 8008d80:	e9dd 010c 	ldrd	r0, r1, [sp, #48]	; 0x30
 8008d84:	9b0d      	ldr	r3, [sp, #52]	; 0x34
 8008d86:	f2a4 34ff 	subw	r4, r4, #1023	; 0x3ff
 8008d8a:	f3c3 0313 	ubfx	r3, r3, #0, #20
 8008d8e:	f043 517f 	orr.w	r1, r3, #1069547520	; 0x3fc00000
 8008d92:	f441 1140 	orr.w	r1, r1, #3145728	; 0x300000
 8008d96:	f8cd 804c 	str.w	r8, [sp, #76]	; 0x4c
 8008d9a:	2200      	movs	r2, #0
 8008d9c:	4b78      	ldr	r3, [pc, #480]	; (8008f80 <_dtoa_r+0x2f8>)
 8008d9e:	f7f7 f9e3 	bl	8000168 <__aeabi_dsub>
 8008da2:	a36b      	add	r3, pc, #428	; (adr r3, 8008f50 <_dtoa_r+0x2c8>)
 8008da4:	e9d3 2300 	ldrd	r2, r3, [r3]
 8008da8:	f7f7 fb96 	bl	80004d8 <__aeabi_dmul>
 8008dac:	a36a      	add	r3, pc, #424	; (adr r3, 8008f58 <_dtoa_r+0x2d0>)
 8008dae:	e9d3 2300 	ldrd	r2, r3, [r3]
 8008db2:	f7f7 f9db 	bl	800016c <__adddf3>
 8008db6:	4606      	mov	r6, r0
 8008db8:	4620      	mov	r0, r4
 8008dba:	460f      	mov	r7, r1
 8008dbc:	f7f7 fb22 	bl	8000404 <__aeabi_i2d>
 8008dc0:	a367      	add	r3, pc, #412	; (adr r3, 8008f60 <_dtoa_r+0x2d8>)
 8008dc2:	e9d3 2300 	ldrd	r2, r3, [r3]
 8008dc6:	f7f7 fb87 	bl	80004d8 <__aeabi_dmul>
 8008dca:	4602      	mov	r2, r0
 8008dcc:	460b      	mov	r3, r1
 8008dce:	4630      	mov	r0, r6
 8008dd0:	4639      	mov	r1, r7
 8008dd2:	f7f7 f9cb 	bl	800016c <__adddf3>
 8008dd6:	4606      	mov	r6, r0
 8008dd8:	460f      	mov	r7, r1
 8008dda:	f7f7 fe2d 	bl	8000a38 <__aeabi_d2iz>
 8008dde:	2200      	movs	r2, #0
 8008de0:	4681      	mov	r9, r0
 8008de2:	2300      	movs	r3, #0
 8008de4:	4630      	mov	r0, r6
 8008de6:	4639      	mov	r1, r7
 8008de8:	f7f7 fde8 	bl	80009bc <__aeabi_dcmplt>
 8008dec:	b148      	cbz	r0, 8008e02 <_dtoa_r+0x17a>
 8008dee:	4648      	mov	r0, r9
 8008df0:	f7f7 fb08 	bl	8000404 <__aeabi_i2d>
 8008df4:	4632      	mov	r2, r6
 8008df6:	463b      	mov	r3, r7
 8008df8:	f7f7 fdd6 	bl	80009a8 <__aeabi_dcmpeq>
 8008dfc:	b908      	cbnz	r0, 8008e02 <_dtoa_r+0x17a>
 8008dfe:	f109 39ff 	add.w	r9, r9, #4294967295	; 0xffffffff
 8008e02:	f1b9 0f16 	cmp.w	r9, #22
 8008e06:	d857      	bhi.n	8008eb8 <_dtoa_r+0x230>
 8008e08:	e9dd 010c 	ldrd	r0, r1, [sp, #48]	; 0x30
 8008e0c:	4b5d      	ldr	r3, [pc, #372]	; (8008f84 <_dtoa_r+0x2fc>)
 8008e0e:	eb03 03c9 	add.w	r3, r3, r9, lsl #3
 8008e12:	e9d3 2300 	ldrd	r2, r3, [r3]
 8008e16:	f7f7 fdd1 	bl	80009bc <__aeabi_dcmplt>
 8008e1a:	2800      	cmp	r0, #0
 8008e1c:	d04e      	beq.n	8008ebc <_dtoa_r+0x234>
 8008e1e:	2300      	movs	r3, #0
 8008e20:	f109 39ff 	add.w	r9, r9, #4294967295	; 0xffffffff
 8008e24:	930f      	str	r3, [sp, #60]	; 0x3c
 8008e26:	9b16      	ldr	r3, [sp, #88]	; 0x58
 8008e28:	1b1c      	subs	r4, r3, r4
 8008e2a:	1e63      	subs	r3, r4, #1
 8008e2c:	9309      	str	r3, [sp, #36]	; 0x24
 8008e2e:	bf49      	itett	mi
 8008e30:	f1c4 0301 	rsbmi	r3, r4, #1
 8008e34:	2300      	movpl	r3, #0
 8008e36:	9306      	strmi	r3, [sp, #24]
 8008e38:	2300      	movmi	r3, #0
 8008e3a:	bf54      	ite	pl
 8008e3c:	9306      	strpl	r3, [sp, #24]
 8008e3e:	9309      	strmi	r3, [sp, #36]	; 0x24
 8008e40:	f1b9 0f00 	cmp.w	r9, #0
 8008e44:	db3c      	blt.n	8008ec0 <_dtoa_r+0x238>
 8008e46:	9b09      	ldr	r3, [sp, #36]	; 0x24
 8008e48:	f8cd 9038 	str.w	r9, [sp, #56]	; 0x38
 8008e4c:	444b      	add	r3, r9
 8008e4e:	9309      	str	r3, [sp, #36]	; 0x24
 8008e50:	2300      	movs	r3, #0
 8008e52:	930a      	str	r3, [sp, #40]	; 0x28
 8008e54:	9b22      	ldr	r3, [sp, #136]	; 0x88
 8008e56:	2b09      	cmp	r3, #9
 8008e58:	d86c      	bhi.n	8008f34 <_dtoa_r+0x2ac>
 8008e5a:	2b05      	cmp	r3, #5
 8008e5c:	bfc4      	itt	gt
 8008e5e:	3b04      	subgt	r3, #4
 8008e60:	9322      	strgt	r3, [sp, #136]	; 0x88
 8008e62:	9b22      	ldr	r3, [sp, #136]	; 0x88
 8008e64:	bfc8      	it	gt
 8008e66:	2400      	movgt	r4, #0
 8008e68:	f1a3 0302 	sub.w	r3, r3, #2
 8008e6c:	bfd8      	it	le
 8008e6e:	2401      	movle	r4, #1
 8008e70:	2b03      	cmp	r3, #3
 8008e72:	f200 808b 	bhi.w	8008f8c <_dtoa_r+0x304>
 8008e76:	e8df f003 	tbb	[pc, r3]
 8008e7a:	4f2d      	.short	0x4f2d
 8008e7c:	5b4d      	.short	0x5b4d
 8008e7e:	e9dd 4316 	ldrd	r4, r3, [sp, #88]	; 0x58
 8008e82:	441c      	add	r4, r3
 8008e84:	f204 4332 	addw	r3, r4, #1074	; 0x432
 8008e88:	2b20      	cmp	r3, #32
 8008e8a:	bfc3      	ittte	gt
 8008e8c:	f1c3 0340 	rsbgt	r3, r3, #64	; 0x40
 8008e90:	f204 4012 	addwgt	r0, r4, #1042	; 0x412
 8008e94:	fa09 f303 	lslgt.w	r3, r9, r3
 8008e98:	f1c3 0320 	rsble	r3, r3, #32
 8008e9c:	bfc6      	itte	gt
 8008e9e:	fa26 f000 	lsrgt.w	r0, r6, r0
 8008ea2:	4318      	orrgt	r0, r3
 8008ea4:	fa06 f003 	lslle.w	r0, r6, r3
 8008ea8:	f7f7 fa9c 	bl	80003e4 <__aeabi_ui2d>
 8008eac:	2301      	movs	r3, #1
 8008eae:	f1a1 71f8 	sub.w	r1, r1, #32505856	; 0x1f00000
 8008eb2:	3c01      	subs	r4, #1
 8008eb4:	9313      	str	r3, [sp, #76]	; 0x4c
 8008eb6:	e770      	b.n	8008d9a <_dtoa_r+0x112>
 8008eb8:	2301      	movs	r3, #1
 8008eba:	e7b3      	b.n	8008e24 <_dtoa_r+0x19c>
 8008ebc:	900f      	str	r0, [sp, #60]	; 0x3c
 8008ebe:	e7b2      	b.n	8008e26 <_dtoa_r+0x19e>
 8008ec0:	9b06      	ldr	r3, [sp, #24]
 8008ec2:	eba3 0309 	sub.w	r3, r3, r9
 8008ec6:	9306      	str	r3, [sp, #24]
 8008ec8:	f1c9 0300 	rsb	r3, r9, #0
 8008ecc:	930a      	str	r3, [sp, #40]	; 0x28
 8008ece:	2300      	movs	r3, #0
 8008ed0:	930e      	str	r3, [sp, #56]	; 0x38
 8008ed2:	e7bf      	b.n	8008e54 <_dtoa_r+0x1cc>
 8008ed4:	2300      	movs	r3, #0
 8008ed6:	930b      	str	r3, [sp, #44]	; 0x2c
 8008ed8:	9b23      	ldr	r3, [sp, #140]	; 0x8c
 8008eda:	2b00      	cmp	r3, #0
 8008edc:	dc59      	bgt.n	8008f92 <_dtoa_r+0x30a>
 8008ede:	f04f 0b01 	mov.w	fp, #1
 8008ee2:	465b      	mov	r3, fp
 8008ee4:	f8cd b008 	str.w	fp, [sp, #8]
 8008ee8:	f8cd b08c 	str.w	fp, [sp, #140]	; 0x8c
 8008eec:	2200      	movs	r2, #0
 8008eee:	6a68      	ldr	r0, [r5, #36]	; 0x24
 8008ef0:	6042      	str	r2, [r0, #4]
 8008ef2:	2204      	movs	r2, #4
 8008ef4:	f102 0614 	add.w	r6, r2, #20
 8008ef8:	429e      	cmp	r6, r3
 8008efa:	6841      	ldr	r1, [r0, #4]
 8008efc:	d94f      	bls.n	8008f9e <_dtoa_r+0x316>
 8008efe:	4628      	mov	r0, r5
 8008f00:	f000 fcd8 	bl	80098b4 <_Balloc>
 8008f04:	9008      	str	r0, [sp, #32]
 8008f06:	2800      	cmp	r0, #0
 8008f08:	d14d      	bne.n	8008fa6 <_dtoa_r+0x31e>
 8008f0a:	4602      	mov	r2, r0
 8008f0c:	f44f 71d5 	mov.w	r1, #426	; 0x1aa
 8008f10:	4b1d      	ldr	r3, [pc, #116]	; (8008f88 <_dtoa_r+0x300>)
 8008f12:	e6cd      	b.n	8008cb0 <_dtoa_r+0x28>
 8008f14:	2301      	movs	r3, #1
 8008f16:	e7de      	b.n	8008ed6 <_dtoa_r+0x24e>
 8008f18:	2300      	movs	r3, #0
 8008f1a:	930b      	str	r3, [sp, #44]	; 0x2c
 8008f1c:	9b23      	ldr	r3, [sp, #140]	; 0x8c
 8008f1e:	eb09 0b03 	add.w	fp, r9, r3
 8008f22:	f10b 0301 	add.w	r3, fp, #1
 8008f26:	2b01      	cmp	r3, #1
 8008f28:	9302      	str	r3, [sp, #8]
 8008f2a:	bfb8      	it	lt
 8008f2c:	2301      	movlt	r3, #1
 8008f2e:	e7dd      	b.n	8008eec <_dtoa_r+0x264>
 8008f30:	2301      	movs	r3, #1
 8008f32:	e7f2      	b.n	8008f1a <_dtoa_r+0x292>
 8008f34:	2401      	movs	r4, #1
 8008f36:	2300      	movs	r3, #0
 8008f38:	940b      	str	r4, [sp, #44]	; 0x2c
 8008f3a:	9322      	str	r3, [sp, #136]	; 0x88
 8008f3c:	f04f 3bff 	mov.w	fp, #4294967295	; 0xffffffff
 8008f40:	2200      	movs	r2, #0
 8008f42:	2312      	movs	r3, #18
 8008f44:	f8cd b008 	str.w	fp, [sp, #8]
 8008f48:	9223      	str	r2, [sp, #140]	; 0x8c
 8008f4a:	e7cf      	b.n	8008eec <_dtoa_r+0x264>
 8008f4c:	f3af 8000 	nop.w
 8008f50:	636f4361 	.word	0x636f4361
 8008f54:	3fd287a7 	.word	0x3fd287a7
 8008f58:	8b60c8b3 	.word	0x8b60c8b3
 8008f5c:	3fc68a28 	.word	0x3fc68a28
 8008f60:	509f79fb 	.word	0x509f79fb
 8008f64:	3fd34413 	.word	0x3fd34413
 8008f68:	0800ba95 	.word	0x0800ba95
 8008f6c:	0800baac 	.word	0x0800baac
 8008f70:	7ff00000 	.word	0x7ff00000
 8008f74:	0800ba91 	.word	0x0800ba91
 8008f78:	0800ba88 	.word	0x0800ba88
 8008f7c:	0800ba65 	.word	0x0800ba65
 8008f80:	3ff80000 	.word	0x3ff80000
 8008f84:	0800bba8 	.word	0x0800bba8
 8008f88:	0800bb0b 	.word	0x0800bb0b
 8008f8c:	2301      	movs	r3, #1
 8008f8e:	930b      	str	r3, [sp, #44]	; 0x2c
 8008f90:	e7d4      	b.n	8008f3c <_dtoa_r+0x2b4>
 8008f92:	f8dd b08c 	ldr.w	fp, [sp, #140]	; 0x8c
 8008f96:	465b      	mov	r3, fp
 8008f98:	f8cd b008 	str.w	fp, [sp, #8]
 8008f9c:	e7a6      	b.n	8008eec <_dtoa_r+0x264>
 8008f9e:	3101      	adds	r1, #1
 8008fa0:	6041      	str	r1, [r0, #4]
 8008fa2:	0052      	lsls	r2, r2, #1
 8008fa4:	e7a6      	b.n	8008ef4 <_dtoa_r+0x26c>
 8008fa6:	6a6b      	ldr	r3, [r5, #36]	; 0x24
 8008fa8:	9a08      	ldr	r2, [sp, #32]
 8008faa:	601a      	str	r2, [r3, #0]
 8008fac:	9b02      	ldr	r3, [sp, #8]
 8008fae:	2b0e      	cmp	r3, #14
 8008fb0:	f200 80a8 	bhi.w	8009104 <_dtoa_r+0x47c>
 8008fb4:	2c00      	cmp	r4, #0
 8008fb6:	f000 80a5 	beq.w	8009104 <_dtoa_r+0x47c>
 8008fba:	f1b9 0f00 	cmp.w	r9, #0
 8008fbe:	dd34      	ble.n	800902a <_dtoa_r+0x3a2>
 8008fc0:	4a9a      	ldr	r2, [pc, #616]	; (800922c <_dtoa_r+0x5a4>)
 8008fc2:	f009 030f 	and.w	r3, r9, #15
 8008fc6:	eb02 03c3 	add.w	r3, r2, r3, lsl #3
 8008fca:	f419 7f80 	tst.w	r9, #256	; 0x100
 8008fce:	e9d3 3400 	ldrd	r3, r4, [r3]
 8008fd2:	e9cd 3410 	strd	r3, r4, [sp, #64]	; 0x40
 8008fd6:	ea4f 1429 	mov.w	r4, r9, asr #4
 8008fda:	d016      	beq.n	800900a <_dtoa_r+0x382>
 8008fdc:	e9dd 010c 	ldrd	r0, r1, [sp, #48]	; 0x30
 8008fe0:	4b93      	ldr	r3, [pc, #588]	; (8009230 <_dtoa_r+0x5a8>)
 8008fe2:	2703      	movs	r7, #3
 8008fe4:	e9d3 2308 	ldrd	r2, r3, [r3, #32]
 8008fe8:	f7f7 fba0 	bl	800072c <__aeabi_ddiv>
 8008fec:	e9cd 0104 	strd	r0, r1, [sp, #16]
 8008ff0:	f004 040f 	and.w	r4, r4, #15
 8008ff4:	4e8e      	ldr	r6, [pc, #568]	; (8009230 <_dtoa_r+0x5a8>)
 8008ff6:	b954      	cbnz	r4, 800900e <_dtoa_r+0x386>
 8008ff8:	e9dd 2310 	ldrd	r2, r3, [sp, #64]	; 0x40
 8008ffc:	e9dd 0104 	ldrd	r0, r1, [sp, #16]
 8009000:	f7f7 fb94 	bl	800072c <__aeabi_ddiv>
 8009004:	e9cd 0104 	strd	r0, r1, [sp, #16]
 8009008:	e029      	b.n	800905e <_dtoa_r+0x3d6>
 800900a:	2702      	movs	r7, #2
 800900c:	e7f2      	b.n	8008ff4 <_dtoa_r+0x36c>
 800900e:	07e1      	lsls	r1, r4, #31
 8009010:	d508      	bpl.n	8009024 <_dtoa_r+0x39c>
 8009012:	e9dd 0110 	ldrd	r0, r1, [sp, #64]	; 0x40
 8009016:	e9d6 2300 	ldrd	r2, r3, [r6]
 800901a:	f7f7 fa5d 	bl	80004d8 <__aeabi_dmul>
 800901e:	e9cd 0110 	strd	r0, r1, [sp, #64]	; 0x40
 8009022:	3701      	adds	r7, #1
 8009024:	1064      	asrs	r4, r4, #1
 8009026:	3608      	adds	r6, #8
 8009028:	e7e5      	b.n	8008ff6 <_dtoa_r+0x36e>
 800902a:	f000 80a5 	beq.w	8009178 <_dtoa_r+0x4f0>
 800902e:	e9dd 010c 	ldrd	r0, r1, [sp, #48]	; 0x30
 8009032:	f1c9 0400 	rsb	r4, r9, #0
 8009036:	4b7d      	ldr	r3, [pc, #500]	; (800922c <_dtoa_r+0x5a4>)
 8009038:	f004 020f 	and.w	r2, r4, #15
 800903c:	eb03 03c2 	add.w	r3, r3, r2, lsl #3
 8009040:	e9d3 2300 	ldrd	r2, r3, [r3]
 8009044:	f7f7 fa48 	bl	80004d8 <__aeabi_dmul>
 8009048:	2702      	movs	r7, #2
 800904a:	2300      	movs	r3, #0
 800904c:	e9cd 0104 	strd	r0, r1, [sp, #16]
 8009050:	4e77      	ldr	r6, [pc, #476]	; (8009230 <_dtoa_r+0x5a8>)
 8009052:	1124      	asrs	r4, r4, #4
 8009054:	2c00      	cmp	r4, #0
 8009056:	f040 8084 	bne.w	8009162 <_dtoa_r+0x4da>
 800905a:	2b00      	cmp	r3, #0
 800905c:	d1d2      	bne.n	8009004 <_dtoa_r+0x37c>
 800905e:	9b0f      	ldr	r3, [sp, #60]	; 0x3c
 8009060:	2b00      	cmp	r3, #0
 8009062:	f000 808b 	beq.w	800917c <_dtoa_r+0x4f4>
 8009066:	e9dd 3404 	ldrd	r3, r4, [sp, #16]
 800906a:	e9cd 3410 	strd	r3, r4, [sp, #64]	; 0x40
 800906e:	e9dd 0110 	ldrd	r0, r1, [sp, #64]	; 0x40
 8009072:	2200      	movs	r2, #0
 8009074:	4b6f      	ldr	r3, [pc, #444]	; (8009234 <_dtoa_r+0x5ac>)
 8009076:	f7f7 fca1 	bl	80009bc <__aeabi_dcmplt>
 800907a:	2800      	cmp	r0, #0
 800907c:	d07e      	beq.n	800917c <_dtoa_r+0x4f4>
 800907e:	9b02      	ldr	r3, [sp, #8]
 8009080:	2b00      	cmp	r3, #0
 8009082:	d07b      	beq.n	800917c <_dtoa_r+0x4f4>
 8009084:	f1bb 0f00 	cmp.w	fp, #0
 8009088:	dd38      	ble.n	80090fc <_dtoa_r+0x474>
 800908a:	e9dd 0110 	ldrd	r0, r1, [sp, #64]	; 0x40
 800908e:	2200      	movs	r2, #0
 8009090:	4b69      	ldr	r3, [pc, #420]	; (8009238 <_dtoa_r+0x5b0>)
 8009092:	f7f7 fa21 	bl	80004d8 <__aeabi_dmul>
 8009096:	465c      	mov	r4, fp
 8009098:	e9cd 0104 	strd	r0, r1, [sp, #16]
 800909c:	f109 38ff 	add.w	r8, r9, #4294967295	; 0xffffffff
 80090a0:	3701      	adds	r7, #1
 80090a2:	4638      	mov	r0, r7
 80090a4:	f7f7 f9ae 	bl	8000404 <__aeabi_i2d>
 80090a8:	e9dd 2304 	ldrd	r2, r3, [sp, #16]
 80090ac:	f7f7 fa14 	bl	80004d8 <__aeabi_dmul>
 80090b0:	2200      	movs	r2, #0
 80090b2:	4b62      	ldr	r3, [pc, #392]	; (800923c <_dtoa_r+0x5b4>)
 80090b4:	f7f7 f85a 	bl	800016c <__adddf3>
 80090b8:	f1a1 7650 	sub.w	r6, r1, #54525952	; 0x3400000
 80090bc:	e9cd 0110 	strd	r0, r1, [sp, #64]	; 0x40
 80090c0:	9611      	str	r6, [sp, #68]	; 0x44
 80090c2:	2c00      	cmp	r4, #0
 80090c4:	d15d      	bne.n	8009182 <_dtoa_r+0x4fa>
 80090c6:	e9dd 0104 	ldrd	r0, r1, [sp, #16]
 80090ca:	2200      	movs	r2, #0
 80090cc:	4b5c      	ldr	r3, [pc, #368]	; (8009240 <_dtoa_r+0x5b8>)
 80090ce:	f7f7 f84b 	bl	8000168 <__aeabi_dsub>
 80090d2:	4602      	mov	r2, r0
 80090d4:	460b      	mov	r3, r1
 80090d6:	e9cd 2304 	strd	r2, r3, [sp, #16]
 80090da:	4633      	mov	r3, r6
 80090dc:	9a10      	ldr	r2, [sp, #64]	; 0x40
 80090de:	f7f7 fc8b 	bl	80009f8 <__aeabi_dcmpgt>
 80090e2:	2800      	cmp	r0, #0
 80090e4:	f040 829e 	bne.w	8009624 <_dtoa_r+0x99c>
 80090e8:	e9dd 0104 	ldrd	r0, r1, [sp, #16]
 80090ec:	9a10      	ldr	r2, [sp, #64]	; 0x40
 80090ee:	f106 4300 	add.w	r3, r6, #2147483648	; 0x80000000
 80090f2:	f7f7 fc63 	bl	80009bc <__aeabi_dcmplt>
 80090f6:	2800      	cmp	r0, #0
 80090f8:	f040 8292 	bne.w	8009620 <_dtoa_r+0x998>
 80090fc:	e9dd 340c 	ldrd	r3, r4, [sp, #48]	; 0x30
 8009100:	e9cd 3404 	strd	r3, r4, [sp, #16]
 8009104:	9b17      	ldr	r3, [sp, #92]	; 0x5c
 8009106:	2b00      	cmp	r3, #0
 8009108:	f2c0 8153 	blt.w	80093b2 <_dtoa_r+0x72a>
 800910c:	f1b9 0f0e 	cmp.w	r9, #14
 8009110:	f300 814f 	bgt.w	80093b2 <_dtoa_r+0x72a>
 8009114:	4b45      	ldr	r3, [pc, #276]	; (800922c <_dtoa_r+0x5a4>)
 8009116:	eb03 03c9 	add.w	r3, r3, r9, lsl #3
 800911a:	e9d3 3400 	ldrd	r3, r4, [r3]
 800911e:	e9cd 3406 	strd	r3, r4, [sp, #24]
 8009122:	9b23      	ldr	r3, [sp, #140]	; 0x8c
 8009124:	2b00      	cmp	r3, #0
 8009126:	f280 80db 	bge.w	80092e0 <_dtoa_r+0x658>
 800912a:	9b02      	ldr	r3, [sp, #8]
 800912c:	2b00      	cmp	r3, #0
 800912e:	f300 80d7 	bgt.w	80092e0 <_dtoa_r+0x658>
 8009132:	f040 8274 	bne.w	800961e <_dtoa_r+0x996>
 8009136:	e9dd 0106 	ldrd	r0, r1, [sp, #24]
 800913a:	2200      	movs	r2, #0
 800913c:	4b40      	ldr	r3, [pc, #256]	; (8009240 <_dtoa_r+0x5b8>)
 800913e:	f7f7 f9cb 	bl	80004d8 <__aeabi_dmul>
 8009142:	e9dd 2304 	ldrd	r2, r3, [sp, #16]
 8009146:	f7f7 fc4d 	bl	80009e4 <__aeabi_dcmpge>
 800914a:	9c02      	ldr	r4, [sp, #8]
 800914c:	4626      	mov	r6, r4
 800914e:	2800      	cmp	r0, #0
 8009150:	f040 824a 	bne.w	80095e8 <_dtoa_r+0x960>
 8009154:	2331      	movs	r3, #49	; 0x31
 8009156:	9f08      	ldr	r7, [sp, #32]
 8009158:	f109 0901 	add.w	r9, r9, #1
 800915c:	f807 3b01 	strb.w	r3, [r7], #1
 8009160:	e246      	b.n	80095f0 <_dtoa_r+0x968>
 8009162:	07e2      	lsls	r2, r4, #31
 8009164:	d505      	bpl.n	8009172 <_dtoa_r+0x4ea>
 8009166:	e9d6 2300 	ldrd	r2, r3, [r6]
 800916a:	f7f7 f9b5 	bl	80004d8 <__aeabi_dmul>
 800916e:	2301      	movs	r3, #1
 8009170:	3701      	adds	r7, #1
 8009172:	1064      	asrs	r4, r4, #1
 8009174:	3608      	adds	r6, #8
 8009176:	e76d      	b.n	8009054 <_dtoa_r+0x3cc>
 8009178:	2702      	movs	r7, #2
 800917a:	e770      	b.n	800905e <_dtoa_r+0x3d6>
 800917c:	46c8      	mov	r8, r9
 800917e:	9c02      	ldr	r4, [sp, #8]
 8009180:	e78f      	b.n	80090a2 <_dtoa_r+0x41a>
 8009182:	9908      	ldr	r1, [sp, #32]
 8009184:	4b29      	ldr	r3, [pc, #164]	; (800922c <_dtoa_r+0x5a4>)
 8009186:	4421      	add	r1, r4
 8009188:	9112      	str	r1, [sp, #72]	; 0x48
 800918a:	990b      	ldr	r1, [sp, #44]	; 0x2c
 800918c:	eb03 03c4 	add.w	r3, r3, r4, lsl #3
 8009190:	e9dd 6710 	ldrd	r6, r7, [sp, #64]	; 0x40
 8009194:	e953 2302 	ldrd	r2, r3, [r3, #-8]
 8009198:	2900      	cmp	r1, #0
 800919a:	d055      	beq.n	8009248 <_dtoa_r+0x5c0>
 800919c:	2000      	movs	r0, #0
 800919e:	4929      	ldr	r1, [pc, #164]	; (8009244 <_dtoa_r+0x5bc>)
 80091a0:	f7f7 fac4 	bl	800072c <__aeabi_ddiv>
 80091a4:	463b      	mov	r3, r7
 80091a6:	4632      	mov	r2, r6
 80091a8:	f7f6 ffde 	bl	8000168 <__aeabi_dsub>
 80091ac:	e9cd 0110 	strd	r0, r1, [sp, #64]	; 0x40
 80091b0:	9f08      	ldr	r7, [sp, #32]
 80091b2:	e9dd 0104 	ldrd	r0, r1, [sp, #16]
 80091b6:	f7f7 fc3f 	bl	8000a38 <__aeabi_d2iz>
 80091ba:	4604      	mov	r4, r0
 80091bc:	f7f7 f922 	bl	8000404 <__aeabi_i2d>
 80091c0:	4602      	mov	r2, r0
 80091c2:	460b      	mov	r3, r1
 80091c4:	e9dd 0104 	ldrd	r0, r1, [sp, #16]
 80091c8:	f7f6 ffce 	bl	8000168 <__aeabi_dsub>
 80091cc:	4602      	mov	r2, r0
 80091ce:	460b      	mov	r3, r1
 80091d0:	3430      	adds	r4, #48	; 0x30
 80091d2:	e9cd 2304 	strd	r2, r3, [sp, #16]
 80091d6:	e9dd 2310 	ldrd	r2, r3, [sp, #64]	; 0x40
 80091da:	f807 4b01 	strb.w	r4, [r7], #1
 80091de:	f7f7 fbed 	bl	80009bc <__aeabi_dcmplt>
 80091e2:	2800      	cmp	r0, #0
 80091e4:	d174      	bne.n	80092d0 <_dtoa_r+0x648>
 80091e6:	e9dd 2304 	ldrd	r2, r3, [sp, #16]
 80091ea:	2000      	movs	r0, #0
 80091ec:	4911      	ldr	r1, [pc, #68]	; (8009234 <_dtoa_r+0x5ac>)
 80091ee:	f7f6 ffbb 	bl	8000168 <__aeabi_dsub>
 80091f2:	e9dd 2310 	ldrd	r2, r3, [sp, #64]	; 0x40
 80091f6:	f7f7 fbe1 	bl	80009bc <__aeabi_dcmplt>
 80091fa:	2800      	cmp	r0, #0
 80091fc:	f040 80b6 	bne.w	800936c <_dtoa_r+0x6e4>
 8009200:	9b12      	ldr	r3, [sp, #72]	; 0x48
 8009202:	429f      	cmp	r7, r3
 8009204:	f43f af7a 	beq.w	80090fc <_dtoa_r+0x474>
 8009208:	e9dd 0110 	ldrd	r0, r1, [sp, #64]	; 0x40
 800920c:	2200      	movs	r2, #0
 800920e:	4b0a      	ldr	r3, [pc, #40]	; (8009238 <_dtoa_r+0x5b0>)
 8009210:	f7f7 f962 	bl	80004d8 <__aeabi_dmul>
 8009214:	2200      	movs	r2, #0
 8009216:	e9cd 0110 	strd	r0, r1, [sp, #64]	; 0x40
 800921a:	e9dd 0104 	ldrd	r0, r1, [sp, #16]
 800921e:	4b06      	ldr	r3, [pc, #24]	; (8009238 <_dtoa_r+0x5b0>)
 8009220:	f7f7 f95a 	bl	80004d8 <__aeabi_dmul>
 8009224:	e9cd 0104 	strd	r0, r1, [sp, #16]
 8009228:	e7c3      	b.n	80091b2 <_dtoa_r+0x52a>
 800922a:	bf00      	nop
 800922c:	0800bba8 	.word	0x0800bba8
 8009230:	0800bb80 	.word	0x0800bb80
 8009234:	3ff00000 	.word	0x3ff00000
 8009238:	40240000 	.word	0x40240000
 800923c:	401c0000 	.word	0x401c0000
 8009240:	40140000 	.word	0x40140000
 8009244:	3fe00000 	.word	0x3fe00000
 8009248:	4630      	mov	r0, r6
 800924a:	4639      	mov	r1, r7
 800924c:	f7f7 f944 	bl	80004d8 <__aeabi_dmul>
 8009250:	9b12      	ldr	r3, [sp, #72]	; 0x48
 8009252:	e9cd 0110 	strd	r0, r1, [sp, #64]	; 0x40
 8009256:	9c08      	ldr	r4, [sp, #32]
 8009258:	9314      	str	r3, [sp, #80]	; 0x50
 800925a:	e9dd 0104 	ldrd	r0, r1, [sp, #16]
 800925e:	f7f7 fbeb 	bl	8000a38 <__aeabi_d2iz>
 8009262:	9015      	str	r0, [sp, #84]	; 0x54
 8009264:	f7f7 f8ce 	bl	8000404 <__aeabi_i2d>
 8009268:	4602      	mov	r2, r0
 800926a:	460b      	mov	r3, r1
 800926c:	e9dd 0104 	ldrd	r0, r1, [sp, #16]
 8009270:	f7f6 ff7a 	bl	8000168 <__aeabi_dsub>
 8009274:	9b15      	ldr	r3, [sp, #84]	; 0x54
 8009276:	4606      	mov	r6, r0
 8009278:	3330      	adds	r3, #48	; 0x30
 800927a:	f804 3b01 	strb.w	r3, [r4], #1
 800927e:	9b12      	ldr	r3, [sp, #72]	; 0x48
 8009280:	460f      	mov	r7, r1
 8009282:	429c      	cmp	r4, r3
 8009284:	f04f 0200 	mov.w	r2, #0
 8009288:	d124      	bne.n	80092d4 <_dtoa_r+0x64c>
 800928a:	e9dd 0110 	ldrd	r0, r1, [sp, #64]	; 0x40
 800928e:	4bb3      	ldr	r3, [pc, #716]	; (800955c <_dtoa_r+0x8d4>)
 8009290:	f7f6 ff6c 	bl	800016c <__adddf3>
 8009294:	4602      	mov	r2, r0
 8009296:	460b      	mov	r3, r1
 8009298:	4630      	mov	r0, r6
 800929a:	4639      	mov	r1, r7
 800929c:	f7f7 fbac 	bl	80009f8 <__aeabi_dcmpgt>
 80092a0:	2800      	cmp	r0, #0
 80092a2:	d162      	bne.n	800936a <_dtoa_r+0x6e2>
 80092a4:	e9dd 2310 	ldrd	r2, r3, [sp, #64]	; 0x40
 80092a8:	2000      	movs	r0, #0
 80092aa:	49ac      	ldr	r1, [pc, #688]	; (800955c <_dtoa_r+0x8d4>)
 80092ac:	f7f6 ff5c 	bl	8000168 <__aeabi_dsub>
 80092b0:	4602      	mov	r2, r0
 80092b2:	460b      	mov	r3, r1
 80092b4:	4630      	mov	r0, r6
 80092b6:	4639      	mov	r1, r7
 80092b8:	f7f7 fb80 	bl	80009bc <__aeabi_dcmplt>
 80092bc:	2800      	cmp	r0, #0
 80092be:	f43f af1d 	beq.w	80090fc <_dtoa_r+0x474>
 80092c2:	9f14      	ldr	r7, [sp, #80]	; 0x50
 80092c4:	1e7b      	subs	r3, r7, #1
 80092c6:	9314      	str	r3, [sp, #80]	; 0x50
 80092c8:	f817 3c01 	ldrb.w	r3, [r7, #-1]
 80092cc:	2b30      	cmp	r3, #48	; 0x30
 80092ce:	d0f8      	beq.n	80092c2 <_dtoa_r+0x63a>
 80092d0:	46c1      	mov	r9, r8
 80092d2:	e03a      	b.n	800934a <_dtoa_r+0x6c2>
 80092d4:	4ba2      	ldr	r3, [pc, #648]	; (8009560 <_dtoa_r+0x8d8>)
 80092d6:	f7f7 f8ff 	bl	80004d8 <__aeabi_dmul>
 80092da:	e9cd 0104 	strd	r0, r1, [sp, #16]
 80092de:	e7bc      	b.n	800925a <_dtoa_r+0x5d2>
 80092e0:	9f08      	ldr	r7, [sp, #32]
 80092e2:	e9dd 2306 	ldrd	r2, r3, [sp, #24]
 80092e6:	e9dd 0104 	ldrd	r0, r1, [sp, #16]
 80092ea:	f7f7 fa1f 	bl	800072c <__aeabi_ddiv>
 80092ee:	f7f7 fba3 	bl	8000a38 <__aeabi_d2iz>
 80092f2:	4604      	mov	r4, r0
 80092f4:	f7f7 f886 	bl	8000404 <__aeabi_i2d>
 80092f8:	e9dd 2306 	ldrd	r2, r3, [sp, #24]
 80092fc:	f7f7 f8ec 	bl	80004d8 <__aeabi_dmul>
 8009300:	f104 0630 	add.w	r6, r4, #48	; 0x30
 8009304:	460b      	mov	r3, r1
 8009306:	4602      	mov	r2, r0
 8009308:	e9dd 0104 	ldrd	r0, r1, [sp, #16]
 800930c:	f7f6 ff2c 	bl	8000168 <__aeabi_dsub>
 8009310:	f807 6b01 	strb.w	r6, [r7], #1
 8009314:	9e08      	ldr	r6, [sp, #32]
 8009316:	9b02      	ldr	r3, [sp, #8]
 8009318:	1bbe      	subs	r6, r7, r6
 800931a:	42b3      	cmp	r3, r6
 800931c:	d13a      	bne.n	8009394 <_dtoa_r+0x70c>
 800931e:	4602      	mov	r2, r0
 8009320:	460b      	mov	r3, r1
 8009322:	f7f6 ff23 	bl	800016c <__adddf3>
 8009326:	4602      	mov	r2, r0
 8009328:	460b      	mov	r3, r1
 800932a:	e9cd 2302 	strd	r2, r3, [sp, #8]
 800932e:	e9dd 2306 	ldrd	r2, r3, [sp, #24]
 8009332:	f7f7 fb61 	bl	80009f8 <__aeabi_dcmpgt>
 8009336:	bb58      	cbnz	r0, 8009390 <_dtoa_r+0x708>
 8009338:	e9dd 2306 	ldrd	r2, r3, [sp, #24]
 800933c:	e9dd 0102 	ldrd	r0, r1, [sp, #8]
 8009340:	f7f7 fb32 	bl	80009a8 <__aeabi_dcmpeq>
 8009344:	b108      	cbz	r0, 800934a <_dtoa_r+0x6c2>
 8009346:	07e1      	lsls	r1, r4, #31
 8009348:	d422      	bmi.n	8009390 <_dtoa_r+0x708>
 800934a:	4628      	mov	r0, r5
 800934c:	4651      	mov	r1, sl
 800934e:	f000 faf1 	bl	8009934 <_Bfree>
 8009352:	2300      	movs	r3, #0
 8009354:	703b      	strb	r3, [r7, #0]
 8009356:	9b24      	ldr	r3, [sp, #144]	; 0x90
 8009358:	f109 0001 	add.w	r0, r9, #1
 800935c:	6018      	str	r0, [r3, #0]
 800935e:	9b26      	ldr	r3, [sp, #152]	; 0x98
 8009360:	2b00      	cmp	r3, #0
 8009362:	f43f acdf 	beq.w	8008d24 <_dtoa_r+0x9c>
 8009366:	601f      	str	r7, [r3, #0]
 8009368:	e4dc      	b.n	8008d24 <_dtoa_r+0x9c>
 800936a:	4627      	mov	r7, r4
 800936c:	463b      	mov	r3, r7
 800936e:	461f      	mov	r7, r3
 8009370:	f813 2d01 	ldrb.w	r2, [r3, #-1]!
 8009374:	2a39      	cmp	r2, #57	; 0x39
 8009376:	d107      	bne.n	8009388 <_dtoa_r+0x700>
 8009378:	9a08      	ldr	r2, [sp, #32]
 800937a:	429a      	cmp	r2, r3
 800937c:	d1f7      	bne.n	800936e <_dtoa_r+0x6e6>
 800937e:	2230      	movs	r2, #48	; 0x30
 8009380:	9908      	ldr	r1, [sp, #32]
 8009382:	f108 0801 	add.w	r8, r8, #1
 8009386:	700a      	strb	r2, [r1, #0]
 8009388:	781a      	ldrb	r2, [r3, #0]
 800938a:	3201      	adds	r2, #1
 800938c:	701a      	strb	r2, [r3, #0]
 800938e:	e79f      	b.n	80092d0 <_dtoa_r+0x648>
 8009390:	46c8      	mov	r8, r9
 8009392:	e7eb      	b.n	800936c <_dtoa_r+0x6e4>
 8009394:	2200      	movs	r2, #0
 8009396:	4b72      	ldr	r3, [pc, #456]	; (8009560 <_dtoa_r+0x8d8>)
 8009398:	f7f7 f89e 	bl	80004d8 <__aeabi_dmul>
 800939c:	4602      	mov	r2, r0
 800939e:	460b      	mov	r3, r1
 80093a0:	e9cd 2304 	strd	r2, r3, [sp, #16]
 80093a4:	2200      	movs	r2, #0
 80093a6:	2300      	movs	r3, #0
 80093a8:	f7f7 fafe 	bl	80009a8 <__aeabi_dcmpeq>
 80093ac:	2800      	cmp	r0, #0
 80093ae:	d098      	beq.n	80092e2 <_dtoa_r+0x65a>
 80093b0:	e7cb      	b.n	800934a <_dtoa_r+0x6c2>
 80093b2:	9a0b      	ldr	r2, [sp, #44]	; 0x2c
 80093b4:	2a00      	cmp	r2, #0
 80093b6:	f000 80cd 	beq.w	8009554 <_dtoa_r+0x8cc>
 80093ba:	9a22      	ldr	r2, [sp, #136]	; 0x88
 80093bc:	2a01      	cmp	r2, #1
 80093be:	f300 80af 	bgt.w	8009520 <_dtoa_r+0x898>
 80093c2:	9a13      	ldr	r2, [sp, #76]	; 0x4c
 80093c4:	2a00      	cmp	r2, #0
 80093c6:	f000 80a7 	beq.w	8009518 <_dtoa_r+0x890>
 80093ca:	f203 4333 	addw	r3, r3, #1075	; 0x433
 80093ce:	9c0a      	ldr	r4, [sp, #40]	; 0x28
 80093d0:	9f06      	ldr	r7, [sp, #24]
 80093d2:	9a06      	ldr	r2, [sp, #24]
 80093d4:	2101      	movs	r1, #1
 80093d6:	441a      	add	r2, r3
 80093d8:	9206      	str	r2, [sp, #24]
 80093da:	9a09      	ldr	r2, [sp, #36]	; 0x24
 80093dc:	4628      	mov	r0, r5
 80093de:	441a      	add	r2, r3
 80093e0:	9209      	str	r2, [sp, #36]	; 0x24
 80093e2:	f000 fb61 	bl	8009aa8 <__i2b>
 80093e6:	4606      	mov	r6, r0
 80093e8:	2f00      	cmp	r7, #0
 80093ea:	dd0c      	ble.n	8009406 <_dtoa_r+0x77e>
 80093ec:	9b09      	ldr	r3, [sp, #36]	; 0x24
 80093ee:	2b00      	cmp	r3, #0
 80093f0:	dd09      	ble.n	8009406 <_dtoa_r+0x77e>
 80093f2:	42bb      	cmp	r3, r7
 80093f4:	bfa8      	it	ge
 80093f6:	463b      	movge	r3, r7
 80093f8:	9a06      	ldr	r2, [sp, #24]
 80093fa:	1aff      	subs	r7, r7, r3
 80093fc:	1ad2      	subs	r2, r2, r3
 80093fe:	9206      	str	r2, [sp, #24]
 8009400:	9a09      	ldr	r2, [sp, #36]	; 0x24
 8009402:	1ad3      	subs	r3, r2, r3
 8009404:	9309      	str	r3, [sp, #36]	; 0x24
 8009406:	9b0a      	ldr	r3, [sp, #40]	; 0x28
 8009408:	b1f3      	cbz	r3, 8009448 <_dtoa_r+0x7c0>
 800940a:	9b0b      	ldr	r3, [sp, #44]	; 0x2c
 800940c:	2b00      	cmp	r3, #0
 800940e:	f000 80a9 	beq.w	8009564 <_dtoa_r+0x8dc>
 8009412:	2c00      	cmp	r4, #0
 8009414:	dd10      	ble.n	8009438 <_dtoa_r+0x7b0>
 8009416:	4631      	mov	r1, r6
 8009418:	4622      	mov	r2, r4
 800941a:	4628      	mov	r0, r5
 800941c:	f000 fbfe 	bl	8009c1c <__pow5mult>
 8009420:	4652      	mov	r2, sl
 8009422:	4601      	mov	r1, r0
 8009424:	4606      	mov	r6, r0
 8009426:	4628      	mov	r0, r5
 8009428:	f000 fb54 	bl	8009ad4 <__multiply>
 800942c:	4680      	mov	r8, r0
 800942e:	4651      	mov	r1, sl
 8009430:	4628      	mov	r0, r5
 8009432:	f000 fa7f 	bl	8009934 <_Bfree>
 8009436:	46c2      	mov	sl, r8
 8009438:	9b0a      	ldr	r3, [sp, #40]	; 0x28
 800943a:	1b1a      	subs	r2, r3, r4
 800943c:	d004      	beq.n	8009448 <_dtoa_r+0x7c0>
 800943e:	4651      	mov	r1, sl
 8009440:	4628      	mov	r0, r5
 8009442:	f000 fbeb 	bl	8009c1c <__pow5mult>
 8009446:	4682      	mov	sl, r0
 8009448:	2101      	movs	r1, #1
 800944a:	4628      	mov	r0, r5
 800944c:	f000 fb2c 	bl	8009aa8 <__i2b>
 8009450:	9b0e      	ldr	r3, [sp, #56]	; 0x38
 8009452:	4604      	mov	r4, r0
 8009454:	2b00      	cmp	r3, #0
 8009456:	f340 8087 	ble.w	8009568 <_dtoa_r+0x8e0>
 800945a:	461a      	mov	r2, r3
 800945c:	4601      	mov	r1, r0
 800945e:	4628      	mov	r0, r5
 8009460:	f000 fbdc 	bl	8009c1c <__pow5mult>
 8009464:	9b22      	ldr	r3, [sp, #136]	; 0x88
 8009466:	4604      	mov	r4, r0
 8009468:	2b01      	cmp	r3, #1
 800946a:	f340 8080 	ble.w	800956e <_dtoa_r+0x8e6>
 800946e:	f04f 0800 	mov.w	r8, #0
 8009472:	6923      	ldr	r3, [r4, #16]
 8009474:	eb04 0383 	add.w	r3, r4, r3, lsl #2
 8009478:	6918      	ldr	r0, [r3, #16]
 800947a:	f000 fac7 	bl	8009a0c <__hi0bits>
 800947e:	f1c0 0020 	rsb	r0, r0, #32
 8009482:	9b09      	ldr	r3, [sp, #36]	; 0x24
 8009484:	4418      	add	r0, r3
 8009486:	f010 001f 	ands.w	r0, r0, #31
 800948a:	f000 8092 	beq.w	80095b2 <_dtoa_r+0x92a>
 800948e:	f1c0 0320 	rsb	r3, r0, #32
 8009492:	2b04      	cmp	r3, #4
 8009494:	f340 808a 	ble.w	80095ac <_dtoa_r+0x924>
 8009498:	f1c0 001c 	rsb	r0, r0, #28
 800949c:	9b06      	ldr	r3, [sp, #24]
 800949e:	4407      	add	r7, r0
 80094a0:	4403      	add	r3, r0
 80094a2:	9306      	str	r3, [sp, #24]
 80094a4:	9b09      	ldr	r3, [sp, #36]	; 0x24
 80094a6:	4403      	add	r3, r0
 80094a8:	9309      	str	r3, [sp, #36]	; 0x24
 80094aa:	9b06      	ldr	r3, [sp, #24]
 80094ac:	2b00      	cmp	r3, #0
 80094ae:	dd05      	ble.n	80094bc <_dtoa_r+0x834>
 80094b0:	4651      	mov	r1, sl
 80094b2:	461a      	mov	r2, r3
 80094b4:	4628      	mov	r0, r5
 80094b6:	f000 fc0b 	bl	8009cd0 <__lshift>
 80094ba:	4682      	mov	sl, r0
 80094bc:	9b09      	ldr	r3, [sp, #36]	; 0x24
 80094be:	2b00      	cmp	r3, #0
 80094c0:	dd05      	ble.n	80094ce <_dtoa_r+0x846>
 80094c2:	4621      	mov	r1, r4
 80094c4:	461a      	mov	r2, r3
 80094c6:	4628      	mov	r0, r5
 80094c8:	f000 fc02 	bl	8009cd0 <__lshift>
 80094cc:	4604      	mov	r4, r0
 80094ce:	9b0f      	ldr	r3, [sp, #60]	; 0x3c
 80094d0:	2b00      	cmp	r3, #0
 80094d2:	d070      	beq.n	80095b6 <_dtoa_r+0x92e>
 80094d4:	4621      	mov	r1, r4
 80094d6:	4650      	mov	r0, sl
 80094d8:	f000 fc66 	bl	8009da8 <__mcmp>
 80094dc:	2800      	cmp	r0, #0
 80094de:	da6a      	bge.n	80095b6 <_dtoa_r+0x92e>
 80094e0:	2300      	movs	r3, #0
 80094e2:	4651      	mov	r1, sl
 80094e4:	220a      	movs	r2, #10
 80094e6:	4628      	mov	r0, r5
 80094e8:	f000 fa46 	bl	8009978 <__multadd>
 80094ec:	9b0b      	ldr	r3, [sp, #44]	; 0x2c
 80094ee:	4682      	mov	sl, r0
 80094f0:	f109 39ff 	add.w	r9, r9, #4294967295	; 0xffffffff
 80094f4:	2b00      	cmp	r3, #0
 80094f6:	f000 8193 	beq.w	8009820 <_dtoa_r+0xb98>
 80094fa:	4631      	mov	r1, r6
 80094fc:	2300      	movs	r3, #0
 80094fe:	220a      	movs	r2, #10
 8009500:	4628      	mov	r0, r5
 8009502:	f000 fa39 	bl	8009978 <__multadd>
 8009506:	f1bb 0f00 	cmp.w	fp, #0
 800950a:	4606      	mov	r6, r0
 800950c:	f300 8093 	bgt.w	8009636 <_dtoa_r+0x9ae>
 8009510:	9b22      	ldr	r3, [sp, #136]	; 0x88
 8009512:	2b02      	cmp	r3, #2
 8009514:	dc57      	bgt.n	80095c6 <_dtoa_r+0x93e>
 8009516:	e08e      	b.n	8009636 <_dtoa_r+0x9ae>
 8009518:	9b16      	ldr	r3, [sp, #88]	; 0x58
 800951a:	f1c3 0336 	rsb	r3, r3, #54	; 0x36
 800951e:	e756      	b.n	80093ce <_dtoa_r+0x746>
 8009520:	9b02      	ldr	r3, [sp, #8]
 8009522:	1e5c      	subs	r4, r3, #1
 8009524:	9b0a      	ldr	r3, [sp, #40]	; 0x28
 8009526:	42a3      	cmp	r3, r4
 8009528:	bfb7      	itett	lt
 800952a:	9b0a      	ldrlt	r3, [sp, #40]	; 0x28
 800952c:	1b1c      	subge	r4, r3, r4
 800952e:	1ae2      	sublt	r2, r4, r3
 8009530:	9b0e      	ldrlt	r3, [sp, #56]	; 0x38
 8009532:	bfbe      	ittt	lt
 8009534:	940a      	strlt	r4, [sp, #40]	; 0x28
 8009536:	189b      	addlt	r3, r3, r2
 8009538:	930e      	strlt	r3, [sp, #56]	; 0x38
 800953a:	9b02      	ldr	r3, [sp, #8]
 800953c:	bfb8      	it	lt
 800953e:	2400      	movlt	r4, #0
 8009540:	2b00      	cmp	r3, #0
 8009542:	bfbb      	ittet	lt
 8009544:	9b06      	ldrlt	r3, [sp, #24]
 8009546:	9a02      	ldrlt	r2, [sp, #8]
 8009548:	9f06      	ldrge	r7, [sp, #24]
 800954a:	1a9f      	sublt	r7, r3, r2
 800954c:	bfac      	ite	ge
 800954e:	9b02      	ldrge	r3, [sp, #8]
 8009550:	2300      	movlt	r3, #0
 8009552:	e73e      	b.n	80093d2 <_dtoa_r+0x74a>
 8009554:	9c0a      	ldr	r4, [sp, #40]	; 0x28
 8009556:	9f06      	ldr	r7, [sp, #24]
 8009558:	9e0b      	ldr	r6, [sp, #44]	; 0x2c
 800955a:	e745      	b.n	80093e8 <_dtoa_r+0x760>
 800955c:	3fe00000 	.word	0x3fe00000
 8009560:	40240000 	.word	0x40240000
 8009564:	9a0a      	ldr	r2, [sp, #40]	; 0x28
 8009566:	e76a      	b.n	800943e <_dtoa_r+0x7b6>
 8009568:	9b22      	ldr	r3, [sp, #136]	; 0x88
 800956a:	2b01      	cmp	r3, #1
 800956c:	dc19      	bgt.n	80095a2 <_dtoa_r+0x91a>
 800956e:	9b04      	ldr	r3, [sp, #16]
 8009570:	b9bb      	cbnz	r3, 80095a2 <_dtoa_r+0x91a>
 8009572:	9b05      	ldr	r3, [sp, #20]
 8009574:	f3c3 0313 	ubfx	r3, r3, #0, #20
 8009578:	b99b      	cbnz	r3, 80095a2 <_dtoa_r+0x91a>
 800957a:	9b05      	ldr	r3, [sp, #20]
 800957c:	f023 4300 	bic.w	r3, r3, #2147483648	; 0x80000000
 8009580:	0d1b      	lsrs	r3, r3, #20
 8009582:	051b      	lsls	r3, r3, #20
 8009584:	b183      	cbz	r3, 80095a8 <_dtoa_r+0x920>
 8009586:	f04f 0801 	mov.w	r8, #1
 800958a:	9b06      	ldr	r3, [sp, #24]
 800958c:	3301      	adds	r3, #1
 800958e:	9306      	str	r3, [sp, #24]
 8009590:	9b09      	ldr	r3, [sp, #36]	; 0x24
 8009592:	3301      	adds	r3, #1
 8009594:	9309      	str	r3, [sp, #36]	; 0x24
 8009596:	9b0e      	ldr	r3, [sp, #56]	; 0x38
 8009598:	2b00      	cmp	r3, #0
 800959a:	f47f af6a 	bne.w	8009472 <_dtoa_r+0x7ea>
 800959e:	2001      	movs	r0, #1
 80095a0:	e76f      	b.n	8009482 <_dtoa_r+0x7fa>
 80095a2:	f04f 0800 	mov.w	r8, #0
 80095a6:	e7f6      	b.n	8009596 <_dtoa_r+0x90e>
 80095a8:	4698      	mov	r8, r3
 80095aa:	e7f4      	b.n	8009596 <_dtoa_r+0x90e>
 80095ac:	f43f af7d 	beq.w	80094aa <_dtoa_r+0x822>
 80095b0:	4618      	mov	r0, r3
 80095b2:	301c      	adds	r0, #28
 80095b4:	e772      	b.n	800949c <_dtoa_r+0x814>
 80095b6:	9b02      	ldr	r3, [sp, #8]
 80095b8:	2b00      	cmp	r3, #0
 80095ba:	dc36      	bgt.n	800962a <_dtoa_r+0x9a2>
 80095bc:	9b22      	ldr	r3, [sp, #136]	; 0x88
 80095be:	2b02      	cmp	r3, #2
 80095c0:	dd33      	ble.n	800962a <_dtoa_r+0x9a2>
 80095c2:	f8dd b008 	ldr.w	fp, [sp, #8]
 80095c6:	f1bb 0f00 	cmp.w	fp, #0
 80095ca:	d10d      	bne.n	80095e8 <_dtoa_r+0x960>
 80095cc:	4621      	mov	r1, r4
 80095ce:	465b      	mov	r3, fp
 80095d0:	2205      	movs	r2, #5
 80095d2:	4628      	mov	r0, r5
 80095d4:	f000 f9d0 	bl	8009978 <__multadd>
 80095d8:	4601      	mov	r1, r0
 80095da:	4604      	mov	r4, r0
 80095dc:	4650      	mov	r0, sl
 80095de:	f000 fbe3 	bl	8009da8 <__mcmp>
 80095e2:	2800      	cmp	r0, #0
 80095e4:	f73f adb6 	bgt.w	8009154 <_dtoa_r+0x4cc>
 80095e8:	9b23      	ldr	r3, [sp, #140]	; 0x8c
 80095ea:	9f08      	ldr	r7, [sp, #32]
 80095ec:	ea6f 0903 	mvn.w	r9, r3
 80095f0:	f04f 0800 	mov.w	r8, #0
 80095f4:	4621      	mov	r1, r4
 80095f6:	4628      	mov	r0, r5
 80095f8:	f000 f99c 	bl	8009934 <_Bfree>
 80095fc:	2e00      	cmp	r6, #0
 80095fe:	f43f aea4 	beq.w	800934a <_dtoa_r+0x6c2>
 8009602:	f1b8 0f00 	cmp.w	r8, #0
 8009606:	d005      	beq.n	8009614 <_dtoa_r+0x98c>
 8009608:	45b0      	cmp	r8, r6
 800960a:	d003      	beq.n	8009614 <_dtoa_r+0x98c>
 800960c:	4641      	mov	r1, r8
 800960e:	4628      	mov	r0, r5
 8009610:	f000 f990 	bl	8009934 <_Bfree>
 8009614:	4631      	mov	r1, r6
 8009616:	4628      	mov	r0, r5
 8009618:	f000 f98c 	bl	8009934 <_Bfree>
 800961c:	e695      	b.n	800934a <_dtoa_r+0x6c2>
 800961e:	2400      	movs	r4, #0
 8009620:	4626      	mov	r6, r4
 8009622:	e7e1      	b.n	80095e8 <_dtoa_r+0x960>
 8009624:	46c1      	mov	r9, r8
 8009626:	4626      	mov	r6, r4
 8009628:	e594      	b.n	8009154 <_dtoa_r+0x4cc>
 800962a:	9b0b      	ldr	r3, [sp, #44]	; 0x2c
 800962c:	f8dd b008 	ldr.w	fp, [sp, #8]
 8009630:	2b00      	cmp	r3, #0
 8009632:	f000 80fc 	beq.w	800982e <_dtoa_r+0xba6>
 8009636:	2f00      	cmp	r7, #0
 8009638:	dd05      	ble.n	8009646 <_dtoa_r+0x9be>
 800963a:	4631      	mov	r1, r6
 800963c:	463a      	mov	r2, r7
 800963e:	4628      	mov	r0, r5
 8009640:	f000 fb46 	bl	8009cd0 <__lshift>
 8009644:	4606      	mov	r6, r0
 8009646:	f1b8 0f00 	cmp.w	r8, #0
 800964a:	d05c      	beq.n	8009706 <_dtoa_r+0xa7e>
 800964c:	4628      	mov	r0, r5
 800964e:	6871      	ldr	r1, [r6, #4]
 8009650:	f000 f930 	bl	80098b4 <_Balloc>
 8009654:	4607      	mov	r7, r0
 8009656:	b928      	cbnz	r0, 8009664 <_dtoa_r+0x9dc>
 8009658:	4602      	mov	r2, r0
 800965a:	f240 21ea 	movw	r1, #746	; 0x2ea
 800965e:	4b7e      	ldr	r3, [pc, #504]	; (8009858 <_dtoa_r+0xbd0>)
 8009660:	f7ff bb26 	b.w	8008cb0 <_dtoa_r+0x28>
 8009664:	6932      	ldr	r2, [r6, #16]
 8009666:	f106 010c 	add.w	r1, r6, #12
 800966a:	3202      	adds	r2, #2
 800966c:	0092      	lsls	r2, r2, #2
 800966e:	300c      	adds	r0, #12
 8009670:	f000 f912 	bl	8009898 <memcpy>
 8009674:	2201      	movs	r2, #1
 8009676:	4639      	mov	r1, r7
 8009678:	4628      	mov	r0, r5
 800967a:	f000 fb29 	bl	8009cd0 <__lshift>
 800967e:	46b0      	mov	r8, r6
 8009680:	4606      	mov	r6, r0
 8009682:	9b08      	ldr	r3, [sp, #32]
 8009684:	3301      	adds	r3, #1
 8009686:	9302      	str	r3, [sp, #8]
 8009688:	9b08      	ldr	r3, [sp, #32]
 800968a:	445b      	add	r3, fp
 800968c:	930a      	str	r3, [sp, #40]	; 0x28
 800968e:	9b04      	ldr	r3, [sp, #16]
 8009690:	f003 0301 	and.w	r3, r3, #1
 8009694:	9309      	str	r3, [sp, #36]	; 0x24
 8009696:	9b02      	ldr	r3, [sp, #8]
 8009698:	4621      	mov	r1, r4
 800969a:	4650      	mov	r0, sl
 800969c:	f103 3bff 	add.w	fp, r3, #4294967295	; 0xffffffff
 80096a0:	f7ff fa62 	bl	8008b68 <quorem>
 80096a4:	4603      	mov	r3, r0
 80096a6:	4641      	mov	r1, r8
 80096a8:	3330      	adds	r3, #48	; 0x30
 80096aa:	9004      	str	r0, [sp, #16]
 80096ac:	4650      	mov	r0, sl
 80096ae:	930b      	str	r3, [sp, #44]	; 0x2c
 80096b0:	f000 fb7a 	bl	8009da8 <__mcmp>
 80096b4:	4632      	mov	r2, r6
 80096b6:	9006      	str	r0, [sp, #24]
 80096b8:	4621      	mov	r1, r4
 80096ba:	4628      	mov	r0, r5
 80096bc:	f000 fb90 	bl	8009de0 <__mdiff>
 80096c0:	68c2      	ldr	r2, [r0, #12]
 80096c2:	4607      	mov	r7, r0
 80096c4:	9b0b      	ldr	r3, [sp, #44]	; 0x2c
 80096c6:	bb02      	cbnz	r2, 800970a <_dtoa_r+0xa82>
 80096c8:	4601      	mov	r1, r0
 80096ca:	4650      	mov	r0, sl
 80096cc:	f000 fb6c 	bl	8009da8 <__mcmp>
 80096d0:	4602      	mov	r2, r0
 80096d2:	9b0b      	ldr	r3, [sp, #44]	; 0x2c
 80096d4:	4639      	mov	r1, r7
 80096d6:	4628      	mov	r0, r5
 80096d8:	e9cd 320b 	strd	r3, r2, [sp, #44]	; 0x2c
 80096dc:	f000 f92a 	bl	8009934 <_Bfree>
 80096e0:	9b22      	ldr	r3, [sp, #136]	; 0x88
 80096e2:	9a0c      	ldr	r2, [sp, #48]	; 0x30
 80096e4:	9f02      	ldr	r7, [sp, #8]
 80096e6:	ea43 0102 	orr.w	r1, r3, r2
 80096ea:	9b09      	ldr	r3, [sp, #36]	; 0x24
 80096ec:	430b      	orrs	r3, r1
 80096ee:	9b0b      	ldr	r3, [sp, #44]	; 0x2c
 80096f0:	d10d      	bne.n	800970e <_dtoa_r+0xa86>
 80096f2:	2b39      	cmp	r3, #57	; 0x39
 80096f4:	d027      	beq.n	8009746 <_dtoa_r+0xabe>
 80096f6:	9a06      	ldr	r2, [sp, #24]
 80096f8:	2a00      	cmp	r2, #0
 80096fa:	dd01      	ble.n	8009700 <_dtoa_r+0xa78>
 80096fc:	9b04      	ldr	r3, [sp, #16]
 80096fe:	3331      	adds	r3, #49	; 0x31
 8009700:	f88b 3000 	strb.w	r3, [fp]
 8009704:	e776      	b.n	80095f4 <_dtoa_r+0x96c>
 8009706:	4630      	mov	r0, r6
 8009708:	e7b9      	b.n	800967e <_dtoa_r+0x9f6>
 800970a:	2201      	movs	r2, #1
 800970c:	e7e2      	b.n	80096d4 <_dtoa_r+0xa4c>
 800970e:	9906      	ldr	r1, [sp, #24]
 8009710:	2900      	cmp	r1, #0
 8009712:	db04      	blt.n	800971e <_dtoa_r+0xa96>
 8009714:	9822      	ldr	r0, [sp, #136]	; 0x88
 8009716:	4301      	orrs	r1, r0
 8009718:	9809      	ldr	r0, [sp, #36]	; 0x24
 800971a:	4301      	orrs	r1, r0
 800971c:	d120      	bne.n	8009760 <_dtoa_r+0xad8>
 800971e:	2a00      	cmp	r2, #0
 8009720:	ddee      	ble.n	8009700 <_dtoa_r+0xa78>
 8009722:	4651      	mov	r1, sl
 8009724:	2201      	movs	r2, #1
 8009726:	4628      	mov	r0, r5
 8009728:	9302      	str	r3, [sp, #8]
 800972a:	f000 fad1 	bl	8009cd0 <__lshift>
 800972e:	4621      	mov	r1, r4
 8009730:	4682      	mov	sl, r0
 8009732:	f000 fb39 	bl	8009da8 <__mcmp>
 8009736:	2800      	cmp	r0, #0
 8009738:	9b02      	ldr	r3, [sp, #8]
 800973a:	dc02      	bgt.n	8009742 <_dtoa_r+0xaba>
 800973c:	d1e0      	bne.n	8009700 <_dtoa_r+0xa78>
 800973e:	07da      	lsls	r2, r3, #31
 8009740:	d5de      	bpl.n	8009700 <_dtoa_r+0xa78>
 8009742:	2b39      	cmp	r3, #57	; 0x39
 8009744:	d1da      	bne.n	80096fc <_dtoa_r+0xa74>
 8009746:	2339      	movs	r3, #57	; 0x39
 8009748:	f88b 3000 	strb.w	r3, [fp]
 800974c:	463b      	mov	r3, r7
 800974e:	461f      	mov	r7, r3
 8009750:	f817 2c01 	ldrb.w	r2, [r7, #-1]
 8009754:	3b01      	subs	r3, #1
 8009756:	2a39      	cmp	r2, #57	; 0x39
 8009758:	d050      	beq.n	80097fc <_dtoa_r+0xb74>
 800975a:	3201      	adds	r2, #1
 800975c:	701a      	strb	r2, [r3, #0]
 800975e:	e749      	b.n	80095f4 <_dtoa_r+0x96c>
 8009760:	2a00      	cmp	r2, #0
 8009762:	dd03      	ble.n	800976c <_dtoa_r+0xae4>
 8009764:	2b39      	cmp	r3, #57	; 0x39
 8009766:	d0ee      	beq.n	8009746 <_dtoa_r+0xabe>
 8009768:	3301      	adds	r3, #1
 800976a:	e7c9      	b.n	8009700 <_dtoa_r+0xa78>
 800976c:	9a02      	ldr	r2, [sp, #8]
 800976e:	990a      	ldr	r1, [sp, #40]	; 0x28
 8009770:	f802 3c01 	strb.w	r3, [r2, #-1]
 8009774:	428a      	cmp	r2, r1
 8009776:	d02a      	beq.n	80097ce <_dtoa_r+0xb46>
 8009778:	4651      	mov	r1, sl
 800977a:	2300      	movs	r3, #0
 800977c:	220a      	movs	r2, #10
 800977e:	4628      	mov	r0, r5
 8009780:	f000 f8fa 	bl	8009978 <__multadd>
 8009784:	45b0      	cmp	r8, r6
 8009786:	4682      	mov	sl, r0
 8009788:	f04f 0300 	mov.w	r3, #0
 800978c:	f04f 020a 	mov.w	r2, #10
 8009790:	4641      	mov	r1, r8
 8009792:	4628      	mov	r0, r5
 8009794:	d107      	bne.n	80097a6 <_dtoa_r+0xb1e>
 8009796:	f000 f8ef 	bl	8009978 <__multadd>
 800979a:	4680      	mov	r8, r0
 800979c:	4606      	mov	r6, r0
 800979e:	9b02      	ldr	r3, [sp, #8]
 80097a0:	3301      	adds	r3, #1
 80097a2:	9302      	str	r3, [sp, #8]
 80097a4:	e777      	b.n	8009696 <_dtoa_r+0xa0e>
 80097a6:	f000 f8e7 	bl	8009978 <__multadd>
 80097aa:	4631      	mov	r1, r6
 80097ac:	4680      	mov	r8, r0
 80097ae:	2300      	movs	r3, #0
 80097b0:	220a      	movs	r2, #10
 80097b2:	4628      	mov	r0, r5
 80097b4:	f000 f8e0 	bl	8009978 <__multadd>
 80097b8:	4606      	mov	r6, r0
 80097ba:	e7f0      	b.n	800979e <_dtoa_r+0xb16>
 80097bc:	f1bb 0f00 	cmp.w	fp, #0
 80097c0:	bfcc      	ite	gt
 80097c2:	465f      	movgt	r7, fp
 80097c4:	2701      	movle	r7, #1
 80097c6:	f04f 0800 	mov.w	r8, #0
 80097ca:	9a08      	ldr	r2, [sp, #32]
 80097cc:	4417      	add	r7, r2
 80097ce:	4651      	mov	r1, sl
 80097d0:	2201      	movs	r2, #1
 80097d2:	4628      	mov	r0, r5
 80097d4:	9302      	str	r3, [sp, #8]
 80097d6:	f000 fa7b 	bl	8009cd0 <__lshift>
 80097da:	4621      	mov	r1, r4
 80097dc:	4682      	mov	sl, r0
 80097de:	f000 fae3 	bl	8009da8 <__mcmp>
 80097e2:	2800      	cmp	r0, #0
 80097e4:	dcb2      	bgt.n	800974c <_dtoa_r+0xac4>
 80097e6:	d102      	bne.n	80097ee <_dtoa_r+0xb66>
 80097e8:	9b02      	ldr	r3, [sp, #8]
 80097ea:	07db      	lsls	r3, r3, #31
 80097ec:	d4ae      	bmi.n	800974c <_dtoa_r+0xac4>
 80097ee:	463b      	mov	r3, r7
 80097f0:	461f      	mov	r7, r3
 80097f2:	f813 2d01 	ldrb.w	r2, [r3, #-1]!
 80097f6:	2a30      	cmp	r2, #48	; 0x30
 80097f8:	d0fa      	beq.n	80097f0 <_dtoa_r+0xb68>
 80097fa:	e6fb      	b.n	80095f4 <_dtoa_r+0x96c>
 80097fc:	9a08      	ldr	r2, [sp, #32]
 80097fe:	429a      	cmp	r2, r3
 8009800:	d1a5      	bne.n	800974e <_dtoa_r+0xac6>
 8009802:	2331      	movs	r3, #49	; 0x31
 8009804:	f109 0901 	add.w	r9, r9, #1
 8009808:	7013      	strb	r3, [r2, #0]
 800980a:	e6f3      	b.n	80095f4 <_dtoa_r+0x96c>
 800980c:	4b13      	ldr	r3, [pc, #76]	; (800985c <_dtoa_r+0xbd4>)
 800980e:	f7ff baa7 	b.w	8008d60 <_dtoa_r+0xd8>
 8009812:	9b26      	ldr	r3, [sp, #152]	; 0x98
 8009814:	2b00      	cmp	r3, #0
 8009816:	f47f aa80 	bne.w	8008d1a <_dtoa_r+0x92>
 800981a:	4b11      	ldr	r3, [pc, #68]	; (8009860 <_dtoa_r+0xbd8>)
 800981c:	f7ff baa0 	b.w	8008d60 <_dtoa_r+0xd8>
 8009820:	f1bb 0f00 	cmp.w	fp, #0
 8009824:	dc03      	bgt.n	800982e <_dtoa_r+0xba6>
 8009826:	9b22      	ldr	r3, [sp, #136]	; 0x88
 8009828:	2b02      	cmp	r3, #2
 800982a:	f73f aecc 	bgt.w	80095c6 <_dtoa_r+0x93e>
 800982e:	9f08      	ldr	r7, [sp, #32]
 8009830:	4621      	mov	r1, r4
 8009832:	4650      	mov	r0, sl
 8009834:	f7ff f998 	bl	8008b68 <quorem>
 8009838:	9a08      	ldr	r2, [sp, #32]
 800983a:	f100 0330 	add.w	r3, r0, #48	; 0x30
 800983e:	f807 3b01 	strb.w	r3, [r7], #1
 8009842:	1aba      	subs	r2, r7, r2
 8009844:	4593      	cmp	fp, r2
 8009846:	ddb9      	ble.n	80097bc <_dtoa_r+0xb34>
 8009848:	4651      	mov	r1, sl
 800984a:	2300      	movs	r3, #0
 800984c:	220a      	movs	r2, #10
 800984e:	4628      	mov	r0, r5
 8009850:	f000 f892 	bl	8009978 <__multadd>
 8009854:	4682      	mov	sl, r0
 8009856:	e7eb      	b.n	8009830 <_dtoa_r+0xba8>
 8009858:	0800bb0b 	.word	0x0800bb0b
 800985c:	0800ba64 	.word	0x0800ba64
 8009860:	0800ba88 	.word	0x0800ba88

08009864 <_localeconv_r>:
 8009864:	4800      	ldr	r0, [pc, #0]	; (8009868 <_localeconv_r+0x4>)
 8009866:	4770      	bx	lr
 8009868:	200002c4 	.word	0x200002c4

0800986c <malloc>:
 800986c:	4b02      	ldr	r3, [pc, #8]	; (8009878 <malloc+0xc>)
 800986e:	4601      	mov	r1, r0
 8009870:	6818      	ldr	r0, [r3, #0]
 8009872:	f000 bbfb 	b.w	800a06c <_malloc_r>
 8009876:	bf00      	nop
 8009878:	20000170 	.word	0x20000170

0800987c <memchr>:
 800987c:	4603      	mov	r3, r0
 800987e:	b510      	push	{r4, lr}
 8009880:	b2c9      	uxtb	r1, r1
 8009882:	4402      	add	r2, r0
 8009884:	4293      	cmp	r3, r2
 8009886:	4618      	mov	r0, r3
 8009888:	d101      	bne.n	800988e <memchr+0x12>
 800988a:	2000      	movs	r0, #0
 800988c:	e003      	b.n	8009896 <memchr+0x1a>
 800988e:	7804      	ldrb	r4, [r0, #0]
 8009890:	3301      	adds	r3, #1
 8009892:	428c      	cmp	r4, r1
 8009894:	d1f6      	bne.n	8009884 <memchr+0x8>
 8009896:	bd10      	pop	{r4, pc}

08009898 <memcpy>:
 8009898:	440a      	add	r2, r1
 800989a:	4291      	cmp	r1, r2
 800989c:	f100 33ff 	add.w	r3, r0, #4294967295	; 0xffffffff
 80098a0:	d100      	bne.n	80098a4 <memcpy+0xc>
 80098a2:	4770      	bx	lr
 80098a4:	b510      	push	{r4, lr}
 80098a6:	f811 4b01 	ldrb.w	r4, [r1], #1
 80098aa:	4291      	cmp	r1, r2
 80098ac:	f803 4f01 	strb.w	r4, [r3, #1]!
 80098b0:	d1f9      	bne.n	80098a6 <memcpy+0xe>
 80098b2:	bd10      	pop	{r4, pc}

080098b4 <_Balloc>:
 80098b4:	b570      	push	{r4, r5, r6, lr}
 80098b6:	6a46      	ldr	r6, [r0, #36]	; 0x24
 80098b8:	4604      	mov	r4, r0
 80098ba:	460d      	mov	r5, r1
 80098bc:	b976      	cbnz	r6, 80098dc <_Balloc+0x28>
 80098be:	2010      	movs	r0, #16
 80098c0:	f7ff ffd4 	bl	800986c <malloc>
 80098c4:	4602      	mov	r2, r0
 80098c6:	6260      	str	r0, [r4, #36]	; 0x24
 80098c8:	b920      	cbnz	r0, 80098d4 <_Balloc+0x20>
 80098ca:	2166      	movs	r1, #102	; 0x66
 80098cc:	4b17      	ldr	r3, [pc, #92]	; (800992c <_Balloc+0x78>)
 80098ce:	4818      	ldr	r0, [pc, #96]	; (8009930 <_Balloc+0x7c>)
 80098d0:	f000 fd92 	bl	800a3f8 <__assert_func>
 80098d4:	e9c0 6601 	strd	r6, r6, [r0, #4]
 80098d8:	6006      	str	r6, [r0, #0]
 80098da:	60c6      	str	r6, [r0, #12]
 80098dc:	6a66      	ldr	r6, [r4, #36]	; 0x24
 80098de:	68f3      	ldr	r3, [r6, #12]
 80098e0:	b183      	cbz	r3, 8009904 <_Balloc+0x50>
 80098e2:	6a63      	ldr	r3, [r4, #36]	; 0x24
 80098e4:	68db      	ldr	r3, [r3, #12]
 80098e6:	f853 0025 	ldr.w	r0, [r3, r5, lsl #2]
 80098ea:	b9b8      	cbnz	r0, 800991c <_Balloc+0x68>
 80098ec:	2101      	movs	r1, #1
 80098ee:	fa01 f605 	lsl.w	r6, r1, r5
 80098f2:	1d72      	adds	r2, r6, #5
 80098f4:	4620      	mov	r0, r4
 80098f6:	0092      	lsls	r2, r2, #2
 80098f8:	f000 fb5e 	bl	8009fb8 <_calloc_r>
 80098fc:	b160      	cbz	r0, 8009918 <_Balloc+0x64>
 80098fe:	e9c0 5601 	strd	r5, r6, [r0, #4]
 8009902:	e00e      	b.n	8009922 <_Balloc+0x6e>
 8009904:	2221      	movs	r2, #33	; 0x21
 8009906:	2104      	movs	r1, #4
 8009908:	4620      	mov	r0, r4
 800990a:	f000 fb55 	bl	8009fb8 <_calloc_r>
 800990e:	6a63      	ldr	r3, [r4, #36]	; 0x24
 8009910:	60f0      	str	r0, [r6, #12]
 8009912:	68db      	ldr	r3, [r3, #12]
 8009914:	2b00      	cmp	r3, #0
 8009916:	d1e4      	bne.n	80098e2 <_Balloc+0x2e>
 8009918:	2000      	movs	r0, #0
 800991a:	bd70      	pop	{r4, r5, r6, pc}
 800991c:	6802      	ldr	r2, [r0, #0]
 800991e:	f843 2025 	str.w	r2, [r3, r5, lsl #2]
 8009922:	2300      	movs	r3, #0
 8009924:	e9c0 3303 	strd	r3, r3, [r0, #12]
 8009928:	e7f7      	b.n	800991a <_Balloc+0x66>
 800992a:	bf00      	nop
 800992c:	0800ba95 	.word	0x0800ba95
 8009930:	0800bb1c 	.word	0x0800bb1c

08009934 <_Bfree>:
 8009934:	b570      	push	{r4, r5, r6, lr}
 8009936:	6a46      	ldr	r6, [r0, #36]	; 0x24
 8009938:	4605      	mov	r5, r0
 800993a:	460c      	mov	r4, r1
 800993c:	b976      	cbnz	r6, 800995c <_Bfree+0x28>
 800993e:	2010      	movs	r0, #16
 8009940:	f7ff ff94 	bl	800986c <malloc>
 8009944:	4602      	mov	r2, r0
 8009946:	6268      	str	r0, [r5, #36]	; 0x24
 8009948:	b920      	cbnz	r0, 8009954 <_Bfree+0x20>
 800994a:	218a      	movs	r1, #138	; 0x8a
 800994c:	4b08      	ldr	r3, [pc, #32]	; (8009970 <_Bfree+0x3c>)
 800994e:	4809      	ldr	r0, [pc, #36]	; (8009974 <_Bfree+0x40>)
 8009950:	f000 fd52 	bl	800a3f8 <__assert_func>
 8009954:	e9c0 6601 	strd	r6, r6, [r0, #4]
 8009958:	6006      	str	r6, [r0, #0]
 800995a:	60c6      	str	r6, [r0, #12]
 800995c:	b13c      	cbz	r4, 800996e <_Bfree+0x3a>
 800995e:	6a6b      	ldr	r3, [r5, #36]	; 0x24
 8009960:	6862      	ldr	r2, [r4, #4]
 8009962:	68db      	ldr	r3, [r3, #12]
 8009964:	f853 1022 	ldr.w	r1, [r3, r2, lsl #2]
 8009968:	6021      	str	r1, [r4, #0]
 800996a:	f843 4022 	str.w	r4, [r3, r2, lsl #2]
 800996e:	bd70      	pop	{r4, r5, r6, pc}
 8009970:	0800ba95 	.word	0x0800ba95
 8009974:	0800bb1c 	.word	0x0800bb1c

08009978 <__multadd>:
 8009978:	e92d 41f0 	stmdb	sp!, {r4, r5, r6, r7, r8, lr}
 800997c:	4698      	mov	r8, r3
 800997e:	460c      	mov	r4, r1
 8009980:	2300      	movs	r3, #0
 8009982:	690e      	ldr	r6, [r1, #16]
 8009984:	4607      	mov	r7, r0
 8009986:	f101 0014 	add.w	r0, r1, #20
 800998a:	6805      	ldr	r5, [r0, #0]
 800998c:	3301      	adds	r3, #1
 800998e:	b2a9      	uxth	r1, r5
 8009990:	fb02 8101 	mla	r1, r2, r1, r8
 8009994:	0c2d      	lsrs	r5, r5, #16
 8009996:	ea4f 4c11 	mov.w	ip, r1, lsr #16
 800999a:	fb02 c505 	mla	r5, r2, r5, ip
 800999e:	b289      	uxth	r1, r1
 80099a0:	eb01 4105 	add.w	r1, r1, r5, lsl #16
 80099a4:	429e      	cmp	r6, r3
 80099a6:	ea4f 4815 	mov.w	r8, r5, lsr #16
 80099aa:	f840 1b04 	str.w	r1, [r0], #4
 80099ae:	dcec      	bgt.n	800998a <__multadd+0x12>
 80099b0:	f1b8 0f00 	cmp.w	r8, #0
 80099b4:	d022      	beq.n	80099fc <__multadd+0x84>
 80099b6:	68a3      	ldr	r3, [r4, #8]
 80099b8:	42b3      	cmp	r3, r6
 80099ba:	dc19      	bgt.n	80099f0 <__multadd+0x78>
 80099bc:	6861      	ldr	r1, [r4, #4]
 80099be:	4638      	mov	r0, r7
 80099c0:	3101      	adds	r1, #1
 80099c2:	f7ff ff77 	bl	80098b4 <_Balloc>
 80099c6:	4605      	mov	r5, r0
 80099c8:	b928      	cbnz	r0, 80099d6 <__multadd+0x5e>
 80099ca:	4602      	mov	r2, r0
 80099cc:	21b5      	movs	r1, #181	; 0xb5
 80099ce:	4b0d      	ldr	r3, [pc, #52]	; (8009a04 <__multadd+0x8c>)
 80099d0:	480d      	ldr	r0, [pc, #52]	; (8009a08 <__multadd+0x90>)
 80099d2:	f000 fd11 	bl	800a3f8 <__assert_func>
 80099d6:	6922      	ldr	r2, [r4, #16]
 80099d8:	f104 010c 	add.w	r1, r4, #12
 80099dc:	3202      	adds	r2, #2
 80099de:	0092      	lsls	r2, r2, #2
 80099e0:	300c      	adds	r0, #12
 80099e2:	f7ff ff59 	bl	8009898 <memcpy>
 80099e6:	4621      	mov	r1, r4
 80099e8:	4638      	mov	r0, r7
 80099ea:	f7ff ffa3 	bl	8009934 <_Bfree>
 80099ee:	462c      	mov	r4, r5
 80099f0:	eb04 0386 	add.w	r3, r4, r6, lsl #2
 80099f4:	3601      	adds	r6, #1
 80099f6:	f8c3 8014 	str.w	r8, [r3, #20]
 80099fa:	6126      	str	r6, [r4, #16]
 80099fc:	4620      	mov	r0, r4
 80099fe:	e8bd 81f0 	ldmia.w	sp!, {r4, r5, r6, r7, r8, pc}
 8009a02:	bf00      	nop
 8009a04:	0800bb0b 	.word	0x0800bb0b
 8009a08:	0800bb1c 	.word	0x0800bb1c

08009a0c <__hi0bits>:
 8009a0c:	0c02      	lsrs	r2, r0, #16
 8009a0e:	0412      	lsls	r2, r2, #16
 8009a10:	4603      	mov	r3, r0
 8009a12:	b9ca      	cbnz	r2, 8009a48 <__hi0bits+0x3c>
 8009a14:	0403      	lsls	r3, r0, #16
 8009a16:	2010      	movs	r0, #16
 8009a18:	f013 4f7f 	tst.w	r3, #4278190080	; 0xff000000
 8009a1c:	bf04      	itt	eq
 8009a1e:	021b      	lsleq	r3, r3, #8
 8009a20:	3008      	addeq	r0, #8
 8009a22:	f013 4f70 	tst.w	r3, #4026531840	; 0xf0000000
 8009a26:	bf04      	itt	eq
 8009a28:	011b      	lsleq	r3, r3, #4
 8009a2a:	3004      	addeq	r0, #4
 8009a2c:	f013 4f40 	tst.w	r3, #3221225472	; 0xc0000000
 8009a30:	bf04      	itt	eq
 8009a32:	009b      	lsleq	r3, r3, #2
 8009a34:	3002      	addeq	r0, #2
 8009a36:	2b00      	cmp	r3, #0
 8009a38:	db05      	blt.n	8009a46 <__hi0bits+0x3a>
 8009a3a:	f013 4f80 	tst.w	r3, #1073741824	; 0x40000000
 8009a3e:	f100 0001 	add.w	r0, r0, #1
 8009a42:	bf08      	it	eq
 8009a44:	2020      	moveq	r0, #32
 8009a46:	4770      	bx	lr
 8009a48:	2000      	movs	r0, #0
 8009a4a:	e7e5      	b.n	8009a18 <__hi0bits+0xc>

08009a4c <__lo0bits>:
 8009a4c:	6803      	ldr	r3, [r0, #0]
 8009a4e:	4602      	mov	r2, r0
 8009a50:	f013 0007 	ands.w	r0, r3, #7
 8009a54:	d00b      	beq.n	8009a6e <__lo0bits+0x22>
 8009a56:	07d9      	lsls	r1, r3, #31
 8009a58:	d422      	bmi.n	8009aa0 <__lo0bits+0x54>
 8009a5a:	0798      	lsls	r0, r3, #30
 8009a5c:	bf49      	itett	mi
 8009a5e:	085b      	lsrmi	r3, r3, #1
 8009a60:	089b      	lsrpl	r3, r3, #2
 8009a62:	2001      	movmi	r0, #1
 8009a64:	6013      	strmi	r3, [r2, #0]
 8009a66:	bf5c      	itt	pl
 8009a68:	2002      	movpl	r0, #2
 8009a6a:	6013      	strpl	r3, [r2, #0]
 8009a6c:	4770      	bx	lr
 8009a6e:	b299      	uxth	r1, r3
 8009a70:	b909      	cbnz	r1, 8009a76 <__lo0bits+0x2a>
 8009a72:	2010      	movs	r0, #16
 8009a74:	0c1b      	lsrs	r3, r3, #16
 8009a76:	f013 0fff 	tst.w	r3, #255	; 0xff
 8009a7a:	bf04      	itt	eq
 8009a7c:	0a1b      	lsreq	r3, r3, #8
 8009a7e:	3008      	addeq	r0, #8
 8009a80:	0719      	lsls	r1, r3, #28
 8009a82:	bf04      	itt	eq
 8009a84:	091b      	lsreq	r3, r3, #4
 8009a86:	3004      	addeq	r0, #4
 8009a88:	0799      	lsls	r1, r3, #30
 8009a8a:	bf04      	itt	eq
 8009a8c:	089b      	lsreq	r3, r3, #2
 8009a8e:	3002      	addeq	r0, #2
 8009a90:	07d9      	lsls	r1, r3, #31
 8009a92:	d403      	bmi.n	8009a9c <__lo0bits+0x50>
 8009a94:	085b      	lsrs	r3, r3, #1
 8009a96:	f100 0001 	add.w	r0, r0, #1
 8009a9a:	d003      	beq.n	8009aa4 <__lo0bits+0x58>
 8009a9c:	6013      	str	r3, [r2, #0]
 8009a9e:	4770      	bx	lr
 8009aa0:	2000      	movs	r0, #0
 8009aa2:	4770      	bx	lr
 8009aa4:	2020      	movs	r0, #32
 8009aa6:	4770      	bx	lr

08009aa8 <__i2b>:
 8009aa8:	b510      	push	{r4, lr}
 8009aaa:	460c      	mov	r4, r1
 8009aac:	2101      	movs	r1, #1
 8009aae:	f7ff ff01 	bl	80098b4 <_Balloc>
 8009ab2:	4602      	mov	r2, r0
 8009ab4:	b928      	cbnz	r0, 8009ac2 <__i2b+0x1a>
 8009ab6:	f44f 71a0 	mov.w	r1, #320	; 0x140
 8009aba:	4b04      	ldr	r3, [pc, #16]	; (8009acc <__i2b+0x24>)
 8009abc:	4804      	ldr	r0, [pc, #16]	; (8009ad0 <__i2b+0x28>)
 8009abe:	f000 fc9b 	bl	800a3f8 <__assert_func>
 8009ac2:	2301      	movs	r3, #1
 8009ac4:	6144      	str	r4, [r0, #20]
 8009ac6:	6103      	str	r3, [r0, #16]
 8009ac8:	bd10      	pop	{r4, pc}
 8009aca:	bf00      	nop
 8009acc:	0800bb0b 	.word	0x0800bb0b
 8009ad0:	0800bb1c 	.word	0x0800bb1c

08009ad4 <__multiply>:
 8009ad4:	e92d 4ff0 	stmdb	sp!, {r4, r5, r6, r7, r8, r9, sl, fp, lr}
 8009ad8:	4614      	mov	r4, r2
 8009ada:	690a      	ldr	r2, [r1, #16]
 8009adc:	6923      	ldr	r3, [r4, #16]
 8009ade:	460d      	mov	r5, r1
 8009ae0:	429a      	cmp	r2, r3
 8009ae2:	bfbe      	ittt	lt
 8009ae4:	460b      	movlt	r3, r1
 8009ae6:	4625      	movlt	r5, r4
 8009ae8:	461c      	movlt	r4, r3
 8009aea:	f8d5 a010 	ldr.w	sl, [r5, #16]
 8009aee:	f8d4 9010 	ldr.w	r9, [r4, #16]
 8009af2:	68ab      	ldr	r3, [r5, #8]
 8009af4:	6869      	ldr	r1, [r5, #4]
 8009af6:	eb0a 0709 	add.w	r7, sl, r9
 8009afa:	42bb      	cmp	r3, r7
 8009afc:	b085      	sub	sp, #20
 8009afe:	bfb8      	it	lt
 8009b00:	3101      	addlt	r1, #1
 8009b02:	f7ff fed7 	bl	80098b4 <_Balloc>
 8009b06:	b930      	cbnz	r0, 8009b16 <__multiply+0x42>
 8009b08:	4602      	mov	r2, r0
 8009b0a:	f240 115d 	movw	r1, #349	; 0x15d
 8009b0e:	4b41      	ldr	r3, [pc, #260]	; (8009c14 <__multiply+0x140>)
 8009b10:	4841      	ldr	r0, [pc, #260]	; (8009c18 <__multiply+0x144>)
 8009b12:	f000 fc71 	bl	800a3f8 <__assert_func>
 8009b16:	f100 0614 	add.w	r6, r0, #20
 8009b1a:	4633      	mov	r3, r6
 8009b1c:	2200      	movs	r2, #0
 8009b1e:	eb06 0887 	add.w	r8, r6, r7, lsl #2
 8009b22:	4543      	cmp	r3, r8
 8009b24:	d31e      	bcc.n	8009b64 <__multiply+0x90>
 8009b26:	f105 0c14 	add.w	ip, r5, #20
 8009b2a:	f104 0314 	add.w	r3, r4, #20
 8009b2e:	eb0c 0c8a 	add.w	ip, ip, sl, lsl #2
 8009b32:	eb03 0289 	add.w	r2, r3, r9, lsl #2
 8009b36:	9202      	str	r2, [sp, #8]
 8009b38:	ebac 0205 	sub.w	r2, ip, r5
 8009b3c:	3a15      	subs	r2, #21
 8009b3e:	f022 0203 	bic.w	r2, r2, #3
 8009b42:	3204      	adds	r2, #4
 8009b44:	f105 0115 	add.w	r1, r5, #21
 8009b48:	458c      	cmp	ip, r1
 8009b4a:	bf38      	it	cc
 8009b4c:	2204      	movcc	r2, #4
 8009b4e:	9201      	str	r2, [sp, #4]
 8009b50:	9a02      	ldr	r2, [sp, #8]
 8009b52:	9303      	str	r3, [sp, #12]
 8009b54:	429a      	cmp	r2, r3
 8009b56:	d808      	bhi.n	8009b6a <__multiply+0x96>
 8009b58:	2f00      	cmp	r7, #0
 8009b5a:	dc55      	bgt.n	8009c08 <__multiply+0x134>
 8009b5c:	6107      	str	r7, [r0, #16]
 8009b5e:	b005      	add	sp, #20
 8009b60:	e8bd 8ff0 	ldmia.w	sp!, {r4, r5, r6, r7, r8, r9, sl, fp, pc}
 8009b64:	f843 2b04 	str.w	r2, [r3], #4
 8009b68:	e7db      	b.n	8009b22 <__multiply+0x4e>
 8009b6a:	f8b3 a000 	ldrh.w	sl, [r3]
 8009b6e:	f1ba 0f00 	cmp.w	sl, #0
 8009b72:	d020      	beq.n	8009bb6 <__multiply+0xe2>
 8009b74:	46b1      	mov	r9, r6
 8009b76:	2200      	movs	r2, #0
 8009b78:	f105 0e14 	add.w	lr, r5, #20
 8009b7c:	f85e 4b04 	ldr.w	r4, [lr], #4
 8009b80:	f8d9 b000 	ldr.w	fp, [r9]
 8009b84:	b2a1      	uxth	r1, r4
 8009b86:	fa1f fb8b 	uxth.w	fp, fp
 8009b8a:	fb0a b101 	mla	r1, sl, r1, fp
 8009b8e:	4411      	add	r1, r2
 8009b90:	f8d9 2000 	ldr.w	r2, [r9]
 8009b94:	0c24      	lsrs	r4, r4, #16
 8009b96:	0c12      	lsrs	r2, r2, #16
 8009b98:	fb0a 2404 	mla	r4, sl, r4, r2
 8009b9c:	eb04 4411 	add.w	r4, r4, r1, lsr #16
 8009ba0:	b289      	uxth	r1, r1
 8009ba2:	ea41 4104 	orr.w	r1, r1, r4, lsl #16
 8009ba6:	45f4      	cmp	ip, lr
 8009ba8:	ea4f 4214 	mov.w	r2, r4, lsr #16
 8009bac:	f849 1b04 	str.w	r1, [r9], #4
 8009bb0:	d8e4      	bhi.n	8009b7c <__multiply+0xa8>
 8009bb2:	9901      	ldr	r1, [sp, #4]
 8009bb4:	5072      	str	r2, [r6, r1]
 8009bb6:	9a03      	ldr	r2, [sp, #12]
 8009bb8:	3304      	adds	r3, #4
 8009bba:	f8b2 9002 	ldrh.w	r9, [r2, #2]
 8009bbe:	f1b9 0f00 	cmp.w	r9, #0
 8009bc2:	d01f      	beq.n	8009c04 <__multiply+0x130>
 8009bc4:	46b6      	mov	lr, r6
 8009bc6:	f04f 0a00 	mov.w	sl, #0
 8009bca:	6834      	ldr	r4, [r6, #0]
 8009bcc:	f105 0114 	add.w	r1, r5, #20
 8009bd0:	880a      	ldrh	r2, [r1, #0]
 8009bd2:	f8be b002 	ldrh.w	fp, [lr, #2]
 8009bd6:	b2a4      	uxth	r4, r4
 8009bd8:	fb09 b202 	mla	r2, r9, r2, fp
 8009bdc:	4492      	add	sl, r2
 8009bde:	ea44 440a 	orr.w	r4, r4, sl, lsl #16
 8009be2:	f84e 4b04 	str.w	r4, [lr], #4
 8009be6:	f851 4b04 	ldr.w	r4, [r1], #4
 8009bea:	f8be 2000 	ldrh.w	r2, [lr]
 8009bee:	0c24      	lsrs	r4, r4, #16
 8009bf0:	fb09 2404 	mla	r4, r9, r4, r2
 8009bf4:	458c      	cmp	ip, r1
 8009bf6:	eb04 441a 	add.w	r4, r4, sl, lsr #16
 8009bfa:	ea4f 4a14 	mov.w	sl, r4, lsr #16
 8009bfe:	d8e7      	bhi.n	8009bd0 <__multiply+0xfc>
 8009c00:	9a01      	ldr	r2, [sp, #4]
 8009c02:	50b4      	str	r4, [r6, r2]
 8009c04:	3604      	adds	r6, #4
 8009c06:	e7a3      	b.n	8009b50 <__multiply+0x7c>
 8009c08:	f858 3d04 	ldr.w	r3, [r8, #-4]!
 8009c0c:	2b00      	cmp	r3, #0
 8009c0e:	d1a5      	bne.n	8009b5c <__multiply+0x88>
 8009c10:	3f01      	subs	r7, #1
 8009c12:	e7a1      	b.n	8009b58 <__multiply+0x84>
 8009c14:	0800bb0b 	.word	0x0800bb0b
 8009c18:	0800bb1c 	.word	0x0800bb1c

08009c1c <__pow5mult>:
 8009c1c:	e92d 43f8 	stmdb	sp!, {r3, r4, r5, r6, r7, r8, r9, lr}
 8009c20:	4615      	mov	r5, r2
 8009c22:	f012 0203 	ands.w	r2, r2, #3
 8009c26:	4606      	mov	r6, r0
 8009c28:	460f      	mov	r7, r1
 8009c2a:	d007      	beq.n	8009c3c <__pow5mult+0x20>
 8009c2c:	4c25      	ldr	r4, [pc, #148]	; (8009cc4 <__pow5mult+0xa8>)
 8009c2e:	3a01      	subs	r2, #1
 8009c30:	2300      	movs	r3, #0
 8009c32:	f854 2022 	ldr.w	r2, [r4, r2, lsl #2]
 8009c36:	f7ff fe9f 	bl	8009978 <__multadd>
 8009c3a:	4607      	mov	r7, r0
 8009c3c:	10ad      	asrs	r5, r5, #2
 8009c3e:	d03d      	beq.n	8009cbc <__pow5mult+0xa0>
 8009c40:	6a74      	ldr	r4, [r6, #36]	; 0x24
 8009c42:	b97c      	cbnz	r4, 8009c64 <__pow5mult+0x48>
 8009c44:	2010      	movs	r0, #16
 8009c46:	f7ff fe11 	bl	800986c <malloc>
 8009c4a:	4602      	mov	r2, r0
 8009c4c:	6270      	str	r0, [r6, #36]	; 0x24
 8009c4e:	b928      	cbnz	r0, 8009c5c <__pow5mult+0x40>
 8009c50:	f44f 71d7 	mov.w	r1, #430	; 0x1ae
 8009c54:	4b1c      	ldr	r3, [pc, #112]	; (8009cc8 <__pow5mult+0xac>)
 8009c56:	481d      	ldr	r0, [pc, #116]	; (8009ccc <__pow5mult+0xb0>)
 8009c58:	f000 fbce 	bl	800a3f8 <__assert_func>
 8009c5c:	e9c0 4401 	strd	r4, r4, [r0, #4]
 8009c60:	6004      	str	r4, [r0, #0]
 8009c62:	60c4      	str	r4, [r0, #12]
 8009c64:	f8d6 8024 	ldr.w	r8, [r6, #36]	; 0x24
 8009c68:	f8d8 4008 	ldr.w	r4, [r8, #8]
 8009c6c:	b94c      	cbnz	r4, 8009c82 <__pow5mult+0x66>
 8009c6e:	f240 2171 	movw	r1, #625	; 0x271
 8009c72:	4630      	mov	r0, r6
 8009c74:	f7ff ff18 	bl	8009aa8 <__i2b>
 8009c78:	2300      	movs	r3, #0
 8009c7a:	4604      	mov	r4, r0
 8009c7c:	f8c8 0008 	str.w	r0, [r8, #8]
 8009c80:	6003      	str	r3, [r0, #0]
 8009c82:	f04f 0900 	mov.w	r9, #0
 8009c86:	07eb      	lsls	r3, r5, #31
 8009c88:	d50a      	bpl.n	8009ca0 <__pow5mult+0x84>
 8009c8a:	4639      	mov	r1, r7
 8009c8c:	4622      	mov	r2, r4
 8009c8e:	4630      	mov	r0, r6
 8009c90:	f7ff ff20 	bl	8009ad4 <__multiply>
 8009c94:	4680      	mov	r8, r0
 8009c96:	4639      	mov	r1, r7
 8009c98:	4630      	mov	r0, r6
 8009c9a:	f7ff fe4b 	bl	8009934 <_Bfree>
 8009c9e:	4647      	mov	r7, r8
 8009ca0:	106d      	asrs	r5, r5, #1
 8009ca2:	d00b      	beq.n	8009cbc <__pow5mult+0xa0>
 8009ca4:	6820      	ldr	r0, [r4, #0]
 8009ca6:	b938      	cbnz	r0, 8009cb8 <__pow5mult+0x9c>
 8009ca8:	4622      	mov	r2, r4
 8009caa:	4621      	mov	r1, r4
 8009cac:	4630      	mov	r0, r6
 8009cae:	f7ff ff11 	bl	8009ad4 <__multiply>
 8009cb2:	6020      	str	r0, [r4, #0]
 8009cb4:	f8c0 9000 	str.w	r9, [r0]
 8009cb8:	4604      	mov	r4, r0
 8009cba:	e7e4      	b.n	8009c86 <__pow5mult+0x6a>
 8009cbc:	4638      	mov	r0, r7
 8009cbe:	e8bd 83f8 	ldmia.w	sp!, {r3, r4, r5, r6, r7, r8, r9, pc}
 8009cc2:	bf00      	nop
 8009cc4:	0800bc70 	.word	0x0800bc70
 8009cc8:	0800ba95 	.word	0x0800ba95
 8009ccc:	0800bb1c 	.word	0x0800bb1c

08009cd0 <__lshift>:
 8009cd0:	e92d 47f0 	stmdb	sp!, {r4, r5, r6, r7, r8, r9, sl, lr}
 8009cd4:	460c      	mov	r4, r1
 8009cd6:	4607      	mov	r7, r0
 8009cd8:	4691      	mov	r9, r2
 8009cda:	6923      	ldr	r3, [r4, #16]
 8009cdc:	6849      	ldr	r1, [r1, #4]
 8009cde:	eb03 1862 	add.w	r8, r3, r2, asr #5
 8009ce2:	68a3      	ldr	r3, [r4, #8]
 8009ce4:	ea4f 1a62 	mov.w	sl, r2, asr #5
 8009ce8:	f108 0601 	add.w	r6, r8, #1
 8009cec:	42b3      	cmp	r3, r6
 8009cee:	db0b      	blt.n	8009d08 <__lshift+0x38>
 8009cf0:	4638      	mov	r0, r7
 8009cf2:	f7ff fddf 	bl	80098b4 <_Balloc>
 8009cf6:	4605      	mov	r5, r0
 8009cf8:	b948      	cbnz	r0, 8009d0e <__lshift+0x3e>
 8009cfa:	4602      	mov	r2, r0
 8009cfc:	f240 11d9 	movw	r1, #473	; 0x1d9
 8009d00:	4b27      	ldr	r3, [pc, #156]	; (8009da0 <__lshift+0xd0>)
 8009d02:	4828      	ldr	r0, [pc, #160]	; (8009da4 <__lshift+0xd4>)
 8009d04:	f000 fb78 	bl	800a3f8 <__assert_func>
 8009d08:	3101      	adds	r1, #1
 8009d0a:	005b      	lsls	r3, r3, #1
 8009d0c:	e7ee      	b.n	8009cec <__lshift+0x1c>
 8009d0e:	2300      	movs	r3, #0
 8009d10:	f100 0114 	add.w	r1, r0, #20
 8009d14:	f100 0210 	add.w	r2, r0, #16
 8009d18:	4618      	mov	r0, r3
 8009d1a:	4553      	cmp	r3, sl
 8009d1c:	db33      	blt.n	8009d86 <__lshift+0xb6>
 8009d1e:	6920      	ldr	r0, [r4, #16]
 8009d20:	ea2a 7aea 	bic.w	sl, sl, sl, asr #31
 8009d24:	f104 0314 	add.w	r3, r4, #20
 8009d28:	f019 091f 	ands.w	r9, r9, #31
 8009d2c:	eb01 018a 	add.w	r1, r1, sl, lsl #2
 8009d30:	eb03 0c80 	add.w	ip, r3, r0, lsl #2
 8009d34:	d02b      	beq.n	8009d8e <__lshift+0xbe>
 8009d36:	468a      	mov	sl, r1
 8009d38:	2200      	movs	r2, #0
 8009d3a:	f1c9 0e20 	rsb	lr, r9, #32
 8009d3e:	6818      	ldr	r0, [r3, #0]
 8009d40:	fa00 f009 	lsl.w	r0, r0, r9
 8009d44:	4302      	orrs	r2, r0
 8009d46:	f84a 2b04 	str.w	r2, [sl], #4
 8009d4a:	f853 2b04 	ldr.w	r2, [r3], #4
 8009d4e:	459c      	cmp	ip, r3
 8009d50:	fa22 f20e 	lsr.w	r2, r2, lr
 8009d54:	d8f3      	bhi.n	8009d3e <__lshift+0x6e>
 8009d56:	ebac 0304 	sub.w	r3, ip, r4
 8009d5a:	3b15      	subs	r3, #21
 8009d5c:	f023 0303 	bic.w	r3, r3, #3
 8009d60:	3304      	adds	r3, #4
 8009d62:	f104 0015 	add.w	r0, r4, #21
 8009d66:	4584      	cmp	ip, r0
 8009d68:	bf38      	it	cc
 8009d6a:	2304      	movcc	r3, #4
 8009d6c:	50ca      	str	r2, [r1, r3]
 8009d6e:	b10a      	cbz	r2, 8009d74 <__lshift+0xa4>
 8009d70:	f108 0602 	add.w	r6, r8, #2
 8009d74:	3e01      	subs	r6, #1
 8009d76:	4638      	mov	r0, r7
 8009d78:	4621      	mov	r1, r4
 8009d7a:	612e      	str	r6, [r5, #16]
 8009d7c:	f7ff fdda 	bl	8009934 <_Bfree>
 8009d80:	4628      	mov	r0, r5
 8009d82:	e8bd 87f0 	ldmia.w	sp!, {r4, r5, r6, r7, r8, r9, sl, pc}
 8009d86:	f842 0f04 	str.w	r0, [r2, #4]!
 8009d8a:	3301      	adds	r3, #1
 8009d8c:	e7c5      	b.n	8009d1a <__lshift+0x4a>
 8009d8e:	3904      	subs	r1, #4
 8009d90:	f853 2b04 	ldr.w	r2, [r3], #4
 8009d94:	459c      	cmp	ip, r3
 8009d96:	f841 2f04 	str.w	r2, [r1, #4]!
 8009d9a:	d8f9      	bhi.n	8009d90 <__lshift+0xc0>
 8009d9c:	e7ea      	b.n	8009d74 <__lshift+0xa4>
 8009d9e:	bf00      	nop
 8009da0:	0800bb0b 	.word	0x0800bb0b
 8009da4:	0800bb1c 	.word	0x0800bb1c

08009da8 <__mcmp>:
 8009da8:	4603      	mov	r3, r0
 8009daa:	690a      	ldr	r2, [r1, #16]
 8009dac:	6900      	ldr	r0, [r0, #16]
 8009dae:	b530      	push	{r4, r5, lr}
 8009db0:	1a80      	subs	r0, r0, r2
 8009db2:	d10d      	bne.n	8009dd0 <__mcmp+0x28>
 8009db4:	3314      	adds	r3, #20
 8009db6:	3114      	adds	r1, #20
 8009db8:	eb03 0482 	add.w	r4, r3, r2, lsl #2
 8009dbc:	eb01 0182 	add.w	r1, r1, r2, lsl #2
 8009dc0:	f854 5d04 	ldr.w	r5, [r4, #-4]!
 8009dc4:	f851 2d04 	ldr.w	r2, [r1, #-4]!
 8009dc8:	4295      	cmp	r5, r2
 8009dca:	d002      	beq.n	8009dd2 <__mcmp+0x2a>
 8009dcc:	d304      	bcc.n	8009dd8 <__mcmp+0x30>
 8009dce:	2001      	movs	r0, #1
 8009dd0:	bd30      	pop	{r4, r5, pc}
 8009dd2:	42a3      	cmp	r3, r4
 8009dd4:	d3f4      	bcc.n	8009dc0 <__mcmp+0x18>
 8009dd6:	e7fb      	b.n	8009dd0 <__mcmp+0x28>
 8009dd8:	f04f 30ff 	mov.w	r0, #4294967295	; 0xffffffff
 8009ddc:	e7f8      	b.n	8009dd0 <__mcmp+0x28>
	...

08009de0 <__mdiff>:
 8009de0:	e92d 4ff8 	stmdb	sp!, {r3, r4, r5, r6, r7, r8, r9, sl, fp, lr}
 8009de4:	460c      	mov	r4, r1
 8009de6:	4606      	mov	r6, r0
 8009de8:	4611      	mov	r1, r2
 8009dea:	4620      	mov	r0, r4
 8009dec:	4692      	mov	sl, r2
 8009dee:	f7ff ffdb 	bl	8009da8 <__mcmp>
 8009df2:	1e05      	subs	r5, r0, #0
 8009df4:	d111      	bne.n	8009e1a <__mdiff+0x3a>
 8009df6:	4629      	mov	r1, r5
 8009df8:	4630      	mov	r0, r6
 8009dfa:	f7ff fd5b 	bl	80098b4 <_Balloc>
 8009dfe:	4602      	mov	r2, r0
 8009e00:	b928      	cbnz	r0, 8009e0e <__mdiff+0x2e>
 8009e02:	f240 2132 	movw	r1, #562	; 0x232
 8009e06:	4b3c      	ldr	r3, [pc, #240]	; (8009ef8 <__mdiff+0x118>)
 8009e08:	483c      	ldr	r0, [pc, #240]	; (8009efc <__mdiff+0x11c>)
 8009e0a:	f000 faf5 	bl	800a3f8 <__assert_func>
 8009e0e:	2301      	movs	r3, #1
 8009e10:	e9c0 3504 	strd	r3, r5, [r0, #16]
 8009e14:	4610      	mov	r0, r2
 8009e16:	e8bd 8ff8 	ldmia.w	sp!, {r3, r4, r5, r6, r7, r8, r9, sl, fp, pc}
 8009e1a:	bfa4      	itt	ge
 8009e1c:	4653      	movge	r3, sl
 8009e1e:	46a2      	movge	sl, r4
 8009e20:	4630      	mov	r0, r6
 8009e22:	f8da 1004 	ldr.w	r1, [sl, #4]
 8009e26:	bfa6      	itte	ge
 8009e28:	461c      	movge	r4, r3
 8009e2a:	2500      	movge	r5, #0
 8009e2c:	2501      	movlt	r5, #1
 8009e2e:	f7ff fd41 	bl	80098b4 <_Balloc>
 8009e32:	4602      	mov	r2, r0
 8009e34:	b918      	cbnz	r0, 8009e3e <__mdiff+0x5e>
 8009e36:	f44f 7110 	mov.w	r1, #576	; 0x240
 8009e3a:	4b2f      	ldr	r3, [pc, #188]	; (8009ef8 <__mdiff+0x118>)
 8009e3c:	e7e4      	b.n	8009e08 <__mdiff+0x28>
 8009e3e:	f100 0814 	add.w	r8, r0, #20
 8009e42:	f8da 7010 	ldr.w	r7, [sl, #16]
 8009e46:	60c5      	str	r5, [r0, #12]
 8009e48:	f04f 0c00 	mov.w	ip, #0
 8009e4c:	f10a 0514 	add.w	r5, sl, #20
 8009e50:	f10a 0010 	add.w	r0, sl, #16
 8009e54:	46c2      	mov	sl, r8
 8009e56:	6926      	ldr	r6, [r4, #16]
 8009e58:	f104 0914 	add.w	r9, r4, #20
 8009e5c:	eb05 0e87 	add.w	lr, r5, r7, lsl #2
 8009e60:	eb09 0686 	add.w	r6, r9, r6, lsl #2
 8009e64:	f850 bf04 	ldr.w	fp, [r0, #4]!
 8009e68:	f859 3b04 	ldr.w	r3, [r9], #4
 8009e6c:	fa1f f18b 	uxth.w	r1, fp
 8009e70:	4461      	add	r1, ip
 8009e72:	fa1f fc83 	uxth.w	ip, r3
 8009e76:	0c1b      	lsrs	r3, r3, #16
 8009e78:	eba1 010c 	sub.w	r1, r1, ip
 8009e7c:	ebc3 431b 	rsb	r3, r3, fp, lsr #16
 8009e80:	eb03 4321 	add.w	r3, r3, r1, asr #16
 8009e84:	b289      	uxth	r1, r1
 8009e86:	ea4f 4c23 	mov.w	ip, r3, asr #16
 8009e8a:	454e      	cmp	r6, r9
 8009e8c:	ea41 4303 	orr.w	r3, r1, r3, lsl #16
 8009e90:	f84a 3b04 	str.w	r3, [sl], #4
 8009e94:	d8e6      	bhi.n	8009e64 <__mdiff+0x84>
 8009e96:	1b33      	subs	r3, r6, r4
 8009e98:	3b15      	subs	r3, #21
 8009e9a:	f023 0303 	bic.w	r3, r3, #3
 8009e9e:	3415      	adds	r4, #21
 8009ea0:	3304      	adds	r3, #4
 8009ea2:	42a6      	cmp	r6, r4
 8009ea4:	bf38      	it	cc
 8009ea6:	2304      	movcc	r3, #4
 8009ea8:	441d      	add	r5, r3
 8009eaa:	4443      	add	r3, r8
 8009eac:	461e      	mov	r6, r3
 8009eae:	462c      	mov	r4, r5
 8009eb0:	4574      	cmp	r4, lr
 8009eb2:	d30e      	bcc.n	8009ed2 <__mdiff+0xf2>
 8009eb4:	f10e 0103 	add.w	r1, lr, #3
 8009eb8:	1b49      	subs	r1, r1, r5
 8009eba:	f021 0103 	bic.w	r1, r1, #3
 8009ebe:	3d03      	subs	r5, #3
 8009ec0:	45ae      	cmp	lr, r5
 8009ec2:	bf38      	it	cc
 8009ec4:	2100      	movcc	r1, #0
 8009ec6:	4419      	add	r1, r3
 8009ec8:	f851 3d04 	ldr.w	r3, [r1, #-4]!
 8009ecc:	b18b      	cbz	r3, 8009ef2 <__mdiff+0x112>
 8009ece:	6117      	str	r7, [r2, #16]
 8009ed0:	e7a0      	b.n	8009e14 <__mdiff+0x34>
 8009ed2:	f854 8b04 	ldr.w	r8, [r4], #4
 8009ed6:	fa1f f188 	uxth.w	r1, r8
 8009eda:	4461      	add	r1, ip
 8009edc:	1408      	asrs	r0, r1, #16
 8009ede:	eb00 4018 	add.w	r0, r0, r8, lsr #16
 8009ee2:	b289      	uxth	r1, r1
 8009ee4:	ea41 4100 	orr.w	r1, r1, r0, lsl #16
 8009ee8:	ea4f 4c20 	mov.w	ip, r0, asr #16
 8009eec:	f846 1b04 	str.w	r1, [r6], #4
 8009ef0:	e7de      	b.n	8009eb0 <__mdiff+0xd0>
 8009ef2:	3f01      	subs	r7, #1
 8009ef4:	e7e8      	b.n	8009ec8 <__mdiff+0xe8>
 8009ef6:	bf00      	nop
 8009ef8:	0800bb0b 	.word	0x0800bb0b
 8009efc:	0800bb1c 	.word	0x0800bb1c

08009f00 <__d2b>:
 8009f00:	e92d 41f3 	stmdb	sp!, {r0, r1, r4, r5, r6, r7, r8, lr}
 8009f04:	2101      	movs	r1, #1
 8009f06:	e9dd 7608 	ldrd	r7, r6, [sp, #32]
 8009f0a:	4690      	mov	r8, r2
 8009f0c:	461d      	mov	r5, r3
 8009f0e:	f7ff fcd1 	bl	80098b4 <_Balloc>
 8009f12:	4604      	mov	r4, r0
 8009f14:	b930      	cbnz	r0, 8009f24 <__d2b+0x24>
 8009f16:	4602      	mov	r2, r0
 8009f18:	f240 310a 	movw	r1, #778	; 0x30a
 8009f1c:	4b24      	ldr	r3, [pc, #144]	; (8009fb0 <__d2b+0xb0>)
 8009f1e:	4825      	ldr	r0, [pc, #148]	; (8009fb4 <__d2b+0xb4>)
 8009f20:	f000 fa6a 	bl	800a3f8 <__assert_func>
 8009f24:	f3c5 0313 	ubfx	r3, r5, #0, #20
 8009f28:	f3c5 550a 	ubfx	r5, r5, #20, #11
 8009f2c:	bb2d      	cbnz	r5, 8009f7a <__d2b+0x7a>
 8009f2e:	9301      	str	r3, [sp, #4]
 8009f30:	f1b8 0300 	subs.w	r3, r8, #0
 8009f34:	d026      	beq.n	8009f84 <__d2b+0x84>
 8009f36:	4668      	mov	r0, sp
 8009f38:	9300      	str	r3, [sp, #0]
 8009f3a:	f7ff fd87 	bl	8009a4c <__lo0bits>
 8009f3e:	9900      	ldr	r1, [sp, #0]
 8009f40:	b1f0      	cbz	r0, 8009f80 <__d2b+0x80>
 8009f42:	9a01      	ldr	r2, [sp, #4]
 8009f44:	f1c0 0320 	rsb	r3, r0, #32
 8009f48:	fa02 f303 	lsl.w	r3, r2, r3
 8009f4c:	430b      	orrs	r3, r1
 8009f4e:	40c2      	lsrs	r2, r0
 8009f50:	6163      	str	r3, [r4, #20]
 8009f52:	9201      	str	r2, [sp, #4]
 8009f54:	9b01      	ldr	r3, [sp, #4]
 8009f56:	2b00      	cmp	r3, #0
 8009f58:	bf14      	ite	ne
 8009f5a:	2102      	movne	r1, #2
 8009f5c:	2101      	moveq	r1, #1
 8009f5e:	61a3      	str	r3, [r4, #24]
 8009f60:	6121      	str	r1, [r4, #16]
 8009f62:	b1c5      	cbz	r5, 8009f96 <__d2b+0x96>
 8009f64:	f2a5 4533 	subw	r5, r5, #1075	; 0x433
 8009f68:	4405      	add	r5, r0
 8009f6a:	f1c0 0035 	rsb	r0, r0, #53	; 0x35
 8009f6e:	603d      	str	r5, [r7, #0]
 8009f70:	6030      	str	r0, [r6, #0]
 8009f72:	4620      	mov	r0, r4
 8009f74:	b002      	add	sp, #8
 8009f76:	e8bd 81f0 	ldmia.w	sp!, {r4, r5, r6, r7, r8, pc}
 8009f7a:	f443 1380 	orr.w	r3, r3, #1048576	; 0x100000
 8009f7e:	e7d6      	b.n	8009f2e <__d2b+0x2e>
 8009f80:	6161      	str	r1, [r4, #20]
 8009f82:	e7e7      	b.n	8009f54 <__d2b+0x54>
 8009f84:	a801      	add	r0, sp, #4
 8009f86:	f7ff fd61 	bl	8009a4c <__lo0bits>
 8009f8a:	2101      	movs	r1, #1
 8009f8c:	9b01      	ldr	r3, [sp, #4]
 8009f8e:	6121      	str	r1, [r4, #16]
 8009f90:	6163      	str	r3, [r4, #20]
 8009f92:	3020      	adds	r0, #32
 8009f94:	e7e5      	b.n	8009f62 <__d2b+0x62>
 8009f96:	eb04 0381 	add.w	r3, r4, r1, lsl #2
 8009f9a:	f2a0 4032 	subw	r0, r0, #1074	; 0x432
 8009f9e:	6038      	str	r0, [r7, #0]
 8009fa0:	6918      	ldr	r0, [r3, #16]
 8009fa2:	f7ff fd33 	bl	8009a0c <__hi0bits>
 8009fa6:	ebc0 1141 	rsb	r1, r0, r1, lsl #5
 8009faa:	6031      	str	r1, [r6, #0]
 8009fac:	e7e1      	b.n	8009f72 <__d2b+0x72>
 8009fae:	bf00      	nop
 8009fb0:	0800bb0b 	.word	0x0800bb0b
 8009fb4:	0800bb1c 	.word	0x0800bb1c

08009fb8 <_calloc_r>:
 8009fb8:	b538      	push	{r3, r4, r5, lr}
 8009fba:	fb02 f501 	mul.w	r5, r2, r1
 8009fbe:	4629      	mov	r1, r5
 8009fc0:	f000 f854 	bl	800a06c <_malloc_r>
 8009fc4:	4604      	mov	r4, r0
 8009fc6:	b118      	cbz	r0, 8009fd0 <_calloc_r+0x18>
 8009fc8:	462a      	mov	r2, r5
 8009fca:	2100      	movs	r1, #0
 8009fcc:	f7fe f93c 	bl	8008248 <memset>
 8009fd0:	4620      	mov	r0, r4
 8009fd2:	bd38      	pop	{r3, r4, r5, pc}

08009fd4 <_free_r>:
 8009fd4:	b538      	push	{r3, r4, r5, lr}
 8009fd6:	4605      	mov	r5, r0
 8009fd8:	2900      	cmp	r1, #0
 8009fda:	d043      	beq.n	800a064 <_free_r+0x90>
 8009fdc:	f851 3c04 	ldr.w	r3, [r1, #-4]
 8009fe0:	1f0c      	subs	r4, r1, #4
 8009fe2:	2b00      	cmp	r3, #0
 8009fe4:	bfb8      	it	lt
 8009fe6:	18e4      	addlt	r4, r4, r3
 8009fe8:	f000 fa62 	bl	800a4b0 <__malloc_lock>
 8009fec:	4a1e      	ldr	r2, [pc, #120]	; (800a068 <_free_r+0x94>)
 8009fee:	6813      	ldr	r3, [r2, #0]
 8009ff0:	4610      	mov	r0, r2
 8009ff2:	b933      	cbnz	r3, 800a002 <_free_r+0x2e>
 8009ff4:	6063      	str	r3, [r4, #4]
 8009ff6:	6014      	str	r4, [r2, #0]
 8009ff8:	4628      	mov	r0, r5
 8009ffa:	e8bd 4038 	ldmia.w	sp!, {r3, r4, r5, lr}
 8009ffe:	f000 ba5d 	b.w	800a4bc <__malloc_unlock>
 800a002:	42a3      	cmp	r3, r4
 800a004:	d90a      	bls.n	800a01c <_free_r+0x48>
 800a006:	6821      	ldr	r1, [r4, #0]
 800a008:	1862      	adds	r2, r4, r1
 800a00a:	4293      	cmp	r3, r2
 800a00c:	bf01      	itttt	eq
 800a00e:	681a      	ldreq	r2, [r3, #0]
 800a010:	685b      	ldreq	r3, [r3, #4]
 800a012:	1852      	addeq	r2, r2, r1
 800a014:	6022      	streq	r2, [r4, #0]
 800a016:	6063      	str	r3, [r4, #4]
 800a018:	6004      	str	r4, [r0, #0]
 800a01a:	e7ed      	b.n	8009ff8 <_free_r+0x24>
 800a01c:	461a      	mov	r2, r3
 800a01e:	685b      	ldr	r3, [r3, #4]
 800a020:	b10b      	cbz	r3, 800a026 <_free_r+0x52>
 800a022:	42a3      	cmp	r3, r4
 800a024:	d9fa      	bls.n	800a01c <_free_r+0x48>
 800a026:	6811      	ldr	r1, [r2, #0]
 800a028:	1850      	adds	r0, r2, r1
 800a02a:	42a0      	cmp	r0, r4
 800a02c:	d10b      	bne.n	800a046 <_free_r+0x72>
 800a02e:	6820      	ldr	r0, [r4, #0]
 800a030:	4401      	add	r1, r0
 800a032:	1850      	adds	r0, r2, r1
 800a034:	4283      	cmp	r3, r0
 800a036:	6011      	str	r1, [r2, #0]
 800a038:	d1de      	bne.n	8009ff8 <_free_r+0x24>
 800a03a:	6818      	ldr	r0, [r3, #0]
 800a03c:	685b      	ldr	r3, [r3, #4]
 800a03e:	4401      	add	r1, r0
 800a040:	6011      	str	r1, [r2, #0]
 800a042:	6053      	str	r3, [r2, #4]
 800a044:	e7d8      	b.n	8009ff8 <_free_r+0x24>
 800a046:	d902      	bls.n	800a04e <_free_r+0x7a>
 800a048:	230c      	movs	r3, #12
 800a04a:	602b      	str	r3, [r5, #0]
 800a04c:	e7d4      	b.n	8009ff8 <_free_r+0x24>
 800a04e:	6820      	ldr	r0, [r4, #0]
 800a050:	1821      	adds	r1, r4, r0
 800a052:	428b      	cmp	r3, r1
 800a054:	bf01      	itttt	eq
 800a056:	6819      	ldreq	r1, [r3, #0]
 800a058:	685b      	ldreq	r3, [r3, #4]
 800a05a:	1809      	addeq	r1, r1, r0
 800a05c:	6021      	streq	r1, [r4, #0]
 800a05e:	6063      	str	r3, [r4, #4]
 800a060:	6054      	str	r4, [r2, #4]
 800a062:	e7c9      	b.n	8009ff8 <_free_r+0x24>
 800a064:	bd38      	pop	{r3, r4, r5, pc}
 800a066:	bf00      	nop
 800a068:	20000584 	.word	0x20000584

0800a06c <_malloc_r>:
 800a06c:	b5f8      	push	{r3, r4, r5, r6, r7, lr}
 800a06e:	1ccd      	adds	r5, r1, #3
 800a070:	f025 0503 	bic.w	r5, r5, #3
 800a074:	3508      	adds	r5, #8
 800a076:	2d0c      	cmp	r5, #12
 800a078:	bf38      	it	cc
 800a07a:	250c      	movcc	r5, #12
 800a07c:	2d00      	cmp	r5, #0
 800a07e:	4606      	mov	r6, r0
 800a080:	db01      	blt.n	800a086 <_malloc_r+0x1a>
 800a082:	42a9      	cmp	r1, r5
 800a084:	d903      	bls.n	800a08e <_malloc_r+0x22>
 800a086:	230c      	movs	r3, #12
 800a088:	6033      	str	r3, [r6, #0]
 800a08a:	2000      	movs	r0, #0
 800a08c:	bdf8      	pop	{r3, r4, r5, r6, r7, pc}
 800a08e:	f000 fa0f 	bl	800a4b0 <__malloc_lock>
 800a092:	4921      	ldr	r1, [pc, #132]	; (800a118 <_malloc_r+0xac>)
 800a094:	680a      	ldr	r2, [r1, #0]
 800a096:	4614      	mov	r4, r2
 800a098:	b99c      	cbnz	r4, 800a0c2 <_malloc_r+0x56>
 800a09a:	4f20      	ldr	r7, [pc, #128]	; (800a11c <_malloc_r+0xb0>)
 800a09c:	683b      	ldr	r3, [r7, #0]
 800a09e:	b923      	cbnz	r3, 800a0aa <_malloc_r+0x3e>
 800a0a0:	4621      	mov	r1, r4
 800a0a2:	4630      	mov	r0, r6
 800a0a4:	f000 f998 	bl	800a3d8 <_sbrk_r>
 800a0a8:	6038      	str	r0, [r7, #0]
 800a0aa:	4629      	mov	r1, r5
 800a0ac:	4630      	mov	r0, r6
 800a0ae:	f000 f993 	bl	800a3d8 <_sbrk_r>
 800a0b2:	1c43      	adds	r3, r0, #1
 800a0b4:	d123      	bne.n	800a0fe <_malloc_r+0x92>
 800a0b6:	230c      	movs	r3, #12
 800a0b8:	4630      	mov	r0, r6
 800a0ba:	6033      	str	r3, [r6, #0]
 800a0bc:	f000 f9fe 	bl	800a4bc <__malloc_unlock>
 800a0c0:	e7e3      	b.n	800a08a <_malloc_r+0x1e>
 800a0c2:	6823      	ldr	r3, [r4, #0]
 800a0c4:	1b5b      	subs	r3, r3, r5
 800a0c6:	d417      	bmi.n	800a0f8 <_malloc_r+0x8c>
 800a0c8:	2b0b      	cmp	r3, #11
 800a0ca:	d903      	bls.n	800a0d4 <_malloc_r+0x68>
 800a0cc:	6023      	str	r3, [r4, #0]
 800a0ce:	441c      	add	r4, r3
 800a0d0:	6025      	str	r5, [r4, #0]
 800a0d2:	e004      	b.n	800a0de <_malloc_r+0x72>
 800a0d4:	6863      	ldr	r3, [r4, #4]
 800a0d6:	42a2      	cmp	r2, r4
 800a0d8:	bf0c      	ite	eq
 800a0da:	600b      	streq	r3, [r1, #0]
 800a0dc:	6053      	strne	r3, [r2, #4]
 800a0de:	4630      	mov	r0, r6
 800a0e0:	f000 f9ec 	bl	800a4bc <__malloc_unlock>
 800a0e4:	f104 000b 	add.w	r0, r4, #11
 800a0e8:	1d23      	adds	r3, r4, #4
 800a0ea:	f020 0007 	bic.w	r0, r0, #7
 800a0ee:	1ac2      	subs	r2, r0, r3
 800a0f0:	d0cc      	beq.n	800a08c <_malloc_r+0x20>
 800a0f2:	1a1b      	subs	r3, r3, r0
 800a0f4:	50a3      	str	r3, [r4, r2]
 800a0f6:	e7c9      	b.n	800a08c <_malloc_r+0x20>
 800a0f8:	4622      	mov	r2, r4
 800a0fa:	6864      	ldr	r4, [r4, #4]
 800a0fc:	e7cc      	b.n	800a098 <_malloc_r+0x2c>
 800a0fe:	1cc4      	adds	r4, r0, #3
 800a100:	f024 0403 	bic.w	r4, r4, #3
 800a104:	42a0      	cmp	r0, r4
 800a106:	d0e3      	beq.n	800a0d0 <_malloc_r+0x64>
 800a108:	1a21      	subs	r1, r4, r0
 800a10a:	4630      	mov	r0, r6
 800a10c:	f000 f964 	bl	800a3d8 <_sbrk_r>
 800a110:	3001      	adds	r0, #1
 800a112:	d1dd      	bne.n	800a0d0 <_malloc_r+0x64>
 800a114:	e7cf      	b.n	800a0b6 <_malloc_r+0x4a>
 800a116:	bf00      	nop
 800a118:	20000584 	.word	0x20000584
 800a11c:	20000588 	.word	0x20000588

0800a120 <__ssputs_r>:
 800a120:	e92d 47f0 	stmdb	sp!, {r4, r5, r6, r7, r8, r9, sl, lr}
 800a124:	688e      	ldr	r6, [r1, #8]
 800a126:	4682      	mov	sl, r0
 800a128:	429e      	cmp	r6, r3
 800a12a:	460c      	mov	r4, r1
 800a12c:	4690      	mov	r8, r2
 800a12e:	461f      	mov	r7, r3
 800a130:	d838      	bhi.n	800a1a4 <__ssputs_r+0x84>
 800a132:	898a      	ldrh	r2, [r1, #12]
 800a134:	f412 6f90 	tst.w	r2, #1152	; 0x480
 800a138:	d032      	beq.n	800a1a0 <__ssputs_r+0x80>
 800a13a:	6825      	ldr	r5, [r4, #0]
 800a13c:	6909      	ldr	r1, [r1, #16]
 800a13e:	3301      	adds	r3, #1
 800a140:	eba5 0901 	sub.w	r9, r5, r1
 800a144:	6965      	ldr	r5, [r4, #20]
 800a146:	444b      	add	r3, r9
 800a148:	eb05 0545 	add.w	r5, r5, r5, lsl #1
 800a14c:	eb05 75d5 	add.w	r5, r5, r5, lsr #31
 800a150:	106d      	asrs	r5, r5, #1
 800a152:	429d      	cmp	r5, r3
 800a154:	bf38      	it	cc
 800a156:	461d      	movcc	r5, r3
 800a158:	0553      	lsls	r3, r2, #21
 800a15a:	d531      	bpl.n	800a1c0 <__ssputs_r+0xa0>
 800a15c:	4629      	mov	r1, r5
 800a15e:	f7ff ff85 	bl	800a06c <_malloc_r>
 800a162:	4606      	mov	r6, r0
 800a164:	b950      	cbnz	r0, 800a17c <__ssputs_r+0x5c>
 800a166:	230c      	movs	r3, #12
 800a168:	f04f 30ff 	mov.w	r0, #4294967295	; 0xffffffff
 800a16c:	f8ca 3000 	str.w	r3, [sl]
 800a170:	89a3      	ldrh	r3, [r4, #12]
 800a172:	f043 0340 	orr.w	r3, r3, #64	; 0x40
 800a176:	81a3      	strh	r3, [r4, #12]
 800a178:	e8bd 87f0 	ldmia.w	sp!, {r4, r5, r6, r7, r8, r9, sl, pc}
 800a17c:	464a      	mov	r2, r9
 800a17e:	6921      	ldr	r1, [r4, #16]
 800a180:	f7ff fb8a 	bl	8009898 <memcpy>
 800a184:	89a3      	ldrh	r3, [r4, #12]
 800a186:	f423 6390 	bic.w	r3, r3, #1152	; 0x480
 800a18a:	f043 0380 	orr.w	r3, r3, #128	; 0x80
 800a18e:	81a3      	strh	r3, [r4, #12]
 800a190:	6126      	str	r6, [r4, #16]
 800a192:	444e      	add	r6, r9
 800a194:	6026      	str	r6, [r4, #0]
 800a196:	463e      	mov	r6, r7
 800a198:	6165      	str	r5, [r4, #20]
 800a19a:	eba5 0509 	sub.w	r5, r5, r9
 800a19e:	60a5      	str	r5, [r4, #8]
 800a1a0:	42be      	cmp	r6, r7
 800a1a2:	d900      	bls.n	800a1a6 <__ssputs_r+0x86>
 800a1a4:	463e      	mov	r6, r7
 800a1a6:	4632      	mov	r2, r6
 800a1a8:	4641      	mov	r1, r8
 800a1aa:	6820      	ldr	r0, [r4, #0]
 800a1ac:	f000 f966 	bl	800a47c <memmove>
 800a1b0:	68a3      	ldr	r3, [r4, #8]
 800a1b2:	6822      	ldr	r2, [r4, #0]
 800a1b4:	1b9b      	subs	r3, r3, r6
 800a1b6:	4432      	add	r2, r6
 800a1b8:	2000      	movs	r0, #0
 800a1ba:	60a3      	str	r3, [r4, #8]
 800a1bc:	6022      	str	r2, [r4, #0]
 800a1be:	e7db      	b.n	800a178 <__ssputs_r+0x58>
 800a1c0:	462a      	mov	r2, r5
 800a1c2:	f000 f981 	bl	800a4c8 <_realloc_r>
 800a1c6:	4606      	mov	r6, r0
 800a1c8:	2800      	cmp	r0, #0
 800a1ca:	d1e1      	bne.n	800a190 <__ssputs_r+0x70>
 800a1cc:	4650      	mov	r0, sl
 800a1ce:	6921      	ldr	r1, [r4, #16]
 800a1d0:	f7ff ff00 	bl	8009fd4 <_free_r>
 800a1d4:	e7c7      	b.n	800a166 <__ssputs_r+0x46>
	...

0800a1d8 <_svfiprintf_r>:
 800a1d8:	e92d 4ff0 	stmdb	sp!, {r4, r5, r6, r7, r8, r9, sl, fp, lr}
 800a1dc:	4698      	mov	r8, r3
 800a1de:	898b      	ldrh	r3, [r1, #12]
 800a1e0:	4607      	mov	r7, r0
 800a1e2:	061b      	lsls	r3, r3, #24
 800a1e4:	460d      	mov	r5, r1
 800a1e6:	4614      	mov	r4, r2
 800a1e8:	b09d      	sub	sp, #116	; 0x74
 800a1ea:	d50e      	bpl.n	800a20a <_svfiprintf_r+0x32>
 800a1ec:	690b      	ldr	r3, [r1, #16]
 800a1ee:	b963      	cbnz	r3, 800a20a <_svfiprintf_r+0x32>
 800a1f0:	2140      	movs	r1, #64	; 0x40
 800a1f2:	f7ff ff3b 	bl	800a06c <_malloc_r>
 800a1f6:	6028      	str	r0, [r5, #0]
 800a1f8:	6128      	str	r0, [r5, #16]
 800a1fa:	b920      	cbnz	r0, 800a206 <_svfiprintf_r+0x2e>
 800a1fc:	230c      	movs	r3, #12
 800a1fe:	603b      	str	r3, [r7, #0]
 800a200:	f04f 30ff 	mov.w	r0, #4294967295	; 0xffffffff
 800a204:	e0d1      	b.n	800a3aa <_svfiprintf_r+0x1d2>
 800a206:	2340      	movs	r3, #64	; 0x40
 800a208:	616b      	str	r3, [r5, #20]
 800a20a:	2300      	movs	r3, #0
 800a20c:	9309      	str	r3, [sp, #36]	; 0x24
 800a20e:	2320      	movs	r3, #32
 800a210:	f88d 3029 	strb.w	r3, [sp, #41]	; 0x29
 800a214:	2330      	movs	r3, #48	; 0x30
 800a216:	f04f 0901 	mov.w	r9, #1
 800a21a:	f8cd 800c 	str.w	r8, [sp, #12]
 800a21e:	f8df 81a4 	ldr.w	r8, [pc, #420]	; 800a3c4 <_svfiprintf_r+0x1ec>
 800a222:	f88d 302a 	strb.w	r3, [sp, #42]	; 0x2a
 800a226:	4623      	mov	r3, r4
 800a228:	469a      	mov	sl, r3
 800a22a:	f813 2b01 	ldrb.w	r2, [r3], #1
 800a22e:	b10a      	cbz	r2, 800a234 <_svfiprintf_r+0x5c>
 800a230:	2a25      	cmp	r2, #37	; 0x25
 800a232:	d1f9      	bne.n	800a228 <_svfiprintf_r+0x50>
 800a234:	ebba 0b04 	subs.w	fp, sl, r4
 800a238:	d00b      	beq.n	800a252 <_svfiprintf_r+0x7a>
 800a23a:	465b      	mov	r3, fp
 800a23c:	4622      	mov	r2, r4
 800a23e:	4629      	mov	r1, r5
 800a240:	4638      	mov	r0, r7
 800a242:	f7ff ff6d 	bl	800a120 <__ssputs_r>
 800a246:	3001      	adds	r0, #1
 800a248:	f000 80aa 	beq.w	800a3a0 <_svfiprintf_r+0x1c8>
 800a24c:	9a09      	ldr	r2, [sp, #36]	; 0x24
 800a24e:	445a      	add	r2, fp
 800a250:	9209      	str	r2, [sp, #36]	; 0x24
 800a252:	f89a 3000 	ldrb.w	r3, [sl]
 800a256:	2b00      	cmp	r3, #0
 800a258:	f000 80a2 	beq.w	800a3a0 <_svfiprintf_r+0x1c8>
 800a25c:	2300      	movs	r3, #0
 800a25e:	f04f 32ff 	mov.w	r2, #4294967295	; 0xffffffff
 800a262:	e9cd 2305 	strd	r2, r3, [sp, #20]
 800a266:	f10a 0a01 	add.w	sl, sl, #1
 800a26a:	9304      	str	r3, [sp, #16]
 800a26c:	9307      	str	r3, [sp, #28]
 800a26e:	f88d 3053 	strb.w	r3, [sp, #83]	; 0x53
 800a272:	931a      	str	r3, [sp, #104]	; 0x68
 800a274:	4654      	mov	r4, sl
 800a276:	2205      	movs	r2, #5
 800a278:	f814 1b01 	ldrb.w	r1, [r4], #1
 800a27c:	4851      	ldr	r0, [pc, #324]	; (800a3c4 <_svfiprintf_r+0x1ec>)
 800a27e:	f7ff fafd 	bl	800987c <memchr>
 800a282:	9a04      	ldr	r2, [sp, #16]
 800a284:	b9d8      	cbnz	r0, 800a2be <_svfiprintf_r+0xe6>
 800a286:	06d0      	lsls	r0, r2, #27
 800a288:	bf44      	itt	mi
 800a28a:	2320      	movmi	r3, #32
 800a28c:	f88d 3053 	strbmi.w	r3, [sp, #83]	; 0x53
 800a290:	0711      	lsls	r1, r2, #28
 800a292:	bf44      	itt	mi
 800a294:	232b      	movmi	r3, #43	; 0x2b
 800a296:	f88d 3053 	strbmi.w	r3, [sp, #83]	; 0x53
 800a29a:	f89a 3000 	ldrb.w	r3, [sl]
 800a29e:	2b2a      	cmp	r3, #42	; 0x2a
 800a2a0:	d015      	beq.n	800a2ce <_svfiprintf_r+0xf6>
 800a2a2:	4654      	mov	r4, sl
 800a2a4:	2000      	movs	r0, #0
 800a2a6:	f04f 0c0a 	mov.w	ip, #10
 800a2aa:	9a07      	ldr	r2, [sp, #28]
 800a2ac:	4621      	mov	r1, r4
 800a2ae:	f811 3b01 	ldrb.w	r3, [r1], #1
 800a2b2:	3b30      	subs	r3, #48	; 0x30
 800a2b4:	2b09      	cmp	r3, #9
 800a2b6:	d94e      	bls.n	800a356 <_svfiprintf_r+0x17e>
 800a2b8:	b1b0      	cbz	r0, 800a2e8 <_svfiprintf_r+0x110>
 800a2ba:	9207      	str	r2, [sp, #28]
 800a2bc:	e014      	b.n	800a2e8 <_svfiprintf_r+0x110>
 800a2be:	eba0 0308 	sub.w	r3, r0, r8
 800a2c2:	fa09 f303 	lsl.w	r3, r9, r3
 800a2c6:	4313      	orrs	r3, r2
 800a2c8:	46a2      	mov	sl, r4
 800a2ca:	9304      	str	r3, [sp, #16]
 800a2cc:	e7d2      	b.n	800a274 <_svfiprintf_r+0x9c>
 800a2ce:	9b03      	ldr	r3, [sp, #12]
 800a2d0:	1d19      	adds	r1, r3, #4
 800a2d2:	681b      	ldr	r3, [r3, #0]
 800a2d4:	9103      	str	r1, [sp, #12]
 800a2d6:	2b00      	cmp	r3, #0
 800a2d8:	bfbb      	ittet	lt
 800a2da:	425b      	neglt	r3, r3
 800a2dc:	f042 0202 	orrlt.w	r2, r2, #2
 800a2e0:	9307      	strge	r3, [sp, #28]
 800a2e2:	9307      	strlt	r3, [sp, #28]
 800a2e4:	bfb8      	it	lt
 800a2e6:	9204      	strlt	r2, [sp, #16]
 800a2e8:	7823      	ldrb	r3, [r4, #0]
 800a2ea:	2b2e      	cmp	r3, #46	; 0x2e
 800a2ec:	d10c      	bne.n	800a308 <_svfiprintf_r+0x130>
 800a2ee:	7863      	ldrb	r3, [r4, #1]
 800a2f0:	2b2a      	cmp	r3, #42	; 0x2a
 800a2f2:	d135      	bne.n	800a360 <_svfiprintf_r+0x188>
 800a2f4:	9b03      	ldr	r3, [sp, #12]
 800a2f6:	3402      	adds	r4, #2
 800a2f8:	1d1a      	adds	r2, r3, #4
 800a2fa:	681b      	ldr	r3, [r3, #0]
 800a2fc:	9203      	str	r2, [sp, #12]
 800a2fe:	2b00      	cmp	r3, #0
 800a300:	bfb8      	it	lt
 800a302:	f04f 33ff 	movlt.w	r3, #4294967295	; 0xffffffff
 800a306:	9305      	str	r3, [sp, #20]
 800a308:	f8df a0c8 	ldr.w	sl, [pc, #200]	; 800a3d4 <_svfiprintf_r+0x1fc>
 800a30c:	2203      	movs	r2, #3
 800a30e:	4650      	mov	r0, sl
 800a310:	7821      	ldrb	r1, [r4, #0]
 800a312:	f7ff fab3 	bl	800987c <memchr>
 800a316:	b140      	cbz	r0, 800a32a <_svfiprintf_r+0x152>
 800a318:	2340      	movs	r3, #64	; 0x40
 800a31a:	eba0 000a 	sub.w	r0, r0, sl
 800a31e:	fa03 f000 	lsl.w	r0, r3, r0
 800a322:	9b04      	ldr	r3, [sp, #16]
 800a324:	3401      	adds	r4, #1
 800a326:	4303      	orrs	r3, r0
 800a328:	9304      	str	r3, [sp, #16]
 800a32a:	f814 1b01 	ldrb.w	r1, [r4], #1
 800a32e:	2206      	movs	r2, #6
 800a330:	4825      	ldr	r0, [pc, #148]	; (800a3c8 <_svfiprintf_r+0x1f0>)
 800a332:	f88d 1028 	strb.w	r1, [sp, #40]	; 0x28
 800a336:	f7ff faa1 	bl	800987c <memchr>
 800a33a:	2800      	cmp	r0, #0
 800a33c:	d038      	beq.n	800a3b0 <_svfiprintf_r+0x1d8>
 800a33e:	4b23      	ldr	r3, [pc, #140]	; (800a3cc <_svfiprintf_r+0x1f4>)
 800a340:	bb1b      	cbnz	r3, 800a38a <_svfiprintf_r+0x1b2>
 800a342:	9b03      	ldr	r3, [sp, #12]
 800a344:	3307      	adds	r3, #7
 800a346:	f023 0307 	bic.w	r3, r3, #7
 800a34a:	3308      	adds	r3, #8
 800a34c:	9303      	str	r3, [sp, #12]
 800a34e:	9b09      	ldr	r3, [sp, #36]	; 0x24
 800a350:	4433      	add	r3, r6
 800a352:	9309      	str	r3, [sp, #36]	; 0x24
 800a354:	e767      	b.n	800a226 <_svfiprintf_r+0x4e>
 800a356:	460c      	mov	r4, r1
 800a358:	2001      	movs	r0, #1
 800a35a:	fb0c 3202 	mla	r2, ip, r2, r3
 800a35e:	e7a5      	b.n	800a2ac <_svfiprintf_r+0xd4>
 800a360:	2300      	movs	r3, #0
 800a362:	f04f 0c0a 	mov.w	ip, #10
 800a366:	4619      	mov	r1, r3
 800a368:	3401      	adds	r4, #1
 800a36a:	9305      	str	r3, [sp, #20]
 800a36c:	4620      	mov	r0, r4
 800a36e:	f810 2b01 	ldrb.w	r2, [r0], #1
 800a372:	3a30      	subs	r2, #48	; 0x30
 800a374:	2a09      	cmp	r2, #9
 800a376:	d903      	bls.n	800a380 <_svfiprintf_r+0x1a8>
 800a378:	2b00      	cmp	r3, #0
 800a37a:	d0c5      	beq.n	800a308 <_svfiprintf_r+0x130>
 800a37c:	9105      	str	r1, [sp, #20]
 800a37e:	e7c3      	b.n	800a308 <_svfiprintf_r+0x130>
 800a380:	4604      	mov	r4, r0
 800a382:	2301      	movs	r3, #1
 800a384:	fb0c 2101 	mla	r1, ip, r1, r2
 800a388:	e7f0      	b.n	800a36c <_svfiprintf_r+0x194>
 800a38a:	ab03      	add	r3, sp, #12
 800a38c:	9300      	str	r3, [sp, #0]
 800a38e:	462a      	mov	r2, r5
 800a390:	4638      	mov	r0, r7
 800a392:	4b0f      	ldr	r3, [pc, #60]	; (800a3d0 <_svfiprintf_r+0x1f8>)
 800a394:	a904      	add	r1, sp, #16
 800a396:	f7fd fffd 	bl	8008394 <_printf_float>
 800a39a:	1c42      	adds	r2, r0, #1
 800a39c:	4606      	mov	r6, r0
 800a39e:	d1d6      	bne.n	800a34e <_svfiprintf_r+0x176>
 800a3a0:	89ab      	ldrh	r3, [r5, #12]
 800a3a2:	065b      	lsls	r3, r3, #25
 800a3a4:	f53f af2c 	bmi.w	800a200 <_svfiprintf_r+0x28>
 800a3a8:	9809      	ldr	r0, [sp, #36]	; 0x24
 800a3aa:	b01d      	add	sp, #116	; 0x74
 800a3ac:	e8bd 8ff0 	ldmia.w	sp!, {r4, r5, r6, r7, r8, r9, sl, fp, pc}
 800a3b0:	ab03      	add	r3, sp, #12
 800a3b2:	9300      	str	r3, [sp, #0]
 800a3b4:	462a      	mov	r2, r5
 800a3b6:	4638      	mov	r0, r7
 800a3b8:	4b05      	ldr	r3, [pc, #20]	; (800a3d0 <_svfiprintf_r+0x1f8>)
 800a3ba:	a904      	add	r1, sp, #16
 800a3bc:	f7fe fa86 	bl	80088cc <_printf_i>
 800a3c0:	e7eb      	b.n	800a39a <_svfiprintf_r+0x1c2>
 800a3c2:	bf00      	nop
 800a3c4:	0800bc7c 	.word	0x0800bc7c
 800a3c8:	0800bc86 	.word	0x0800bc86
 800a3cc:	08008395 	.word	0x08008395
 800a3d0:	0800a121 	.word	0x0800a121
 800a3d4:	0800bc82 	.word	0x0800bc82

0800a3d8 <_sbrk_r>:
 800a3d8:	b538      	push	{r3, r4, r5, lr}
 800a3da:	2300      	movs	r3, #0
 800a3dc:	4d05      	ldr	r5, [pc, #20]	; (800a3f4 <_sbrk_r+0x1c>)
 800a3de:	4604      	mov	r4, r0
 800a3e0:	4608      	mov	r0, r1
 800a3e2:	602b      	str	r3, [r5, #0]
 800a3e4:	f7fa ff24 	bl	8005230 <_sbrk>
 800a3e8:	1c43      	adds	r3, r0, #1
 800a3ea:	d102      	bne.n	800a3f2 <_sbrk_r+0x1a>
 800a3ec:	682b      	ldr	r3, [r5, #0]
 800a3ee:	b103      	cbz	r3, 800a3f2 <_sbrk_r+0x1a>
 800a3f0:	6023      	str	r3, [r4, #0]
 800a3f2:	bd38      	pop	{r3, r4, r5, pc}
 800a3f4:	20001468 	.word	0x20001468

0800a3f8 <__assert_func>:
 800a3f8:	b51f      	push	{r0, r1, r2, r3, r4, lr}
 800a3fa:	4614      	mov	r4, r2
 800a3fc:	461a      	mov	r2, r3
 800a3fe:	4b09      	ldr	r3, [pc, #36]	; (800a424 <__assert_func+0x2c>)
 800a400:	4605      	mov	r5, r0
 800a402:	681b      	ldr	r3, [r3, #0]
 800a404:	68d8      	ldr	r0, [r3, #12]
 800a406:	b14c      	cbz	r4, 800a41c <__assert_func+0x24>
 800a408:	4b07      	ldr	r3, [pc, #28]	; (800a428 <__assert_func+0x30>)
 800a40a:	e9cd 3401 	strd	r3, r4, [sp, #4]
 800a40e:	9100      	str	r1, [sp, #0]
 800a410:	462b      	mov	r3, r5
 800a412:	4906      	ldr	r1, [pc, #24]	; (800a42c <__assert_func+0x34>)
 800a414:	f000 f80e 	bl	800a434 <fiprintf>
 800a418:	f000 faa2 	bl	800a960 <abort>
 800a41c:	4b04      	ldr	r3, [pc, #16]	; (800a430 <__assert_func+0x38>)
 800a41e:	461c      	mov	r4, r3
 800a420:	e7f3      	b.n	800a40a <__assert_func+0x12>
 800a422:	bf00      	nop
 800a424:	20000170 	.word	0x20000170
 800a428:	0800bc8d 	.word	0x0800bc8d
 800a42c:	0800bc9a 	.word	0x0800bc9a
 800a430:	0800b733 	.word	0x0800b733

0800a434 <fiprintf>:
 800a434:	b40e      	push	{r1, r2, r3}
 800a436:	b503      	push	{r0, r1, lr}
 800a438:	4601      	mov	r1, r0
 800a43a:	ab03      	add	r3, sp, #12
 800a43c:	4805      	ldr	r0, [pc, #20]	; (800a454 <fiprintf+0x20>)
 800a43e:	f853 2b04 	ldr.w	r2, [r3], #4
 800a442:	6800      	ldr	r0, [r0, #0]
 800a444:	9301      	str	r3, [sp, #4]
 800a446:	f000 f88d 	bl	800a564 <_vfiprintf_r>
 800a44a:	b002      	add	sp, #8
 800a44c:	f85d eb04 	ldr.w	lr, [sp], #4
 800a450:	b003      	add	sp, #12
 800a452:	4770      	bx	lr
 800a454:	20000170 	.word	0x20000170

0800a458 <__ascii_mbtowc>:
 800a458:	b082      	sub	sp, #8
 800a45a:	b901      	cbnz	r1, 800a45e <__ascii_mbtowc+0x6>
 800a45c:	a901      	add	r1, sp, #4
 800a45e:	b142      	cbz	r2, 800a472 <__ascii_mbtowc+0x1a>
 800a460:	b14b      	cbz	r3, 800a476 <__ascii_mbtowc+0x1e>
 800a462:	7813      	ldrb	r3, [r2, #0]
 800a464:	600b      	str	r3, [r1, #0]
 800a466:	7812      	ldrb	r2, [r2, #0]
 800a468:	1e10      	subs	r0, r2, #0
 800a46a:	bf18      	it	ne
 800a46c:	2001      	movne	r0, #1
 800a46e:	b002      	add	sp, #8
 800a470:	4770      	bx	lr
 800a472:	4610      	mov	r0, r2
 800a474:	e7fb      	b.n	800a46e <__ascii_mbtowc+0x16>
 800a476:	f06f 0001 	mvn.w	r0, #1
 800a47a:	e7f8      	b.n	800a46e <__ascii_mbtowc+0x16>

0800a47c <memmove>:
 800a47c:	4288      	cmp	r0, r1
 800a47e:	b510      	push	{r4, lr}
 800a480:	eb01 0402 	add.w	r4, r1, r2
 800a484:	d902      	bls.n	800a48c <memmove+0x10>
 800a486:	4284      	cmp	r4, r0
 800a488:	4623      	mov	r3, r4
 800a48a:	d807      	bhi.n	800a49c <memmove+0x20>
 800a48c:	1e43      	subs	r3, r0, #1
 800a48e:	42a1      	cmp	r1, r4
 800a490:	d008      	beq.n	800a4a4 <memmove+0x28>
 800a492:	f811 2b01 	ldrb.w	r2, [r1], #1
 800a496:	f803 2f01 	strb.w	r2, [r3, #1]!
 800a49a:	e7f8      	b.n	800a48e <memmove+0x12>
 800a49c:	4601      	mov	r1, r0
 800a49e:	4402      	add	r2, r0
 800a4a0:	428a      	cmp	r2, r1
 800a4a2:	d100      	bne.n	800a4a6 <memmove+0x2a>
 800a4a4:	bd10      	pop	{r4, pc}
 800a4a6:	f813 4d01 	ldrb.w	r4, [r3, #-1]!
 800a4aa:	f802 4d01 	strb.w	r4, [r2, #-1]!
 800a4ae:	e7f7      	b.n	800a4a0 <memmove+0x24>

0800a4b0 <__malloc_lock>:
 800a4b0:	4801      	ldr	r0, [pc, #4]	; (800a4b8 <__malloc_lock+0x8>)
 800a4b2:	f000 bc15 	b.w	800ace0 <__retarget_lock_acquire_recursive>
 800a4b6:	bf00      	nop
 800a4b8:	20001470 	.word	0x20001470

0800a4bc <__malloc_unlock>:
 800a4bc:	4801      	ldr	r0, [pc, #4]	; (800a4c4 <__malloc_unlock+0x8>)
 800a4be:	f000 bc10 	b.w	800ace2 <__retarget_lock_release_recursive>
 800a4c2:	bf00      	nop
 800a4c4:	20001470 	.word	0x20001470

0800a4c8 <_realloc_r>:
 800a4c8:	b5f8      	push	{r3, r4, r5, r6, r7, lr}
 800a4ca:	4607      	mov	r7, r0
 800a4cc:	4614      	mov	r4, r2
 800a4ce:	460e      	mov	r6, r1
 800a4d0:	b921      	cbnz	r1, 800a4dc <_realloc_r+0x14>
 800a4d2:	4611      	mov	r1, r2
 800a4d4:	e8bd 40f8 	ldmia.w	sp!, {r3, r4, r5, r6, r7, lr}
 800a4d8:	f7ff bdc8 	b.w	800a06c <_malloc_r>
 800a4dc:	b922      	cbnz	r2, 800a4e8 <_realloc_r+0x20>
 800a4de:	f7ff fd79 	bl	8009fd4 <_free_r>
 800a4e2:	4625      	mov	r5, r4
 800a4e4:	4628      	mov	r0, r5
 800a4e6:	bdf8      	pop	{r3, r4, r5, r6, r7, pc}
 800a4e8:	f000 fc60 	bl	800adac <_malloc_usable_size_r>
 800a4ec:	42a0      	cmp	r0, r4
 800a4ee:	d20f      	bcs.n	800a510 <_realloc_r+0x48>
 800a4f0:	4621      	mov	r1, r4
 800a4f2:	4638      	mov	r0, r7
 800a4f4:	f7ff fdba 	bl	800a06c <_malloc_r>
 800a4f8:	4605      	mov	r5, r0
 800a4fa:	2800      	cmp	r0, #0
 800a4fc:	d0f2      	beq.n	800a4e4 <_realloc_r+0x1c>
 800a4fe:	4631      	mov	r1, r6
 800a500:	4622      	mov	r2, r4
 800a502:	f7ff f9c9 	bl	8009898 <memcpy>
 800a506:	4631      	mov	r1, r6
 800a508:	4638      	mov	r0, r7
 800a50a:	f7ff fd63 	bl	8009fd4 <_free_r>
 800a50e:	e7e9      	b.n	800a4e4 <_realloc_r+0x1c>
 800a510:	4635      	mov	r5, r6
 800a512:	e7e7      	b.n	800a4e4 <_realloc_r+0x1c>

0800a514 <__sfputc_r>:
 800a514:	6893      	ldr	r3, [r2, #8]
 800a516:	b410      	push	{r4}
 800a518:	3b01      	subs	r3, #1
 800a51a:	2b00      	cmp	r3, #0
 800a51c:	6093      	str	r3, [r2, #8]
 800a51e:	da07      	bge.n	800a530 <__sfputc_r+0x1c>
 800a520:	6994      	ldr	r4, [r2, #24]
 800a522:	42a3      	cmp	r3, r4
 800a524:	db01      	blt.n	800a52a <__sfputc_r+0x16>
 800a526:	290a      	cmp	r1, #10
 800a528:	d102      	bne.n	800a530 <__sfputc_r+0x1c>
 800a52a:	bc10      	pop	{r4}
 800a52c:	f000 b94a 	b.w	800a7c4 <__swbuf_r>
 800a530:	6813      	ldr	r3, [r2, #0]
 800a532:	1c58      	adds	r0, r3, #1
 800a534:	6010      	str	r0, [r2, #0]
 800a536:	7019      	strb	r1, [r3, #0]
 800a538:	4608      	mov	r0, r1
 800a53a:	bc10      	pop	{r4}
 800a53c:	4770      	bx	lr

0800a53e <__sfputs_r>:
 800a53e:	b5f8      	push	{r3, r4, r5, r6, r7, lr}
 800a540:	4606      	mov	r6, r0
 800a542:	460f      	mov	r7, r1
 800a544:	4614      	mov	r4, r2
 800a546:	18d5      	adds	r5, r2, r3
 800a548:	42ac      	cmp	r4, r5
 800a54a:	d101      	bne.n	800a550 <__sfputs_r+0x12>
 800a54c:	2000      	movs	r0, #0
 800a54e:	e007      	b.n	800a560 <__sfputs_r+0x22>
 800a550:	463a      	mov	r2, r7
 800a552:	4630      	mov	r0, r6
 800a554:	f814 1b01 	ldrb.w	r1, [r4], #1
 800a558:	f7ff ffdc 	bl	800a514 <__sfputc_r>
 800a55c:	1c43      	adds	r3, r0, #1
 800a55e:	d1f3      	bne.n	800a548 <__sfputs_r+0xa>
 800a560:	bdf8      	pop	{r3, r4, r5, r6, r7, pc}
	...

0800a564 <_vfiprintf_r>:
 800a564:	e92d 4ff0 	stmdb	sp!, {r4, r5, r6, r7, r8, r9, sl, fp, lr}
 800a568:	460d      	mov	r5, r1
 800a56a:	4614      	mov	r4, r2
 800a56c:	4698      	mov	r8, r3
 800a56e:	4606      	mov	r6, r0
 800a570:	b09d      	sub	sp, #116	; 0x74
 800a572:	b118      	cbz	r0, 800a57c <_vfiprintf_r+0x18>
 800a574:	6983      	ldr	r3, [r0, #24]
 800a576:	b90b      	cbnz	r3, 800a57c <_vfiprintf_r+0x18>
 800a578:	f000 fb14 	bl	800aba4 <__sinit>
 800a57c:	4b89      	ldr	r3, [pc, #548]	; (800a7a4 <_vfiprintf_r+0x240>)
 800a57e:	429d      	cmp	r5, r3
 800a580:	d11b      	bne.n	800a5ba <_vfiprintf_r+0x56>
 800a582:	6875      	ldr	r5, [r6, #4]
 800a584:	6e6b      	ldr	r3, [r5, #100]	; 0x64
 800a586:	07d9      	lsls	r1, r3, #31
 800a588:	d405      	bmi.n	800a596 <_vfiprintf_r+0x32>
 800a58a:	89ab      	ldrh	r3, [r5, #12]
 800a58c:	059a      	lsls	r2, r3, #22
 800a58e:	d402      	bmi.n	800a596 <_vfiprintf_r+0x32>
 800a590:	6da8      	ldr	r0, [r5, #88]	; 0x58
 800a592:	f000 fba5 	bl	800ace0 <__retarget_lock_acquire_recursive>
 800a596:	89ab      	ldrh	r3, [r5, #12]
 800a598:	071b      	lsls	r3, r3, #28
 800a59a:	d501      	bpl.n	800a5a0 <_vfiprintf_r+0x3c>
 800a59c:	692b      	ldr	r3, [r5, #16]
 800a59e:	b9eb      	cbnz	r3, 800a5dc <_vfiprintf_r+0x78>
 800a5a0:	4629      	mov	r1, r5
 800a5a2:	4630      	mov	r0, r6
 800a5a4:	f000 f96e 	bl	800a884 <__swsetup_r>
 800a5a8:	b1c0      	cbz	r0, 800a5dc <_vfiprintf_r+0x78>
 800a5aa:	6e6b      	ldr	r3, [r5, #100]	; 0x64
 800a5ac:	07dc      	lsls	r4, r3, #31
 800a5ae:	d50e      	bpl.n	800a5ce <_vfiprintf_r+0x6a>
 800a5b0:	f04f 30ff 	mov.w	r0, #4294967295	; 0xffffffff
 800a5b4:	b01d      	add	sp, #116	; 0x74
 800a5b6:	e8bd 8ff0 	ldmia.w	sp!, {r4, r5, r6, r7, r8, r9, sl, fp, pc}
 800a5ba:	4b7b      	ldr	r3, [pc, #492]	; (800a7a8 <_vfiprintf_r+0x244>)
 800a5bc:	429d      	cmp	r5, r3
 800a5be:	d101      	bne.n	800a5c4 <_vfiprintf_r+0x60>
 800a5c0:	68b5      	ldr	r5, [r6, #8]
 800a5c2:	e7df      	b.n	800a584 <_vfiprintf_r+0x20>
 800a5c4:	4b79      	ldr	r3, [pc, #484]	; (800a7ac <_vfiprintf_r+0x248>)
 800a5c6:	429d      	cmp	r5, r3
 800a5c8:	bf08      	it	eq
 800a5ca:	68f5      	ldreq	r5, [r6, #12]
 800a5cc:	e7da      	b.n	800a584 <_vfiprintf_r+0x20>
 800a5ce:	89ab      	ldrh	r3, [r5, #12]
 800a5d0:	0598      	lsls	r0, r3, #22
 800a5d2:	d4ed      	bmi.n	800a5b0 <_vfiprintf_r+0x4c>
 800a5d4:	6da8      	ldr	r0, [r5, #88]	; 0x58
 800a5d6:	f000 fb84 	bl	800ace2 <__retarget_lock_release_recursive>
 800a5da:	e7e9      	b.n	800a5b0 <_vfiprintf_r+0x4c>
 800a5dc:	2300      	movs	r3, #0
 800a5de:	9309      	str	r3, [sp, #36]	; 0x24
 800a5e0:	2320      	movs	r3, #32
 800a5e2:	f88d 3029 	strb.w	r3, [sp, #41]	; 0x29
 800a5e6:	2330      	movs	r3, #48	; 0x30
 800a5e8:	f04f 0901 	mov.w	r9, #1
 800a5ec:	f8cd 800c 	str.w	r8, [sp, #12]
 800a5f0:	f8df 81bc 	ldr.w	r8, [pc, #444]	; 800a7b0 <_vfiprintf_r+0x24c>
 800a5f4:	f88d 302a 	strb.w	r3, [sp, #42]	; 0x2a
 800a5f8:	4623      	mov	r3, r4
 800a5fa:	469a      	mov	sl, r3
 800a5fc:	f813 2b01 	ldrb.w	r2, [r3], #1
 800a600:	b10a      	cbz	r2, 800a606 <_vfiprintf_r+0xa2>
 800a602:	2a25      	cmp	r2, #37	; 0x25
 800a604:	d1f9      	bne.n	800a5fa <_vfiprintf_r+0x96>
 800a606:	ebba 0b04 	subs.w	fp, sl, r4
 800a60a:	d00b      	beq.n	800a624 <_vfiprintf_r+0xc0>
 800a60c:	465b      	mov	r3, fp
 800a60e:	4622      	mov	r2, r4
 800a610:	4629      	mov	r1, r5
 800a612:	4630      	mov	r0, r6
 800a614:	f7ff ff93 	bl	800a53e <__sfputs_r>
 800a618:	3001      	adds	r0, #1
 800a61a:	f000 80aa 	beq.w	800a772 <_vfiprintf_r+0x20e>
 800a61e:	9a09      	ldr	r2, [sp, #36]	; 0x24
 800a620:	445a      	add	r2, fp
 800a622:	9209      	str	r2, [sp, #36]	; 0x24
 800a624:	f89a 3000 	ldrb.w	r3, [sl]
 800a628:	2b00      	cmp	r3, #0
 800a62a:	f000 80a2 	beq.w	800a772 <_vfiprintf_r+0x20e>
 800a62e:	2300      	movs	r3, #0
 800a630:	f04f 32ff 	mov.w	r2, #4294967295	; 0xffffffff
 800a634:	e9cd 2305 	strd	r2, r3, [sp, #20]
 800a638:	f10a 0a01 	add.w	sl, sl, #1
 800a63c:	9304      	str	r3, [sp, #16]
 800a63e:	9307      	str	r3, [sp, #28]
 800a640:	f88d 3053 	strb.w	r3, [sp, #83]	; 0x53
 800a644:	931a      	str	r3, [sp, #104]	; 0x68
 800a646:	4654      	mov	r4, sl
 800a648:	2205      	movs	r2, #5
 800a64a:	f814 1b01 	ldrb.w	r1, [r4], #1
 800a64e:	4858      	ldr	r0, [pc, #352]	; (800a7b0 <_vfiprintf_r+0x24c>)
 800a650:	f7ff f914 	bl	800987c <memchr>
 800a654:	9a04      	ldr	r2, [sp, #16]
 800a656:	b9d8      	cbnz	r0, 800a690 <_vfiprintf_r+0x12c>
 800a658:	06d1      	lsls	r1, r2, #27
 800a65a:	bf44      	itt	mi
 800a65c:	2320      	movmi	r3, #32
 800a65e:	f88d 3053 	strbmi.w	r3, [sp, #83]	; 0x53
 800a662:	0713      	lsls	r3, r2, #28
 800a664:	bf44      	itt	mi
 800a666:	232b      	movmi	r3, #43	; 0x2b
 800a668:	f88d 3053 	strbmi.w	r3, [sp, #83]	; 0x53
 800a66c:	f89a 3000 	ldrb.w	r3, [sl]
 800a670:	2b2a      	cmp	r3, #42	; 0x2a
 800a672:	d015      	beq.n	800a6a0 <_vfiprintf_r+0x13c>
 800a674:	4654      	mov	r4, sl
 800a676:	2000      	movs	r0, #0
 800a678:	f04f 0c0a 	mov.w	ip, #10
 800a67c:	9a07      	ldr	r2, [sp, #28]
 800a67e:	4621      	mov	r1, r4
 800a680:	f811 3b01 	ldrb.w	r3, [r1], #1
 800a684:	3b30      	subs	r3, #48	; 0x30
 800a686:	2b09      	cmp	r3, #9
 800a688:	d94e      	bls.n	800a728 <_vfiprintf_r+0x1c4>
 800a68a:	b1b0      	cbz	r0, 800a6ba <_vfiprintf_r+0x156>
 800a68c:	9207      	str	r2, [sp, #28]
 800a68e:	e014      	b.n	800a6ba <_vfiprintf_r+0x156>
 800a690:	eba0 0308 	sub.w	r3, r0, r8
 800a694:	fa09 f303 	lsl.w	r3, r9, r3
 800a698:	4313      	orrs	r3, r2
 800a69a:	46a2      	mov	sl, r4
 800a69c:	9304      	str	r3, [sp, #16]
 800a69e:	e7d2      	b.n	800a646 <_vfiprintf_r+0xe2>
 800a6a0:	9b03      	ldr	r3, [sp, #12]
 800a6a2:	1d19      	adds	r1, r3, #4
 800a6a4:	681b      	ldr	r3, [r3, #0]
 800a6a6:	9103      	str	r1, [sp, #12]
 800a6a8:	2b00      	cmp	r3, #0
 800a6aa:	bfbb      	ittet	lt
 800a6ac:	425b      	neglt	r3, r3
 800a6ae:	f042 0202 	orrlt.w	r2, r2, #2
 800a6b2:	9307      	strge	r3, [sp, #28]
 800a6b4:	9307      	strlt	r3, [sp, #28]
 800a6b6:	bfb8      	it	lt
 800a6b8:	9204      	strlt	r2, [sp, #16]
 800a6ba:	7823      	ldrb	r3, [r4, #0]
 800a6bc:	2b2e      	cmp	r3, #46	; 0x2e
 800a6be:	d10c      	bne.n	800a6da <_vfiprintf_r+0x176>
 800a6c0:	7863      	ldrb	r3, [r4, #1]
 800a6c2:	2b2a      	cmp	r3, #42	; 0x2a
 800a6c4:	d135      	bne.n	800a732 <_vfiprintf_r+0x1ce>
 800a6c6:	9b03      	ldr	r3, [sp, #12]
 800a6c8:	3402      	adds	r4, #2
 800a6ca:	1d1a      	adds	r2, r3, #4
 800a6cc:	681b      	ldr	r3, [r3, #0]
 800a6ce:	9203      	str	r2, [sp, #12]
 800a6d0:	2b00      	cmp	r3, #0
 800a6d2:	bfb8      	it	lt
 800a6d4:	f04f 33ff 	movlt.w	r3, #4294967295	; 0xffffffff
 800a6d8:	9305      	str	r3, [sp, #20]
 800a6da:	f8df a0e4 	ldr.w	sl, [pc, #228]	; 800a7c0 <_vfiprintf_r+0x25c>
 800a6de:	2203      	movs	r2, #3
 800a6e0:	4650      	mov	r0, sl
 800a6e2:	7821      	ldrb	r1, [r4, #0]
 800a6e4:	f7ff f8ca 	bl	800987c <memchr>
 800a6e8:	b140      	cbz	r0, 800a6fc <_vfiprintf_r+0x198>
 800a6ea:	2340      	movs	r3, #64	; 0x40
 800a6ec:	eba0 000a 	sub.w	r0, r0, sl
 800a6f0:	fa03 f000 	lsl.w	r0, r3, r0
 800a6f4:	9b04      	ldr	r3, [sp, #16]
 800a6f6:	3401      	adds	r4, #1
 800a6f8:	4303      	orrs	r3, r0
 800a6fa:	9304      	str	r3, [sp, #16]
 800a6fc:	f814 1b01 	ldrb.w	r1, [r4], #1
 800a700:	2206      	movs	r2, #6
 800a702:	482c      	ldr	r0, [pc, #176]	; (800a7b4 <_vfiprintf_r+0x250>)
 800a704:	f88d 1028 	strb.w	r1, [sp, #40]	; 0x28
 800a708:	f7ff f8b8 	bl	800987c <memchr>
 800a70c:	2800      	cmp	r0, #0
 800a70e:	d03f      	beq.n	800a790 <_vfiprintf_r+0x22c>
 800a710:	4b29      	ldr	r3, [pc, #164]	; (800a7b8 <_vfiprintf_r+0x254>)
 800a712:	bb1b      	cbnz	r3, 800a75c <_vfiprintf_r+0x1f8>
 800a714:	9b03      	ldr	r3, [sp, #12]
 800a716:	3307      	adds	r3, #7
 800a718:	f023 0307 	bic.w	r3, r3, #7
 800a71c:	3308      	adds	r3, #8
 800a71e:	9303      	str	r3, [sp, #12]
 800a720:	9b09      	ldr	r3, [sp, #36]	; 0x24
 800a722:	443b      	add	r3, r7
 800a724:	9309      	str	r3, [sp, #36]	; 0x24
 800a726:	e767      	b.n	800a5f8 <_vfiprintf_r+0x94>
 800a728:	460c      	mov	r4, r1
 800a72a:	2001      	movs	r0, #1
 800a72c:	fb0c 3202 	mla	r2, ip, r2, r3
 800a730:	e7a5      	b.n	800a67e <_vfiprintf_r+0x11a>
 800a732:	2300      	movs	r3, #0
 800a734:	f04f 0c0a 	mov.w	ip, #10
 800a738:	4619      	mov	r1, r3
 800a73a:	3401      	adds	r4, #1
 800a73c:	9305      	str	r3, [sp, #20]
 800a73e:	4620      	mov	r0, r4
 800a740:	f810 2b01 	ldrb.w	r2, [r0], #1
 800a744:	3a30      	subs	r2, #48	; 0x30
 800a746:	2a09      	cmp	r2, #9
 800a748:	d903      	bls.n	800a752 <_vfiprintf_r+0x1ee>
 800a74a:	2b00      	cmp	r3, #0
 800a74c:	d0c5      	beq.n	800a6da <_vfiprintf_r+0x176>
 800a74e:	9105      	str	r1, [sp, #20]
 800a750:	e7c3      	b.n	800a6da <_vfiprintf_r+0x176>
 800a752:	4604      	mov	r4, r0
 800a754:	2301      	movs	r3, #1
 800a756:	fb0c 2101 	mla	r1, ip, r1, r2
 800a75a:	e7f0      	b.n	800a73e <_vfiprintf_r+0x1da>
 800a75c:	ab03      	add	r3, sp, #12
 800a75e:	9300      	str	r3, [sp, #0]
 800a760:	462a      	mov	r2, r5
 800a762:	4630      	mov	r0, r6
 800a764:	4b15      	ldr	r3, [pc, #84]	; (800a7bc <_vfiprintf_r+0x258>)
 800a766:	a904      	add	r1, sp, #16
 800a768:	f7fd fe14 	bl	8008394 <_printf_float>
 800a76c:	4607      	mov	r7, r0
 800a76e:	1c78      	adds	r0, r7, #1
 800a770:	d1d6      	bne.n	800a720 <_vfiprintf_r+0x1bc>
 800a772:	6e6b      	ldr	r3, [r5, #100]	; 0x64
 800a774:	07d9      	lsls	r1, r3, #31
 800a776:	d405      	bmi.n	800a784 <_vfiprintf_r+0x220>
 800a778:	89ab      	ldrh	r3, [r5, #12]
 800a77a:	059a      	lsls	r2, r3, #22
 800a77c:	d402      	bmi.n	800a784 <_vfiprintf_r+0x220>
 800a77e:	6da8      	ldr	r0, [r5, #88]	; 0x58
 800a780:	f000 faaf 	bl	800ace2 <__retarget_lock_release_recursive>
 800a784:	89ab      	ldrh	r3, [r5, #12]
 800a786:	065b      	lsls	r3, r3, #25
 800a788:	f53f af12 	bmi.w	800a5b0 <_vfiprintf_r+0x4c>
 800a78c:	9809      	ldr	r0, [sp, #36]	; 0x24
 800a78e:	e711      	b.n	800a5b4 <_vfiprintf_r+0x50>
 800a790:	ab03      	add	r3, sp, #12
 800a792:	9300      	str	r3, [sp, #0]
 800a794:	462a      	mov	r2, r5
 800a796:	4630      	mov	r0, r6
 800a798:	4b08      	ldr	r3, [pc, #32]	; (800a7bc <_vfiprintf_r+0x258>)
 800a79a:	a904      	add	r1, sp, #16
 800a79c:	f7fe f896 	bl	80088cc <_printf_i>
 800a7a0:	e7e4      	b.n	800a76c <_vfiprintf_r+0x208>
 800a7a2:	bf00      	nop
 800a7a4:	0800bdf4 	.word	0x0800bdf4
 800a7a8:	0800be14 	.word	0x0800be14
 800a7ac:	0800bdd4 	.word	0x0800bdd4
 800a7b0:	0800bc7c 	.word	0x0800bc7c
 800a7b4:	0800bc86 	.word	0x0800bc86
 800a7b8:	08008395 	.word	0x08008395
 800a7bc:	0800a53f 	.word	0x0800a53f
 800a7c0:	0800bc82 	.word	0x0800bc82

0800a7c4 <__swbuf_r>:
 800a7c4:	b5f8      	push	{r3, r4, r5, r6, r7, lr}
 800a7c6:	460e      	mov	r6, r1
 800a7c8:	4614      	mov	r4, r2
 800a7ca:	4605      	mov	r5, r0
 800a7cc:	b118      	cbz	r0, 800a7d6 <__swbuf_r+0x12>
 800a7ce:	6983      	ldr	r3, [r0, #24]
 800a7d0:	b90b      	cbnz	r3, 800a7d6 <__swbuf_r+0x12>
 800a7d2:	f000 f9e7 	bl	800aba4 <__sinit>
 800a7d6:	4b21      	ldr	r3, [pc, #132]	; (800a85c <__swbuf_r+0x98>)
 800a7d8:	429c      	cmp	r4, r3
 800a7da:	d12b      	bne.n	800a834 <__swbuf_r+0x70>
 800a7dc:	686c      	ldr	r4, [r5, #4]
 800a7de:	69a3      	ldr	r3, [r4, #24]
 800a7e0:	60a3      	str	r3, [r4, #8]
 800a7e2:	89a3      	ldrh	r3, [r4, #12]
 800a7e4:	071a      	lsls	r2, r3, #28
 800a7e6:	d52f      	bpl.n	800a848 <__swbuf_r+0x84>
 800a7e8:	6923      	ldr	r3, [r4, #16]
 800a7ea:	b36b      	cbz	r3, 800a848 <__swbuf_r+0x84>
 800a7ec:	6923      	ldr	r3, [r4, #16]
 800a7ee:	6820      	ldr	r0, [r4, #0]
 800a7f0:	b2f6      	uxtb	r6, r6
 800a7f2:	1ac0      	subs	r0, r0, r3
 800a7f4:	6963      	ldr	r3, [r4, #20]
 800a7f6:	4637      	mov	r7, r6
 800a7f8:	4283      	cmp	r3, r0
 800a7fa:	dc04      	bgt.n	800a806 <__swbuf_r+0x42>
 800a7fc:	4621      	mov	r1, r4
 800a7fe:	4628      	mov	r0, r5
 800a800:	f000 f93c 	bl	800aa7c <_fflush_r>
 800a804:	bb30      	cbnz	r0, 800a854 <__swbuf_r+0x90>
 800a806:	68a3      	ldr	r3, [r4, #8]
 800a808:	3001      	adds	r0, #1
 800a80a:	3b01      	subs	r3, #1
 800a80c:	60a3      	str	r3, [r4, #8]
 800a80e:	6823      	ldr	r3, [r4, #0]
 800a810:	1c5a      	adds	r2, r3, #1
 800a812:	6022      	str	r2, [r4, #0]
 800a814:	701e      	strb	r6, [r3, #0]
 800a816:	6963      	ldr	r3, [r4, #20]
 800a818:	4283      	cmp	r3, r0
 800a81a:	d004      	beq.n	800a826 <__swbuf_r+0x62>
 800a81c:	89a3      	ldrh	r3, [r4, #12]
 800a81e:	07db      	lsls	r3, r3, #31
 800a820:	d506      	bpl.n	800a830 <__swbuf_r+0x6c>
 800a822:	2e0a      	cmp	r6, #10
 800a824:	d104      	bne.n	800a830 <__swbuf_r+0x6c>
 800a826:	4621      	mov	r1, r4
 800a828:	4628      	mov	r0, r5
 800a82a:	f000 f927 	bl	800aa7c <_fflush_r>
 800a82e:	b988      	cbnz	r0, 800a854 <__swbuf_r+0x90>
 800a830:	4638      	mov	r0, r7
 800a832:	bdf8      	pop	{r3, r4, r5, r6, r7, pc}
 800a834:	4b0a      	ldr	r3, [pc, #40]	; (800a860 <__swbuf_r+0x9c>)
 800a836:	429c      	cmp	r4, r3
 800a838:	d101      	bne.n	800a83e <__swbuf_r+0x7a>
 800a83a:	68ac      	ldr	r4, [r5, #8]
 800a83c:	e7cf      	b.n	800a7de <__swbuf_r+0x1a>
 800a83e:	4b09      	ldr	r3, [pc, #36]	; (800a864 <__swbuf_r+0xa0>)
 800a840:	429c      	cmp	r4, r3
 800a842:	bf08      	it	eq
 800a844:	68ec      	ldreq	r4, [r5, #12]
 800a846:	e7ca      	b.n	800a7de <__swbuf_r+0x1a>
 800a848:	4621      	mov	r1, r4
 800a84a:	4628      	mov	r0, r5
 800a84c:	f000 f81a 	bl	800a884 <__swsetup_r>
 800a850:	2800      	cmp	r0, #0
 800a852:	d0cb      	beq.n	800a7ec <__swbuf_r+0x28>
 800a854:	f04f 37ff 	mov.w	r7, #4294967295	; 0xffffffff
 800a858:	e7ea      	b.n	800a830 <__swbuf_r+0x6c>
 800a85a:	bf00      	nop
 800a85c:	0800bdf4 	.word	0x0800bdf4
 800a860:	0800be14 	.word	0x0800be14
 800a864:	0800bdd4 	.word	0x0800bdd4

0800a868 <__ascii_wctomb>:
 800a868:	4603      	mov	r3, r0
 800a86a:	4608      	mov	r0, r1
 800a86c:	b141      	cbz	r1, 800a880 <__ascii_wctomb+0x18>
 800a86e:	2aff      	cmp	r2, #255	; 0xff
 800a870:	d904      	bls.n	800a87c <__ascii_wctomb+0x14>
 800a872:	228a      	movs	r2, #138	; 0x8a
 800a874:	f04f 30ff 	mov.w	r0, #4294967295	; 0xffffffff
 800a878:	601a      	str	r2, [r3, #0]
 800a87a:	4770      	bx	lr
 800a87c:	2001      	movs	r0, #1
 800a87e:	700a      	strb	r2, [r1, #0]
 800a880:	4770      	bx	lr
	...

0800a884 <__swsetup_r>:
 800a884:	4b32      	ldr	r3, [pc, #200]	; (800a950 <__swsetup_r+0xcc>)
 800a886:	b570      	push	{r4, r5, r6, lr}
 800a888:	681d      	ldr	r5, [r3, #0]
 800a88a:	4606      	mov	r6, r0
 800a88c:	460c      	mov	r4, r1
 800a88e:	b125      	cbz	r5, 800a89a <__swsetup_r+0x16>
 800a890:	69ab      	ldr	r3, [r5, #24]
 800a892:	b913      	cbnz	r3, 800a89a <__swsetup_r+0x16>
 800a894:	4628      	mov	r0, r5
 800a896:	f000 f985 	bl	800aba4 <__sinit>
 800a89a:	4b2e      	ldr	r3, [pc, #184]	; (800a954 <__swsetup_r+0xd0>)
 800a89c:	429c      	cmp	r4, r3
 800a89e:	d10f      	bne.n	800a8c0 <__swsetup_r+0x3c>
 800a8a0:	686c      	ldr	r4, [r5, #4]
 800a8a2:	89a3      	ldrh	r3, [r4, #12]
 800a8a4:	f9b4 200c 	ldrsh.w	r2, [r4, #12]
 800a8a8:	0719      	lsls	r1, r3, #28
 800a8aa:	d42c      	bmi.n	800a906 <__swsetup_r+0x82>
 800a8ac:	06dd      	lsls	r5, r3, #27
 800a8ae:	d411      	bmi.n	800a8d4 <__swsetup_r+0x50>
 800a8b0:	2309      	movs	r3, #9
 800a8b2:	6033      	str	r3, [r6, #0]
 800a8b4:	f042 0340 	orr.w	r3, r2, #64	; 0x40
 800a8b8:	f04f 30ff 	mov.w	r0, #4294967295	; 0xffffffff
 800a8bc:	81a3      	strh	r3, [r4, #12]
 800a8be:	e03e      	b.n	800a93e <__swsetup_r+0xba>
 800a8c0:	4b25      	ldr	r3, [pc, #148]	; (800a958 <__swsetup_r+0xd4>)
 800a8c2:	429c      	cmp	r4, r3
 800a8c4:	d101      	bne.n	800a8ca <__swsetup_r+0x46>
 800a8c6:	68ac      	ldr	r4, [r5, #8]
 800a8c8:	e7eb      	b.n	800a8a2 <__swsetup_r+0x1e>
 800a8ca:	4b24      	ldr	r3, [pc, #144]	; (800a95c <__swsetup_r+0xd8>)
 800a8cc:	429c      	cmp	r4, r3
 800a8ce:	bf08      	it	eq
 800a8d0:	68ec      	ldreq	r4, [r5, #12]
 800a8d2:	e7e6      	b.n	800a8a2 <__swsetup_r+0x1e>
 800a8d4:	0758      	lsls	r0, r3, #29
 800a8d6:	d512      	bpl.n	800a8fe <__swsetup_r+0x7a>
 800a8d8:	6b61      	ldr	r1, [r4, #52]	; 0x34
 800a8da:	b141      	cbz	r1, 800a8ee <__swsetup_r+0x6a>
 800a8dc:	f104 0344 	add.w	r3, r4, #68	; 0x44
 800a8e0:	4299      	cmp	r1, r3
 800a8e2:	d002      	beq.n	800a8ea <__swsetup_r+0x66>
 800a8e4:	4630      	mov	r0, r6
 800a8e6:	f7ff fb75 	bl	8009fd4 <_free_r>
 800a8ea:	2300      	movs	r3, #0
 800a8ec:	6363      	str	r3, [r4, #52]	; 0x34
 800a8ee:	89a3      	ldrh	r3, [r4, #12]
 800a8f0:	f023 0324 	bic.w	r3, r3, #36	; 0x24
 800a8f4:	81a3      	strh	r3, [r4, #12]
 800a8f6:	2300      	movs	r3, #0
 800a8f8:	6063      	str	r3, [r4, #4]
 800a8fa:	6923      	ldr	r3, [r4, #16]
 800a8fc:	6023      	str	r3, [r4, #0]
 800a8fe:	89a3      	ldrh	r3, [r4, #12]
 800a900:	f043 0308 	orr.w	r3, r3, #8
 800a904:	81a3      	strh	r3, [r4, #12]
 800a906:	6923      	ldr	r3, [r4, #16]
 800a908:	b94b      	cbnz	r3, 800a91e <__swsetup_r+0x9a>
 800a90a:	89a3      	ldrh	r3, [r4, #12]
 800a90c:	f403 7320 	and.w	r3, r3, #640	; 0x280
 800a910:	f5b3 7f00 	cmp.w	r3, #512	; 0x200
 800a914:	d003      	beq.n	800a91e <__swsetup_r+0x9a>
 800a916:	4621      	mov	r1, r4
 800a918:	4630      	mov	r0, r6
 800a91a:	f000 fa07 	bl	800ad2c <__smakebuf_r>
 800a91e:	89a0      	ldrh	r0, [r4, #12]
 800a920:	f9b4 200c 	ldrsh.w	r2, [r4, #12]
 800a924:	f010 0301 	ands.w	r3, r0, #1
 800a928:	d00a      	beq.n	800a940 <__swsetup_r+0xbc>
 800a92a:	2300      	movs	r3, #0
 800a92c:	60a3      	str	r3, [r4, #8]
 800a92e:	6963      	ldr	r3, [r4, #20]
 800a930:	425b      	negs	r3, r3
 800a932:	61a3      	str	r3, [r4, #24]
 800a934:	6923      	ldr	r3, [r4, #16]
 800a936:	b943      	cbnz	r3, 800a94a <__swsetup_r+0xc6>
 800a938:	f010 0080 	ands.w	r0, r0, #128	; 0x80
 800a93c:	d1ba      	bne.n	800a8b4 <__swsetup_r+0x30>
 800a93e:	bd70      	pop	{r4, r5, r6, pc}
 800a940:	0781      	lsls	r1, r0, #30
 800a942:	bf58      	it	pl
 800a944:	6963      	ldrpl	r3, [r4, #20]
 800a946:	60a3      	str	r3, [r4, #8]
 800a948:	e7f4      	b.n	800a934 <__swsetup_r+0xb0>
 800a94a:	2000      	movs	r0, #0
 800a94c:	e7f7      	b.n	800a93e <__swsetup_r+0xba>
 800a94e:	bf00      	nop
 800a950:	20000170 	.word	0x20000170
 800a954:	0800bdf4 	.word	0x0800bdf4
 800a958:	0800be14 	.word	0x0800be14
 800a95c:	0800bdd4 	.word	0x0800bdd4

0800a960 <abort>:
 800a960:	2006      	movs	r0, #6
 800a962:	b508      	push	{r3, lr}
 800a964:	f000 fa52 	bl	800ae0c <raise>
 800a968:	2001      	movs	r0, #1
 800a96a:	f7fa fc35 	bl	80051d8 <_exit>
	...

0800a970 <__sflush_r>:
 800a970:	898a      	ldrh	r2, [r1, #12]
 800a972:	e92d 41f0 	stmdb	sp!, {r4, r5, r6, r7, r8, lr}
 800a976:	4605      	mov	r5, r0
 800a978:	0710      	lsls	r0, r2, #28
 800a97a:	460c      	mov	r4, r1
 800a97c:	d458      	bmi.n	800aa30 <__sflush_r+0xc0>
 800a97e:	684b      	ldr	r3, [r1, #4]
 800a980:	2b00      	cmp	r3, #0
 800a982:	dc05      	bgt.n	800a990 <__sflush_r+0x20>
 800a984:	6c0b      	ldr	r3, [r1, #64]	; 0x40
 800a986:	2b00      	cmp	r3, #0
 800a988:	dc02      	bgt.n	800a990 <__sflush_r+0x20>
 800a98a:	2000      	movs	r0, #0
 800a98c:	e8bd 81f0 	ldmia.w	sp!, {r4, r5, r6, r7, r8, pc}
 800a990:	6ae6      	ldr	r6, [r4, #44]	; 0x2c
 800a992:	2e00      	cmp	r6, #0
 800a994:	d0f9      	beq.n	800a98a <__sflush_r+0x1a>
 800a996:	2300      	movs	r3, #0
 800a998:	f412 5280 	ands.w	r2, r2, #4096	; 0x1000
 800a99c:	682f      	ldr	r7, [r5, #0]
 800a99e:	602b      	str	r3, [r5, #0]
 800a9a0:	d032      	beq.n	800aa08 <__sflush_r+0x98>
 800a9a2:	6d60      	ldr	r0, [r4, #84]	; 0x54
 800a9a4:	89a3      	ldrh	r3, [r4, #12]
 800a9a6:	075a      	lsls	r2, r3, #29
 800a9a8:	d505      	bpl.n	800a9b6 <__sflush_r+0x46>
 800a9aa:	6863      	ldr	r3, [r4, #4]
 800a9ac:	1ac0      	subs	r0, r0, r3
 800a9ae:	6b63      	ldr	r3, [r4, #52]	; 0x34
 800a9b0:	b10b      	cbz	r3, 800a9b6 <__sflush_r+0x46>
 800a9b2:	6c23      	ldr	r3, [r4, #64]	; 0x40
 800a9b4:	1ac0      	subs	r0, r0, r3
 800a9b6:	2300      	movs	r3, #0
 800a9b8:	4602      	mov	r2, r0
 800a9ba:	6ae6      	ldr	r6, [r4, #44]	; 0x2c
 800a9bc:	4628      	mov	r0, r5
 800a9be:	6a21      	ldr	r1, [r4, #32]
 800a9c0:	47b0      	blx	r6
 800a9c2:	1c43      	adds	r3, r0, #1
 800a9c4:	89a3      	ldrh	r3, [r4, #12]
 800a9c6:	d106      	bne.n	800a9d6 <__sflush_r+0x66>
 800a9c8:	6829      	ldr	r1, [r5, #0]
 800a9ca:	291d      	cmp	r1, #29
 800a9cc:	d82c      	bhi.n	800aa28 <__sflush_r+0xb8>
 800a9ce:	4a2a      	ldr	r2, [pc, #168]	; (800aa78 <__sflush_r+0x108>)
 800a9d0:	40ca      	lsrs	r2, r1
 800a9d2:	07d6      	lsls	r6, r2, #31
 800a9d4:	d528      	bpl.n	800aa28 <__sflush_r+0xb8>
 800a9d6:	2200      	movs	r2, #0
 800a9d8:	6062      	str	r2, [r4, #4]
 800a9da:	6922      	ldr	r2, [r4, #16]
 800a9dc:	04d9      	lsls	r1, r3, #19
 800a9de:	6022      	str	r2, [r4, #0]
 800a9e0:	d504      	bpl.n	800a9ec <__sflush_r+0x7c>
 800a9e2:	1c42      	adds	r2, r0, #1
 800a9e4:	d101      	bne.n	800a9ea <__sflush_r+0x7a>
 800a9e6:	682b      	ldr	r3, [r5, #0]
 800a9e8:	b903      	cbnz	r3, 800a9ec <__sflush_r+0x7c>
 800a9ea:	6560      	str	r0, [r4, #84]	; 0x54
 800a9ec:	6b61      	ldr	r1, [r4, #52]	; 0x34
 800a9ee:	602f      	str	r7, [r5, #0]
 800a9f0:	2900      	cmp	r1, #0
 800a9f2:	d0ca      	beq.n	800a98a <__sflush_r+0x1a>
 800a9f4:	f104 0344 	add.w	r3, r4, #68	; 0x44
 800a9f8:	4299      	cmp	r1, r3
 800a9fa:	d002      	beq.n	800aa02 <__sflush_r+0x92>
 800a9fc:	4628      	mov	r0, r5
 800a9fe:	f7ff fae9 	bl	8009fd4 <_free_r>
 800aa02:	2000      	movs	r0, #0
 800aa04:	6360      	str	r0, [r4, #52]	; 0x34
 800aa06:	e7c1      	b.n	800a98c <__sflush_r+0x1c>
 800aa08:	6a21      	ldr	r1, [r4, #32]
 800aa0a:	2301      	movs	r3, #1
 800aa0c:	4628      	mov	r0, r5
 800aa0e:	47b0      	blx	r6
 800aa10:	1c41      	adds	r1, r0, #1
 800aa12:	d1c7      	bne.n	800a9a4 <__sflush_r+0x34>
 800aa14:	682b      	ldr	r3, [r5, #0]
 800aa16:	2b00      	cmp	r3, #0
 800aa18:	d0c4      	beq.n	800a9a4 <__sflush_r+0x34>
 800aa1a:	2b1d      	cmp	r3, #29
 800aa1c:	d001      	beq.n	800aa22 <__sflush_r+0xb2>
 800aa1e:	2b16      	cmp	r3, #22
 800aa20:	d101      	bne.n	800aa26 <__sflush_r+0xb6>
 800aa22:	602f      	str	r7, [r5, #0]
 800aa24:	e7b1      	b.n	800a98a <__sflush_r+0x1a>
 800aa26:	89a3      	ldrh	r3, [r4, #12]
 800aa28:	f043 0340 	orr.w	r3, r3, #64	; 0x40
 800aa2c:	81a3      	strh	r3, [r4, #12]
 800aa2e:	e7ad      	b.n	800a98c <__sflush_r+0x1c>
 800aa30:	690f      	ldr	r7, [r1, #16]
 800aa32:	2f00      	cmp	r7, #0
 800aa34:	d0a9      	beq.n	800a98a <__sflush_r+0x1a>
 800aa36:	0793      	lsls	r3, r2, #30
 800aa38:	bf18      	it	ne
 800aa3a:	2300      	movne	r3, #0
 800aa3c:	680e      	ldr	r6, [r1, #0]
 800aa3e:	bf08      	it	eq
 800aa40:	694b      	ldreq	r3, [r1, #20]
 800aa42:	eba6 0807 	sub.w	r8, r6, r7
 800aa46:	600f      	str	r7, [r1, #0]
 800aa48:	608b      	str	r3, [r1, #8]
 800aa4a:	f1b8 0f00 	cmp.w	r8, #0
 800aa4e:	dd9c      	ble.n	800a98a <__sflush_r+0x1a>
 800aa50:	4643      	mov	r3, r8
 800aa52:	463a      	mov	r2, r7
 800aa54:	4628      	mov	r0, r5
 800aa56:	6a21      	ldr	r1, [r4, #32]
 800aa58:	6aa6      	ldr	r6, [r4, #40]	; 0x28
 800aa5a:	47b0      	blx	r6
 800aa5c:	2800      	cmp	r0, #0
 800aa5e:	dc06      	bgt.n	800aa6e <__sflush_r+0xfe>
 800aa60:	89a3      	ldrh	r3, [r4, #12]
 800aa62:	f04f 30ff 	mov.w	r0, #4294967295	; 0xffffffff
 800aa66:	f043 0340 	orr.w	r3, r3, #64	; 0x40
 800aa6a:	81a3      	strh	r3, [r4, #12]
 800aa6c:	e78e      	b.n	800a98c <__sflush_r+0x1c>
 800aa6e:	4407      	add	r7, r0
 800aa70:	eba8 0800 	sub.w	r8, r8, r0
 800aa74:	e7e9      	b.n	800aa4a <__sflush_r+0xda>
 800aa76:	bf00      	nop
 800aa78:	20400001 	.word	0x20400001

0800aa7c <_fflush_r>:
 800aa7c:	b538      	push	{r3, r4, r5, lr}
 800aa7e:	690b      	ldr	r3, [r1, #16]
 800aa80:	4605      	mov	r5, r0
 800aa82:	460c      	mov	r4, r1
 800aa84:	b913      	cbnz	r3, 800aa8c <_fflush_r+0x10>
 800aa86:	2500      	movs	r5, #0
 800aa88:	4628      	mov	r0, r5
 800aa8a:	bd38      	pop	{r3, r4, r5, pc}
 800aa8c:	b118      	cbz	r0, 800aa96 <_fflush_r+0x1a>
 800aa8e:	6983      	ldr	r3, [r0, #24]
 800aa90:	b90b      	cbnz	r3, 800aa96 <_fflush_r+0x1a>
 800aa92:	f000 f887 	bl	800aba4 <__sinit>
 800aa96:	4b14      	ldr	r3, [pc, #80]	; (800aae8 <_fflush_r+0x6c>)
 800aa98:	429c      	cmp	r4, r3
 800aa9a:	d11b      	bne.n	800aad4 <_fflush_r+0x58>
 800aa9c:	686c      	ldr	r4, [r5, #4]
 800aa9e:	f9b4 300c 	ldrsh.w	r3, [r4, #12]
 800aaa2:	2b00      	cmp	r3, #0
 800aaa4:	d0ef      	beq.n	800aa86 <_fflush_r+0xa>
 800aaa6:	6e62      	ldr	r2, [r4, #100]	; 0x64
 800aaa8:	07d0      	lsls	r0, r2, #31
 800aaaa:	d404      	bmi.n	800aab6 <_fflush_r+0x3a>
 800aaac:	0599      	lsls	r1, r3, #22
 800aaae:	d402      	bmi.n	800aab6 <_fflush_r+0x3a>
 800aab0:	6da0      	ldr	r0, [r4, #88]	; 0x58
 800aab2:	f000 f915 	bl	800ace0 <__retarget_lock_acquire_recursive>
 800aab6:	4628      	mov	r0, r5
 800aab8:	4621      	mov	r1, r4
 800aaba:	f7ff ff59 	bl	800a970 <__sflush_r>
 800aabe:	6e63      	ldr	r3, [r4, #100]	; 0x64
 800aac0:	4605      	mov	r5, r0
 800aac2:	07da      	lsls	r2, r3, #31
 800aac4:	d4e0      	bmi.n	800aa88 <_fflush_r+0xc>
 800aac6:	89a3      	ldrh	r3, [r4, #12]
 800aac8:	059b      	lsls	r3, r3, #22
 800aaca:	d4dd      	bmi.n	800aa88 <_fflush_r+0xc>
 800aacc:	6da0      	ldr	r0, [r4, #88]	; 0x58
 800aace:	f000 f908 	bl	800ace2 <__retarget_lock_release_recursive>
 800aad2:	e7d9      	b.n	800aa88 <_fflush_r+0xc>
 800aad4:	4b05      	ldr	r3, [pc, #20]	; (800aaec <_fflush_r+0x70>)
 800aad6:	429c      	cmp	r4, r3
 800aad8:	d101      	bne.n	800aade <_fflush_r+0x62>
 800aada:	68ac      	ldr	r4, [r5, #8]
 800aadc:	e7df      	b.n	800aa9e <_fflush_r+0x22>
 800aade:	4b04      	ldr	r3, [pc, #16]	; (800aaf0 <_fflush_r+0x74>)
 800aae0:	429c      	cmp	r4, r3
 800aae2:	bf08      	it	eq
 800aae4:	68ec      	ldreq	r4, [r5, #12]
 800aae6:	e7da      	b.n	800aa9e <_fflush_r+0x22>
 800aae8:	0800bdf4 	.word	0x0800bdf4
 800aaec:	0800be14 	.word	0x0800be14
 800aaf0:	0800bdd4 	.word	0x0800bdd4

0800aaf4 <std>:
 800aaf4:	2300      	movs	r3, #0
 800aaf6:	b510      	push	{r4, lr}
 800aaf8:	4604      	mov	r4, r0
 800aafa:	e9c0 3300 	strd	r3, r3, [r0]
 800aafe:	e9c0 3304 	strd	r3, r3, [r0, #16]
 800ab02:	6083      	str	r3, [r0, #8]
 800ab04:	8181      	strh	r1, [r0, #12]
 800ab06:	6643      	str	r3, [r0, #100]	; 0x64
 800ab08:	81c2      	strh	r2, [r0, #14]
 800ab0a:	6183      	str	r3, [r0, #24]
 800ab0c:	4619      	mov	r1, r3
 800ab0e:	2208      	movs	r2, #8
 800ab10:	305c      	adds	r0, #92	; 0x5c
 800ab12:	f7fd fb99 	bl	8008248 <memset>
 800ab16:	4b05      	ldr	r3, [pc, #20]	; (800ab2c <std+0x38>)
 800ab18:	6224      	str	r4, [r4, #32]
 800ab1a:	6263      	str	r3, [r4, #36]	; 0x24
 800ab1c:	4b04      	ldr	r3, [pc, #16]	; (800ab30 <std+0x3c>)
 800ab1e:	62a3      	str	r3, [r4, #40]	; 0x28
 800ab20:	4b04      	ldr	r3, [pc, #16]	; (800ab34 <std+0x40>)
 800ab22:	62e3      	str	r3, [r4, #44]	; 0x2c
 800ab24:	4b04      	ldr	r3, [pc, #16]	; (800ab38 <std+0x44>)
 800ab26:	6323      	str	r3, [r4, #48]	; 0x30
 800ab28:	bd10      	pop	{r4, pc}
 800ab2a:	bf00      	nop
 800ab2c:	0800ae45 	.word	0x0800ae45
 800ab30:	0800ae67 	.word	0x0800ae67
 800ab34:	0800ae9f 	.word	0x0800ae9f
 800ab38:	0800aec3 	.word	0x0800aec3

0800ab3c <_cleanup_r>:
 800ab3c:	4901      	ldr	r1, [pc, #4]	; (800ab44 <_cleanup_r+0x8>)
 800ab3e:	f000 b8af 	b.w	800aca0 <_fwalk_reent>
 800ab42:	bf00      	nop
 800ab44:	0800aa7d 	.word	0x0800aa7d

0800ab48 <__sfmoreglue>:
 800ab48:	b570      	push	{r4, r5, r6, lr}
 800ab4a:	2568      	movs	r5, #104	; 0x68
 800ab4c:	1e4a      	subs	r2, r1, #1
 800ab4e:	4355      	muls	r5, r2
 800ab50:	460e      	mov	r6, r1
 800ab52:	f105 0174 	add.w	r1, r5, #116	; 0x74
 800ab56:	f7ff fa89 	bl	800a06c <_malloc_r>
 800ab5a:	4604      	mov	r4, r0
 800ab5c:	b140      	cbz	r0, 800ab70 <__sfmoreglue+0x28>
 800ab5e:	2100      	movs	r1, #0
 800ab60:	e9c0 1600 	strd	r1, r6, [r0]
 800ab64:	300c      	adds	r0, #12
 800ab66:	60a0      	str	r0, [r4, #8]
 800ab68:	f105 0268 	add.w	r2, r5, #104	; 0x68
 800ab6c:	f7fd fb6c 	bl	8008248 <memset>
 800ab70:	4620      	mov	r0, r4
 800ab72:	bd70      	pop	{r4, r5, r6, pc}

0800ab74 <__sfp_lock_acquire>:
 800ab74:	4801      	ldr	r0, [pc, #4]	; (800ab7c <__sfp_lock_acquire+0x8>)
 800ab76:	f000 b8b3 	b.w	800ace0 <__retarget_lock_acquire_recursive>
 800ab7a:	bf00      	nop
 800ab7c:	20001474 	.word	0x20001474

0800ab80 <__sfp_lock_release>:
 800ab80:	4801      	ldr	r0, [pc, #4]	; (800ab88 <__sfp_lock_release+0x8>)
 800ab82:	f000 b8ae 	b.w	800ace2 <__retarget_lock_release_recursive>
 800ab86:	bf00      	nop
 800ab88:	20001474 	.word	0x20001474

0800ab8c <__sinit_lock_acquire>:
 800ab8c:	4801      	ldr	r0, [pc, #4]	; (800ab94 <__sinit_lock_acquire+0x8>)
 800ab8e:	f000 b8a7 	b.w	800ace0 <__retarget_lock_acquire_recursive>
 800ab92:	bf00      	nop
 800ab94:	2000146f 	.word	0x2000146f

0800ab98 <__sinit_lock_release>:
 800ab98:	4801      	ldr	r0, [pc, #4]	; (800aba0 <__sinit_lock_release+0x8>)
 800ab9a:	f000 b8a2 	b.w	800ace2 <__retarget_lock_release_recursive>
 800ab9e:	bf00      	nop
 800aba0:	2000146f 	.word	0x2000146f

0800aba4 <__sinit>:
 800aba4:	b510      	push	{r4, lr}
 800aba6:	4604      	mov	r4, r0
 800aba8:	f7ff fff0 	bl	800ab8c <__sinit_lock_acquire>
 800abac:	69a3      	ldr	r3, [r4, #24]
 800abae:	b11b      	cbz	r3, 800abb8 <__sinit+0x14>
 800abb0:	e8bd 4010 	ldmia.w	sp!, {r4, lr}
 800abb4:	f7ff bff0 	b.w	800ab98 <__sinit_lock_release>
 800abb8:	e9c4 3312 	strd	r3, r3, [r4, #72]	; 0x48
 800abbc:	6523      	str	r3, [r4, #80]	; 0x50
 800abbe:	4b13      	ldr	r3, [pc, #76]	; (800ac0c <__sinit+0x68>)
 800abc0:	4a13      	ldr	r2, [pc, #76]	; (800ac10 <__sinit+0x6c>)
 800abc2:	681b      	ldr	r3, [r3, #0]
 800abc4:	62a2      	str	r2, [r4, #40]	; 0x28
 800abc6:	42a3      	cmp	r3, r4
 800abc8:	bf08      	it	eq
 800abca:	2301      	moveq	r3, #1
 800abcc:	4620      	mov	r0, r4
 800abce:	bf08      	it	eq
 800abd0:	61a3      	streq	r3, [r4, #24]
 800abd2:	f000 f81f 	bl	800ac14 <__sfp>
 800abd6:	6060      	str	r0, [r4, #4]
 800abd8:	4620      	mov	r0, r4
 800abda:	f000 f81b 	bl	800ac14 <__sfp>
 800abde:	60a0      	str	r0, [r4, #8]
 800abe0:	4620      	mov	r0, r4
 800abe2:	f000 f817 	bl	800ac14 <__sfp>
 800abe6:	2200      	movs	r2, #0
 800abe8:	2104      	movs	r1, #4
 800abea:	60e0      	str	r0, [r4, #12]
 800abec:	6860      	ldr	r0, [r4, #4]
 800abee:	f7ff ff81 	bl	800aaf4 <std>
 800abf2:	2201      	movs	r2, #1
 800abf4:	2109      	movs	r1, #9
 800abf6:	68a0      	ldr	r0, [r4, #8]
 800abf8:	f7ff ff7c 	bl	800aaf4 <std>
 800abfc:	2202      	movs	r2, #2
 800abfe:	2112      	movs	r1, #18
 800ac00:	68e0      	ldr	r0, [r4, #12]
 800ac02:	f7ff ff77 	bl	800aaf4 <std>
 800ac06:	2301      	movs	r3, #1
 800ac08:	61a3      	str	r3, [r4, #24]
 800ac0a:	e7d1      	b.n	800abb0 <__sinit+0xc>
 800ac0c:	0800ba50 	.word	0x0800ba50
 800ac10:	0800ab3d 	.word	0x0800ab3d

0800ac14 <__sfp>:
 800ac14:	b5f8      	push	{r3, r4, r5, r6, r7, lr}
 800ac16:	4607      	mov	r7, r0
 800ac18:	f7ff ffac 	bl	800ab74 <__sfp_lock_acquire>
 800ac1c:	4b1e      	ldr	r3, [pc, #120]	; (800ac98 <__sfp+0x84>)
 800ac1e:	681e      	ldr	r6, [r3, #0]
 800ac20:	69b3      	ldr	r3, [r6, #24]
 800ac22:	b913      	cbnz	r3, 800ac2a <__sfp+0x16>
 800ac24:	4630      	mov	r0, r6
 800ac26:	f7ff ffbd 	bl	800aba4 <__sinit>
 800ac2a:	3648      	adds	r6, #72	; 0x48
 800ac2c:	e9d6 3401 	ldrd	r3, r4, [r6, #4]
 800ac30:	3b01      	subs	r3, #1
 800ac32:	d503      	bpl.n	800ac3c <__sfp+0x28>
 800ac34:	6833      	ldr	r3, [r6, #0]
 800ac36:	b30b      	cbz	r3, 800ac7c <__sfp+0x68>
 800ac38:	6836      	ldr	r6, [r6, #0]
 800ac3a:	e7f7      	b.n	800ac2c <__sfp+0x18>
 800ac3c:	f9b4 500c 	ldrsh.w	r5, [r4, #12]
 800ac40:	b9d5      	cbnz	r5, 800ac78 <__sfp+0x64>
 800ac42:	4b16      	ldr	r3, [pc, #88]	; (800ac9c <__sfp+0x88>)
 800ac44:	f104 0058 	add.w	r0, r4, #88	; 0x58
 800ac48:	60e3      	str	r3, [r4, #12]
 800ac4a:	6665      	str	r5, [r4, #100]	; 0x64
 800ac4c:	f000 f847 	bl	800acde <__retarget_lock_init_recursive>
 800ac50:	f7ff ff96 	bl	800ab80 <__sfp_lock_release>
 800ac54:	2208      	movs	r2, #8
 800ac56:	4629      	mov	r1, r5
 800ac58:	e9c4 5501 	strd	r5, r5, [r4, #4]
 800ac5c:	e9c4 5504 	strd	r5, r5, [r4, #16]
 800ac60:	6025      	str	r5, [r4, #0]
 800ac62:	61a5      	str	r5, [r4, #24]
 800ac64:	f104 005c 	add.w	r0, r4, #92	; 0x5c
 800ac68:	f7fd faee 	bl	8008248 <memset>
 800ac6c:	e9c4 550d 	strd	r5, r5, [r4, #52]	; 0x34
 800ac70:	e9c4 5512 	strd	r5, r5, [r4, #72]	; 0x48
 800ac74:	4620      	mov	r0, r4
 800ac76:	bdf8      	pop	{r3, r4, r5, r6, r7, pc}
 800ac78:	3468      	adds	r4, #104	; 0x68
 800ac7a:	e7d9      	b.n	800ac30 <__sfp+0x1c>
 800ac7c:	2104      	movs	r1, #4
 800ac7e:	4638      	mov	r0, r7
 800ac80:	f7ff ff62 	bl	800ab48 <__sfmoreglue>
 800ac84:	4604      	mov	r4, r0
 800ac86:	6030      	str	r0, [r6, #0]
 800ac88:	2800      	cmp	r0, #0
 800ac8a:	d1d5      	bne.n	800ac38 <__sfp+0x24>
 800ac8c:	f7ff ff78 	bl	800ab80 <__sfp_lock_release>
 800ac90:	230c      	movs	r3, #12
 800ac92:	603b      	str	r3, [r7, #0]
 800ac94:	e7ee      	b.n	800ac74 <__sfp+0x60>
 800ac96:	bf00      	nop
 800ac98:	0800ba50 	.word	0x0800ba50
 800ac9c:	ffff0001 	.word	0xffff0001

0800aca0 <_fwalk_reent>:
 800aca0:	e92d 43f8 	stmdb	sp!, {r3, r4, r5, r6, r7, r8, r9, lr}
 800aca4:	4606      	mov	r6, r0
 800aca6:	4688      	mov	r8, r1
 800aca8:	2700      	movs	r7, #0
 800acaa:	f100 0448 	add.w	r4, r0, #72	; 0x48
 800acae:	e9d4 9501 	ldrd	r9, r5, [r4, #4]
 800acb2:	f1b9 0901 	subs.w	r9, r9, #1
 800acb6:	d505      	bpl.n	800acc4 <_fwalk_reent+0x24>
 800acb8:	6824      	ldr	r4, [r4, #0]
 800acba:	2c00      	cmp	r4, #0
 800acbc:	d1f7      	bne.n	800acae <_fwalk_reent+0xe>
 800acbe:	4638      	mov	r0, r7
 800acc0:	e8bd 83f8 	ldmia.w	sp!, {r3, r4, r5, r6, r7, r8, r9, pc}
 800acc4:	89ab      	ldrh	r3, [r5, #12]
 800acc6:	2b01      	cmp	r3, #1
 800acc8:	d907      	bls.n	800acda <_fwalk_reent+0x3a>
 800acca:	f9b5 300e 	ldrsh.w	r3, [r5, #14]
 800acce:	3301      	adds	r3, #1
 800acd0:	d003      	beq.n	800acda <_fwalk_reent+0x3a>
 800acd2:	4629      	mov	r1, r5
 800acd4:	4630      	mov	r0, r6
 800acd6:	47c0      	blx	r8
 800acd8:	4307      	orrs	r7, r0
 800acda:	3568      	adds	r5, #104	; 0x68
 800acdc:	e7e9      	b.n	800acb2 <_fwalk_reent+0x12>

0800acde <__retarget_lock_init_recursive>:
 800acde:	4770      	bx	lr

0800ace0 <__retarget_lock_acquire_recursive>:
 800ace0:	4770      	bx	lr

0800ace2 <__retarget_lock_release_recursive>:
 800ace2:	4770      	bx	lr

0800ace4 <__swhatbuf_r>:
 800ace4:	b570      	push	{r4, r5, r6, lr}
 800ace6:	460e      	mov	r6, r1
 800ace8:	f9b1 100e 	ldrsh.w	r1, [r1, #14]
 800acec:	4614      	mov	r4, r2
 800acee:	2900      	cmp	r1, #0
 800acf0:	461d      	mov	r5, r3
 800acf2:	b096      	sub	sp, #88	; 0x58
 800acf4:	da07      	bge.n	800ad06 <__swhatbuf_r+0x22>
 800acf6:	2300      	movs	r3, #0
 800acf8:	602b      	str	r3, [r5, #0]
 800acfa:	89b3      	ldrh	r3, [r6, #12]
 800acfc:	061a      	lsls	r2, r3, #24
 800acfe:	d410      	bmi.n	800ad22 <__swhatbuf_r+0x3e>
 800ad00:	f44f 6380 	mov.w	r3, #1024	; 0x400
 800ad04:	e00e      	b.n	800ad24 <__swhatbuf_r+0x40>
 800ad06:	466a      	mov	r2, sp
 800ad08:	f000 f902 	bl	800af10 <_fstat_r>
 800ad0c:	2800      	cmp	r0, #0
 800ad0e:	dbf2      	blt.n	800acf6 <__swhatbuf_r+0x12>
 800ad10:	9a01      	ldr	r2, [sp, #4]
 800ad12:	f402 4270 	and.w	r2, r2, #61440	; 0xf000
 800ad16:	f5a2 5300 	sub.w	r3, r2, #8192	; 0x2000
 800ad1a:	425a      	negs	r2, r3
 800ad1c:	415a      	adcs	r2, r3
 800ad1e:	602a      	str	r2, [r5, #0]
 800ad20:	e7ee      	b.n	800ad00 <__swhatbuf_r+0x1c>
 800ad22:	2340      	movs	r3, #64	; 0x40
 800ad24:	2000      	movs	r0, #0
 800ad26:	6023      	str	r3, [r4, #0]
 800ad28:	b016      	add	sp, #88	; 0x58
 800ad2a:	bd70      	pop	{r4, r5, r6, pc}

0800ad2c <__smakebuf_r>:
 800ad2c:	898b      	ldrh	r3, [r1, #12]
 800ad2e:	b573      	push	{r0, r1, r4, r5, r6, lr}
 800ad30:	079d      	lsls	r5, r3, #30
 800ad32:	4606      	mov	r6, r0
 800ad34:	460c      	mov	r4, r1
 800ad36:	d507      	bpl.n	800ad48 <__smakebuf_r+0x1c>
 800ad38:	f104 0347 	add.w	r3, r4, #71	; 0x47
 800ad3c:	6023      	str	r3, [r4, #0]
 800ad3e:	6123      	str	r3, [r4, #16]
 800ad40:	2301      	movs	r3, #1
 800ad42:	6163      	str	r3, [r4, #20]
 800ad44:	b002      	add	sp, #8
 800ad46:	bd70      	pop	{r4, r5, r6, pc}
 800ad48:	466a      	mov	r2, sp
 800ad4a:	ab01      	add	r3, sp, #4
 800ad4c:	f7ff ffca 	bl	800ace4 <__swhatbuf_r>
 800ad50:	9900      	ldr	r1, [sp, #0]
 800ad52:	4605      	mov	r5, r0
 800ad54:	4630      	mov	r0, r6
 800ad56:	f7ff f989 	bl	800a06c <_malloc_r>
 800ad5a:	b948      	cbnz	r0, 800ad70 <__smakebuf_r+0x44>
 800ad5c:	f9b4 300c 	ldrsh.w	r3, [r4, #12]
 800ad60:	059a      	lsls	r2, r3, #22
 800ad62:	d4ef      	bmi.n	800ad44 <__smakebuf_r+0x18>
 800ad64:	f023 0303 	bic.w	r3, r3, #3
 800ad68:	f043 0302 	orr.w	r3, r3, #2
 800ad6c:	81a3      	strh	r3, [r4, #12]
 800ad6e:	e7e3      	b.n	800ad38 <__smakebuf_r+0xc>
 800ad70:	4b0d      	ldr	r3, [pc, #52]	; (800ada8 <__smakebuf_r+0x7c>)
 800ad72:	62b3      	str	r3, [r6, #40]	; 0x28
 800ad74:	89a3      	ldrh	r3, [r4, #12]
 800ad76:	6020      	str	r0, [r4, #0]
 800ad78:	f043 0380 	orr.w	r3, r3, #128	; 0x80
 800ad7c:	81a3      	strh	r3, [r4, #12]
 800ad7e:	9b00      	ldr	r3, [sp, #0]
 800ad80:	6120      	str	r0, [r4, #16]
 800ad82:	6163      	str	r3, [r4, #20]
 800ad84:	9b01      	ldr	r3, [sp, #4]
 800ad86:	b15b      	cbz	r3, 800ada0 <__smakebuf_r+0x74>
 800ad88:	4630      	mov	r0, r6
 800ad8a:	f9b4 100e 	ldrsh.w	r1, [r4, #14]
 800ad8e:	f000 f8d1 	bl	800af34 <_isatty_r>
 800ad92:	b128      	cbz	r0, 800ada0 <__smakebuf_r+0x74>
 800ad94:	89a3      	ldrh	r3, [r4, #12]
 800ad96:	f023 0303 	bic.w	r3, r3, #3
 800ad9a:	f043 0301 	orr.w	r3, r3, #1
 800ad9e:	81a3      	strh	r3, [r4, #12]
 800ada0:	89a0      	ldrh	r0, [r4, #12]
 800ada2:	4305      	orrs	r5, r0
 800ada4:	81a5      	strh	r5, [r4, #12]
 800ada6:	e7cd      	b.n	800ad44 <__smakebuf_r+0x18>
 800ada8:	0800ab3d 	.word	0x0800ab3d

0800adac <_malloc_usable_size_r>:
 800adac:	f851 3c04 	ldr.w	r3, [r1, #-4]
 800adb0:	1f18      	subs	r0, r3, #4
 800adb2:	2b00      	cmp	r3, #0
 800adb4:	bfbc      	itt	lt
 800adb6:	580b      	ldrlt	r3, [r1, r0]
 800adb8:	18c0      	addlt	r0, r0, r3
 800adba:	4770      	bx	lr

0800adbc <_raise_r>:
 800adbc:	291f      	cmp	r1, #31
 800adbe:	b538      	push	{r3, r4, r5, lr}
 800adc0:	4604      	mov	r4, r0
 800adc2:	460d      	mov	r5, r1
 800adc4:	d904      	bls.n	800add0 <_raise_r+0x14>
 800adc6:	2316      	movs	r3, #22
 800adc8:	6003      	str	r3, [r0, #0]
 800adca:	f04f 30ff 	mov.w	r0, #4294967295	; 0xffffffff
 800adce:	bd38      	pop	{r3, r4, r5, pc}
 800add0:	6c42      	ldr	r2, [r0, #68]	; 0x44
 800add2:	b112      	cbz	r2, 800adda <_raise_r+0x1e>
 800add4:	f852 3021 	ldr.w	r3, [r2, r1, lsl #2]
 800add8:	b94b      	cbnz	r3, 800adee <_raise_r+0x32>
 800adda:	4620      	mov	r0, r4
 800addc:	f000 f830 	bl	800ae40 <_getpid_r>
 800ade0:	462a      	mov	r2, r5
 800ade2:	4601      	mov	r1, r0
 800ade4:	4620      	mov	r0, r4
 800ade6:	e8bd 4038 	ldmia.w	sp!, {r3, r4, r5, lr}
 800adea:	f000 b817 	b.w	800ae1c <_kill_r>
 800adee:	2b01      	cmp	r3, #1
 800adf0:	d00a      	beq.n	800ae08 <_raise_r+0x4c>
 800adf2:	1c59      	adds	r1, r3, #1
 800adf4:	d103      	bne.n	800adfe <_raise_r+0x42>
 800adf6:	2316      	movs	r3, #22
 800adf8:	6003      	str	r3, [r0, #0]
 800adfa:	2001      	movs	r0, #1
 800adfc:	e7e7      	b.n	800adce <_raise_r+0x12>
 800adfe:	2400      	movs	r4, #0
 800ae00:	4628      	mov	r0, r5
 800ae02:	f842 4025 	str.w	r4, [r2, r5, lsl #2]
 800ae06:	4798      	blx	r3
 800ae08:	2000      	movs	r0, #0
 800ae0a:	e7e0      	b.n	800adce <_raise_r+0x12>

0800ae0c <raise>:
 800ae0c:	4b02      	ldr	r3, [pc, #8]	; (800ae18 <raise+0xc>)
 800ae0e:	4601      	mov	r1, r0
 800ae10:	6818      	ldr	r0, [r3, #0]
 800ae12:	f7ff bfd3 	b.w	800adbc <_raise_r>
 800ae16:	bf00      	nop
 800ae18:	20000170 	.word	0x20000170

0800ae1c <_kill_r>:
 800ae1c:	b538      	push	{r3, r4, r5, lr}
 800ae1e:	2300      	movs	r3, #0
 800ae20:	4d06      	ldr	r5, [pc, #24]	; (800ae3c <_kill_r+0x20>)
 800ae22:	4604      	mov	r4, r0
 800ae24:	4608      	mov	r0, r1
 800ae26:	4611      	mov	r1, r2
 800ae28:	602b      	str	r3, [r5, #0]
 800ae2a:	f7fa f9cd 	bl	80051c8 <_kill>
 800ae2e:	1c43      	adds	r3, r0, #1
 800ae30:	d102      	bne.n	800ae38 <_kill_r+0x1c>
 800ae32:	682b      	ldr	r3, [r5, #0]
 800ae34:	b103      	cbz	r3, 800ae38 <_kill_r+0x1c>
 800ae36:	6023      	str	r3, [r4, #0]
 800ae38:	bd38      	pop	{r3, r4, r5, pc}
 800ae3a:	bf00      	nop
 800ae3c:	20001468 	.word	0x20001468

0800ae40 <_getpid_r>:
 800ae40:	f7fa b9c0 	b.w	80051c4 <_getpid>

0800ae44 <__sread>:
 800ae44:	b510      	push	{r4, lr}
 800ae46:	460c      	mov	r4, r1
 800ae48:	f9b1 100e 	ldrsh.w	r1, [r1, #14]
 800ae4c:	f000 f894 	bl	800af78 <_read_r>
 800ae50:	2800      	cmp	r0, #0
 800ae52:	bfab      	itete	ge
 800ae54:	6d63      	ldrge	r3, [r4, #84]	; 0x54
 800ae56:	89a3      	ldrhlt	r3, [r4, #12]
 800ae58:	181b      	addge	r3, r3, r0
 800ae5a:	f423 5380 	biclt.w	r3, r3, #4096	; 0x1000
 800ae5e:	bfac      	ite	ge
 800ae60:	6563      	strge	r3, [r4, #84]	; 0x54
 800ae62:	81a3      	strhlt	r3, [r4, #12]
 800ae64:	bd10      	pop	{r4, pc}

0800ae66 <__swrite>:
 800ae66:	e92d 41f0 	stmdb	sp!, {r4, r5, r6, r7, r8, lr}
 800ae6a:	461f      	mov	r7, r3
 800ae6c:	898b      	ldrh	r3, [r1, #12]
 800ae6e:	4605      	mov	r5, r0
 800ae70:	05db      	lsls	r3, r3, #23
 800ae72:	460c      	mov	r4, r1
 800ae74:	4616      	mov	r6, r2
 800ae76:	d505      	bpl.n	800ae84 <__swrite+0x1e>
 800ae78:	2302      	movs	r3, #2
 800ae7a:	2200      	movs	r2, #0
 800ae7c:	f9b1 100e 	ldrsh.w	r1, [r1, #14]
 800ae80:	f000 f868 	bl	800af54 <_lseek_r>
 800ae84:	89a3      	ldrh	r3, [r4, #12]
 800ae86:	4632      	mov	r2, r6
 800ae88:	f423 5380 	bic.w	r3, r3, #4096	; 0x1000
 800ae8c:	81a3      	strh	r3, [r4, #12]
 800ae8e:	4628      	mov	r0, r5
 800ae90:	463b      	mov	r3, r7
 800ae92:	f9b4 100e 	ldrsh.w	r1, [r4, #14]
 800ae96:	e8bd 41f0 	ldmia.w	sp!, {r4, r5, r6, r7, r8, lr}
 800ae9a:	f000 b817 	b.w	800aecc <_write_r>

0800ae9e <__sseek>:
 800ae9e:	b510      	push	{r4, lr}
 800aea0:	460c      	mov	r4, r1
 800aea2:	f9b1 100e 	ldrsh.w	r1, [r1, #14]
 800aea6:	f000 f855 	bl	800af54 <_lseek_r>
 800aeaa:	1c43      	adds	r3, r0, #1
 800aeac:	89a3      	ldrh	r3, [r4, #12]
 800aeae:	bf15      	itete	ne
 800aeb0:	6560      	strne	r0, [r4, #84]	; 0x54
 800aeb2:	f423 5380 	biceq.w	r3, r3, #4096	; 0x1000
 800aeb6:	f443 5380 	orrne.w	r3, r3, #4096	; 0x1000
 800aeba:	81a3      	strheq	r3, [r4, #12]
 800aebc:	bf18      	it	ne
 800aebe:	81a3      	strhne	r3, [r4, #12]
 800aec0:	bd10      	pop	{r4, pc}

0800aec2 <__sclose>:
 800aec2:	f9b1 100e 	ldrsh.w	r1, [r1, #14]
 800aec6:	f000 b813 	b.w	800aef0 <_close_r>
	...

0800aecc <_write_r>:
 800aecc:	b538      	push	{r3, r4, r5, lr}
 800aece:	4604      	mov	r4, r0
 800aed0:	4608      	mov	r0, r1
 800aed2:	4611      	mov	r1, r2
 800aed4:	2200      	movs	r2, #0
 800aed6:	4d05      	ldr	r5, [pc, #20]	; (800aeec <_write_r+0x20>)
 800aed8:	602a      	str	r2, [r5, #0]
 800aeda:	461a      	mov	r2, r3
 800aedc:	f7fa f98f 	bl	80051fe <_write>
 800aee0:	1c43      	adds	r3, r0, #1
 800aee2:	d102      	bne.n	800aeea <_write_r+0x1e>
 800aee4:	682b      	ldr	r3, [r5, #0]
 800aee6:	b103      	cbz	r3, 800aeea <_write_r+0x1e>
 800aee8:	6023      	str	r3, [r4, #0]
 800aeea:	bd38      	pop	{r3, r4, r5, pc}
 800aeec:	20001468 	.word	0x20001468

0800aef0 <_close_r>:
 800aef0:	b538      	push	{r3, r4, r5, lr}
 800aef2:	2300      	movs	r3, #0
 800aef4:	4d05      	ldr	r5, [pc, #20]	; (800af0c <_close_r+0x1c>)
 800aef6:	4604      	mov	r4, r0
 800aef8:	4608      	mov	r0, r1
 800aefa:	602b      	str	r3, [r5, #0]
 800aefc:	f7fa f98c 	bl	8005218 <_close>
 800af00:	1c43      	adds	r3, r0, #1
 800af02:	d102      	bne.n	800af0a <_close_r+0x1a>
 800af04:	682b      	ldr	r3, [r5, #0]
 800af06:	b103      	cbz	r3, 800af0a <_close_r+0x1a>
 800af08:	6023      	str	r3, [r4, #0]
 800af0a:	bd38      	pop	{r3, r4, r5, pc}
 800af0c:	20001468 	.word	0x20001468

0800af10 <_fstat_r>:
 800af10:	b538      	push	{r3, r4, r5, lr}
 800af12:	2300      	movs	r3, #0
 800af14:	4d06      	ldr	r5, [pc, #24]	; (800af30 <_fstat_r+0x20>)
 800af16:	4604      	mov	r4, r0
 800af18:	4608      	mov	r0, r1
 800af1a:	4611      	mov	r1, r2
 800af1c:	602b      	str	r3, [r5, #0]
 800af1e:	f7fa f97e 	bl	800521e <_fstat>
 800af22:	1c43      	adds	r3, r0, #1
 800af24:	d102      	bne.n	800af2c <_fstat_r+0x1c>
 800af26:	682b      	ldr	r3, [r5, #0]
 800af28:	b103      	cbz	r3, 800af2c <_fstat_r+0x1c>
 800af2a:	6023      	str	r3, [r4, #0]
 800af2c:	bd38      	pop	{r3, r4, r5, pc}
 800af2e:	bf00      	nop
 800af30:	20001468 	.word	0x20001468

0800af34 <_isatty_r>:
 800af34:	b538      	push	{r3, r4, r5, lr}
 800af36:	2300      	movs	r3, #0
 800af38:	4d05      	ldr	r5, [pc, #20]	; (800af50 <_isatty_r+0x1c>)
 800af3a:	4604      	mov	r4, r0
 800af3c:	4608      	mov	r0, r1
 800af3e:	602b      	str	r3, [r5, #0]
 800af40:	f7fa f972 	bl	8005228 <_isatty>
 800af44:	1c43      	adds	r3, r0, #1
 800af46:	d102      	bne.n	800af4e <_isatty_r+0x1a>
 800af48:	682b      	ldr	r3, [r5, #0]
 800af4a:	b103      	cbz	r3, 800af4e <_isatty_r+0x1a>
 800af4c:	6023      	str	r3, [r4, #0]
 800af4e:	bd38      	pop	{r3, r4, r5, pc}
 800af50:	20001468 	.word	0x20001468

0800af54 <_lseek_r>:
 800af54:	b538      	push	{r3, r4, r5, lr}
 800af56:	4604      	mov	r4, r0
 800af58:	4608      	mov	r0, r1
 800af5a:	4611      	mov	r1, r2
 800af5c:	2200      	movs	r2, #0
 800af5e:	4d05      	ldr	r5, [pc, #20]	; (800af74 <_lseek_r+0x20>)
 800af60:	602a      	str	r2, [r5, #0]
 800af62:	461a      	mov	r2, r3
 800af64:	f7fa f962 	bl	800522c <_lseek>
 800af68:	1c43      	adds	r3, r0, #1
 800af6a:	d102      	bne.n	800af72 <_lseek_r+0x1e>
 800af6c:	682b      	ldr	r3, [r5, #0]
 800af6e:	b103      	cbz	r3, 800af72 <_lseek_r+0x1e>
 800af70:	6023      	str	r3, [r4, #0]
 800af72:	bd38      	pop	{r3, r4, r5, pc}
 800af74:	20001468 	.word	0x20001468

0800af78 <_read_r>:
 800af78:	b538      	push	{r3, r4, r5, lr}
 800af7a:	4604      	mov	r4, r0
 800af7c:	4608      	mov	r0, r1
 800af7e:	4611      	mov	r1, r2
 800af80:	2200      	movs	r2, #0
 800af82:	4d05      	ldr	r5, [pc, #20]	; (800af98 <_read_r+0x20>)
 800af84:	602a      	str	r2, [r5, #0]
 800af86:	461a      	mov	r2, r3
 800af88:	f7fa f92c 	bl	80051e4 <_read>
 800af8c:	1c43      	adds	r3, r0, #1
 800af8e:	d102      	bne.n	800af96 <_read_r+0x1e>
 800af90:	682b      	ldr	r3, [r5, #0]
 800af92:	b103      	cbz	r3, 800af96 <_read_r+0x1e>
 800af94:	6023      	str	r3, [r4, #0]
 800af96:	bd38      	pop	{r3, r4, r5, pc}
 800af98:	20001468 	.word	0x20001468

0800af9c <acos>:
 800af9c:	b5f8      	push	{r3, r4, r5, r6, r7, lr}
 800af9e:	4604      	mov	r4, r0
 800afa0:	460d      	mov	r5, r1
 800afa2:	f000 f855 	bl	800b050 <__ieee754_acos>
 800afa6:	4b11      	ldr	r3, [pc, #68]	; (800afec <acos+0x50>)
 800afa8:	4606      	mov	r6, r0
 800afaa:	f993 3000 	ldrsb.w	r3, [r3]
 800afae:	460f      	mov	r7, r1
 800afb0:	3301      	adds	r3, #1
 800afb2:	d018      	beq.n	800afe6 <acos+0x4a>
 800afb4:	4622      	mov	r2, r4
 800afb6:	462b      	mov	r3, r5
 800afb8:	4620      	mov	r0, r4
 800afba:	4629      	mov	r1, r5
 800afbc:	f7f5 fd26 	bl	8000a0c <__aeabi_dcmpun>
 800afc0:	b988      	cbnz	r0, 800afe6 <acos+0x4a>
 800afc2:	4620      	mov	r0, r4
 800afc4:	4629      	mov	r1, r5
 800afc6:	f000 fb3b 	bl	800b640 <fabs>
 800afca:	2200      	movs	r2, #0
 800afcc:	4b08      	ldr	r3, [pc, #32]	; (800aff0 <acos+0x54>)
 800afce:	f7f5 fd13 	bl	80009f8 <__aeabi_dcmpgt>
 800afd2:	b140      	cbz	r0, 800afe6 <acos+0x4a>
 800afd4:	f7fd f90e 	bl	80081f4 <__errno>
 800afd8:	2321      	movs	r3, #33	; 0x21
 800afda:	6003      	str	r3, [r0, #0]
 800afdc:	4805      	ldr	r0, [pc, #20]	; (800aff4 <acos+0x58>)
 800afde:	e8bd 40f8 	ldmia.w	sp!, {r3, r4, r5, r6, r7, lr}
 800afe2:	f000 bb31 	b.w	800b648 <nan>
 800afe6:	4630      	mov	r0, r6
 800afe8:	4639      	mov	r1, r7
 800afea:	bdf8      	pop	{r3, r4, r5, r6, r7, pc}
 800afec:	20000340 	.word	0x20000340
 800aff0:	3ff00000 	.word	0x3ff00000
 800aff4:	0800b733 	.word	0x0800b733

0800aff8 <sqrt>:
 800aff8:	b5f8      	push	{r3, r4, r5, r6, r7, lr}
 800affa:	4606      	mov	r6, r0
 800affc:	460f      	mov	r7, r1
 800affe:	f000 fa73 	bl	800b4e8 <__ieee754_sqrt>
 800b002:	4b12      	ldr	r3, [pc, #72]	; (800b04c <sqrt+0x54>)
 800b004:	4604      	mov	r4, r0
 800b006:	f993 3000 	ldrsb.w	r3, [r3]
 800b00a:	460d      	mov	r5, r1
 800b00c:	3301      	adds	r3, #1
 800b00e:	d019      	beq.n	800b044 <sqrt+0x4c>
 800b010:	4632      	mov	r2, r6
 800b012:	463b      	mov	r3, r7
 800b014:	4630      	mov	r0, r6
 800b016:	4639      	mov	r1, r7
 800b018:	f7f5 fcf8 	bl	8000a0c <__aeabi_dcmpun>
 800b01c:	b990      	cbnz	r0, 800b044 <sqrt+0x4c>
 800b01e:	2200      	movs	r2, #0
 800b020:	2300      	movs	r3, #0
 800b022:	4630      	mov	r0, r6
 800b024:	4639      	mov	r1, r7
 800b026:	f7f5 fcc9 	bl	80009bc <__aeabi_dcmplt>
 800b02a:	b158      	cbz	r0, 800b044 <sqrt+0x4c>
 800b02c:	f7fd f8e2 	bl	80081f4 <__errno>
 800b030:	2321      	movs	r3, #33	; 0x21
 800b032:	2200      	movs	r2, #0
 800b034:	6003      	str	r3, [r0, #0]
 800b036:	2300      	movs	r3, #0
 800b038:	4610      	mov	r0, r2
 800b03a:	4619      	mov	r1, r3
 800b03c:	f7f5 fb76 	bl	800072c <__aeabi_ddiv>
 800b040:	4604      	mov	r4, r0
 800b042:	460d      	mov	r5, r1
 800b044:	4620      	mov	r0, r4
 800b046:	4629      	mov	r1, r5
 800b048:	bdf8      	pop	{r3, r4, r5, r6, r7, pc}
 800b04a:	bf00      	nop
 800b04c:	20000340 	.word	0x20000340

0800b050 <__ieee754_acos>:
 800b050:	e92d 4ff8 	stmdb	sp!, {r3, r4, r5, r6, r7, r8, r9, sl, fp, lr}
 800b054:	4cb2      	ldr	r4, [pc, #712]	; (800b320 <__ieee754_acos+0x2d0>)
 800b056:	f021 4300 	bic.w	r3, r1, #2147483648	; 0x80000000
 800b05a:	42a3      	cmp	r3, r4
 800b05c:	4607      	mov	r7, r0
 800b05e:	460e      	mov	r6, r1
 800b060:	dd16      	ble.n	800b090 <__ieee754_acos+0x40>
 800b062:	f103 4340 	add.w	r3, r3, #3221225472	; 0xc0000000
 800b066:	f503 1380 	add.w	r3, r3, #1048576	; 0x100000
 800b06a:	4303      	orrs	r3, r0
 800b06c:	d107      	bne.n	800b07e <__ieee754_acos+0x2e>
 800b06e:	2900      	cmp	r1, #0
 800b070:	f300 8202 	bgt.w	800b478 <__ieee754_acos+0x428>
 800b074:	a190      	add	r1, pc, #576	; (adr r1, 800b2b8 <__ieee754_acos+0x268>)
 800b076:	e9d1 0100 	ldrd	r0, r1, [r1]
 800b07a:	e8bd 8ff8 	ldmia.w	sp!, {r3, r4, r5, r6, r7, r8, r9, sl, fp, pc}
 800b07e:	4602      	mov	r2, r0
 800b080:	460b      	mov	r3, r1
 800b082:	f7f5 f871 	bl	8000168 <__aeabi_dsub>
 800b086:	4602      	mov	r2, r0
 800b088:	460b      	mov	r3, r1
 800b08a:	f7f5 fb4f 	bl	800072c <__aeabi_ddiv>
 800b08e:	e7f4      	b.n	800b07a <__ieee754_acos+0x2a>
 800b090:	4ca4      	ldr	r4, [pc, #656]	; (800b324 <__ieee754_acos+0x2d4>)
 800b092:	42a3      	cmp	r3, r4
 800b094:	f300 8083 	bgt.w	800b19e <__ieee754_acos+0x14e>
 800b098:	4aa3      	ldr	r2, [pc, #652]	; (800b328 <__ieee754_acos+0x2d8>)
 800b09a:	4293      	cmp	r3, r2
 800b09c:	f340 81ef 	ble.w	800b47e <__ieee754_acos+0x42e>
 800b0a0:	4602      	mov	r2, r0
 800b0a2:	460b      	mov	r3, r1
 800b0a4:	f7f5 fa18 	bl	80004d8 <__aeabi_dmul>
 800b0a8:	a385      	add	r3, pc, #532	; (adr r3, 800b2c0 <__ieee754_acos+0x270>)
 800b0aa:	e9d3 2300 	ldrd	r2, r3, [r3]
 800b0ae:	4604      	mov	r4, r0
 800b0b0:	460d      	mov	r5, r1
 800b0b2:	f7f5 fa11 	bl	80004d8 <__aeabi_dmul>
 800b0b6:	a384      	add	r3, pc, #528	; (adr r3, 800b2c8 <__ieee754_acos+0x278>)
 800b0b8:	e9d3 2300 	ldrd	r2, r3, [r3]
 800b0bc:	f7f5 f856 	bl	800016c <__adddf3>
 800b0c0:	4622      	mov	r2, r4
 800b0c2:	462b      	mov	r3, r5
 800b0c4:	f7f5 fa08 	bl	80004d8 <__aeabi_dmul>
 800b0c8:	a381      	add	r3, pc, #516	; (adr r3, 800b2d0 <__ieee754_acos+0x280>)
 800b0ca:	e9d3 2300 	ldrd	r2, r3, [r3]
 800b0ce:	f7f5 f84b 	bl	8000168 <__aeabi_dsub>
 800b0d2:	4622      	mov	r2, r4
 800b0d4:	462b      	mov	r3, r5
 800b0d6:	f7f5 f9ff 	bl	80004d8 <__aeabi_dmul>
 800b0da:	a37f      	add	r3, pc, #508	; (adr r3, 800b2d8 <__ieee754_acos+0x288>)
 800b0dc:	e9d3 2300 	ldrd	r2, r3, [r3]
 800b0e0:	f7f5 f844 	bl	800016c <__adddf3>
 800b0e4:	4622      	mov	r2, r4
 800b0e6:	462b      	mov	r3, r5
 800b0e8:	f7f5 f9f6 	bl	80004d8 <__aeabi_dmul>
 800b0ec:	a37c      	add	r3, pc, #496	; (adr r3, 800b2e0 <__ieee754_acos+0x290>)
 800b0ee:	e9d3 2300 	ldrd	r2, r3, [r3]
 800b0f2:	f7f5 f839 	bl	8000168 <__aeabi_dsub>
 800b0f6:	4622      	mov	r2, r4
 800b0f8:	462b      	mov	r3, r5
 800b0fa:	f7f5 f9ed 	bl	80004d8 <__aeabi_dmul>
 800b0fe:	a37a      	add	r3, pc, #488	; (adr r3, 800b2e8 <__ieee754_acos+0x298>)
 800b100:	e9d3 2300 	ldrd	r2, r3, [r3]
 800b104:	f7f5 f832 	bl	800016c <__adddf3>
 800b108:	4622      	mov	r2, r4
 800b10a:	462b      	mov	r3, r5
 800b10c:	f7f5 f9e4 	bl	80004d8 <__aeabi_dmul>
 800b110:	a377      	add	r3, pc, #476	; (adr r3, 800b2f0 <__ieee754_acos+0x2a0>)
 800b112:	e9d3 2300 	ldrd	r2, r3, [r3]
 800b116:	4680      	mov	r8, r0
 800b118:	4689      	mov	r9, r1
 800b11a:	4620      	mov	r0, r4
 800b11c:	4629      	mov	r1, r5
 800b11e:	f7f5 f9db 	bl	80004d8 <__aeabi_dmul>
 800b122:	a375      	add	r3, pc, #468	; (adr r3, 800b2f8 <__ieee754_acos+0x2a8>)
 800b124:	e9d3 2300 	ldrd	r2, r3, [r3]
 800b128:	f7f5 f81e 	bl	8000168 <__aeabi_dsub>
 800b12c:	4622      	mov	r2, r4
 800b12e:	462b      	mov	r3, r5
 800b130:	f7f5 f9d2 	bl	80004d8 <__aeabi_dmul>
 800b134:	a372      	add	r3, pc, #456	; (adr r3, 800b300 <__ieee754_acos+0x2b0>)
 800b136:	e9d3 2300 	ldrd	r2, r3, [r3]
 800b13a:	f7f5 f817 	bl	800016c <__adddf3>
 800b13e:	4622      	mov	r2, r4
 800b140:	462b      	mov	r3, r5
 800b142:	f7f5 f9c9 	bl	80004d8 <__aeabi_dmul>
 800b146:	a370      	add	r3, pc, #448	; (adr r3, 800b308 <__ieee754_acos+0x2b8>)
 800b148:	e9d3 2300 	ldrd	r2, r3, [r3]
 800b14c:	f7f5 f80c 	bl	8000168 <__aeabi_dsub>
 800b150:	4622      	mov	r2, r4
 800b152:	462b      	mov	r3, r5
 800b154:	f7f5 f9c0 	bl	80004d8 <__aeabi_dmul>
 800b158:	2200      	movs	r2, #0
 800b15a:	4b74      	ldr	r3, [pc, #464]	; (800b32c <__ieee754_acos+0x2dc>)
 800b15c:	f7f5 f806 	bl	800016c <__adddf3>
 800b160:	4602      	mov	r2, r0
 800b162:	460b      	mov	r3, r1
 800b164:	4640      	mov	r0, r8
 800b166:	4649      	mov	r1, r9
 800b168:	f7f5 fae0 	bl	800072c <__aeabi_ddiv>
 800b16c:	463a      	mov	r2, r7
 800b16e:	4633      	mov	r3, r6
 800b170:	f7f5 f9b2 	bl	80004d8 <__aeabi_dmul>
 800b174:	4602      	mov	r2, r0
 800b176:	460b      	mov	r3, r1
 800b178:	a165      	add	r1, pc, #404	; (adr r1, 800b310 <__ieee754_acos+0x2c0>)
 800b17a:	e9d1 0100 	ldrd	r0, r1, [r1]
 800b17e:	f7f4 fff3 	bl	8000168 <__aeabi_dsub>
 800b182:	4602      	mov	r2, r0
 800b184:	460b      	mov	r3, r1
 800b186:	4638      	mov	r0, r7
 800b188:	4631      	mov	r1, r6
 800b18a:	f7f4 ffed 	bl	8000168 <__aeabi_dsub>
 800b18e:	4602      	mov	r2, r0
 800b190:	460b      	mov	r3, r1
 800b192:	a161      	add	r1, pc, #388	; (adr r1, 800b318 <__ieee754_acos+0x2c8>)
 800b194:	e9d1 0100 	ldrd	r0, r1, [r1]
 800b198:	f7f4 ffe6 	bl	8000168 <__aeabi_dsub>
 800b19c:	e76d      	b.n	800b07a <__ieee754_acos+0x2a>
 800b19e:	2900      	cmp	r1, #0
 800b1a0:	f280 80c8 	bge.w	800b334 <__ieee754_acos+0x2e4>
 800b1a4:	2200      	movs	r2, #0
 800b1a6:	4b61      	ldr	r3, [pc, #388]	; (800b32c <__ieee754_acos+0x2dc>)
 800b1a8:	f7f4 ffe0 	bl	800016c <__adddf3>
 800b1ac:	2200      	movs	r2, #0
 800b1ae:	4b60      	ldr	r3, [pc, #384]	; (800b330 <__ieee754_acos+0x2e0>)
 800b1b0:	f7f5 f992 	bl	80004d8 <__aeabi_dmul>
 800b1b4:	a342      	add	r3, pc, #264	; (adr r3, 800b2c0 <__ieee754_acos+0x270>)
 800b1b6:	e9d3 2300 	ldrd	r2, r3, [r3]
 800b1ba:	4604      	mov	r4, r0
 800b1bc:	460d      	mov	r5, r1
 800b1be:	f7f5 f98b 	bl	80004d8 <__aeabi_dmul>
 800b1c2:	a341      	add	r3, pc, #260	; (adr r3, 800b2c8 <__ieee754_acos+0x278>)
 800b1c4:	e9d3 2300 	ldrd	r2, r3, [r3]
 800b1c8:	f7f4 ffd0 	bl	800016c <__adddf3>
 800b1cc:	4622      	mov	r2, r4
 800b1ce:	462b      	mov	r3, r5
 800b1d0:	f7f5 f982 	bl	80004d8 <__aeabi_dmul>
 800b1d4:	a33e      	add	r3, pc, #248	; (adr r3, 800b2d0 <__ieee754_acos+0x280>)
 800b1d6:	e9d3 2300 	ldrd	r2, r3, [r3]
 800b1da:	f7f4 ffc5 	bl	8000168 <__aeabi_dsub>
 800b1de:	4622      	mov	r2, r4
 800b1e0:	462b      	mov	r3, r5
 800b1e2:	f7f5 f979 	bl	80004d8 <__aeabi_dmul>
 800b1e6:	a33c      	add	r3, pc, #240	; (adr r3, 800b2d8 <__ieee754_acos+0x288>)
 800b1e8:	e9d3 2300 	ldrd	r2, r3, [r3]
 800b1ec:	f7f4 ffbe 	bl	800016c <__adddf3>
 800b1f0:	4622      	mov	r2, r4
 800b1f2:	462b      	mov	r3, r5
 800b1f4:	f7f5 f970 	bl	80004d8 <__aeabi_dmul>
 800b1f8:	a339      	add	r3, pc, #228	; (adr r3, 800b2e0 <__ieee754_acos+0x290>)
 800b1fa:	e9d3 2300 	ldrd	r2, r3, [r3]
 800b1fe:	f7f4 ffb3 	bl	8000168 <__aeabi_dsub>
 800b202:	4622      	mov	r2, r4
 800b204:	462b      	mov	r3, r5
 800b206:	f7f5 f967 	bl	80004d8 <__aeabi_dmul>
 800b20a:	a337      	add	r3, pc, #220	; (adr r3, 800b2e8 <__ieee754_acos+0x298>)
 800b20c:	e9d3 2300 	ldrd	r2, r3, [r3]
 800b210:	f7f4 ffac 	bl	800016c <__adddf3>
 800b214:	4622      	mov	r2, r4
 800b216:	462b      	mov	r3, r5
 800b218:	f7f5 f95e 	bl	80004d8 <__aeabi_dmul>
 800b21c:	4680      	mov	r8, r0
 800b21e:	4689      	mov	r9, r1
 800b220:	4620      	mov	r0, r4
 800b222:	4629      	mov	r1, r5
 800b224:	f000 f960 	bl	800b4e8 <__ieee754_sqrt>
 800b228:	a331      	add	r3, pc, #196	; (adr r3, 800b2f0 <__ieee754_acos+0x2a0>)
 800b22a:	e9d3 2300 	ldrd	r2, r3, [r3]
 800b22e:	4606      	mov	r6, r0
 800b230:	460f      	mov	r7, r1
 800b232:	4620      	mov	r0, r4
 800b234:	4629      	mov	r1, r5
 800b236:	f7f5 f94f 	bl	80004d8 <__aeabi_dmul>
 800b23a:	a32f      	add	r3, pc, #188	; (adr r3, 800b2f8 <__ieee754_acos+0x2a8>)
 800b23c:	e9d3 2300 	ldrd	r2, r3, [r3]
 800b240:	f7f4 ff92 	bl	8000168 <__aeabi_dsub>
 800b244:	4622      	mov	r2, r4
 800b246:	462b      	mov	r3, r5
 800b248:	f7f5 f946 	bl	80004d8 <__aeabi_dmul>
 800b24c:	a32c      	add	r3, pc, #176	; (adr r3, 800b300 <__ieee754_acos+0x2b0>)
 800b24e:	e9d3 2300 	ldrd	r2, r3, [r3]
 800b252:	f7f4 ff8b 	bl	800016c <__adddf3>
 800b256:	4622      	mov	r2, r4
 800b258:	462b      	mov	r3, r5
 800b25a:	f7f5 f93d 	bl	80004d8 <__aeabi_dmul>
 800b25e:	a32a      	add	r3, pc, #168	; (adr r3, 800b308 <__ieee754_acos+0x2b8>)
 800b260:	e9d3 2300 	ldrd	r2, r3, [r3]
 800b264:	f7f4 ff80 	bl	8000168 <__aeabi_dsub>
 800b268:	4622      	mov	r2, r4
 800b26a:	462b      	mov	r3, r5
 800b26c:	f7f5 f934 	bl	80004d8 <__aeabi_dmul>
 800b270:	2200      	movs	r2, #0
 800b272:	4b2e      	ldr	r3, [pc, #184]	; (800b32c <__ieee754_acos+0x2dc>)
 800b274:	f7f4 ff7a 	bl	800016c <__adddf3>
 800b278:	4602      	mov	r2, r0
 800b27a:	460b      	mov	r3, r1
 800b27c:	4640      	mov	r0, r8
 800b27e:	4649      	mov	r1, r9
 800b280:	f7f5 fa54 	bl	800072c <__aeabi_ddiv>
 800b284:	4632      	mov	r2, r6
 800b286:	463b      	mov	r3, r7
 800b288:	f7f5 f926 	bl	80004d8 <__aeabi_dmul>
 800b28c:	a320      	add	r3, pc, #128	; (adr r3, 800b310 <__ieee754_acos+0x2c0>)
 800b28e:	e9d3 2300 	ldrd	r2, r3, [r3]
 800b292:	f7f4 ff69 	bl	8000168 <__aeabi_dsub>
 800b296:	4632      	mov	r2, r6
 800b298:	463b      	mov	r3, r7
 800b29a:	f7f4 ff67 	bl	800016c <__adddf3>
 800b29e:	4602      	mov	r2, r0
 800b2a0:	460b      	mov	r3, r1
 800b2a2:	f7f4 ff63 	bl	800016c <__adddf3>
 800b2a6:	4602      	mov	r2, r0
 800b2a8:	460b      	mov	r3, r1
 800b2aa:	a103      	add	r1, pc, #12	; (adr r1, 800b2b8 <__ieee754_acos+0x268>)
 800b2ac:	e9d1 0100 	ldrd	r0, r1, [r1]
 800b2b0:	e772      	b.n	800b198 <__ieee754_acos+0x148>
 800b2b2:	bf00      	nop
 800b2b4:	f3af 8000 	nop.w
 800b2b8:	54442d18 	.word	0x54442d18
 800b2bc:	400921fb 	.word	0x400921fb
 800b2c0:	0dfdf709 	.word	0x0dfdf709
 800b2c4:	3f023de1 	.word	0x3f023de1
 800b2c8:	7501b288 	.word	0x7501b288
 800b2cc:	3f49efe0 	.word	0x3f49efe0
 800b2d0:	b5688f3b 	.word	0xb5688f3b
 800b2d4:	3fa48228 	.word	0x3fa48228
 800b2d8:	0e884455 	.word	0x0e884455
 800b2dc:	3fc9c155 	.word	0x3fc9c155
 800b2e0:	03eb6f7d 	.word	0x03eb6f7d
 800b2e4:	3fd4d612 	.word	0x3fd4d612
 800b2e8:	55555555 	.word	0x55555555
 800b2ec:	3fc55555 	.word	0x3fc55555
 800b2f0:	b12e9282 	.word	0xb12e9282
 800b2f4:	3fb3b8c5 	.word	0x3fb3b8c5
 800b2f8:	1b8d0159 	.word	0x1b8d0159
 800b2fc:	3fe6066c 	.word	0x3fe6066c
 800b300:	9c598ac8 	.word	0x9c598ac8
 800b304:	40002ae5 	.word	0x40002ae5
 800b308:	1c8a2d4b 	.word	0x1c8a2d4b
 800b30c:	40033a27 	.word	0x40033a27
 800b310:	33145c07 	.word	0x33145c07
 800b314:	3c91a626 	.word	0x3c91a626
 800b318:	54442d18 	.word	0x54442d18
 800b31c:	3ff921fb 	.word	0x3ff921fb
 800b320:	3fefffff 	.word	0x3fefffff
 800b324:	3fdfffff 	.word	0x3fdfffff
 800b328:	3c600000 	.word	0x3c600000
 800b32c:	3ff00000 	.word	0x3ff00000
 800b330:	3fe00000 	.word	0x3fe00000
 800b334:	4602      	mov	r2, r0
 800b336:	460b      	mov	r3, r1
 800b338:	2000      	movs	r0, #0
 800b33a:	4969      	ldr	r1, [pc, #420]	; (800b4e0 <__ieee754_acos+0x490>)
 800b33c:	f7f4 ff14 	bl	8000168 <__aeabi_dsub>
 800b340:	2200      	movs	r2, #0
 800b342:	4b68      	ldr	r3, [pc, #416]	; (800b4e4 <__ieee754_acos+0x494>)
 800b344:	f7f5 f8c8 	bl	80004d8 <__aeabi_dmul>
 800b348:	4604      	mov	r4, r0
 800b34a:	460d      	mov	r5, r1
 800b34c:	f000 f8cc 	bl	800b4e8 <__ieee754_sqrt>
 800b350:	a34d      	add	r3, pc, #308	; (adr r3, 800b488 <__ieee754_acos+0x438>)
 800b352:	e9d3 2300 	ldrd	r2, r3, [r3]
 800b356:	4689      	mov	r9, r1
 800b358:	4680      	mov	r8, r0
 800b35a:	4629      	mov	r1, r5
 800b35c:	4620      	mov	r0, r4
 800b35e:	f7f5 f8bb 	bl	80004d8 <__aeabi_dmul>
 800b362:	a34b      	add	r3, pc, #300	; (adr r3, 800b490 <__ieee754_acos+0x440>)
 800b364:	e9d3 2300 	ldrd	r2, r3, [r3]
 800b368:	f7f4 ff00 	bl	800016c <__adddf3>
 800b36c:	4622      	mov	r2, r4
 800b36e:	462b      	mov	r3, r5
 800b370:	f7f5 f8b2 	bl	80004d8 <__aeabi_dmul>
 800b374:	a348      	add	r3, pc, #288	; (adr r3, 800b498 <__ieee754_acos+0x448>)
 800b376:	e9d3 2300 	ldrd	r2, r3, [r3]
 800b37a:	f7f4 fef5 	bl	8000168 <__aeabi_dsub>
 800b37e:	4622      	mov	r2, r4
 800b380:	462b      	mov	r3, r5
 800b382:	f7f5 f8a9 	bl	80004d8 <__aeabi_dmul>
 800b386:	a346      	add	r3, pc, #280	; (adr r3, 800b4a0 <__ieee754_acos+0x450>)
 800b388:	e9d3 2300 	ldrd	r2, r3, [r3]
 800b38c:	f7f4 feee 	bl	800016c <__adddf3>
 800b390:	4622      	mov	r2, r4
 800b392:	462b      	mov	r3, r5
 800b394:	f7f5 f8a0 	bl	80004d8 <__aeabi_dmul>
 800b398:	a343      	add	r3, pc, #268	; (adr r3, 800b4a8 <__ieee754_acos+0x458>)
 800b39a:	e9d3 2300 	ldrd	r2, r3, [r3]
 800b39e:	f7f4 fee3 	bl	8000168 <__aeabi_dsub>
 800b3a2:	4622      	mov	r2, r4
 800b3a4:	462b      	mov	r3, r5
 800b3a6:	f7f5 f897 	bl	80004d8 <__aeabi_dmul>
 800b3aa:	a341      	add	r3, pc, #260	; (adr r3, 800b4b0 <__ieee754_acos+0x460>)
 800b3ac:	e9d3 2300 	ldrd	r2, r3, [r3]
 800b3b0:	f7f4 fedc 	bl	800016c <__adddf3>
 800b3b4:	4622      	mov	r2, r4
 800b3b6:	462b      	mov	r3, r5
 800b3b8:	f7f5 f88e 	bl	80004d8 <__aeabi_dmul>
 800b3bc:	a33e      	add	r3, pc, #248	; (adr r3, 800b4b8 <__ieee754_acos+0x468>)
 800b3be:	e9d3 2300 	ldrd	r2, r3, [r3]
 800b3c2:	4682      	mov	sl, r0
 800b3c4:	468b      	mov	fp, r1
 800b3c6:	4620      	mov	r0, r4
 800b3c8:	4629      	mov	r1, r5
 800b3ca:	f7f5 f885 	bl	80004d8 <__aeabi_dmul>
 800b3ce:	a33c      	add	r3, pc, #240	; (adr r3, 800b4c0 <__ieee754_acos+0x470>)
 800b3d0:	e9d3 2300 	ldrd	r2, r3, [r3]
 800b3d4:	f7f4 fec8 	bl	8000168 <__aeabi_dsub>
 800b3d8:	4622      	mov	r2, r4
 800b3da:	462b      	mov	r3, r5
 800b3dc:	f7f5 f87c 	bl	80004d8 <__aeabi_dmul>
 800b3e0:	a339      	add	r3, pc, #228	; (adr r3, 800b4c8 <__ieee754_acos+0x478>)
 800b3e2:	e9d3 2300 	ldrd	r2, r3, [r3]
 800b3e6:	f7f4 fec1 	bl	800016c <__adddf3>
 800b3ea:	4622      	mov	r2, r4
 800b3ec:	462b      	mov	r3, r5
 800b3ee:	f7f5 f873 	bl	80004d8 <__aeabi_dmul>
 800b3f2:	a337      	add	r3, pc, #220	; (adr r3, 800b4d0 <__ieee754_acos+0x480>)
 800b3f4:	e9d3 2300 	ldrd	r2, r3, [r3]
 800b3f8:	f7f4 feb6 	bl	8000168 <__aeabi_dsub>
 800b3fc:	4622      	mov	r2, r4
 800b3fe:	462b      	mov	r3, r5
 800b400:	f7f5 f86a 	bl	80004d8 <__aeabi_dmul>
 800b404:	2200      	movs	r2, #0
 800b406:	4b36      	ldr	r3, [pc, #216]	; (800b4e0 <__ieee754_acos+0x490>)
 800b408:	f7f4 feb0 	bl	800016c <__adddf3>
 800b40c:	4602      	mov	r2, r0
 800b40e:	460b      	mov	r3, r1
 800b410:	4650      	mov	r0, sl
 800b412:	4659      	mov	r1, fp
 800b414:	f7f5 f98a 	bl	800072c <__aeabi_ddiv>
 800b418:	4642      	mov	r2, r8
 800b41a:	464b      	mov	r3, r9
 800b41c:	f7f5 f85c 	bl	80004d8 <__aeabi_dmul>
 800b420:	2600      	movs	r6, #0
 800b422:	4682      	mov	sl, r0
 800b424:	468b      	mov	fp, r1
 800b426:	4632      	mov	r2, r6
 800b428:	464b      	mov	r3, r9
 800b42a:	4630      	mov	r0, r6
 800b42c:	4649      	mov	r1, r9
 800b42e:	f7f5 f853 	bl	80004d8 <__aeabi_dmul>
 800b432:	4602      	mov	r2, r0
 800b434:	460b      	mov	r3, r1
 800b436:	4620      	mov	r0, r4
 800b438:	4629      	mov	r1, r5
 800b43a:	f7f4 fe95 	bl	8000168 <__aeabi_dsub>
 800b43e:	4632      	mov	r2, r6
 800b440:	4604      	mov	r4, r0
 800b442:	460d      	mov	r5, r1
 800b444:	464b      	mov	r3, r9
 800b446:	4640      	mov	r0, r8
 800b448:	4649      	mov	r1, r9
 800b44a:	f7f4 fe8f 	bl	800016c <__adddf3>
 800b44e:	4602      	mov	r2, r0
 800b450:	460b      	mov	r3, r1
 800b452:	4620      	mov	r0, r4
 800b454:	4629      	mov	r1, r5
 800b456:	f7f5 f969 	bl	800072c <__aeabi_ddiv>
 800b45a:	4602      	mov	r2, r0
 800b45c:	460b      	mov	r3, r1
 800b45e:	4650      	mov	r0, sl
 800b460:	4659      	mov	r1, fp
 800b462:	f7f4 fe83 	bl	800016c <__adddf3>
 800b466:	4632      	mov	r2, r6
 800b468:	464b      	mov	r3, r9
 800b46a:	f7f4 fe7f 	bl	800016c <__adddf3>
 800b46e:	4602      	mov	r2, r0
 800b470:	460b      	mov	r3, r1
 800b472:	f7f4 fe7b 	bl	800016c <__adddf3>
 800b476:	e600      	b.n	800b07a <__ieee754_acos+0x2a>
 800b478:	2000      	movs	r0, #0
 800b47a:	2100      	movs	r1, #0
 800b47c:	e5fd      	b.n	800b07a <__ieee754_acos+0x2a>
 800b47e:	a116      	add	r1, pc, #88	; (adr r1, 800b4d8 <__ieee754_acos+0x488>)
 800b480:	e9d1 0100 	ldrd	r0, r1, [r1]
 800b484:	e5f9      	b.n	800b07a <__ieee754_acos+0x2a>
 800b486:	bf00      	nop
 800b488:	0dfdf709 	.word	0x0dfdf709
 800b48c:	3f023de1 	.word	0x3f023de1
 800b490:	7501b288 	.word	0x7501b288
 800b494:	3f49efe0 	.word	0x3f49efe0
 800b498:	b5688f3b 	.word	0xb5688f3b
 800b49c:	3fa48228 	.word	0x3fa48228
 800b4a0:	0e884455 	.word	0x0e884455
 800b4a4:	3fc9c155 	.word	0x3fc9c155
 800b4a8:	03eb6f7d 	.word	0x03eb6f7d
 800b4ac:	3fd4d612 	.word	0x3fd4d612
 800b4b0:	55555555 	.word	0x55555555
 800b4b4:	3fc55555 	.word	0x3fc55555
 800b4b8:	b12e9282 	.word	0xb12e9282
 800b4bc:	3fb3b8c5 	.word	0x3fb3b8c5
 800b4c0:	1b8d0159 	.word	0x1b8d0159
 800b4c4:	3fe6066c 	.word	0x3fe6066c
 800b4c8:	9c598ac8 	.word	0x9c598ac8
 800b4cc:	40002ae5 	.word	0x40002ae5
 800b4d0:	1c8a2d4b 	.word	0x1c8a2d4b
 800b4d4:	40033a27 	.word	0x40033a27
 800b4d8:	54442d18 	.word	0x54442d18
 800b4dc:	3ff921fb 	.word	0x3ff921fb
 800b4e0:	3ff00000 	.word	0x3ff00000
 800b4e4:	3fe00000 	.word	0x3fe00000

0800b4e8 <__ieee754_sqrt>:
 800b4e8:	f8df c150 	ldr.w	ip, [pc, #336]	; 800b63c <__ieee754_sqrt+0x154>
 800b4ec:	e92d 41f0 	stmdb	sp!, {r4, r5, r6, r7, r8, lr}
 800b4f0:	ea3c 0c01 	bics.w	ip, ip, r1
 800b4f4:	460b      	mov	r3, r1
 800b4f6:	4606      	mov	r6, r0
 800b4f8:	460d      	mov	r5, r1
 800b4fa:	460a      	mov	r2, r1
 800b4fc:	4607      	mov	r7, r0
 800b4fe:	4604      	mov	r4, r0
 800b500:	d10e      	bne.n	800b520 <__ieee754_sqrt+0x38>
 800b502:	4602      	mov	r2, r0
 800b504:	f7f4 ffe8 	bl	80004d8 <__aeabi_dmul>
 800b508:	4602      	mov	r2, r0
 800b50a:	460b      	mov	r3, r1
 800b50c:	4630      	mov	r0, r6
 800b50e:	4629      	mov	r1, r5
 800b510:	f7f4 fe2c 	bl	800016c <__adddf3>
 800b514:	4606      	mov	r6, r0
 800b516:	460d      	mov	r5, r1
 800b518:	4630      	mov	r0, r6
 800b51a:	4629      	mov	r1, r5
 800b51c:	e8bd 81f0 	ldmia.w	sp!, {r4, r5, r6, r7, r8, pc}
 800b520:	2900      	cmp	r1, #0
 800b522:	dc0d      	bgt.n	800b540 <__ieee754_sqrt+0x58>
 800b524:	f021 4c00 	bic.w	ip, r1, #2147483648	; 0x80000000
 800b528:	ea5c 0707 	orrs.w	r7, ip, r7
 800b52c:	d0f4      	beq.n	800b518 <__ieee754_sqrt+0x30>
 800b52e:	b139      	cbz	r1, 800b540 <__ieee754_sqrt+0x58>
 800b530:	4602      	mov	r2, r0
 800b532:	f7f4 fe19 	bl	8000168 <__aeabi_dsub>
 800b536:	4602      	mov	r2, r0
 800b538:	460b      	mov	r3, r1
 800b53a:	f7f5 f8f7 	bl	800072c <__aeabi_ddiv>
 800b53e:	e7e9      	b.n	800b514 <__ieee754_sqrt+0x2c>
 800b540:	1512      	asrs	r2, r2, #20
 800b542:	d074      	beq.n	800b62e <__ieee754_sqrt+0x146>
 800b544:	2000      	movs	r0, #0
 800b546:	07d5      	lsls	r5, r2, #31
 800b548:	f3c3 0313 	ubfx	r3, r3, #0, #20
 800b54c:	f443 1180 	orr.w	r1, r3, #1048576	; 0x100000
 800b550:	bf5e      	ittt	pl
 800b552:	0fe3      	lsrpl	r3, r4, #31
 800b554:	0064      	lslpl	r4, r4, #1
 800b556:	eb03 0141 	addpl.w	r1, r3, r1, lsl #1
 800b55a:	0fe3      	lsrs	r3, r4, #31
 800b55c:	f2a2 36ff 	subw	r6, r2, #1023	; 0x3ff
 800b560:	eb03 0341 	add.w	r3, r3, r1, lsl #1
 800b564:	2516      	movs	r5, #22
 800b566:	4601      	mov	r1, r0
 800b568:	f44f 1200 	mov.w	r2, #2097152	; 0x200000
 800b56c:	1076      	asrs	r6, r6, #1
 800b56e:	0064      	lsls	r4, r4, #1
 800b570:	188f      	adds	r7, r1, r2
 800b572:	429f      	cmp	r7, r3
 800b574:	bfde      	ittt	le
 800b576:	1bdb      	suble	r3, r3, r7
 800b578:	18b9      	addle	r1, r7, r2
 800b57a:	1880      	addle	r0, r0, r2
 800b57c:	005b      	lsls	r3, r3, #1
 800b57e:	3d01      	subs	r5, #1
 800b580:	eb03 73d4 	add.w	r3, r3, r4, lsr #31
 800b584:	ea4f 0252 	mov.w	r2, r2, lsr #1
 800b588:	ea4f 0444 	mov.w	r4, r4, lsl #1
 800b58c:	d1f0      	bne.n	800b570 <__ieee754_sqrt+0x88>
 800b58e:	462a      	mov	r2, r5
 800b590:	f04f 0e20 	mov.w	lr, #32
 800b594:	f04f 4700 	mov.w	r7, #2147483648	; 0x80000000
 800b598:	428b      	cmp	r3, r1
 800b59a:	eb07 0c05 	add.w	ip, r7, r5
 800b59e:	dc02      	bgt.n	800b5a6 <__ieee754_sqrt+0xbe>
 800b5a0:	d113      	bne.n	800b5ca <__ieee754_sqrt+0xe2>
 800b5a2:	45a4      	cmp	ip, r4
 800b5a4:	d811      	bhi.n	800b5ca <__ieee754_sqrt+0xe2>
 800b5a6:	f1bc 0f00 	cmp.w	ip, #0
 800b5aa:	eb0c 0507 	add.w	r5, ip, r7
 800b5ae:	da43      	bge.n	800b638 <__ieee754_sqrt+0x150>
 800b5b0:	2d00      	cmp	r5, #0
 800b5b2:	db41      	blt.n	800b638 <__ieee754_sqrt+0x150>
 800b5b4:	f101 0801 	add.w	r8, r1, #1
 800b5b8:	1a5b      	subs	r3, r3, r1
 800b5ba:	4641      	mov	r1, r8
 800b5bc:	45a4      	cmp	ip, r4
 800b5be:	bf88      	it	hi
 800b5c0:	f103 33ff 	addhi.w	r3, r3, #4294967295	; 0xffffffff
 800b5c4:	eba4 040c 	sub.w	r4, r4, ip
 800b5c8:	443a      	add	r2, r7
 800b5ca:	005b      	lsls	r3, r3, #1
 800b5cc:	f1be 0e01 	subs.w	lr, lr, #1
 800b5d0:	eb03 73d4 	add.w	r3, r3, r4, lsr #31
 800b5d4:	ea4f 0757 	mov.w	r7, r7, lsr #1
 800b5d8:	ea4f 0444 	mov.w	r4, r4, lsl #1
 800b5dc:	d1dc      	bne.n	800b598 <__ieee754_sqrt+0xb0>
 800b5de:	4323      	orrs	r3, r4
 800b5e0:	d006      	beq.n	800b5f0 <__ieee754_sqrt+0x108>
 800b5e2:	1c54      	adds	r4, r2, #1
 800b5e4:	bf0b      	itete	eq
 800b5e6:	4672      	moveq	r2, lr
 800b5e8:	3201      	addne	r2, #1
 800b5ea:	3001      	addeq	r0, #1
 800b5ec:	f022 0201 	bicne.w	r2, r2, #1
 800b5f0:	1043      	asrs	r3, r0, #1
 800b5f2:	07c1      	lsls	r1, r0, #31
 800b5f4:	ea4f 0252 	mov.w	r2, r2, lsr #1
 800b5f8:	f103 537f 	add.w	r3, r3, #1069547520	; 0x3fc00000
 800b5fc:	f503 1300 	add.w	r3, r3, #2097152	; 0x200000
 800b600:	bf48      	it	mi
 800b602:	f042 4200 	orrmi.w	r2, r2, #2147483648	; 0x80000000
 800b606:	4610      	mov	r0, r2
 800b608:	eb03 5106 	add.w	r1, r3, r6, lsl #20
 800b60c:	e782      	b.n	800b514 <__ieee754_sqrt+0x2c>
 800b60e:	0ae3      	lsrs	r3, r4, #11
 800b610:	3915      	subs	r1, #21
 800b612:	0564      	lsls	r4, r4, #21
 800b614:	2b00      	cmp	r3, #0
 800b616:	d0fa      	beq.n	800b60e <__ieee754_sqrt+0x126>
 800b618:	02de      	lsls	r6, r3, #11
 800b61a:	d50a      	bpl.n	800b632 <__ieee754_sqrt+0x14a>
 800b61c:	f1c2 0020 	rsb	r0, r2, #32
 800b620:	fa24 f000 	lsr.w	r0, r4, r0
 800b624:	1e55      	subs	r5, r2, #1
 800b626:	4094      	lsls	r4, r2
 800b628:	4303      	orrs	r3, r0
 800b62a:	1b4a      	subs	r2, r1, r5
 800b62c:	e78a      	b.n	800b544 <__ieee754_sqrt+0x5c>
 800b62e:	4611      	mov	r1, r2
 800b630:	e7f0      	b.n	800b614 <__ieee754_sqrt+0x12c>
 800b632:	005b      	lsls	r3, r3, #1
 800b634:	3201      	adds	r2, #1
 800b636:	e7ef      	b.n	800b618 <__ieee754_sqrt+0x130>
 800b638:	4688      	mov	r8, r1
 800b63a:	e7bd      	b.n	800b5b8 <__ieee754_sqrt+0xd0>
 800b63c:	7ff00000 	.word	0x7ff00000

0800b640 <fabs>:
 800b640:	f021 4100 	bic.w	r1, r1, #2147483648	; 0x80000000
 800b644:	4770      	bx	lr
	...

0800b648 <nan>:
 800b648:	2000      	movs	r0, #0
 800b64a:	4901      	ldr	r1, [pc, #4]	; (800b650 <nan+0x8>)
 800b64c:	4770      	bx	lr
 800b64e:	bf00      	nop
 800b650:	7ff80000 	.word	0x7ff80000

0800b654 <_init>:
 800b654:	b5f8      	push	{r3, r4, r5, r6, r7, lr}
 800b656:	bf00      	nop
 800b658:	bcf8      	pop	{r3, r4, r5, r6, r7}
 800b65a:	bc08      	pop	{r3}
 800b65c:	469e      	mov	lr, r3
 800b65e:	4770      	bx	lr

0800b660 <_fini>:
 800b660:	b5f8      	push	{r3, r4, r5, r6, r7, lr}
 800b662:	bf00      	nop
 800b664:	bcf8      	pop	{r3, r4, r5, r6, r7}
 800b666:	bc08      	pop	{r3}
 800b668:	469e      	mov	lr, r3
 800b66a:	4770      	bx	lr
